(lp1
(S'Megadeth'
p2
S'Train of Consequences'
p3
S'http://www.last.fm/music/Megadeth/_/Train+of+Consequences'
p4
S'1349191185'
p5
tp6
a(S'Metallica'
p7
S'The God That Failed'
p8
S'http://www.last.fm/music/Metallica/_/The+God+That+Failed'
p9
S'1349190877'
p10
tp11
a(S'Iron Maiden'
p12
S'Fear of the Dark'
p13
S'http://www.last.fm/music/Iron+Maiden/_/Fear+of+the+Dark'
p14
S'1349190440'
p15
tp16
a(S'Iron Maiden'
p17
S'Purgatory'
p18
S'http://www.last.fm/music/Iron+Maiden/_/Purgatory'
p19
S'1349190240'
p20
tp21
a(S'Jerry Cantrell'
p22
S'Between'
p23
S'http://www.last.fm/music/Jerry+Cantrell/_/Between'
p24
S'1349190023'
p25
tp26
a(S'Metallica'
p27
S'Wasting My Hate'
p28
S'http://www.last.fm/music/Metallica/_/Wasting+My+Hate'
p29
S'1349189786'
p30
tp31
a(S'Alice in Chains'
p32
S'Lesson Learned'
p33
S'http://www.last.fm/music/Alice+in+Chains/_/Lesson+Learned'
p34
S'1349189529'
p35
tp36
a(S'Metallica'
p37
S'Cyanide'
p38
S'http://www.last.fm/music/Metallica/_/Cyanide'
p39
S'1349189129'
p40
tp41
a(S'Iron Maiden'
p42
S'Rainmaker'
p43
S'http://www.last.fm/music/Iron+Maiden/_/Rainmaker'
p44
S'1349188901'
p45
tp46
a(S'Jerry Cantrell'
p47
S'Keep The Light On'
p48
S'http://www.last.fm/music/Jerry+Cantrell/_/Keep+The+Light+On'
p49
S'1349188614'
p50
tp51
a(S'Megadeth'
p52
S'Seven'
p53
S'http://www.last.fm/music/Megadeth/_/Seven'
p54
S'1349187575'
p55
tp56
a(S'Metallica'
p57
S'Hit the Lights'
p58
S'http://www.last.fm/music/Metallica/_/Hit+the+Lights'
p59
S'1349187317'
p60
tp61
a(S'Metallica'
p62
S'Of Wolf and Man'
p63
S'http://www.last.fm/music/Metallica/_/Of+Wolf+and+Man'
p64
S'1349187061'
p65
tp66
a(S'Metallica'
p67
S'That Was Just Your Life'
p68
S'http://www.last.fm/music/Metallica/_/That+Was+Just+Your+Life'
p69
S'1349184208'
p70
tp71
a(S'Metallica'
p72
S'Slither'
p73
S'http://www.last.fm/music/Metallica/_/Slither'
p74
S'1349183894'
p75
tp76
a(S'Jerry Cantrell'
p77
S'Dickeye'
p78
S'http://www.last.fm/music/Jerry+Cantrell/_/Dickeye'
p79
S'1349183402'
p80
tp81
a(S'Iron Maiden'
p82
S'Purgatory'
p83
S'http://www.last.fm/music/Iron+Maiden/_/Purgatory'
p84
S'1349183201'
p85
tp86
a(S'Metallica'
p87
S'Hit the Lights'
p88
S'http://www.last.fm/music/Metallica/_/Hit+the+Lights'
p89
S'1349182901'
p90
tp91
a(S'Megadeth'
p92
S'A Secret Place'
p93
S'http://www.last.fm/music/Megadeth/_/A+Secret+Place'
p94
S'1349182576'
p95
tp96
a(S'Megadeth'
p97
S'Train of Consequences'
p98
S'http://www.last.fm/music/Megadeth/_/Train+of+Consequences'
p99
S'1349182370'
p100
tp101
a(S'Jerry Cantrell'
p102
S'Dickeye'
p103
S'http://www.last.fm/music/Jerry+Cantrell/_/Dickeye'
p104
S'1349181704'
p105
tp106
a(S'Iron Maiden'
p107
S'Rainmaker'
p108
S'http://www.last.fm/music/Iron+Maiden/_/Rainmaker'
p109
S'1349181476'
p110
tp111
a(S'Metallica'
p112
S'The Shortest Straw'
p113
S'http://www.last.fm/music/Metallica/_/The+Shortest+Straw'
p114
S'1349181024'
p115
tp116
a(S'Metallica'
p117
S'2 X 4'
p118
S'http://www.last.fm/music/Metallica/_/2+X+4'
p119
S'1349180695'
p120
tp121
a(S'Metallica'
p122
S'That Was Just Your Life'
p123
S'http://www.last.fm/music/Metallica/_/That+Was+Just+Your+Life'
p124
S'1349179805'
p125
tp126
a(S'Jerry Cantrell'
p127
S'Between'
p128
S'http://www.last.fm/music/Jerry+Cantrell/_/Between'
p129
S'1349179588'
p130
tp131
a(S'Metallica'
p132
S'Wasting My Hate'
p133
S'http://www.last.fm/music/Metallica/_/Wasting+My+Hate'
p134
S'1349177663'
p135
tp136
a(S'Metallica'
p137
S'The God That Failed'
p138
S'http://www.last.fm/music/Metallica/_/The+God+That+Failed'
p139
S'1349177354'
p140
tp141
a(S'Jerry Cantrell'
p142
S'Keep The Light On'
p143
S'http://www.last.fm/music/Jerry+Cantrell/_/Keep+The+Light+On'
p144
S'1349177068'
p145
tp146
a(S'Iron Maiden'
p147
S'The Apparition'
p148
S'http://www.last.fm/music/Iron+Maiden/_/The+Apparition'
p149
S'1349176833'
p150
tp151
a(S'Jerry Cantrell'
p152
S'My Song'
p153
S'http://www.last.fm/music/Jerry+Cantrell/_/My+Song'
p154
S'1349176587'
p155
tp156
a(S'Metallica'
p157
S'Cyanide'
p158
S'http://www.last.fm/music/Metallica/_/Cyanide'
p159
S'1349176187'
p160
tp161
a(S'Alice in Chains'
p162
S'Your Decision'
p163
S'http://www.last.fm/music/Alice+in+Chains/_/Your+Decision'
p164
S'1349116828'
p165
tp166
a(S'Alice in Chains'
p167
S'Lesson Learned'
p168
S'http://www.last.fm/music/Alice+in+Chains/_/Lesson+Learned'
p169
S'1349116571'
p170
tp171
a(S'Iron Maiden'
p172
S'Purgatory'
p173
S'http://www.last.fm/music/Iron+Maiden/_/Purgatory'
p174
S'1349116371'
p175
tp176
a(S'Megadeth'
p177
S'Seven'
p178
S'http://www.last.fm/music/Megadeth/_/Seven'
p179
S'1349116085'
p180
tp181
a(S'Jerry Cantrell'
p182
S'Devil By His Side'
p183
S'http://www.last.fm/music/Jerry+Cantrell/_/Devil+By+His+Side'
p184
S'1349115795'
p185
tp186
a(S'Iron Maiden'
p187
S'Prodigal Son'
p188
S'http://www.last.fm/music/Iron+Maiden/_/Prodigal+Son'
p189
S'1349114464'
p190
tp191
a(S'Megadeth'
p192
S'Angry Again'
p193
S'http://www.last.fm/music/Megadeth/_/Angry+Again'
p194
S'1349114235'
p195
tp196
a(S'Metallica'
p197
S'Slither'
p198
S'http://www.last.fm/music/Metallica/_/Slither'
p199
S'1349113921'
p200
tp201
a(S'Iron Maiden'
p202
S'The Evil That Men Do'
p203
S'http://www.last.fm/music/Iron+Maiden/_/The+Evil+That+Men+Do'
p204
S'1349113614'
p205
tp206
a(S'Metallica'
p207
S'Of Wolf and Man'
p208
S'http://www.last.fm/music/Metallica/_/Of+Wolf+and+Man'
p209
S'1349113358'
p210
tp211
a(S'Metallica'
p212
S'Bad Seed'
p213
S'http://www.last.fm/music/Metallica/_/Bad+Seed'
p214
S'1349113113'
p215
tp216
a(S'Iron Maiden'
p217
S'Rainmaker'
p218
S'http://www.last.fm/music/Iron+Maiden/_/Rainmaker'
p219
S'1348866735'
p220
tp221
a(S'Megadeth'
p222
S'Train of Consequences'
p223
S'http://www.last.fm/music/Megadeth/_/Train+of+Consequences'
p224
S'1348866528'
p225
tp226
a(S'Metallica'
p227
S'Wasting My Hate'
p228
S'http://www.last.fm/music/Metallica/_/Wasting+My+Hate'
p229
S'1348864914'
p230
tp231
a(S'Iron Maiden'
p232
S'Purgatory'
p233
S'http://www.last.fm/music/Iron+Maiden/_/Purgatory'
p234
S'1348864714'
p235
tp236
a(S'Metallica'
p237
S'Of Wolf and Man'
p238
S'http://www.last.fm/music/Metallica/_/Of+Wolf+and+Man'
p239
S'1348864458'
p240
tp241
a(S'Megadeth'
p242
S'Angry Again'
p243
S'http://www.last.fm/music/Megadeth/_/Angry+Again'
p244
S'1348864229'
p245
tp246
a(S'Metallica'
p247
S'Sad But True'
p248
S'http://www.last.fm/music/Metallica/_/Sad+But+True'
p249
S'1348863904'
p250
tp251
a(S'Metallica'
p252
S'The Shortest Straw'
p253
S'http://www.last.fm/music/Metallica/_/The+Shortest+Straw'
p254
S'1348863508'
p255
tp256
a(S'Metallica'
p257
S'Holier Than Thou'
p258
S'http://www.last.fm/music/Metallica/_/Holier+Than+Thou'
p259
S'1348863262'
p260
tp261
a(S'Metallica'
p262
S'Bad Seed'
p263
S'http://www.last.fm/music/Metallica/_/Bad+Seed'
p264
S'1348863017'
p265
tp266
a(S'Metallica'
p267
S'The End of the Line'
p268
S'http://www.last.fm/music/Metallica/_/The+End+of+the+Line'
p269
S'1348862742'
p270
tp271
a(S'Metallica'
p272
S'Wasting My Hate'
p273
S'http://www.last.fm/music/Metallica/_/Wasting+My+Hate'
p274
S'1348862504'
p275
tp276
a(S'Metallica'
p277
S'Wasting My Hate'
p278
S'http://www.last.fm/music/Metallica/_/Wasting+My+Hate'
p279
S'1348861864'
p280
tp281
a(S'Metallica'
p282
S'Bad Seed'
p283
S'http://www.last.fm/music/Metallica/_/Bad+Seed'
p284
S'1348861583'
p285
tp286
a(S'Metallica'
p287
S'Bad Seed'
p288
S'http://www.last.fm/music/Metallica/_/Bad+Seed'
p289
S'1348861168'
p290
tp291
a(S'Metallica'
p292
S'Hit the Lights'
p293
S'http://www.last.fm/music/Metallica/_/Hit+the+Lights'
p294
S'1348177598'
p295
tp296
a(S'Iron Maiden'
p297
S'The Apparition'
p298
S'http://www.last.fm/music/Iron+Maiden/_/The+Apparition'
p299
S'1348177291'
p300
tp301
a(S'Metallica'
p302
S'Of Wolf and Man'
p303
S'http://www.last.fm/music/Metallica/_/Of+Wolf+and+Man'
p304
S'1348177035'
p305
tp306
a(S'Metallica'
p307
S'The Frayed Ends of Sanity'
p308
S'http://www.last.fm/music/Metallica/_/The+Frayed+Ends+of+Sanity'
p309
S'1348176570'
p310
tp311
a(S'Iron Maiden'
p312
S'Prodigal Son'
p313
S'http://www.last.fm/music/Iron+Maiden/_/Prodigal+Son'
p314
S'1348176198'
p315
tp316
a(S'Metallica'
p317
S'The God That Failed'
p318
S'http://www.last.fm/music/Metallica/_/The+God+That+Failed'
p319
S'1348175890'
p320
tp321
a(S'Metallica'
p322
S'Wasting My Hate'
p323
S'http://www.last.fm/music/Metallica/_/Wasting+My+Hate'
p324
S'1348175652'
p325
tp326
a(S'Megadeth'
p327
S'Train of Consequences'
p328
S'http://www.last.fm/music/Megadeth/_/Train+of+Consequences'
p329
S'1348175436'
p330
tp331
a(S'Iron Maiden'
p332
S'Rainmaker'
p333
S'http://www.last.fm/music/Iron+Maiden/_/Rainmaker'
p334
S'1348175207'
p335
tp336
a(S'Megadeth'
p337
S'A Secret Place'
p338
S'http://www.last.fm/music/Megadeth/_/A+Secret+Place'
p339
S'1348174883'
p340
tp341
a(S'Metallica'
p342
S'Slither'
p343
S'http://www.last.fm/music/Metallica/_/Slither'
p344
S'1348172684'
p345
tp346
a(S'Megadeth'
p347
S'Seven'
p348
S'http://www.last.fm/music/Megadeth/_/Seven'
p349
S'1348172398'
p350
tp351
a(S'Metallica'
p352
S'Bad Seed'
p353
S'http://www.last.fm/music/Metallica/_/Bad+Seed'
p354
S'1348172152'
p355
tp356
a(S'Metallica'
p357
S'Bad Seed'
p358
S'http://www.last.fm/music/Metallica/_/Bad+Seed'
p359
S'1348166807'
p360
tp361
a(S'Megadeth'
p362
S'Seven'
p363
S'http://www.last.fm/music/Megadeth/_/Seven'
p364
S'1348089042'
p365
tp366
a(S'Megadeth'
p367
S'Angry Again'
p368
S'http://www.last.fm/music/Megadeth/_/Angry+Again'
p369
S'1348088814'
p370
tp371
a(S'Metallica'
p372
S'Holier Than Thou'
p373
S'http://www.last.fm/music/Metallica/_/Holier+Than+Thou'
p374
S'1348088586'
p375
tp376
a(S'Megadeth'
p377
S'Train of Consequences'
p378
S'http://www.last.fm/music/Megadeth/_/Train+of+Consequences'
p379
S'1348088379'
p380
tp381
a(S'Metallica'
p382
S'The God That Failed'
p383
S'http://www.last.fm/music/Metallica/_/The+God+That+Failed'
p384
S'1348087838'
p385
tp386
a(S'Metallica'
p387
S'That Was Just Your Life'
p388
S'http://www.last.fm/music/Metallica/_/That+Was+Just+Your+Life'
p389
S'1348087409'
p390
tp391
a(S'Metallica'
p392
S'Wasting My Hate'
p393
S'http://www.last.fm/music/Metallica/_/Wasting+My+Hate'
p394
S'1348087172'
p395
tp396
a(S'Iron Maiden'
p397
S'Fear of the Dark'
p398
S'http://www.last.fm/music/Iron+Maiden/_/Fear+of+the+Dark'
p399
S'1348084969'
p400
tp401
a(S'Iron Maiden'
p402
S'Purgatory'
p403
S'http://www.last.fm/music/Iron+Maiden/_/Purgatory'
p404
S'1348084769'
p405
tp406
a(S'Metallica'
p407
S'Slither'
p408
S'http://www.last.fm/music/Metallica/_/Slither'
p409
S'1348084455'
p410
tp411
a(S'Metallica'
p412
S'2 X 4'
p413
S'http://www.last.fm/music/Metallica/_/2+X+4'
p414
S'1348081869'
p415
tp416
a(S'Metallica'
p417
S'Hit the Lights'
p418
S'http://www.last.fm/music/Metallica/_/Hit+the+Lights'
p419
S'1348081523'
p420
tp421
a(S'Metallica'
p422
S'Bad Seed'
p423
S'http://www.last.fm/music/Metallica/_/Bad+Seed'
p424
S'1348081277'
p425
tp426
a(S'Metallica'
p427
S'The Shortest Straw'
p428
S'http://www.last.fm/music/Metallica/_/The+Shortest+Straw'
p429
S'1348060015'
p430
tp431
a(S'Megadeth'
p432
S'A Secret Place'
p433
S'http://www.last.fm/music/Megadeth/_/A+Secret+Place'
p434
S'1348059691'
p435
tp436
a(S'Iron Maiden'
p437
S'Purgatory'
p438
S'http://www.last.fm/music/Iron+Maiden/_/Purgatory'
p439
S'1348059490'
p440
tp441
a(S'Metallica'
p442
S'Slither'
p443
S'http://www.last.fm/music/Metallica/_/Slither'
p444
S'1348059174'
p445
tp446
a(S'Metallica'
p447
S'Bad Seed'
p448
S'http://www.last.fm/music/Metallica/_/Bad+Seed'
p449
S'1348058928'
p450
tp451
a(S'Metallica'
p452
S'Cyanide'
p453
S'http://www.last.fm/music/Metallica/_/Cyanide'
p454
S'1348058531'
p455
tp456
a(S'Metallica'
p457
S'Slither'
p458
S'http://www.last.fm/music/Metallica/_/Slither'
p459
S'1348057997'
p460
tp461
a(S'Metallica'
p462
S'Bad Seed'
p463
S'http://www.last.fm/music/Metallica/_/Bad+Seed'
p464
S'1348057750'
p465
tp466
a(S'Metallica'
p467
S'The Shortest Straw'
p468
S'http://www.last.fm/music/Metallica/_/The+Shortest+Straw'
p469
S'1347975417'
p470
tp471
a(S'Metallica'
p472
S'Of Wolf and Man'
p473
S'http://www.last.fm/music/Metallica/_/Of+Wolf+and+Man'
p474
S'1347975160'
p475
tp476
a(S'Megadeth'
p477
S'A Secret Place'
p478
S'http://www.last.fm/music/Megadeth/_/A+Secret+Place'
p479
S'1347974836'
p480
tp481
a(S'Iron Maiden'
p482
S'The Apparition'
p483
S'http://www.last.fm/music/Iron+Maiden/_/The+Apparition'
p484
S'1347973398'
p485
tp486
a(S'Megadeth'
p487
S'Seven'
p488
S'http://www.last.fm/music/Megadeth/_/Seven'
p489
S'1347973111'
p490
tp491
a(S'Metallica'
p492
S'Hit the Lights'
p493
S'http://www.last.fm/music/Metallica/_/Hit+the+Lights'
p494
S'1347972854'
p495
tp496
a(S'Metallica'
p497
S'The Frayed Ends of Sanity'
p498
S'http://www.last.fm/music/Metallica/_/The+Frayed+Ends+of+Sanity'
p499
S'1347971875'
p500
tp501
a(S'Iron Maiden'
p502
S'Prodigal Son'
p503
S'http://www.last.fm/music/Iron+Maiden/_/Prodigal+Son'
p504
S'1347971503'
p505
tp506
a(S'Metallica'
p507
S'Bad Seed'
p508
S'http://www.last.fm/music/Metallica/_/Bad+Seed'
p509
S'1347971257'
p510
tp511
a(S'Metallica'
p512
S'Wasting My Hate'
p513
S'http://www.last.fm/music/Metallica/_/Wasting+My+Hate'
p514
S'1347970852'
p515
tp516
a(S'Metallica'
p517
S'The God That Failed'
p518
S'http://www.last.fm/music/Metallica/_/The+God+That+Failed'
p519
S'1347970543'
p520
tp521
a(S'Megadeth'
p522
S'Train of Consequences'
p523
S'http://www.last.fm/music/Megadeth/_/Train+of+Consequences'
p524
S'1347970337'
p525
tp526
a(S'Metallica'
p527
S'Holier Than Thou'
p528
S'http://www.last.fm/music/Metallica/_/Holier+Than+Thou'
p529
S'1347970107'
p530
tp531
a(S'Megadeth'
p532
S'Train of Consequences'
p533
S'http://www.last.fm/music/Megadeth/_/Train+of+Consequences'
p534
S'1347917601'
p535
tp536
a(S'Iron Maiden'
p537
S'Purgatory'
p538
S'http://www.last.fm/music/Iron+Maiden/_/Purgatory'
p539
S'1347917401'
p540
tp541
a(S'Megadeth'
p542
S'Seven'
p543
S'http://www.last.fm/music/Megadeth/_/Seven'
p544
S'1347917114'
p545
tp546
a(S'Iron Maiden'
p547
S'The Apparition'
p548
S'http://www.last.fm/music/Iron+Maiden/_/The+Apparition'
p549
S'1347916880'
p550
tp551
a(S'Metallica'
p552
S'Wasting My Hate'
p553
S'http://www.last.fm/music/Metallica/_/Wasting+My+Hate'
p554
S'1347916597'
p555
tp556
a(S'Metallica'
p557
S'That Was Just Your Life'
p558
S'http://www.last.fm/music/Metallica/_/That+Was+Just+Your+Life'
p559
S'1347916184'
p560
tp561
a(S'Iron Maiden'
p562
S'Rainmaker'
p563
S'http://www.last.fm/music/Iron+Maiden/_/Rainmaker'
p564
S'1347915955'
p565
tp566
a(S'Metallica'
p567
S'Holier Than Thou'
p568
S'http://www.last.fm/music/Metallica/_/Holier+Than+Thou'
p569
S'1347915714'
p570
tp571
a(S'Metallica'
p572
S'The God That Failed'
p573
S'http://www.last.fm/music/Metallica/_/The+God+That+Failed'
p574
S'1347915504'
p575
tp576
a(S'Megadeth'
p577
S'Train of Consequences'
p578
S'http://www.last.fm/music/Megadeth/_/Train+of+Consequences'
p579
S'1347915298'
p580
tp581
a(S'Metallica'
p582
S'Cyanide'
p583
S'http://www.last.fm/music/Metallica/_/Cyanide'
p584
S'1347913858'
p585
tp586
a(S'Metallica'
p587
S'Bad Seed'
p588
S'http://www.last.fm/music/Metallica/_/Bad+Seed'
p589
S'1347913473'
p590
tp591
a(S'Metallica'
p592
S'Bad Seed'
p593
S'http://www.last.fm/music/Metallica/_/Bad+Seed'
p594
S'1347912401'
p595
tp596
a(S'Metallica'
p597
S'Slither'
p598
S'http://www.last.fm/music/Metallica/_/Slither'
p599
S'1347911965'
p600
tp601
a(S'Iron Maiden'
p602
S'Fear of the Dark'
p603
S'http://www.last.fm/music/Iron+Maiden/_/Fear+of+the+Dark'
p604
S'1347897849'
p605
tp606
a(S'Iron Maiden'
p607
S'Prodigal Son'
p608
S'http://www.last.fm/music/Iron+Maiden/_/Prodigal+Son'
p609
S'1347897477'
p610
tp611
a(S'Iron Maiden'
p612
S'Purgatory'
p613
S'http://www.last.fm/music/Iron+Maiden/_/Purgatory'
p614
S'1347897277'
p615
tp616
a(S'Iron Maiden'
p617
S'The Apparition'
p618
S'http://www.last.fm/music/Iron+Maiden/_/The+Apparition'
p619
S'1347897079'
p620
tp621
a(S'Megadeth'
p622
S'Seven'
p623
S'http://www.last.fm/music/Megadeth/_/Seven'
p624
S'1347896792'
p625
tp626
a(S'Metallica'
p627
S'Wasting My Hate'
p628
S'http://www.last.fm/music/Metallica/_/Wasting+My+Hate'
p629
S'1347896555'
p630
tp631
a(S'Megadeth'
p632
S'A Secret Place'
p633
S'http://www.last.fm/music/Megadeth/_/A+Secret+Place'
p634
S'1347896230'
p635
tp636
a(S'Metallica'
p637
S'Bad Seed'
p638
S'http://www.last.fm/music/Metallica/_/Bad+Seed'
p639
S'1347889873'
p640
tp641
a(S'Metallica'
p642
S'Holier Than Thou'
p643
S'http://www.last.fm/music/Metallica/_/Holier+Than+Thou'
p644
S'1347889645'
p645
tp646
a(S'Megadeth'
p647
S'Train of Consequences'
p648
S'http://www.last.fm/music/Megadeth/_/Train+of+Consequences'
p649
S'1347889439'
p650
tp651
a(S'Metallica'
p652
S'Slither'
p653
S'http://www.last.fm/music/Metallica/_/Slither'
p654
S'1347889124'
p655
tp656
a(S'Metallica'
p657
S'Wasting My Hate'
p658
S'http://www.last.fm/music/Metallica/_/Wasting+My+Hate'
p659
S'1347888748'
p660
tp661
a(S'Metallica'
p662
S'Slither'
p663
S'http://www.last.fm/music/Metallica/_/Slither'
p664
S'1347888399'
p665
tp666
a(S'Metallica'
p667
S'Wasting My Hate'
p668
S'http://www.last.fm/music/Metallica/_/Wasting+My+Hate'
p669
S'1347655999'
p670
tp671
a(S'Metallica'
p672
S'The End of the Line'
p673
S'http://www.last.fm/music/Metallica/_/The+End+of+the+Line'
p674
S'1347655502'
p675
tp676
a(S'Metallica'
p677
S'Bad Seed'
p678
S'http://www.last.fm/music/Metallica/_/Bad+Seed'
p679
S'1347655257'
p680
tp681
a(S'Iron Maiden'
p682
S'The Evil That Men Do'
p683
S'http://www.last.fm/music/Iron+Maiden/_/The+Evil+That+Men+Do'
p684
S'1347654968'
p685
tp686
a(S'Metallica'
p687
S'2 X 4'
p688
S'http://www.last.fm/music/Metallica/_/2+X+4'
p689
S'1347654640'
p690
tp691
a(S'Iron Maiden'
p692
S'Purgatory'
p693
S'http://www.last.fm/music/Iron+Maiden/_/Purgatory'
p694
S'1347654440'
p695
tp696
a(S'Metallica'
p697
S'Slither'
p698
S'http://www.last.fm/music/Metallica/_/Slither'
p699
S'1347639475'
p700
tp701
a(S'Megadeth'
p702
S'Seven'
p703
S'http://www.last.fm/music/Megadeth/_/Seven'
p704
S'1347632010'
p705
tp706
a(S'Megadeth'
p707
S'Train of Consequences'
p708
S'http://www.last.fm/music/Megadeth/_/Train+of+Consequences'
p709
S'1347631804'
p710
tp711
a(S'Metallica'
p712
S'The Shortest Straw'
p713
S'http://www.last.fm/music/Metallica/_/The+Shortest+Straw'
p714
S'1347630663'
p715
tp716
a(S'Metallica'
p717
S'Bad Seed'
p718
S'http://www.last.fm/music/Metallica/_/Bad+Seed'
p719
S'1347630417'
p720
tp721
a(S'Iron Maiden'
p722
S'Rainmaker'
p723
S'http://www.last.fm/music/Iron+Maiden/_/Rainmaker'
p724
S'1347630189'
p725
tp726
a(S'Metallica'
p727
S'The Frayed Ends of Sanity'
p728
S'http://www.last.fm/music/Metallica/_/The+Frayed+Ends+of+Sanity'
p729
S'1347629725'
p730
tp731
a(S'Iron Maiden'
p732
S'The Evil That Men Do'
p733
S'http://www.last.fm/music/Iron+Maiden/_/The+Evil+That+Men+Do'
p734
S'1347629447'
p735
tp736
a(S'Iron Maiden'
p737
S'Purgatory'
p738
S'http://www.last.fm/music/Iron+Maiden/_/Purgatory'
p739
S'1347629247'
p740
tp741
a(S'Metallica'
p742
S'2 X 4'
p743
S'http://www.last.fm/music/Metallica/_/2+X+4'
p744
S'1347628919'
p745
tp746
a(S'Metallica'
p747
S'Sad But True'
p748
S'http://www.last.fm/music/Metallica/_/Sad+But+True'
p749
S'1347628594'
p750
tp751
a(S'Iron Maiden'
p752
S'The Apparition'
p753
S'http://www.last.fm/music/Iron+Maiden/_/The+Apparition'
p754
S'1347628130'
p755
tp756
a(S'Iron Maiden'
p757
S'Prodigal Son'
p758
S'http://www.last.fm/music/Iron+Maiden/_/Prodigal+Son'
p759
S'1347626944'
p760
tp761
a(S'Metallica'
p762
S'That Was Just Your Life'
p763
S'http://www.last.fm/music/Metallica/_/That+Was+Just+Your+Life'
p764
S'1347626273'
p765
tp766
a(S'Metallica'
p767
S'Cyanide'
p768
S'http://www.last.fm/music/Metallica/_/Cyanide'
p769
S'1347625873'
p770
tp771
a(S'Megadeth'
p772
S'A Secret Place'
p773
S'http://www.last.fm/music/Megadeth/_/A+Secret+Place'
p774
S'1347625246'
p775
tp776
a(S'Metallica'
p777
S'Slither'
p778
S'http://www.last.fm/music/Metallica/_/Slither'
p779
S'1347624932'
p780
tp781
a(S'Metallica'
p782
S'The Shortest Straw'
p783
S'http://www.last.fm/music/Metallica/_/The+Shortest+Straw'
p784
S'1347562398'
p785
tp786
a(S'Iron Maiden'
p787
S'The Evil That Men Do'
p788
S'http://www.last.fm/music/Iron+Maiden/_/The+Evil+That+Men+Do'
p789
S'1347562121'
p790
tp791
a(S'Metallica'
p792
S'The Frayed Ends of Sanity'
p793
S'http://www.last.fm/music/Metallica/_/The+Frayed+Ends+of+Sanity'
p794
S'1347561656'
p795
tp796
a(S'Metallica'
p797
S'Slither'
p798
S'http://www.last.fm/music/Metallica/_/Slither'
p799
S'1347561343'
p800
tp801
a(S'Metallica'
p802
S'Slither'
p803
S'http://www.last.fm/music/Metallica/_/Slither'
p804
S'1347560712'
p805
tp806
a(S'Metallica'
p807
S'Slither'
p808
S'http://www.last.fm/music/Metallica/_/Slither'
p809
S'1347560455'
p810
tp811
a(S'Metallica'
p812
S'2 X 4'
p813
S'http://www.last.fm/music/Metallica/_/2+X+4'
p814
S'1347559556'
p815
tp816
a(S'Metallica'
p817
S'The God That Failed'
p818
S'http://www.last.fm/music/Metallica/_/The+God+That+Failed'
p819
S'1347559247'
p820
tp821
a(S'Iron Maiden'
p822
S'Purgatory'
p823
S'http://www.last.fm/music/Iron+Maiden/_/Purgatory'
p824
S'1347559047'
p825
tp826
a(S'Metallica'
p827
S'Cyanide'
p828
S'http://www.last.fm/music/Metallica/_/Cyanide'
p829
S'1347558648'
p830
tp831
a(S'Iron Maiden'
p832
S'Prodigal Son'
p833
S'http://www.last.fm/music/Iron+Maiden/_/Prodigal+Son'
p834
S'1347558275'
p835
tp836
a(S'Metallica'
p837
S'Hit the Lights'
p838
S'http://www.last.fm/music/Metallica/_/Hit+the+Lights'
p839
S'1347558018'
p840
tp841
a(S'Metallica'
p842
S'Wasting My Hate'
p843
S'http://www.last.fm/music/Metallica/_/Wasting+My+Hate'
p844
S'1347557780'
p845
tp846
a(S'Black Sabbath'
p847
S'Spiral Architect'
p848
S'http://www.last.fm/music/Black+Sabbath/_/Spiral+Architect'
p849
S'1347454636'
p850
tp851
a(S'Blues Traveler'
p852
S'Felicia'
p853
S'http://www.last.fm/music/Blues+Traveler/_/Felicia'
p854
S'1347454327'
p855
tp856
a(S'Joe Satriani'
p857
S'All Alone (aka Left Alone)'
p858
S'http://www.last.fm/music/Joe+Satriani/_/All+Alone+(aka+Left+Alone)'
p859
S'1347454064'
p860
tp861
a(S'Black Sabbath'
p862
S'Sabbath Bloody Sabbath'
p863
S'http://www.last.fm/music/Black+Sabbath/_/Sabbath+Bloody+Sabbath'
p864
S'1347453717'
p865
tp866
a(S'Roxette'
p867
S'Small Talk'
p868
S'http://www.last.fm/music/Roxette/_/Small+Talk'
p869
S'1347453483'
p870
tp871
a(S'Alice Cooper'
p872
S'Might As Well Be on Mars'
p873
S'http://www.last.fm/music/Alice+Cooper/_/Might+As+Well+Be+on+Mars'
p874
S'1347402862'
p875
tp876
a(S'Black Sabbath'
p877
S'Wheels of Confusion / The Straightener'
p878
S'http://www.last.fm/music/Black+Sabbath/_/Wheels+of+Confusion+%2F+The+Straightener'
p879
S'1347399629'
p880
tp881
a(S'Beastie Boys'
p882
S'Tough Guy'
p883
S'http://www.last.fm/music/Beastie+Boys/_/Tough+Guy'
p884
S'1347392258'
p885
tp886
a(S'Megadeth'
p887
S'Seven'
p888
S'http://www.last.fm/music/Megadeth/_/Seven'
p889
S'1347391950'
p890
tp891
a(S'Metallica'
p892
S'The Shortest Straw'
p893
S'http://www.last.fm/music/Metallica/_/The+Shortest+Straw'
p894
S'1347390022'
p895
tp896
a(S'Metallica'
p897
S'Slither'
p898
S'http://www.last.fm/music/Metallica/_/Slither'
p899
S'1347389708'
p900
tp901
a(S'Metallica'
p902
S'Wasting My Hate'
p903
S'http://www.last.fm/music/Metallica/_/Wasting+My+Hate'
p904
S'1347389461'
p905
tp906
a(S'Metallica'
p907
S'Whiplash'
p908
S'http://www.last.fm/music/Metallica/_/Whiplash'
p909
S'1347389211'
p910
tp911
a(S'Metallica'
p912
S'All Nightmare Long'
p913
S'http://www.last.fm/music/Metallica/_/All+Nightmare+Long'
p914
S'1347388734'
p915
tp916
a(S'Metallica'
p917
S'The Call of Ktulu'
p918
S'http://www.last.fm/music/Metallica/_/The+Call+of+Ktulu'
p919
S'1347388200'
p920
tp921
a(S'Metallica'
p922
S'Dyers Eve'
p923
S'http://www.last.fm/music/Metallica/_/Dyers+Eve'
p924
S'1347387159'
p925
tp926
a(S'Metallica'
p927
S'Hit the Lights'
p928
S'http://www.last.fm/music/Metallica/_/Hit+the+Lights'
p929
S'1347386901'
p930
tp931
a(S'Metallica'
p932
S'Bad Seed'
p933
S'http://www.last.fm/music/Metallica/_/Bad+Seed'
p934
S'1347386582'
p935
tp936
a(S'Metallica'
p937
S'That Was Just Your Life'
p938
S'http://www.last.fm/music/Metallica/_/That+Was+Just+Your+Life'
p939
S'1347385813'
p940
tp941
a(S'Metallica'
p942
S'To Live Is to Die'
p943
S'http://www.last.fm/music/Metallica/_/To+Live+Is+to+Die'
p944
S'1347385341'
p945
tp946
a(S'Metallica'
p947
S'Harvester of Sorrow'
p948
S'http://www.last.fm/music/Metallica/_/Harvester+of+Sorrow'
p949
S'1347384995'
p950
tp951
a(S'Metallica'
p952
S'The Judas Kiss'
p953
S'http://www.last.fm/music/Metallica/_/The+Judas+Kiss'
p954
S'1347384123'
p955
tp956
a(S'Metallica'
p957
S'Until It Sleeps'
p958
S'http://www.last.fm/music/Metallica/_/Until+It+Sleeps'
p959
S'1347383853'
p960
tp961
a(S'Metallica'
p962
S'Nothing Else Matters'
p963
S'http://www.last.fm/music/Metallica/_/Nothing+Else+Matters'
p964
S'1347381684'
p965
tp966
a(S'Metallica'
p967
S'The Frayed Ends of Sanity'
p968
S'http://www.last.fm/music/Metallica/_/The+Frayed+Ends+of+Sanity'
p969
S'1347381220'
p970
tp971
a(S'Metallica'
p972
S'The Shortest Straw'
p973
S'http://www.last.fm/music/Metallica/_/The+Shortest+Straw'
p974
S'1347380825'
p975
tp976
a(S'Metallica'
p977
S'Slither'
p978
S'http://www.last.fm/music/Metallica/_/Slither'
p979
S'1347380511'
p980
tp981
a(S'Metallica'
p982
S'2 X 4'
p983
S'http://www.last.fm/music/Metallica/_/2+X+4'
p984
S'1347371723'
p985
tp986
a(S'Metallica'
p987
S'Broken, Beat & Scarred'
p988
S'http://www.last.fm/music/Metallica/_/Broken,+Beat+&+Scarred'
p989
S'1347304536'
p990
tp991
a(S'Metallica'
p992
S'The Frayed Ends of Sanity'
p993
S'http://www.last.fm/music/Metallica/_/The+Frayed+Ends+of+Sanity'
p994
S'1347283443'
p995
tp996
a(S'Metallica'
p997
S'Harvester of Sorrow'
p998
S'http://www.last.fm/music/Metallica/_/Harvester+of+Sorrow'
p999
S'1347283098'
p1000
tp1001
a.