(lp1
(S'Stone Temple Pilots'
p2
S'Take a Load Off'
p3
S'http://www.last.fm/music/Stone+Temple+Pilots/_/Take+a+Load+Off'
p4
S'1275168706'
p5
tp6
a(S'Stone Temple Pilots'
p7
S'Peacoat'
p8
S'http://www.last.fm/music/Stone+Temple+Pilots/_/Peacoat'
p9
S'1275168207'
p10
tp11
a(S'Stone Temple Pilots'
p12
S'Dare If You Dare'
p13
S'http://www.last.fm/music/Stone+Temple+Pilots/_/Dare+If+You+Dare'
p14
S'1275167878'
p15
tp16
a(S'Stone Temple Pilots'
p17
S'Between the Lines'
p18
S'http://www.last.fm/music/Stone+Temple+Pilots/_/Between+the+Lines'
p19
S'1275167667'
p20
tp21
a(S'Stone Temple Pilots'
p22
S'Huckleberry Crumble'
p23
S'http://www.last.fm/music/Stone+Temple+Pilots/_/Huckleberry+Crumble'
p24
S'1275167497'
p25
tp26
a(S'Stone Temple Pilots'
p27
S'Hickory Dichotomy'
p28
S'http://www.last.fm/music/Stone+Temple+Pilots/_/Hickory+Dichotomy'
p29
S'1275158055'
p30
tp31
a(S'Stone Temple Pilots'
p32
S'Between The Lines (Live from Chicago)'
p33
S'http://www.last.fm/music/Stone+Temple+Pilots/_/Between+The+Lines+(Live+from+Chicago)'
p34
S'1275089239'
p35
tp36
a(S'Stone Temple Pilots'
p37
S'Hickory Dichotomy (Live from Chicago)'
p38
S'http://www.last.fm/music/Stone+Temple+Pilots/_/Hickory+Dichotomy+(Live+from+Chicago)'
p39
S'1275089064'
p40
tp41
a(S'Stone Temple Pilots'
p42
S'First Kiss on Mars'
p43
S'http://www.last.fm/music/Stone+Temple+Pilots/_/First+Kiss+on+Mars'
p44
S'1275088857'
p45
tp46
a(S'Stone Temple Pilots'
p47
S'Fast as I Can'
p48
S'http://www.last.fm/music/Stone+Temple+Pilots/_/Fast+as+I+Can'
p49
S'1275088674'
p50
tp51
a(S'Stone Temple Pilots'
p52
S'Peacoat'
p53
S'http://www.last.fm/music/Stone+Temple+Pilots/_/Peacoat'
p54
S'1275088458'
p55
tp56
a(S'Stone Temple Pilots'
p57
S'Peacoat'
p58
S'http://www.last.fm/music/Stone+Temple+Pilots/_/Peacoat'
p59
S'1275088178'
p60
tp61
a(S'Stone Temple Pilots'
p62
S'Bagman'
p63
S'http://www.last.fm/music/Stone+Temple+Pilots/_/Bagman'
p64
S'1275087968'
p65
tp66
a(S'Stone Temple Pilots'
p67
S'Hazy Daze'
p68
S'http://www.last.fm/music/Stone+Temple+Pilots/_/Hazy+Daze'
p69
S'1275087803'
p70
tp71
a(S'Stone Temple Pilots'
p72
S'Hickory Dichotomy'
p73
S'http://www.last.fm/music/Stone+Temple+Pilots/_/Hickory+Dichotomy'
p74
S'1275087615'
p75
tp76
a(S'Stone Temple Pilots'
p77
S'Huckleberry Crumble'
p78
S'http://www.last.fm/music/Stone+Temple+Pilots/_/Huckleberry+Crumble'
p79
S'1275087412'
p80
tp81
a(S'Stone Temple Pilots'
p82
S'Take a Load Off'
p83
S'http://www.last.fm/music/Stone+Temple+Pilots/_/Take+a+Load+Off'
p84
S'1275087219'
p85
tp86
a(S'Stone Temple Pilots'
p87
S'Between the Lines'
p88
S'http://www.last.fm/music/Stone+Temple+Pilots/_/Between+the+Lines'
p89
S'1275087028'
p90
tp91
a(S'Stone Temple Pilots'
p92
S'Between the Lines'
p93
S'http://www.last.fm/music/Stone+Temple+Pilots/_/Between+the+Lines'
p94
S'1275086842'
p95
tp96
a(S'Live'
p97
S'Stage'
p98
S'http://www.last.fm/music/Live/_/Stage'
p99
S'1275086671'
p100
tp101
a(S'Alice in Chains'
p102
S'Got Me Wrong'
p103
S'http://www.last.fm/music/Alice+in+Chains/_/Got+Me+Wrong'
p104
S'1275086534'
p105
tp106
a(S'Queens of the Stone Age'
p107
S'Long Slow Goodbye'
p108
S'http://www.last.fm/music/Queens+of+the+Stone+Age/_/Long+Slow+Goodbye'
p109
S'1275086282'
p110
tp111
a(S'Alice Cooper'
p112
S'Dirty Dreams'
p113
S'http://www.last.fm/music/Alice+Cooper/_/Dirty+Dreams'
p114
S'1275085868'
p115
tp116
a(S'Live'
p117
S'Waterboy'
p118
S'http://www.last.fm/music/Live/_/Waterboy'
p119
S'1275085659'
p120
tp121
a(S'Bee Gees'
p122
S'Live or Die (Hold Me Like a Child)'
p123
S'http://www.last.fm/music/Bee+Gees/_/Live+or+Die+(Hold+Me+Like+a+Child)'
p124
S'1275085471'
p125
tp126
a(S'Jamiroquai'
p127
S'Seven Days in Sunny June'
p128
S'http://www.last.fm/music/Jamiroquai/_/Seven+Days+in+Sunny+June'
p129
S'1275085188'
p130
tp131
a(S'Nirvana'
p132
S'All Apologies'
p133
S'http://www.last.fm/music/Nirvana/_/All+Apologies'
p134
S'1275084950'
p135
tp136
a(S'The Trammps'
p137
S'Disco Inferno'
p138
S'http://www.last.fm/music/The+Trammps/_/Disco+Inferno'
p139
S'1275084687'
p140
tp141
a(S'Nirvana'
p142
S'Lake Of Fire'
p143
S'http://www.last.fm/music/Nirvana/_/Lake+Of+Fire'
p144
S'1275084298'
p145
tp146
a(S'Ozzy Osbourne'
p147
S"Mama, I'm Coming Home"
p148
S'http://www.last.fm/music/Ozzy+Osbourne/_/Mama,+I%27m+Coming+Home'
p149
S'1275084095'
p150
tp151
a(S'Nirvana'
p152
S'Polly'
p153
S'http://www.last.fm/music/Nirvana/_/Polly'
p154
S'1275083844'
p155
tp156
a(S'Live'
p157
S'Home'
p158
S'http://www.last.fm/music/Live/_/Home'
p159
S'1275083655'
p160
tp161
a(S'Bo Diddley'
p162
S'Can I Walk You Home'
p163
S'http://www.last.fm/music/Bo+Diddley/_/Can+I+Walk+You+Home'
p164
S'1275083452'
p165
tp166
a(S'Army Of Anyone'
p167
S'Generation'
p168
S'http://www.last.fm/music/Army+Of+Anyone/_/Generation'
p169
S'1275083091'
p170
tp171
a(S'Stone Temple Pilots'
p172
S'Between the Lines'
p173
S'http://www.last.fm/music/Stone+Temple+Pilots/_/Between+the+Lines'
p174
S'1275082869'
p175
tp176
a(S'Queens of the Stone Age'
p177
S'Suture Up Your Future'
p178
S'http://www.last.fm/music/Queens+of+the+Stone+Age/_/Suture+Up+Your+Future'
p179
S'1275082648'
p180
tp181
a(S'Queens of the Stone Age'
p182
S'Medication'
p183
S'http://www.last.fm/music/Queens+of+the+Stone+Age/_/Medication'
p184
S'1275082370'
p185
tp186
a(S'Metallica'
p187
S'The Unforgiven'
p188
S'http://www.last.fm/music/Metallica/_/The+Unforgiven'
p189
S'1275082256'
p190
tp191
a(S'Velvet Revolver'
p192
S'She Mine'
p193
S'http://www.last.fm/music/Velvet+Revolver/_/She+Mine'
p194
S'1275081869'
p195
tp196
a(S'Queens of the Stone Age'
p197
S'The Blood Is Love'
p198
S'http://www.last.fm/music/Queens+of+the+Stone+Age/_/The+Blood+Is+Love'
p199
S'1275081664'
p200
tp201
a(S'Them Crooked Vultures'
p202
S'Scumbag Blues'
p203
S'http://www.last.fm/music/Them+Crooked+Vultures/_/Scumbag+Blues'
p204
S'1275081267'
p205
tp206
a(S'ZZ Top'
p207
S'Lizard Life'
p208
S'http://www.last.fm/music/ZZ+Top/_/Lizard+Life'
p209
S'1275081000'
p210
tp211
a(S'Stone Temple Pilots'
p212
S'Hickory Dichotomy (Live from Chicago)'
p213
S'http://www.last.fm/music/Stone+Temple+Pilots/_/Hickory+Dichotomy+(Live+from+Chicago)'
p214
S'1275080690'
p215
tp216
a(S'Ozzy Osbourne'
p217
S'Not Going Away'
p218
S'http://www.last.fm/music/Ozzy+Osbourne/_/Not+Going+Away'
p219
S'1275080490'
p220
tp221
a(S'Alice in Chains'
p222
S'Frogs'
p223
S'http://www.last.fm/music/Alice+in+Chains/_/Frogs'
p224
S'1275080218'
p225
tp226
a(S'Velvet Revolver'
p227
S'Mary Mary'
p228
S'http://www.last.fm/music/Velvet+Revolver/_/Mary+Mary'
p229
S'1275079768'
p230
tp231
a(S'Foreigner'
p232
S'Blue Morning, Blue Day'
p233
S'http://www.last.fm/music/Foreigner/_/Blue+Morning,+Blue+Day'
p234
S'1275079494'
p235
tp236
a(S'Ozzy Osbourne'
p237
S'So Tired'
p238
S'http://www.last.fm/music/Ozzy+Osbourne/_/So+Tired'
p239
S'1275079307'
p240
tp241
a(S'Rainbow'
p242
S'Snake Charmer'
p243
S'http://www.last.fm/music/Rainbow/_/Snake+Charmer'
p244
S'1275079071'
p245
tp246
a(S'Nirvana'
p247
S'Very Ape'
p248
S'http://www.last.fm/music/Nirvana/_/Very+Ape'
p249
S'1275078797'
p250
tp251
a(S'Alice in Chains'
p252
S'Take Her Out'
p253
S'http://www.last.fm/music/Alice+in+Chains/_/Take+Her+Out'
p254
S'1275078682'
p255
tp256
a(S'Alice Cooper'
p257
S'Sideshow'
p258
S'http://www.last.fm/music/Alice+Cooper/_/Sideshow'
p259
S'1275078441'
p260
tp261
a(S'Daft Punk'
p262
S'Human After All'
p263
S'http://www.last.fm/music/Daft+Punk/_/Human+After+All'
p264
S'1275078042'
p265
tp266
a(S'Live'
p267
S'Home'
p268
S'http://www.last.fm/music/Live/_/Home'
p269
S'1275077722'
p270
tp271
a(S'Bo Diddley'
p272
S'Can I Walk You Home'
p273
S'http://www.last.fm/music/Bo+Diddley/_/Can+I+Walk+You+Home'
p274
S'1275077519'
p275
tp276
a(S'Alice in Chains'
p277
S'All Secrets Known'
p278
S'http://www.last.fm/music/Alice+in+Chains/_/All+Secrets+Known'
p279
S'1275077198'
p280
tp281
a(S'Daft Punk'
p282
S'Digital Love'
p283
S'http://www.last.fm/music/Daft+Punk/_/Digital+Love'
p284
S'1275076916'
p285
tp286
a(S'Live'
p287
S'Waitress'
p288
S'http://www.last.fm/music/Live/_/Waitress'
p289
S'1275076603'
p290
tp291
a(S'AC/DC'
p292
S'High Voltage'
p293
S'http://www.last.fm/music/AC%2FDC/_/High+Voltage'
p294
S'1275076433'
p295
tp296
a(S'Ozzy Osbourne'
p297
S'Thunder Underground'
p298
S'http://www.last.fm/music/Ozzy+Osbourne/_/Thunder+Underground'
p299
S'1275076191'
p300
tp301
a(S'Daft Punk'
p302
S'One More Time'
p303
S'http://www.last.fm/music/Daft+Punk/_/One+More+Time'
p304
S'1275075805'
p305
tp306
a(S'Alice in Chains'
p307
S'Heaven Beside You'
p308
S'http://www.last.fm/music/Alice+in+Chains/_/Heaven+Beside+You'
p309
S'1275075197'
p310
tp311
a(S'Stone Temple Pilots'
p312
S'Between the Lines'
p313
S'http://www.last.fm/music/Stone+Temple+Pilots/_/Between+the+Lines'
p314
S'1275074857'
p315
tp316
a(S'Muddy Waters'
p317
S"I'm Your Hoochie Coochie Man"
p318
S'http://www.last.fm/music/Muddy+Waters/_/I%27m+Your+Hoochie+Coochie+Man'
p319
S'1275074687'
p320
tp321
a(S'Stone Temple Pilots'
p322
S'Take a Load Off'
p323
S'http://www.last.fm/music/Stone+Temple+Pilots/_/Take+a+Load+Off'
p324
S'1275074528'
p325
tp326
a(S'Stone Temple Pilots'
p327
S'Take a Load Off'
p328
S'http://www.last.fm/music/Stone+Temple+Pilots/_/Take+a+Load+Off'
p329
S'1275074329'
p330
tp331
a(S'Queens of the Stone Age'
p332
S'Battery Acid'
p333
S'http://www.last.fm/music/Queens+of+the+Stone+Age/_/Battery+Acid'
p334
S'1275074130'
p335
tp336
a(S'Daft Punk'
p337
S'Aerodynamic'
p338
S'http://www.last.fm/music/Daft+Punk/_/Aerodynamic'
p339
S'1275073884'
p340
tp341
a(S'Live'
p342
S'Iris'
p343
S'http://www.last.fm/music/Live/_/Iris'
p344
S'1275073678'
p345
tp346
a(S'Muddy Waters'
p347
S"I'm Your Hoochie Coochie Man"
p348
S'http://www.last.fm/music/Muddy+Waters/_/I%27m+Your+Hoochie+Coochie+Man'
p349
S'1275073438'
p350
tp351
a(S'Stone Temple Pilots'
p352
S'Take a Load Off'
p353
S'http://www.last.fm/music/Stone+Temple+Pilots/_/Take+a+Load+Off'
p354
S'1275073268'
p355
tp356
a(S'Stone Temple Pilots'
p357
S'Between the Lines'
p358
S'http://www.last.fm/music/Stone+Temple+Pilots/_/Between+the+Lines'
p359
S'1275073065'
p360
tp361
a(S'Ozzy Osbourne'
p362
S'Desire'
p363
S'http://www.last.fm/music/Ozzy+Osbourne/_/Desire'
p364
S'1275072877'
p365
tp366
a(S'Alice Cooper'
p367
S'Bed of Nails'
p368
S'http://www.last.fm/music/Alice+Cooper/_/Bed+of+Nails'
p369
S'1275072495'
p370
tp371
a(S'Lynyrd Skynyrd'
p372
S'Rough Around The Edges'
p373
S'http://www.last.fm/music/Lynyrd+Skynyrd/_/Rough+Around+The+Edges'
p374
S'1275072234'
p375
tp376
a(S'Nirvana'
p377
S'Pennyroyal Tea'
p378
S'http://www.last.fm/music/Nirvana/_/Pennyroyal+Tea'
p379
S'1275071961'
p380
tp381
a(S'Alice in Chains'
p382
S'Confusion'
p383
S'http://www.last.fm/music/Alice+in+Chains/_/Confusion'
p384
S'1275071744'
p385
tp386
a(S'Black Sabbath'
p387
S'Wheels of Confusion'
p388
S'http://www.last.fm/music/Black+Sabbath/_/Wheels+of+Confusion'
p389
S'1275071400'
p390
tp391
a(S'Stone Temple Pilots'
p392
S'Between the Lines'
p393
S'http://www.last.fm/music/Stone+Temple+Pilots/_/Between+the+Lines'
p394
S'1275070893'
p395
tp396
a(S'Queens of the Stone Age'
p397
S'Battery Acid'
p398
S'http://www.last.fm/music/Queens+of+the+Stone+Age/_/Battery+Acid'
p399
S'1275070616'
p400
tp401
a(S'Daft Punk'
p402
S'Aerodynamic'
p403
S'http://www.last.fm/music/Daft+Punk/_/Aerodynamic'
p404
S'1275070476'
p405
tp406
a(S'Live'
p407
S'Iris'
p408
S'http://www.last.fm/music/Live/_/Iris'
p409
S'1275070231'
p410
tp411
a(S'Muddy Waters'
p412
S"I'm Your Hoochie Coochie Man"
p413
S'http://www.last.fm/music/Muddy+Waters/_/I%27m+Your+Hoochie+Coochie+Man'
p414
S'1275070031'
p415
tp416
a(S'Stone Temple Pilots'
p417
S'Take a Load Off'
p418
S'http://www.last.fm/music/Stone+Temple+Pilots/_/Take+a+Load+Off'
p419
S'1275069861'
p420
tp421
a(S'AC/DC'
p422
S"Rock 'N' Roll Singer"
p423
S'http://www.last.fm/music/AC%2FDC/_/Rock+%27N%27+Roll+Singer'
p424
S'1275069632'
p425
tp426
a(S'Judas Priest'
p427
S'Turbo Lover'
p428
S'http://www.last.fm/music/Judas+Priest/_/Turbo+Lover'
p429
S'1275069328'
p430
tp431
a(S'Metallica'
p432
S'Metal Militia'
p433
S'http://www.last.fm/music/Metallica/_/Metal+Militia'
p434
S'1275068982'
p435
tp436
a(S'AC/DC'
p437
S'Soul Stripper'
p438
S'http://www.last.fm/music/AC%2FDC/_/Soul+Stripper'
p439
S'1275068669'
p440
tp441
a(S'Nirvana'
p442
S'Son of a Gun'
p443
S'http://www.last.fm/music/Nirvana/_/Son+of+a+Gun'
p444
S'1275068284'
p445
tp446
a(S'Live'
p447
S'Insomnia And The Hole In The Universe'
p448
S'http://www.last.fm/music/Live/_/Insomnia+And+The+Hole+In+The+Universe'
p449
S'1275068116'
p450
tp451
a(S'Nirvana'
p452
S'Love Buzz'
p453
S'http://www.last.fm/music/Nirvana/_/Love+Buzz'
p454
S'1275067875'
p455
tp456
a(S'Foreigner'
p457
S'Cold as Ice'
p458
S'http://www.last.fm/music/Foreigner/_/Cold+as+Ice'
p459
S'1275067659'
p460
tp461
a(S'Ozzy Osbourne'
p462
S'Black Rain'
p463
S'http://www.last.fm/music/Ozzy+Osbourne/_/Black+Rain'
p464
S'1275067447'
p465
tp466
a(S'Ozzy Osbourne'
p467
S"I Don't Wanna Stop"
p468
S'http://www.last.fm/music/Ozzy+Osbourne/_/I+Don%27t+Wanna+Stop'
p469
S'1275067165'
p470
tp471
a(S'Ozzy Osbourne'
p472
S'Not Going Away'
p473
S'http://www.last.fm/music/Ozzy+Osbourne/_/Not+Going+Away'
p474
S'1275066925'
p475
tp476
a(S'Ozzy Osbourne'
p477
S'Spiders in the Night (Bonus)'
p478
S'http://www.last.fm/music/Ozzy+Osbourne/_/Spiders+in+the+Night+(Bonus)'
p479
S'1275066652'
p480
tp481
a(S'Ozzy Osbourne'
p482
S'Waiting For Darkness'
p483
S'http://www.last.fm/music/Ozzy+Osbourne/_/Waiting+For+Darkness'
p484
S'1275066392'
p485
tp486
a(S'Ozzy Osbourne'
p487
S'Slow Down'
p488
S'http://www.last.fm/music/Ozzy+Osbourne/_/Slow+Down'
p489
S'1275066080'
p490
tp491
a(S'Ozzy Osbourne'
p492
S'So Tired'
p493
S'http://www.last.fm/music/Ozzy+Osbourne/_/So+Tired'
p494
S'1275065823'
p495
tp496
a(S'Ozzy Osbourne'
p497
S'Centre Of Eternity'
p498
S'http://www.last.fm/music/Ozzy+Osbourne/_/Centre+Of+Eternity'
p499
S'1275065586'
p500
tp501
a(S'Ozzy Osbourne'
p502
S"Rock 'n' Roll Rebel"
p503
S'http://www.last.fm/music/Ozzy+Osbourne/_/Rock+%27n%27+Roll+Rebel'
p504
S'1275065265'
p505
tp506
a(S'Ozzy Osbourne'
p507
S'Now You See It'
p508
S'http://www.last.fm/music/Ozzy+Osbourne/_/Now+You+See+It'
p509
S'1275064941'
p510
tp511
a(S'Ozzy Osbourne'
p512
S"You're No Different"
p513
S'http://www.last.fm/music/Ozzy+Osbourne/_/You%27re+No+Different'
p514
S'1275064638'
p515
tp516
a(S'Ozzy Osbourne'
p517
S'Bark at the Moon'
p518
S'http://www.last.fm/music/Ozzy+Osbourne/_/Bark+at+the+Moon'
p519
S'1275064339'
p520
tp521
a(S'Nirvana'
p522
S'Endless, Nameless'
p523
S'http://www.last.fm/music/Nirvana/_/Endless,+Nameless'
p524
S'1275064085'
p525
tp526
a(S'Nirvana'
p527
S'Something in the Way'
p528
S'http://www.last.fm/music/Nirvana/_/Something+in+the+Way'
p529
S'1275063680'
p530
tp531
a(S'Nirvana'
p532
S'On a Plain'
p533
S'http://www.last.fm/music/Nirvana/_/On+a+Plain'
p534
S'1275063241'
p535
tp536
a(S'Nirvana'
p537
S'Stay Away'
p538
S'http://www.last.fm/music/Nirvana/_/Stay+Away'
p539
S'1275063044'
p540
tp541
a(S'Nirvana'
p542
S'Lounge Act'
p543
S'http://www.last.fm/music/Nirvana/_/Lounge+Act'
p544
S'1275062832'
p545
tp546
a(S'Nirvana'
p547
S'Drain You'
p548
S'http://www.last.fm/music/Nirvana/_/Drain+You'
p549
S'1275062675'
p550
tp551
a(S'Nirvana'
p552
S'Territorial Pissings'
p553
S'http://www.last.fm/music/Nirvana/_/Territorial+Pissings'
p554
S'1275062451'
p555
tp556
a(S'Nirvana'
p557
S'Polly'
p558
S'http://www.last.fm/music/Nirvana/_/Polly'
p559
S'1275062308'
p560
tp561
a(S'Nirvana'
p562
S'Lithium'
p563
S'http://www.last.fm/music/Nirvana/_/Lithium'
p564
S'1275062131'
p565
tp566
a(S'Nirvana'
p567
S'Breed'
p568
S'http://www.last.fm/music/Nirvana/_/Breed'
p569
S'1275061780'
p570
tp571
a(S'Nirvana'
p572
S'Come as You Are'
p573
S'http://www.last.fm/music/Nirvana/_/Come+as+You+Are'
p574
S'1275061596'
p575
tp576
a(S'Nirvana'
p577
S'In Bloom'
p578
S'http://www.last.fm/music/Nirvana/_/In+Bloom'
p579
S'1275061469'
p580
tp581
a(S'Nirvana'
p582
S'Smells Like Teen Spirit'
p583
S'http://www.last.fm/music/Nirvana/_/Smells+Like+Teen+Spirit'
p584
S'1275061215'
p585
tp586
a(S'Velvet Revolver'
p587
S'Sucker Train Blues'
p588
S'http://www.last.fm/music/Velvet+Revolver/_/Sucker+Train+Blues'
p589
S'1275060899'
p590
tp591
a(S'Nirvana'
p592
S'Dive'
p593
S'http://www.last.fm/music/Nirvana/_/Dive'
p594
S'1275060439'
p595
tp596
a(S'Queens of the Stone Age'
p597
S'Song For The Deaf'
p598
S'http://www.last.fm/music/Queens+of+the+Stone+Age/_/Song+For+The+Deaf'
p599
S'1275060204'
p600
tp601
a(S'Ozzy Osbourne'
p602
S'Civilize the Universe'
p603
S'http://www.last.fm/music/Ozzy+Osbourne/_/Civilize+the+Universe'
p604
S'1275059801'
p605
tp606
a(S'Lynyrd Skynyrd'
p607
S'Preacher Man'
p608
S'http://www.last.fm/music/Lynyrd+Skynyrd/_/Preacher+Man'
p609
S'1275059518'
p610
tp611
a(S'ZZ Top'
p612
S'Cherry Red'
p613
S'http://www.last.fm/music/ZZ+Top/_/Cherry+Red'
p614
S'1275059236'
p615
tp616
a(S'Stone Temple Pilots'
p617
S'Between The Lines (Live from Chicago)'
p618
S'http://www.last.fm/music/Stone+Temple+Pilots/_/Between+The+Lines+(Live+from+Chicago)'
p619
S'1275058793'
p620
tp621
a(S'Stone Temple Pilots'
p622
S'Hickory Dichotomy (Live from Chicago)'
p623
S'http://www.last.fm/music/Stone+Temple+Pilots/_/Hickory+Dichotomy+(Live+from+Chicago)'
p624
S'1275057195'
p625
tp626
a(S'Stone Temple Pilots'
p627
S'Vasoline (Live from Chicago)'
p628
S'http://www.last.fm/music/Stone+Temple+Pilots/_/Vasoline+(Live+from+Chicago)'
p629
S'1275056995'
p630
tp631
a(S'Stone Temple Pilots'
p632
S'Hickory Dichotomy'
p633
S'http://www.last.fm/music/Stone+Temple+Pilots/_/Hickory+Dichotomy'
p634
S'1275056792'
p635
tp636
a(S'Stone Temple Pilots'
p637
S'Huckleberry Crumble'
p638
S'http://www.last.fm/music/Stone+Temple+Pilots/_/Huckleberry+Crumble'
p639
S'1275056590'
p640
tp641
a(S'Stone Temple Pilots'
p642
S'Take a Load Off'
p643
S'http://www.last.fm/music/Stone+Temple+Pilots/_/Take+a+Load+Off'
p644
S'1275056399'
p645
tp646
a(S'Stone Temple Pilots'
p647
S'Hickory Dichotomy'
p648
S'http://www.last.fm/music/Stone+Temple+Pilots/_/Hickory+Dichotomy'
p649
S'1275056200'
p650
tp651
a(S'Stone Temple Pilots'
p652
S'Huckleberry Crumble'
p653
S'http://www.last.fm/music/Stone+Temple+Pilots/_/Huckleberry+Crumble'
p654
S'1275055998'
p655
tp656
a(S'Stone Temple Pilots'
p657
S'Take a Load Off'
p658
S'http://www.last.fm/music/Stone+Temple+Pilots/_/Take+a+Load+Off'
p659
S'1275055807'
p660
tp661
a(S'Stone Temple Pilots'
p662
S'Between the Lines'
p663
S'http://www.last.fm/music/Stone+Temple+Pilots/_/Between+the+Lines'
p664
S'1275055615'
p665
tp666
a(S'Stone Temple Pilots'
p667
S'Hickory Dichotomy'
p668
S'http://www.last.fm/music/Stone+Temple+Pilots/_/Hickory+Dichotomy'
p669
S'1275055445'
p670
tp671
a(S'Them Crooked Vultures'
p672
S'Mind Eraser, No Chaser'
p673
S'http://www.last.fm/music/Them+Crooked+Vultures/_/Mind+Eraser,+No+Chaser'
p674
S'1275055206'
p675
tp676
a(S'Diamond Head'
p677
S'Come Alive'
p678
S'http://www.last.fm/music/Diamond+Head/_/Come+Alive'
p679
S'1275054960'
p680
tp681
a(S'Muddy Waters'
p682
S"I'm Your Hoochie Coochie Man"
p683
S'http://www.last.fm/music/Muddy+Waters/_/I%27m+Your+Hoochie+Coochie+Man'
p684
S'1275054670'
p685
tp686
a(S'Velvet Revolver'
p687
S'She Mine'
p688
S'http://www.last.fm/music/Velvet+Revolver/_/She+Mine'
p689
S'1275054500'
p690
tp691
a(S'Ozzy Osbourne'
p692
S"You're No Different"
p693
S'http://www.last.fm/music/Ozzy+Osbourne/_/You%27re+No+Different'
p694
S'1275054295'
p695
tp696
a(S'Muddy Waters'
p697
S"Baby Please Don't Go"
p698
S'http://www.last.fm/music/Muddy+Waters/_/Baby+Please+Don%27t+Go'
p699
S'1275053997'
p700
tp701
a(S'Jerry Cantrell'
p702
S'Between'
p703
S'http://www.last.fm/music/Jerry+Cantrell/_/Between'
p704
S'1275053801'
p705
tp706
a(S'Alice in Chains'
p707
S'Acid Bubble'
p708
S'http://www.last.fm/music/Alice+in+Chains/_/Acid+Bubble'
p709
S'1275053584'
p710
tp711
a(S'Alice Cooper'
p712
S'Hey Stoopid'
p713
S'http://www.last.fm/music/Alice+Cooper/_/Hey+Stoopid'
p714
S'1275053168'
p715
tp716
a(S'Queens of the Stone Age'
p717
S'This Lullaby'
p718
S'http://www.last.fm/music/Queens+of+the+Stone+Age/_/This+Lullaby'
p719
S'1275052894'
p720
tp721
a(S'Rainbow'
p722
S'Man on the Silver Mountain'
p723
S'http://www.last.fm/music/Rainbow/_/Man+on+the+Silver+Mountain'
p724
S'1275052811'
p725
tp726
a(S'Black Sabbath'
p727
S'Sabbra Cadabra'
p728
S'http://www.last.fm/music/Black+Sabbath/_/Sabbra+Cadabra'
p729
S'1275052467'
p730
tp731
a(S'Alice Cooper'
p732
S'Stolen Prayer'
p733
S'http://www.last.fm/music/Alice+Cooper/_/Stolen+Prayer'
p734
S'1275052106'
p735
tp736
a(S'Nirvana'
p737
S'(New Wave) Polly'
p738
S'http://www.last.fm/music/Nirvana/_/(New+Wave)+Polly'
p739
S'1275051768'
p740
tp741
a(S'Alice Cooper'
p742
S'Zombie Dance'
p743
S'http://www.last.fm/music/Alice+Cooper/_/Zombie+Dance'
p744
S'1275051191'
p745
tp746
a(S'Lynyrd Skynyrd'
p747
S'Preacher Man'
p748
S'http://www.last.fm/music/Lynyrd+Skynyrd/_/Preacher+Man'
p749
S'1275023206'
p750
tp751
a(S'Live'
p752
S'Stage'
p753
S'http://www.last.fm/music/Live/_/Stage'
p754
S'1275022817'
p755
tp756
a(S'Soundgarden'
p757
S'The Day I Tried to Live'
p758
S'http://www.last.fm/music/Soundgarden/_/The+Day+I+Tried+to+Live'
p759
S'1275022629'
p760
tp761
a(S'Alice Cooper'
p762
S'Zombie Dance'
p763
S'http://www.last.fm/music/Alice+Cooper/_/Zombie+Dance'
p764
S'1275022302'
p765
tp766
a(S'Stone Temple Pilots'
p767
S'Take a Load Off'
p768
S'http://www.last.fm/music/Stone+Temple+Pilots/_/Take+a+Load+Off'
p769
S'1275022028'
p770
tp771
a(S'Stone Temple Pilots'
p772
S'Hickory Dichotomy'
p773
S'http://www.last.fm/music/Stone+Temple+Pilots/_/Hickory+Dichotomy'
p774
S'1275021799'
p775
tp776
a(S'Stone Temple Pilots'
p777
S'Huckleberry Crumble'
p778
S'http://www.last.fm/music/Stone+Temple+Pilots/_/Huckleberry+Crumble'
p779
S'1275021597'
p780
tp781
a(S'Stone Temple Pilots'
p782
S'Take a Load Off'
p783
S'http://www.last.fm/music/Stone+Temple+Pilots/_/Take+a+Load+Off'
p784
S'1275021406'
p785
tp786
a(S'Stone Temple Pilots'
p787
S'Between the Lines'
p788
S'http://www.last.fm/music/Stone+Temple+Pilots/_/Between+the+Lines'
p789
S'1275021214'
p790
tp791
a(S'Stone Temple Pilots'
p792
S'Between The Lines (Live from Chicago)'
p793
S'http://www.last.fm/music/Stone+Temple+Pilots/_/Between+The+Lines+(Live+from+Chicago)'
p794
S'1275021006'
p795
tp796
a(S'Stone Temple Pilots'
p797
S'Hickory Dichotomy (Live from Chicago)'
p798
S'http://www.last.fm/music/Stone+Temple+Pilots/_/Hickory+Dichotomy+(Live+from+Chicago)'
p799
S'1275020831'
p800
tp801
a(S'Stone Temple Pilots'
p802
S'Dare If You Dare'
p803
S'http://www.last.fm/music/Stone+Temple+Pilots/_/Dare+If+You+Dare'
p804
S'1275020623'
p805
tp806
a(S'Stone Temple Pilots'
p807
S'Hickory Dichotomy'
p808
S'http://www.last.fm/music/Stone+Temple+Pilots/_/Hickory+Dichotomy'
p809
S'1275020307'
p810
tp811
a(S'Stone Temple Pilots'
p812
S'Huckleberry Crumble'
p813
S'http://www.last.fm/music/Stone+Temple+Pilots/_/Huckleberry+Crumble'
p814
S'1275020105'
p815
tp816
a(S'Stone Temple Pilots'
p817
S'Take a Load Off'
p818
S'http://www.last.fm/music/Stone+Temple+Pilots/_/Take+a+Load+Off'
p819
S'1275019914'
p820
tp821
a(S'Stone Temple Pilots'
p822
S'Huckleberry Crumble'
p823
S'http://www.last.fm/music/Stone+Temple+Pilots/_/Huckleberry+Crumble'
p824
S'1275019723'
p825
tp826
a(S'Stone Temple Pilots'
p827
S'Take a Load Off'
p828
S'http://www.last.fm/music/Stone+Temple+Pilots/_/Take+a+Load+Off'
p829
S'1275019605'
p830
tp831
a(S'Stone Temple Pilots'
p832
S'Hickory Dichotomy'
p833
S'http://www.last.fm/music/Stone+Temple+Pilots/_/Hickory+Dichotomy'
p834
S'1275019412'
p835
tp836
a(S'Stone Temple Pilots'
p837
S'Huckleberry Crumble'
p838
S'http://www.last.fm/music/Stone+Temple+Pilots/_/Huckleberry+Crumble'
p839
S'1275019230'
p840
tp841
a(S'Stone Temple Pilots'
p842
S'Take a Load Off'
p843
S'http://www.last.fm/music/Stone+Temple+Pilots/_/Take+a+Load+Off'
p844
S'1275019040'
p845
tp846
a(S'Stone Temple Pilots'
p847
S'Between the Lines'
p848
S'http://www.last.fm/music/Stone+Temple+Pilots/_/Between+the+Lines'
p849
S'1275018734'
p850
tp851
a(S'Stone Temple Pilots'
p852
S'Peacoat'
p853
S'http://www.last.fm/music/Stone+Temple+Pilots/_/Peacoat'
p854
S'1275018554'
p855
tp856
a(S'Stone Temple Pilots'
p857
S'Hazy Daze'
p858
S'http://www.last.fm/music/Stone+Temple+Pilots/_/Hazy+Daze'
p859
S'1275018332'
p860
tp861
a(S'Stone Temple Pilots'
p862
S'Dare If You Dare'
p863
S'http://www.last.fm/music/Stone+Temple+Pilots/_/Dare+If+You+Dare'
p864
S'1275018147'
p865
tp866
a(S'Stone Temple Pilots'
p867
S'Between the Lines'
p868
S'http://www.last.fm/music/Stone+Temple+Pilots/_/Between+the+Lines'
p869
S'1275013415'
p870
tp871
a(S'Ozzy Osbourne'
p872
S'Perry Mason'
p873
S'http://www.last.fm/music/Ozzy+Osbourne/_/Perry+Mason'
p874
S'1275013318'
p875
tp876
a(S'Lynyrd Skynyrd'
p877
S'Preacher Man'
p878
S'http://www.last.fm/music/Lynyrd+Skynyrd/_/Preacher+Man'
p879
S'1275012965'
p880
tp881
a(S'Diamond Head'
p882
S'Broken Pieces'
p883
S'http://www.last.fm/music/Diamond+Head/_/Broken+Pieces'
p884
S'1274887764'
p885
tp886
a(S'Alice Cooper'
p887
S'Zombie Dance'
p888
S'http://www.last.fm/music/Alice+Cooper/_/Zombie+Dance'
p889
S'1274887536'
p890
tp891
a(S'Lynyrd Skynyrd'
p892
S'Preacher Man'
p893
S'http://www.last.fm/music/Lynyrd+Skynyrd/_/Preacher+Man'
p894
S'1274886989'
p895
tp896
a(S'Stone Temple Pilots'
p897
S'Dare If You Dare'
p898
S'http://www.last.fm/music/Stone+Temple+Pilots/_/Dare+If+You+Dare'
p899
S'1274886498'
p900
tp901
a(S'Stone Temple Pilots'
p902
S'Hickory Dichotomy'
p903
S'http://www.last.fm/music/Stone+Temple+Pilots/_/Hickory+Dichotomy'
p904
S'1274886301'
p905
tp906
a(S'Stone Temple Pilots'
p907
S'Huckleberry Crumble'
p908
S'http://www.last.fm/music/Stone+Temple+Pilots/_/Huckleberry+Crumble'
p909
S'1274886098'
p910
tp911
a(S'Stone Temple Pilots'
p912
S'Take a Load Off'
p913
S'http://www.last.fm/music/Stone+Temple+Pilots/_/Take+a+Load+Off'
p914
S'1274884791'
p915
tp916
a(S'Stone Temple Pilots'
p917
S'Hazy Daze'
p918
S'http://www.last.fm/music/Stone+Temple+Pilots/_/Hazy+Daze'
p919
S'1274884568'
p920
tp921
a(S'Stone Temple Pilots'
p922
S'Cinnamon'
p923
S'http://www.last.fm/music/Stone+Temple+Pilots/_/Cinnamon'
p924
S'1274884372'
p925
tp926
a(S'Stone Temple Pilots'
p927
S'Take a Load Off'
p928
S'http://www.last.fm/music/Stone+Temple+Pilots/_/Take+a+Load+Off'
p929
S'1274884174'
p930
tp931
a(S'Stone Temple Pilots'
p932
S'Between the Lines'
p933
S'http://www.last.fm/music/Stone+Temple+Pilots/_/Between+the+Lines'
p934
S'1274883998'
p935
tp936
a(S'Alice in Chains'
p937
S'God Am'
p938
S'http://www.last.fm/music/Alice+in+Chains/_/God+Am'
p939
S'1274883822'
p940
tp941
a(S'Bo Diddley'
p942
S'Can I Walk You Home'
p943
S'http://www.last.fm/music/Bo+Diddley/_/Can+I+Walk+You+Home'
p944
S'1274883615'
p945
tp946
a(S'Nirvana'
p947
S'Lake Of Fire'
p948
S'http://www.last.fm/music/Nirvana/_/Lake+Of+Fire'
p949
S'1274883266'
p950
tp951
a(S'Alice in Chains'
p952
S'Dam That River'
p953
S'http://www.last.fm/music/Alice+in+Chains/_/Dam+That+River'
p954
S'1274883090'
p955
tp956
a(S'Alice in Chains'
p957
S'Angry Chair'
p958
S'http://www.last.fm/music/Alice+in+Chains/_/Angry+Chair'
p959
S'1274882890'
p960
tp961
a(S'Nirvana'
p962
S'Smells Like Teen Spirit'
p963
S'http://www.last.fm/music/Nirvana/_/Smells+Like+Teen+Spirit'
p964
S'1274882602'
p965
tp966
a(S'Alice in Chains'
p967
S'Rain When I Die'
p968
S'http://www.last.fm/music/Alice+in+Chains/_/Rain+When+I+Die'
p969
S'1274882301'
p970
tp971
a(S'Alice Cooper'
p972
S'Zombie Dance'
p973
S'http://www.last.fm/music/Alice+Cooper/_/Zombie+Dance'
p974
S'1274881939'
p975
tp976
a(S'Lynyrd Skynyrd'
p977
S'Preacher Man'
p978
S'http://www.last.fm/music/Lynyrd+Skynyrd/_/Preacher+Man'
p979
S'1274881653'
p980
tp981
a(S'Black Sabbath'
p982
S'Megalomania'
p983
S'http://www.last.fm/music/Black+Sabbath/_/Megalomania'
p984
S'1274881027'
p985
tp986
a(S'Nirvana'
p987
S"Jesus Doesn't Want Me For A Sunbeam"
p988
S'http://www.last.fm/music/Nirvana/_/Jesus+Doesn%27t+Want+Me+For+A+Sunbeam'
p989
S'1274807748'
p990
tp991
a(S'Daft Punk'
p992
S'One More Time'
p993
S'http://www.last.fm/music/Daft+Punk/_/One+More+Time'
p994
S'1274807541'
p995
tp996
a(S'ZZ Top'
p997
S'Prettyhead'
p998
S'http://www.last.fm/music/ZZ+Top/_/Prettyhead'
p999
S'1274807212'
p1000
tp1001
a.