(lp1
(S'Judas Priest'
p2
S'Turbo Lover'
p3
S'http://www.last.fm/music/Judas+Priest/_/Turbo+Lover'
p4
S'1268142571'
p5
tp6
a(S'Them Crooked Vultures'
p7
S'Gunman'
p8
S'http://www.last.fm/music/Them+Crooked+Vultures/_/Gunman'
p9
S'1268142285'
p10
tp11
a(S'Rainbow'
p12
S'Gates of Babylon'
p13
S'http://www.last.fm/music/Rainbow/_/Gates+of+Babylon'
p14
S'1268138035'
p15
tp16
a(S'Pearl Jam'
p17
S'Go'
p18
S'http://www.last.fm/music/Pearl+Jam/_/Go'
p19
S'1268137842'
p20
tp21
a(S'Metallica'
p22
S'Too Late Too Late'
p23
S'http://www.last.fm/music/Metallica/_/Too+Late+Too+Late'
p24
S'1268137650'
p25
tp26
a(S'ZZ Top'
p27
S'Fuzzbox Voodoo'
p28
S'http://www.last.fm/music/ZZ+Top/_/Fuzzbox+Voodoo'
p29
S'1268137367'
p30
tp31
a(S'Chickenfoot'
p32
S'Down The Drain'
p33
S'http://www.last.fm/music/Chickenfoot/_/Down+The+Drain'
p34
S'1268136990'
p35
tp36
a(S'Them Crooked Vultures'
p37
S'Gunman'
p38
S'http://www.last.fm/music/Them+Crooked+Vultures/_/Gunman'
p39
S'1268136704'
p40
tp41
a(S'AC/DC'
p42
S'Thunderstruck'
p43
S'http://www.last.fm/music/AC%2FDC/_/Thunderstruck'
p44
S'1268136308'
p45
tp46
a(S'ZZ Top'
p47
S"What's Up With That"
p48
S'http://www.last.fm/music/ZZ+Top/_/What%27s+Up+With+That'
p49
S'1268135988'
p50
tp51
a(S'Velvet Revolver'
p52
S'Get Out The Door'
p53
S'http://www.last.fm/music/Velvet+Revolver/_/Get+Out+The+Door'
p54
S'1268135793'
p55
tp56
a(S'ZZ Top'
p57
S'PCH'
p58
S'http://www.last.fm/music/ZZ+Top/_/PCH'
p59
S'1268135556'
p60
tp61
a(S'Stone Temple Pilots'
p62
S'Adhesive'
p63
S'http://www.last.fm/music/Stone+Temple+Pilots/_/Adhesive'
p64
S'1268135222'
p65
tp66
a(S'ZZ Top'
p67
S'Cherry Red'
p68
S'http://www.last.fm/music/ZZ+Top/_/Cherry+Red'
p69
S'1268134943'
p70
tp71
a(S'Queens of the Stone Age'
p72
S'Misfit Love'
p73
S'http://www.last.fm/music/Queens+of+the+Stone+Age/_/Misfit+Love'
p74
S'1268134603'
p75
tp76
a(S'Iron Maiden'
p77
S'The Evil That Men Do'
p78
S'http://www.last.fm/music/Iron+Maiden/_/The+Evil+That+Men+Do'
p79
S'1268134326'
p80
tp81
a(S'Ozzy Osbourne'
p82
S"I Don't Wanna Stop"
p83
S'http://www.last.fm/music/Ozzy+Osbourne/_/I+Don%27t+Wanna+Stop'
p84
S'1268134086'
p85
tp86
a(S'Pearl Jam'
p87
S'Leash'
p88
S'http://www.last.fm/music/Pearl+Jam/_/Leash'
p89
S'1268133896'
p90
tp91
a(S'Live'
p92
S'Feel The Quiet River Rage'
p93
S'http://www.last.fm/music/Live/_/Feel+The+Quiet+River+Rage'
p94
S'1268133577'
p95
tp96
a(S'Megadeth'
p97
S'Almost Honest'
p98
S'http://www.last.fm/music/Megadeth/_/Almost+Honest'
p99
S'1268133334'
p100
tp101
a(S'Metallica'
p102
S'Of Wolf and Man'
p103
S'http://www.last.fm/music/Metallica/_/Of+Wolf+and+Man'
p104
S'1268133078'
p105
tp106
a(S'Iron Maiden'
p107
S'Wrathchild'
p108
S'http://www.last.fm/music/Iron+Maiden/_/Wrathchild'
p109
S'1268132903'
p110
tp111
a(S'Iron Maiden'
p112
S'The Ides Of March'
p113
S'http://www.last.fm/music/Iron+Maiden/_/The+Ides+Of+March'
p114
S'1268132797'
p115
tp116
a(S'Iron Maiden'
p117
S'Innocent Exile'
p118
S'http://www.last.fm/music/Iron+Maiden/_/Innocent+Exile'
p119
S'1268085592'
p120
tp121
a(S'Iron Maiden'
p122
S'Wrathchild'
p123
S'http://www.last.fm/music/Iron+Maiden/_/Wrathchild'
p124
S'1268085417'
p125
tp126
a(S'Iron Maiden'
p127
S'The Ides Of March'
p128
S'http://www.last.fm/music/Iron+Maiden/_/The+Ides+Of+March'
p129
S'1268085311'
p130
tp131
a(S'Rainbow'
p132
S'Gates of Babylon'
p133
S'http://www.last.fm/music/Rainbow/_/Gates+of+Babylon'
p134
S'1268085110'
p135
tp136
a(S'Diamond Head'
p137
S'This Planet and Me'
p138
S'http://www.last.fm/music/Diamond+Head/_/This+Planet+and+Me'
p139
S'1268084814'
p140
tp141
a(S'ZZ Top'
p142
S'Antenna Head'
p143
S'http://www.last.fm/music/ZZ+Top/_/Antenna+Head'
p144
S'1268084531'
p145
tp146
a(S'ZZ Top'
p147
S'Pincushion'
p148
S'http://www.last.fm/music/ZZ+Top/_/Pincushion'
p149
S'1268084258'
p150
tp151
a(S'Alice in Chains'
p152
S'Rotten Apple'
p153
S'http://www.last.fm/music/Alice+in+Chains/_/Rotten+Apple'
p154
S'1268083839'
p155
tp156
a(S'Airbourne'
p157
S"Runnin' Wild"
p158
S'http://www.last.fm/music/Airbourne/_/Runnin%27+Wild'
p159
S'1268083620'
p160
tp161
a(S'Alice in Chains'
p162
S'Bleed the Freak'
p163
S'http://www.last.fm/music/Alice+in+Chains/_/Bleed+the+Freak'
p164
S'1268083465'
p165
tp166
a(S'Megadeth'
p167
S'Almost Honest'
p168
S'http://www.last.fm/music/Megadeth/_/Almost+Honest'
p169
S'1268083222'
p170
tp171
a(S'Megadeth'
p172
S'The Disintegrators'
p173
S'http://www.last.fm/music/Megadeth/_/The+Disintegrators'
p174
S'1268083038'
p175
tp176
a(S'Alice in Chains'
p177
S'Brother'
p178
S'http://www.last.fm/music/Alice+in+Chains/_/Brother'
p179
S'1268079875'
p180
tp181
a(S'Black Sabbath'
p182
S'Behind the Wall of Sleep'
p183
S'http://www.last.fm/music/Black+Sabbath/_/Behind+the+Wall+of+Sleep'
p184
S'1268079658'
p185
tp186
a(S'AC/DC'
p187
S'Goodbye & Good Riddance to Bad Luck'
p188
S'http://www.last.fm/music/AC%2FDC/_/Goodbye+&+Good+Riddance+to+Bad+Luck'
p189
S'1268079464'
p190
tp191
a(S'Them Crooked Vultures'
p192
S'Gunman'
p193
S'http://www.last.fm/music/Them+Crooked+Vultures/_/Gunman'
p194
S'1268079178'
p195
tp196
a(S'Butthole Surfers'
p197
S'Pepper'
p198
S'http://www.last.fm/music/Butthole+Surfers/_/Pepper'
p199
S'1268064127'
p200
tp201
a(S'ZZ Top'
p202
S'Antenna Head'
p203
S'http://www.last.fm/music/ZZ+Top/_/Antenna+Head'
p204
S'1268063845'
p205
tp206
a(S'Megadeth'
p207
S'Almost Honest'
p208
S'http://www.last.fm/music/Megadeth/_/Almost+Honest'
p209
S'1268063709'
p210
tp211
a(S'Bad Religion'
p212
S'News From the Front'
p213
S'http://www.last.fm/music/Bad+Religion/_/News+From+the+Front'
p214
S'1268063567'
p215
tp216
a(S'Soundgarden'
p217
S'Slaves & Bulldozers'
p218
S'http://www.last.fm/music/Soundgarden/_/Slaves+&+Bulldozers'
p219
S'1268063151'
p220
tp221
a(S'Temple of the Dog'
p222
S'Wooden Jesus'
p223
S'http://www.last.fm/music/Temple+of+the+Dog/_/Wooden+Jesus'
p224
S'1268062901'
p225
tp226
a(S'Alice in Chains'
p227
S'Bleed the Freak'
p228
S'http://www.last.fm/music/Alice+in+Chains/_/Bleed+the+Freak'
p229
S'1268054760'
p230
tp231
a(S'Alice in Chains'
p232
S'Rotten Apple'
p233
S'http://www.last.fm/music/Alice+in+Chains/_/Rotten+Apple'
p234
S'1268054341'
p235
tp236
a(S'Velvet Revolver'
p237
S'Get Out The Door'
p238
S'http://www.last.fm/music/Velvet+Revolver/_/Get+Out+The+Door'
p239
S'1268054093'
p240
tp241
a(S'Black Sabbath'
p242
S'Megalomania'
p243
S'http://www.last.fm/music/Black+Sabbath/_/Megalomania'
p244
S'1268053142'
p245
tp246
a(S'Alice Cooper'
p247
S'House of Fire'
p248
S'http://www.last.fm/music/Alice+Cooper/_/House+of+Fire'
p249
S'1268052914'
p250
tp251
a(S'Black Sabbath'
p252
S'Solitude'
p253
S'http://www.last.fm/music/Black+Sabbath/_/Solitude'
p254
S'1268052612'
p255
tp256
a(S'Stone Temple Pilots'
p257
S'And So I Know'
p258
S'http://www.last.fm/music/Stone+Temple+Pilots/_/And+So+I+Know'
p259
S'1268052375'
p260
tp261
a(S'Chickenfoot'
p262
S'Down The Drain'
p263
S'http://www.last.fm/music/Chickenfoot/_/Down+The+Drain'
p264
S'1268051997'
p265
tp266
a(S'Metallica'
p267
S'...and Justice for All'
p268
S'http://www.last.fm/music/Metallica/_/...and+Justice+for+All'
p269
S'1268051411'
p270
tp271
a(S'Live'
p272
S'River Town'
p273
S'http://www.last.fm/music/Live/_/River+Town'
p274
S'1268051162'
p275
tp276
a(S'Velvet Revolver'
p277
S'Headspace'
p278
S'http://www.last.fm/music/Velvet+Revolver/_/Headspace'
p279
S'1268050939'
p280
tp281
a(S'AC/DC'
p282
S'Decibel'
p283
S'http://www.last.fm/music/AC%2FDC/_/Decibel'
p284
S'1268050725'
p285
tp286
a(S'Stone Temple Pilots'
p287
S"Pop's Love Suicide"
p288
S'http://www.last.fm/music/Stone+Temple+Pilots/_/Pop%27s+Love+Suicide'
p289
S'1268050502'
p290
tp291
a(S'Them Crooked Vultures'
p292
S'Gunman'
p293
S'http://www.last.fm/music/Them+Crooked+Vultures/_/Gunman'
p294
S'1268050215'
p295
tp296
a(S'Stone Temple Pilots'
p297
S'Silvergun Superman'
p298
S'http://www.last.fm/music/Stone+Temple+Pilots/_/Silvergun+Superman'
p299
S'1268049899'
p300
tp301
a(S'Judas Priest'
p302
S'Turbo Lover'
p303
S'http://www.last.fm/music/Judas+Priest/_/Turbo+Lover'
p304
S'1268049565'
p305
tp306
a(S'Airbourne'
p307
S"Runnin' Wild"
p308
S'http://www.last.fm/music/Airbourne/_/Runnin%27+Wild'
p309
S'1268049347'
p310
tp311
a(S'Megadeth'
p312
S'The Disintegrators'
p313
S'http://www.last.fm/music/Megadeth/_/The+Disintegrators'
p314
S'1268049162'
p315
tp316
a(S'Temple of the Dog'
p317
S'Pushin Forward Back'
p318
S'http://www.last.fm/music/Temple+of+the+Dog/_/Pushin+Forward+Back'
p319
S'1268048938'
p320
tp321
a(S'ZZ Top'
p322
S'Cherry Red'
p323
S'http://www.last.fm/music/ZZ+Top/_/Cherry+Red'
p324
S'1268048635'
p325
tp326
a(S'Jerry Cantrell'
p327
S'Settling Down'
p328
S'http://www.last.fm/music/Jerry+Cantrell/_/Settling+Down'
p329
S'1267826495'
p330
tp331
a(S'Black Sabbath'
p332
S'Solitude'
p333
S'http://www.last.fm/music/Black+Sabbath/_/Solitude'
p334
S'1267826193'
p335
tp336
a(S'Megadeth'
p337
S'Reckoning Day'
p338
S'http://www.last.fm/music/Megadeth/_/Reckoning+Day'
p339
S'1267825918'
p340
tp341
a(S'ZZ Top'
p342
S'Pincushion'
p343
S'http://www.last.fm/music/ZZ+Top/_/Pincushion'
p344
S'1267825644'
p345
tp346
a(S'AC/DC'
p347
S'Thunderstruck'
p348
S'http://www.last.fm/music/AC%2FDC/_/Thunderstruck'
p349
S'1267825249'
p350
tp351
a(S'Rainbow'
p352
S'Gates of Babylon'
p353
S'http://www.last.fm/music/Rainbow/_/Gates+of+Babylon'
p354
S'1267824840'
p355
tp356
a(S'Live'
p357
S'Feel The Quiet River Rage'
p358
S'http://www.last.fm/music/Live/_/Feel+The+Quiet+River+Rage'
p359
S'1267824563'
p360
tp361
a(S'Chickenfoot'
p362
S'Down The Drain'
p363
S'http://www.last.fm/music/Chickenfoot/_/Down+The+Drain'
p364
S'1267824185'
p365
tp366
a(S'Stone Temple Pilots'
p367
S'Ride the Cliche'
p368
S'http://www.last.fm/music/Stone+Temple+Pilots/_/Ride+the+Cliche'
p369
S'1267823987'
p370
tp371
a(S'Metallica'
p372
S'Of Wolf and Man'
p373
S'http://www.last.fm/music/Metallica/_/Of+Wolf+and+Man'
p374
S'1267823731'
p375
tp376
a(S'ZZ Top'
p377
S'Antenna Head'
p378
S'http://www.last.fm/music/ZZ+Top/_/Antenna+Head'
p379
S'1267823448'
p380
tp381
a(S'ZZ Top'
p382
S'Cherry Red'
p383
S'http://www.last.fm/music/ZZ+Top/_/Cherry+Red'
p384
S'1267823169'
p385
tp386
a(S'Diamond Head'
p387
S'Mine All Mine'
p388
S'http://www.last.fm/music/Diamond+Head/_/Mine+All+Mine'
p389
S'1267822923'
p390
tp391
a(S'Pearl Jam'
p392
S'Leash'
p393
S'http://www.last.fm/music/Pearl+Jam/_/Leash'
p394
S'1267822733'
p395
tp396
a(S'Stone Temple Pilots'
p397
S'Seven Caged Tigers'
p398
S'http://www.last.fm/music/Stone+Temple+Pilots/_/Seven+Caged+Tigers'
p399
S'1267822476'
p400
tp401
a(S'Iron Maiden'
p402
S'Public Enema Number One'
p403
S'http://www.last.fm/music/Iron+Maiden/_/Public+Enema+Number+One'
p404
S'1267822223'
p405
tp406
a(S'Queens of the Stone Age'
p407
S'Make It Wit Chu'
p408
S'http://www.last.fm/music/Queens+of+the+Stone+Age/_/Make+It+Wit+Chu'
p409
S'1267821932'
p410
tp411
a(S'Pearl Jam'
p412
S'Go'
p413
S'http://www.last.fm/music/Pearl+Jam/_/Go'
p414
S'1267821739'
p415
tp416
a(S'Alice Cooper'
p417
S"Nothing's Free"
p418
S'http://www.last.fm/music/Alice+Cooper/_/Nothing%27s+Free'
p419
S'1267730364'
p420
tp421
a(S'Judas Priest'
p422
S'Worth Fighting For'
p423
S'http://www.last.fm/music/Judas+Priest/_/Worth+Fighting+For'
p424
S'1267730106'
p425
tp426
a(S'ZZ Top'
p427
S'Fuzzbox Voodoo'
p428
S'http://www.last.fm/music/ZZ+Top/_/Fuzzbox+Voodoo'
p429
S'1267729823'
p430
tp431
a(S'Queens of the Stone Age'
p432
S'Make It Wit Chu'
p433
S'http://www.last.fm/music/Queens+of+the+Stone+Age/_/Make+It+Wit+Chu'
p434
S'1267729532'
p435
tp436
a(S'Alice Cooper'
p437
S'Hurricane Years'
p438
S'http://www.last.fm/music/Alice+Cooper/_/Hurricane+Years'
p439
S'1267728068'
p440
tp441
a(S'Them Crooked Vultures'
p442
S'No One Loves Me & Neither Do I'
p443
S'http://www.last.fm/music/Them+Crooked+Vultures/_/No+One+Loves+Me+&+Neither+Do+I'
p444
S'1267727758'
p445
tp446
a(S'Butthole Surfers'
p447
S'Pepper'
p448
S'http://www.last.fm/music/Butthole+Surfers/_/Pepper'
p449
S'1267727460'
p450
tp451
a(S'Alice in Chains'
p452
S'Brother'
p453
S'http://www.last.fm/music/Alice+in+Chains/_/Brother'
p454
S'1267727192'
p455
tp456
a(S'ZZ Top'
p457
S'PCH'
p458
S'http://www.last.fm/music/ZZ+Top/_/PCH'
p459
S'1267726955'
p460
tp461
a(S'Megadeth'
p462
S'Train of Consequences'
p463
S'http://www.last.fm/music/Megadeth/_/Train+of+Consequences'
p464
S'1267726749'
p465
tp466
a(S'AC/DC'
p467
S'Thunderstruck'
p468
S'http://www.last.fm/music/AC%2FDC/_/Thunderstruck'
p469
S'1267726354'
p470
tp471
a(S'Them Crooked Vultures'
p472
S'Gunman'
p473
S'http://www.last.fm/music/Them+Crooked+Vultures/_/Gunman'
p474
S'1267726067'
p475
tp476
a(S'Iron Maiden'
p477
S'The Evil That Men Do'
p478
S'http://www.last.fm/music/Iron+Maiden/_/The+Evil+That+Men+Do'
p479
S'1267725782'
p480
tp481
a(S'Alice in Chains'
p482
S'Rotten Apple'
p483
S'http://www.last.fm/music/Alice+in+Chains/_/Rotten+Apple'
p484
S'1267725326'
p485
tp486
a(S'AC/DC'
p487
S'Goodbye & Good Riddance to Bad Luck'
p488
S'http://www.last.fm/music/AC%2FDC/_/Goodbye+&+Good+Riddance+to+Bad+Luck'
p489
S'1267725132'
p490
tp491
a(S'Live'
p492
S'Mirror Song'
p493
S'http://www.last.fm/music/Live/_/Mirror+Song'
p494
S'1267724914'
p495
tp496
a(S'Iron Maiden'
p497
S'Innocent Exile'
p498
S'http://www.last.fm/music/Iron+Maiden/_/Innocent+Exile'
p499
S'1267724681'
p500
tp501
a(S'Stone Temple Pilots'
p502
S'Seven Caged Tigers'
p503
S'http://www.last.fm/music/Stone+Temple+Pilots/_/Seven+Caged+Tigers'
p504
S'1267724425'
p505
tp506
a(S'Temple of the Dog'
p507
S'Wooden Jesus'
p508
S'http://www.last.fm/music/Temple+of+the+Dog/_/Wooden+Jesus'
p509
S'1267724152'
p510
tp511
a(S'Velvet Revolver'
p512
S'Get Out The Door'
p513
S'http://www.last.fm/music/Velvet+Revolver/_/Get+Out+The+Door'
p514
S'1267723957'
p515
tp516
a(S'Jerry Cantrell'
p517
S'Settling Down'
p518
S'http://www.last.fm/music/Jerry+Cantrell/_/Settling+Down'
p519
S'1267709065'
p520
tp521
a(S'Temple of the Dog'
p522
S'Reach Down'
p523
S'http://www.last.fm/music/Temple+of+the+Dog/_/Reach+Down'
p524
S'1267708392'
p525
tp526
a(S'Velvet Revolver'
p527
S'Get Out The Door'
p528
S'http://www.last.fm/music/Velvet+Revolver/_/Get+Out+The+Door'
p529
S'1267708198'
p530
tp531
a(S'Ozzy Osbourne'
p532
S'Trap Door'
p533
S'http://www.last.fm/music/Ozzy+Osbourne/_/Trap+Door'
p534
S'1267707952'
p535
tp536
a(S'Metallica'
p537
S'Too Late Too Late'
p538
S'http://www.last.fm/music/Metallica/_/Too+Late+Too+Late'
p539
S'1267707760'
p540
tp541
a(S'Alice Cooper'
p542
S"Nothing's Free"
p543
S'http://www.last.fm/music/Alice+Cooper/_/Nothing%27s+Free'
p544
S'1267707459'
p545
tp546
a(S'AC/DC'
p547
S'Goodbye & Good Riddance to Bad Luck'
p548
S'http://www.last.fm/music/AC%2FDC/_/Goodbye+&+Good+Riddance+to+Bad+Luck'
p549
S'1267707265'
p550
tp551
a(S'Megadeth'
p552
S'Train of Consequences'
p553
S'http://www.last.fm/music/Megadeth/_/Train+of+Consequences'
p554
S'1267707059'
p555
tp556
a(S'Metallica'
p557
S'Of Wolf and Man'
p558
S'http://www.last.fm/music/Metallica/_/Of+Wolf+and+Man'
p559
S'1267706803'
p560
tp561
a(S'Them Crooked Vultures'
p562
S'Gunman'
p563
S'http://www.last.fm/music/Them+Crooked+Vultures/_/Gunman'
p564
S'1267706516'
p565
tp566
a(S'Them Crooked Vultures'
p567
S'No One Loves Me & Neither Do I'
p568
S'http://www.last.fm/music/Them+Crooked+Vultures/_/No+One+Loves+Me+&+Neither+Do+I'
p569
S'1267706206'
p570
tp571
a(S'Stone Temple Pilots'
p572
S'Seven Caged Tigers'
p573
S'http://www.last.fm/music/Stone+Temple+Pilots/_/Seven+Caged+Tigers'
p574
S'1267705949'
p575
tp576
a(S'Stone Temple Pilots'
p577
S"Pop's Love Suicide"
p578
S'http://www.last.fm/music/Stone+Temple+Pilots/_/Pop%27s+Love+Suicide'
p579
S'1267705726'
p580
tp581
a(S'Ozzy Osbourne'
p582
S"I Don't Wanna Stop"
p583
S'http://www.last.fm/music/Ozzy+Osbourne/_/I+Don%27t+Wanna+Stop'
p584
S'1267705486'
p585
tp586
a(S'Live'
p587
S'Mirror Song'
p588
S'http://www.last.fm/music/Live/_/Mirror+Song'
p589
S'1267705268'
p590
tp591
a(S'Temple of the Dog'
p592
S'Pushin Forward Back'
p593
S'http://www.last.fm/music/Temple+of+the+Dog/_/Pushin+Forward+Back'
p594
S'1267705043'
p595
tp596
a(S'Black Sabbath'
p597
S'Get a Grip'
p598
S'http://www.last.fm/music/Black+Sabbath/_/Get+a+Grip'
p599
S'1267704804'
p600
tp601
a(S'Temple of the Dog'
p602
S'Four Walled World'
p603
S'http://www.last.fm/music/Temple+of+the+Dog/_/Four+Walled+World'
p604
S'1267704390'
p605
tp606
a(S'Queens of the Stone Age'
p607
S'Misfit Love'
p608
S'http://www.last.fm/music/Queens+of+the+Stone+Age/_/Misfit+Love'
p609
S'1267704050'
p610
tp611
a(S'AC/DC'
p612
S'Thunderstruck'
p613
S'http://www.last.fm/music/AC%2FDC/_/Thunderstruck'
p614
S'1267655248'
p615
tp616
a(S'ZZ Top'
p617
S'Vincent Price Blues'
p618
S'http://www.last.fm/music/ZZ+Top/_/Vincent+Price+Blues'
p619
S'1267654884'
p620
tp621
a(S'Them Crooked Vultures'
p622
S'No One Loves Me & Neither Do I'
p623
S'http://www.last.fm/music/Them+Crooked+Vultures/_/No+One+Loves+Me+&+Neither+Do+I'
p624
S'1267654574'
p625
tp626
a(S'ZZ Top'
p627
S"What's Up With That"
p628
S'http://www.last.fm/music/ZZ+Top/_/What%27s+Up+With+That'
p629
S'1267654254'
p630
tp631
a(S'Black Sabbath'
p632
S'Wheels of Confusion'
p633
S'http://www.last.fm/music/Black+Sabbath/_/Wheels+of+Confusion'
p634
S'1267653944'
p635
tp636
a(S'Black Sabbath'
p637
S'Spiral Architect'
p638
S'http://www.last.fm/music/Black+Sabbath/_/Spiral+Architect'
p639
S'1267653648'
p640
tp641
a(S'Black Sabbath'
p642
S'Megalomania'
p643
S'http://www.last.fm/music/Black+Sabbath/_/Megalomania'
p644
S'1267653068'
p645
tp646
a(S'Queens of the Stone Age'
p647
S'Misfit Love'
p648
S'http://www.last.fm/music/Queens+of+the+Stone+Age/_/Misfit+Love'
p649
S'1267652728'
p650
tp651
a(S'Pearl Jam'
p652
S'Leash'
p653
S'http://www.last.fm/music/Pearl+Jam/_/Leash'
p654
S'1267652358'
p655
tp656
a(S'Ozzy Osbourne'
p657
S"I Don't Wanna Stop"
p658
S'http://www.last.fm/music/Ozzy+Osbourne/_/I+Don%27t+Wanna+Stop'
p659
S'1267652118'
p660
tp661
a(S'Bush'
p662
S'Machinehead'
p663
S'http://www.last.fm/music/Bush/_/Machinehead'
p664
S'1267651775'
p665
tp666
a(S'Stone Temple Pilots'
p667
S"Pop's Love Suicide"
p668
S'http://www.last.fm/music/Stone+Temple+Pilots/_/Pop%27s+Love+Suicide'
p669
S'1267651551'
p670
tp671
a(S'Megadeth'
p672
S'Reckoning Day'
p673
S'http://www.last.fm/music/Megadeth/_/Reckoning+Day'
p674
S'1267651276'
p675
tp676
a(S'Stone Temple Pilots'
p677
S'Vasoline'
p678
S'http://www.last.fm/music/Stone+Temple+Pilots/_/Vasoline'
p679
S'1267651099'
p680
tp681
a(S'Rainbow'
p682
S'Gates of Babylon'
p683
S'http://www.last.fm/music/Rainbow/_/Gates+of+Babylon'
p684
S'1267650588'
p685
tp686
a(S'Black Sabbath'
p687
S'Get a Grip'
p688
S'http://www.last.fm/music/Black+Sabbath/_/Get+a+Grip'
p689
S'1267650344'
p690
tp691
a(S'Megadeth'
p692
S'Train of Consequences'
p693
S'http://www.last.fm/music/Megadeth/_/Train+of+Consequences'
p694
S'1267650114'
p695
tp696
a(S'Airbourne'
p697
S"Runnin' Wild"
p698
S'http://www.last.fm/music/Airbourne/_/Runnin%27+Wild'
p699
S'1267641365'
p700
tp701
a(S'ZZ Top'
p702
S'Vincent Price Blues'
p703
S'http://www.last.fm/music/ZZ+Top/_/Vincent+Price+Blues'
p704
S'1267641001'
p705
tp706
a(S'AC/DC'
p707
S'Decibel'
p708
S'http://www.last.fm/music/AC%2FDC/_/Decibel'
p709
S'1267640787'
p710
tp711
a(S'Velvet Revolver'
p712
S'Headspace'
p713
S'http://www.last.fm/music/Velvet+Revolver/_/Headspace'
p714
S'1267640564'
p715
tp716
a(S'Temple of the Dog'
p717
S'Wooden Jesus'
p718
S'http://www.last.fm/music/Temple+of+the+Dog/_/Wooden+Jesus'
p719
S'1267640314'
p720
tp721
a(S'Ozzy Osbourne'
p722
S'Trap Door'
p723
S'http://www.last.fm/music/Ozzy+Osbourne/_/Trap+Door'
p724
S'1267639654'
p725
tp726
a(S'Metallica'
p727
S'Blackened'
p728
S'http://www.last.fm/music/Metallica/_/Blackened'
p729
S'1267633499'
p730
tp731
a(S'Alice in Chains'
p732
S'Bleed the Freak'
p733
S'http://www.last.fm/music/Alice+in+Chains/_/Bleed+the+Freak'
p734
S'1267633257'
p735
tp736
a(S'Alice in Chains'
p737
S'Rotten Apple'
p738
S'http://www.last.fm/music/Alice+in+Chains/_/Rotten+Apple'
p739
S'1267632838'
p740
tp741
a(S'Ozzy Osbourne'
p742
S"I Don't Wanna Stop"
p743
S'http://www.last.fm/music/Ozzy+Osbourne/_/I+Don%27t+Wanna+Stop'
p744
S'1267632598'
p745
tp746
a(S'Temple of the Dog'
p747
S'Pushin Forward Back'
p748
S'http://www.last.fm/music/Temple+of+the+Dog/_/Pushin+Forward+Back'
p749
S'1267632374'
p750
tp751
a(S'Judas Priest'
p752
S'Worth Fighting For'
p753
S'http://www.last.fm/music/Judas+Priest/_/Worth+Fighting+For'
p754
S'1267632115'
p755
tp756
a(S'Faith No More'
p757
S'Midlife Crisis'
p758
S'http://www.last.fm/music/Faith+No+More/_/Midlife+Crisis'
p759
S'1267631852'
p760
tp761
a(S'ZZ Top'
p762
S'Antenna Head'
p763
S'http://www.last.fm/music/ZZ+Top/_/Antenna+Head'
p764
S'1267631569'
p765
tp766
a(S'Stone Temple Pilots'
p767
S'Adhesive'
p768
S'http://www.last.fm/music/Stone+Temple+Pilots/_/Adhesive'
p769
S'1267631234'
p770
tp771
a(S'Judas Priest'
p772
S'Turbo Lover'
p773
S'http://www.last.fm/music/Judas+Priest/_/Turbo+Lover'
p774
S'1267628327'
p775
tp776
a(S'Live'
p777
S'Mirror Song'
p778
S'http://www.last.fm/music/Live/_/Mirror+Song'
p779
S'1267628108'
p780
tp781
a(S'Metallica'
p782
S'...and Justice for All'
p783
S'http://www.last.fm/music/Metallica/_/...and+Justice+for+All'
p784
S'1267627522'
p785
tp786
a(S'Metallica'
p787
S'Too Late Too Late'
p788
S'http://www.last.fm/music/Metallica/_/Too+Late+Too+Late'
p789
S'1267627330'
p790
tp791
a(S'Velvet Revolver'
p792
S'Headspace'
p793
S'http://www.last.fm/music/Velvet+Revolver/_/Headspace'
p794
S'1267627107'
p795
tp796
a(S'Iron Maiden'
p797
S'The Ides Of March'
p798
S'http://www.last.fm/music/Iron+Maiden/_/The+Ides+Of+March'
p799
S'1267627001'
p800
tp801
a(S'Queens of the Stone Age'
p802
S'Little Sister'
p803
S'http://www.last.fm/music/Queens+of+the+Stone+Age/_/Little+Sister'
p804
S'1267626827'
p805
tp806
a(S'Chickenfoot'
p807
S'Down The Drain'
p808
S'http://www.last.fm/music/Chickenfoot/_/Down+The+Drain'
p809
S'1267626450'
p810
tp811
a(S'Iron Maiden'
p812
S'Innocent Exile'
p813
S'http://www.last.fm/music/Iron+Maiden/_/Innocent+Exile'
p814
S'1267626218'
p815
tp816
a(S'Megadeth'
p817
S'Reckoning Day'
p818
S'http://www.last.fm/music/Megadeth/_/Reckoning+Day'
p819
S'1267625942'
p820
tp821
a(S'Black Sabbath'
p822
S'Megalomania'
p823
S'http://www.last.fm/music/Black+Sabbath/_/Megalomania'
p824
S'1267625362'
p825
tp826
a(S'AC/DC'
p827
S'Thunderstruck'
p828
S'http://www.last.fm/music/AC%2FDC/_/Thunderstruck'
p829
S'1267624967'
p830
tp831
a(S'Velvet Revolver'
p832
S'Fall To Pieces'
p833
S'http://www.last.fm/music/Velvet+Revolver/_/Fall+To+Pieces'
p834
S'1267624696'
p835
tp836
a(S'Stone Temple Pilots'
p837
S'And So I Know'
p838
S'http://www.last.fm/music/Stone+Temple+Pilots/_/And+So+I+Know'
p839
S'1267624458'
p840
tp841
a(S'Rainbow'
p842
S'Gates of Babylon'
p843
S'http://www.last.fm/music/Rainbow/_/Gates+of+Babylon'
p844
S'1267624049'
p845
tp846
a(S'Iron Maiden'
p847
S'The Evil That Men Do'
p848
S'http://www.last.fm/music/Iron+Maiden/_/The+Evil+That+Men+Do'
p849
S'1267623771'
p850
tp851
a(S'ZZ Top'
p852
S'PCH'
p853
S'http://www.last.fm/music/ZZ+Top/_/PCH'
p854
S'1267623437'
p855
tp856
a(S'Live'
p857
S'Tired of "Me"'
p858
S'http://www.last.fm/music/Live/_/Tired+of+%22Me%22'
p859
S'1267623231'
p860
tp861
a(S'Iron Maiden'
p862
S'Wrathchild'
p863
S'http://www.last.fm/music/Iron+Maiden/_/Wrathchild'
p864
S'1267623056'
p865
tp866
a(S'Bush'
p867
S'Machinehead'
p868
S'http://www.last.fm/music/Bush/_/Machinehead'
p869
S'1267621882'
p870
tp871
a(S'Stone Temple Pilots'
p872
S'Seven Caged Tigers'
p873
S'http://www.last.fm/music/Stone+Temple+Pilots/_/Seven+Caged+Tigers'
p874
S'1267621625'
p875
tp876
a(S'Diamond Head'
p877
S'This Planet and Me'
p878
S'http://www.last.fm/music/Diamond+Head/_/This+Planet+and+Me'
p879
S'1267621329'
p880
tp881
a(S'Live'
p882
S'Brothers Unaware'
p883
S'http://www.last.fm/music/Live/_/Brothers+Unaware'
p884
S'1267621043'
p885
tp886
a(S'Temple of the Dog'
p887
S'Wooden Jesus'
p888
S'http://www.last.fm/music/Temple+of+the+Dog/_/Wooden+Jesus'
p889
S'1267620793'
p890
tp891
a(S'Queens of the Stone Age'
p892
S'Misfit Love'
p893
S'http://www.last.fm/music/Queens+of+the+Stone+Age/_/Misfit+Love'
p894
S'1267620386'
p895
tp896
a(S'Megadeth'
p897
S'Almost Honest'
p898
S'http://www.last.fm/music/Megadeth/_/Almost+Honest'
p899
S'1267620143'
p900
tp901
a(S'Them Crooked Vultures'
p902
S'Gunman'
p903
S'http://www.last.fm/music/Them+Crooked+Vultures/_/Gunman'
p904
S'1267619857'
p905
tp906
a(S'Live'
p907
S'Mirror Song'
p908
S'http://www.last.fm/music/Live/_/Mirror+Song'
p909
S'1267570325'
p910
tp911
a(S'AC/DC'
p912
S'Decibel'
p913
S'http://www.last.fm/music/AC%2FDC/_/Decibel'
p914
S'1267570111'
p915
tp916
a(S'Ozzy Osbourne'
p917
S"I Don't Wanna Stop"
p918
S'http://www.last.fm/music/Ozzy+Osbourne/_/I+Don%27t+Wanna+Stop'
p919
S'1267569872'
p920
tp921
a(S'Black Sabbath'
p922
S'Wheels of Confusion'
p923
S'http://www.last.fm/music/Black+Sabbath/_/Wheels+of+Confusion'
p924
S'1267569377'
p925
tp926
a(S'Metallica'
p927
S'...and Justice for All'
p928
S'http://www.last.fm/music/Metallica/_/...and+Justice+for+All'
p929
S'1267568640'
p930
tp931
a(S'Stone Temple Pilots'
p932
S'Seven Caged Tigers'
p933
S'http://www.last.fm/music/Stone+Temple+Pilots/_/Seven+Caged+Tigers'
p934
S'1267568383'
p935
tp936
a(S'Iron Maiden'
p937
S'Public Enema Number One'
p938
S'http://www.last.fm/music/Iron+Maiden/_/Public+Enema+Number+One'
p939
S'1267568129'
p940
tp941
a(S'ZZ Top'
p942
S'Pincushion'
p943
S'http://www.last.fm/music/ZZ+Top/_/Pincushion'
p944
S'1267567856'
p945
tp946
a(S'Alice Cooper'
p947
S'House of Fire'
p948
S'http://www.last.fm/music/Alice+Cooper/_/House+of+Fire'
p949
S'1267567629'
p950
tp951
a(S'AC/DC'
p952
S'Thunderstruck'
p953
S'http://www.last.fm/music/AC%2FDC/_/Thunderstruck'
p954
S'1267567024'
p955
tp956
a(S'Megadeth'
p957
S'Reckoning Day'
p958
S'http://www.last.fm/music/Megadeth/_/Reckoning+Day'
p959
S'1267566748'
p960
tp961
a(S'Faith No More'
p962
S'Midlife Crisis'
p963
S'http://www.last.fm/music/Faith+No+More/_/Midlife+Crisis'
p964
S'1267566485'
p965
tp966
a(S'Them Crooked Vultures'
p967
S'New Fang'
p968
S'http://www.last.fm/music/Them+Crooked+Vultures/_/New+Fang'
p969
S'1267566257'
p970
tp971
a(S'Megadeth'
p972
S'Almost Honest'
p973
S'http://www.last.fm/music/Megadeth/_/Almost+Honest'
p974
S'1267566014'
p975
tp976
a(S'Black Sabbath'
p977
S'Behind the Wall of Sleep'
p978
S'http://www.last.fm/music/Black+Sabbath/_/Behind+the+Wall+of+Sleep'
p979
S'1267565797'
p980
tp981
a(S'Metallica'
p982
S'The House Jack Built'
p983
S'http://www.last.fm/music/Metallica/_/The+House+Jack+Built'
p984
S'1267565396'
p985
tp986
a(S'Soundgarden'
p987
S'Room a Thousand Years Wide'
p988
S'http://www.last.fm/music/Soundgarden/_/Room+a+Thousand+Years+Wide'
p989
S'1267565151'
p990
tp991
a(S'Queens of the Stone Age'
p992
S'Make It Wit Chu'
p993
S'http://www.last.fm/music/Queens+of+the+Stone+Age/_/Make+It+Wit+Chu'
p994
S'1267564860'
p995
tp996
a(S'Airbourne'
p997
S"Runnin' Wild"
p998
S'http://www.last.fm/music/Airbourne/_/Runnin%27+Wild'
p999
S'1267554722'
p1000
tp1001
a.