(lp1
(S'Liz Phair'
p2
S"Why Can't I"
p3
S'http://www.last.fm/music/Liz+Phair/_/Why+Can%27t+I'
p4
S'1262638639'
p5
tp6
a(S'Rainbow'
p7
S"Long Live Rock 'N' Roll"
p8
S'http://www.last.fm/music/Rainbow/_/Long+Live+Rock+%27N%27+Roll'
p9
S'1262638377'
p10
tp11
a(S'Chickenfoot'
p12
S'Sexy Little Thing'
p13
S'http://www.last.fm/music/Chickenfoot/_/Sexy+Little+Thing'
p14
S'1262638121'
p15
tp16
a(S'Airbourne'
p17
S'Diamond in the Rough'
p18
S'http://www.last.fm/music/Airbourne/_/Diamond+in+the+Rough'
p19
S'1262637948'
p20
tp21
a(S'Liz Phair'
p22
S"Why Can't I"
p23
S'http://www.last.fm/music/Liz+Phair/_/Why+Can%27t+I'
p24
S'1262637739'
p25
tp26
a(S'Airbourne'
p27
S'Diamond in the Rough'
p28
S'http://www.last.fm/music/Airbourne/_/Diamond+in+the+Rough'
p29
S'1262637565'
p30
tp31
a(S'Jamiroquai'
p32
S'2001'
p33
S'http://www.last.fm/music/Jamiroquai/_/2001'
p34
S'1262637247'
p35
tp36
a(S'Jupiter One'
p37
S'Countdown'
p38
S'http://www.last.fm/music/Jupiter+One/_/Countdown'
p39
S'1262637019'
p40
tp41
a(S'Rainbow'
p42
S"Long Live Rock 'N' Roll"
p43
S'http://www.last.fm/music/Rainbow/_/Long+Live+Rock+%27N%27+Roll'
p44
S'1262636757'
p45
tp46
a(S'Chickenfoot'
p47
S'Sexy Little Thing'
p48
S'http://www.last.fm/music/Chickenfoot/_/Sexy+Little+Thing'
p49
S'1262636502'
p50
tp51
a(S'Rainbow'
p52
S"Long Live Rock 'N' Roll"
p53
S'http://www.last.fm/music/Rainbow/_/Long+Live+Rock+%27N%27+Roll'
p54
S'1262636240'
p55
tp56
a(S'Jupiter One'
p57
S'Countdown'
p58
S'http://www.last.fm/music/Jupiter+One/_/Countdown'
p59
S'1262636012'
p60
tp61
a(S'Airbourne'
p62
S'Diamond in the Rough'
p63
S'http://www.last.fm/music/Airbourne/_/Diamond+in+the+Rough'
p64
S'1262635838'
p65
tp66
a(S'Chickenfoot'
p67
S'Sexy Little Thing'
p68
S'http://www.last.fm/music/Chickenfoot/_/Sexy+Little+Thing'
p69
S'1262635582'
p70
tp71
a(S'Liz Phair'
p72
S"Why Can't I"
p73
S'http://www.last.fm/music/Liz+Phair/_/Why+Can%27t+I'
p74
S'1262635374'
p75
tp76
a(S'Jamiroquai'
p77
S'2001'
p78
S'http://www.last.fm/music/Jamiroquai/_/2001'
p79
S'1262635056'
p80
tp81
a(S'Liz Phair'
p82
S"Why Can't I"
p83
S'http://www.last.fm/music/Liz+Phair/_/Why+Can%27t+I'
p84
S'1262634848'
p85
tp86
a(S'Jamiroquai'
p87
S'2001'
p88
S'http://www.last.fm/music/Jamiroquai/_/2001'
p89
S'1262634530'
p90
tp91
a(S'Jupiter One'
p92
S'Countdown'
p93
S'http://www.last.fm/music/Jupiter+One/_/Countdown'
p94
S'1262634302'
p95
tp96
a(S'Rainbow'
p97
S"Long Live Rock 'N' Roll"
p98
S'http://www.last.fm/music/Rainbow/_/Long+Live+Rock+%27N%27+Roll'
p99
S'1262634040'
p100
tp101
a(S'Airbourne'
p102
S'Diamond in the Rough'
p103
S'http://www.last.fm/music/Airbourne/_/Diamond+in+the+Rough'
p104
S'1262633866'
p105
tp106
a(S'Chickenfoot'
p107
S'Sexy Little Thing'
p108
S'http://www.last.fm/music/Chickenfoot/_/Sexy+Little+Thing'
p109
S'1262633611'
p110
tp111
a(S'Chickenfoot'
p112
S'Sexy Little Thing'
p113
S'http://www.last.fm/music/Chickenfoot/_/Sexy+Little+Thing'
p114
S'1262633355'
p115
tp116
a(S'Airbourne'
p117
S'Diamond in the Rough'
p118
S'http://www.last.fm/music/Airbourne/_/Diamond+in+the+Rough'
p119
S'1262633181'
p120
tp121
a(S'Jamiroquai'
p122
S'2001'
p123
S'http://www.last.fm/music/Jamiroquai/_/2001'
p124
S'1262632863'
p125
tp126
a(S'Jupiter One'
p127
S'Countdown'
p128
S'http://www.last.fm/music/Jupiter+One/_/Countdown'
p129
S'1262632635'
p130
tp131
a(S'Liz Phair'
p132
S"Why Can't I"
p133
S'http://www.last.fm/music/Liz+Phair/_/Why+Can%27t+I'
p134
S'1262632427'
p135
tp136
a(S'Rainbow'
p137
S"Long Live Rock 'N' Roll"
p138
S'http://www.last.fm/music/Rainbow/_/Long+Live+Rock+%27N%27+Roll'
p139
S'1262632165'
p140
tp141
a(S'Jupiter One'
p142
S'Countdown'
p143
S'http://www.last.fm/music/Jupiter+One/_/Countdown'
p144
S'1262631937'
p145
tp146
a(S'Jamiroquai'
p147
S'2001'
p148
S'http://www.last.fm/music/Jamiroquai/_/2001'
p149
S'1262631619'
p150
tp151
a(S'Chickenfoot'
p152
S'Sexy Little Thing'
p153
S'http://www.last.fm/music/Chickenfoot/_/Sexy+Little+Thing'
p154
S'1262631364'
p155
tp156
a(S'Liz Phair'
p157
S"Why Can't I"
p158
S'http://www.last.fm/music/Liz+Phair/_/Why+Can%27t+I'
p159
S'1262631155'
p160
tp161
a(S'Rainbow'
p162
S"Long Live Rock 'N' Roll"
p163
S'http://www.last.fm/music/Rainbow/_/Long+Live+Rock+%27N%27+Roll'
p164
S'1262630893'
p165
tp166
a(S'Airbourne'
p167
S'Diamond in the Rough'
p168
S'http://www.last.fm/music/Airbourne/_/Diamond+in+the+Rough'
p169
S'1262630719'
p170
tp171
a(S'Jamiroquai'
p172
S'2001'
p173
S'http://www.last.fm/music/Jamiroquai/_/2001'
p174
S'1262626399'
p175
tp176
a(S'Airbourne'
p177
S'Diamond in the Rough'
p178
S'http://www.last.fm/music/Airbourne/_/Diamond+in+the+Rough'
p179
S'1262626225'
p180
tp181
a(S'Jupiter One'
p182
S'Countdown'
p183
S'http://www.last.fm/music/Jupiter+One/_/Countdown'
p184
S'1262625997'
p185
tp186
a(S'Liz Phair'
p187
S"Why Can't I"
p188
S'http://www.last.fm/music/Liz+Phair/_/Why+Can%27t+I'
p189
S'1262625788'
p190
tp191
a(S'Chickenfoot'
p192
S'Sexy Little Thing'
p193
S'http://www.last.fm/music/Chickenfoot/_/Sexy+Little+Thing'
p194
S'1262625533'
p195
tp196
a(S'Rainbow'
p197
S"Long Live Rock 'N' Roll"
p198
S'http://www.last.fm/music/Rainbow/_/Long+Live+Rock+%27N%27+Roll'
p199
S'1262625271'
p200
tp201
a(S'Chickenfoot'
p202
S'Sexy Little Thing'
p203
S'http://www.last.fm/music/Chickenfoot/_/Sexy+Little+Thing'
p204
S'1262625016'
p205
tp206
a(S'Airbourne'
p207
S'Diamond in the Rough'
p208
S'http://www.last.fm/music/Airbourne/_/Diamond+in+the+Rough'
p209
S'1262624841'
p210
tp211
a(S'Rainbow'
p212
S"Long Live Rock 'N' Roll"
p213
S'http://www.last.fm/music/Rainbow/_/Long+Live+Rock+%27N%27+Roll'
p214
S'1262624580'
p215
tp216
a(S'Jamiroquai'
p217
S'2001'
p218
S'http://www.last.fm/music/Jamiroquai/_/2001'
p219
S'1262624209'
p220
tp221
a(S'Jupiter One'
p222
S'Countdown'
p223
S'http://www.last.fm/music/Jupiter+One/_/Countdown'
p224
S'1262623981'
p225
tp226
a(S'Liz Phair'
p227
S"Why Can't I"
p228
S'http://www.last.fm/music/Liz+Phair/_/Why+Can%27t+I'
p229
S'1262623773'
p230
tp231
a(S'Jamiroquai'
p232
S'2001'
p233
S'http://www.last.fm/music/Jamiroquai/_/2001'
p234
S'1262623455'
p235
tp236
a(S'Airbourne'
p237
S'Diamond in the Rough'
p238
S'http://www.last.fm/music/Airbourne/_/Diamond+in+the+Rough'
p239
S'1262623281'
p240
tp241
a(S'Chickenfoot'
p242
S'Sexy Little Thing'
p243
S'http://www.last.fm/music/Chickenfoot/_/Sexy+Little+Thing'
p244
S'1262623025'
p245
tp246
a(S'Liz Phair'
p247
S"Why Can't I"
p248
S'http://www.last.fm/music/Liz+Phair/_/Why+Can%27t+I'
p249
S'1262622817'
p250
tp251
a(S'Liz Phair'
p252
S"Why Can't I"
p253
S'http://www.last.fm/music/Liz+Phair/_/Why+Can%27t+I'
p254
S'1262622696'
p255
tp256
a(S'Chickenfoot'
p257
S'Sexy Little Thing'
p258
S'http://www.last.fm/music/Chickenfoot/_/Sexy+Little+Thing'
p259
S'1262622441'
p260
tp261
a(S'Rainbow'
p262
S"Long Live Rock 'N' Roll"
p263
S'http://www.last.fm/music/Rainbow/_/Long+Live+Rock+%27N%27+Roll'
p264
S'1262622179'
p265
tp266
a(S'Airbourne'
p267
S'Diamond in the Rough'
p268
S'http://www.last.fm/music/Airbourne/_/Diamond+in+the+Rough'
p269
S'1262621954'
p270
tp271
a(S'Jamiroquai'
p272
S'2001'
p273
S'http://www.last.fm/music/Jamiroquai/_/2001'
p274
S'1262621636'
p275
tp276
a(S'Albert King'
p277
S'We All Wanna Boogie'
p278
S'http://www.last.fm/music/Albert+King/_/We+All+Wanna+Boogie'
p279
S'1262621439'
p280
tp281
a(S'Jupiter One'
p282
S'Countdown'
p283
S'http://www.last.fm/music/Jupiter+One/_/Countdown'
p284
S'1262621211'
p285
tp286
a(S'Rainbow'
p287
S"Long Live Rock 'N' Roll"
p288
S'http://www.last.fm/music/Rainbow/_/Long+Live+Rock+%27N%27+Roll'
p289
S'1262620949'
p290
tp291
a(S'Whitesnake'
p292
S'Deeper The Love'
p293
S'http://www.last.fm/music/Whitesnake/_/Deeper+The+Love'
p294
S'1262620686'
p295
tp296
a(S'Albert King'
p297
S'We All Wanna Boogie'
p298
S'http://www.last.fm/music/Albert+King/_/We+All+Wanna+Boogie'
p299
S'1262620489'
p300
tp301
a(S'Jupiter One'
p302
S'Countdown'
p303
S'http://www.last.fm/music/Jupiter+One/_/Countdown'
p304
S'1262613458'
p305
tp306
a(S'Jamiroquai'
p307
S'2001'
p308
S'http://www.last.fm/music/Jamiroquai/_/2001'
p309
S'1262613141'
p310
tp311
a(S'Liz Phair'
p312
S"Why Can't I"
p313
S'http://www.last.fm/music/Liz+Phair/_/Why+Can%27t+I'
p314
S'1262612932'
p315
tp316
a(S'Airbourne'
p317
S'Diamond in the Rough'
p318
S'http://www.last.fm/music/Airbourne/_/Diamond+in+the+Rough'
p319
S'1262612758'
p320
tp321
a(S'Chickenfoot'
p322
S'Sexy Little Thing'
p323
S'http://www.last.fm/music/Chickenfoot/_/Sexy+Little+Thing'
p324
S'1262612364'
p325
tp326
a(S'Chickenfoot'
p327
S'Sexy Little Thing'
p328
S'http://www.last.fm/music/Chickenfoot/_/Sexy+Little+Thing'
p329
S'1262612109'
p330
tp331
a(S'Liz Phair'
p332
S"Why Can't I"
p333
S'http://www.last.fm/music/Liz+Phair/_/Why+Can%27t+I'
p334
S'1262611901'
p335
tp336
a(S'Rainbow'
p337
S"Long Live Rock 'N' Roll"
p338
S'http://www.last.fm/music/Rainbow/_/Long+Live+Rock+%27N%27+Roll'
p339
S'1262611639'
p340
tp341
a(S'Albert King'
p342
S'We All Wanna Boogie'
p343
S'http://www.last.fm/music/Albert+King/_/We+All+Wanna+Boogie'
p344
S'1262611442'
p345
tp346
a(S'Whitesnake'
p347
S'Deeper The Love'
p348
S'http://www.last.fm/music/Whitesnake/_/Deeper+The+Love'
p349
S'1262611179'
p350
tp351
a(S'Jamiroquai'
p352
S'2001'
p353
S'http://www.last.fm/music/Jamiroquai/_/2001'
p354
S'1262610861'
p355
tp356
a(S'Airbourne'
p357
S'Diamond in the Rough'
p358
S'http://www.last.fm/music/Airbourne/_/Diamond+in+the+Rough'
p359
S'1262610687'
p360
tp361
a(S'Jupiter One'
p362
S'Countdown'
p363
S'http://www.last.fm/music/Jupiter+One/_/Countdown'
p364
S'1262610459'
p365
tp366
a(S'Black Sabbath'
p367
S'Fluff'
p368
S'http://www.last.fm/music/Black+Sabbath/_/Fluff'
p369
S'1262604521'
p370
tp371
a(S'Black Sabbath'
p372
S'Wicked World'
p373
S'http://www.last.fm/music/Black+Sabbath/_/Wicked+World'
p374
S'1262604238'
p375
tp376
a(S'Black Sabbath'
p377
S'Behind the Wall of Sleep'
p378
S'http://www.last.fm/music/Black+Sabbath/_/Behind+the+Wall+of+Sleep'
p379
S'1262604021'
p380
tp381
a(S'Black Sabbath'
p382
S'Laguna Sunrise'
p383
S'http://www.last.fm/music/Black+Sabbath/_/Laguna+Sunrise'
p384
S'1262603848'
p385
tp386
a(S'Black Sabbath'
p387
S'Changes'
p388
S'http://www.last.fm/music/Black+Sabbath/_/Changes'
p389
S'1262603562'
p390
tp391
a(S'Black Sabbath'
p392
S'Hand of Doom'
p393
S'http://www.last.fm/music/Black+Sabbath/_/Hand+of+Doom'
p394
S'1262603134'
p395
tp396
a(S'Black Sabbath'
p397
S'Killing Yourself to Live'
p398
S'http://www.last.fm/music/Black+Sabbath/_/Killing+Yourself+to+Live'
p399
S'1262602793'
p400
tp401
a(S'Black Sabbath'
p402
S'Spiral Architect'
p403
S'http://www.last.fm/music/Black+Sabbath/_/Spiral+Architect'
p404
S'1262602463'
p405
tp406
a(S'Black Sabbath'
p407
S'Wheels of Confusion'
p408
S'http://www.last.fm/music/Black+Sabbath/_/Wheels+of+Confusion'
p409
S'1262601969'
p410
tp411
a(S'Black Sabbath'
p412
S'Supertzar'
p413
S'http://www.last.fm/music/Black+Sabbath/_/Supertzar'
p414
S'1262601745'
p415
tp416
a(S'Black Sabbath'
p417
S'Megalomania'
p418
S'http://www.last.fm/music/Black+Sabbath/_/Megalomania'
p419
S'1262600555'
p420
tp421
a(S'Black Sabbath'
p422
S'Sabbath Bloody Sabbath'
p423
S'http://www.last.fm/music/Black+Sabbath/_/Sabbath+Bloody+Sabbath'
p424
S'1262193974'
p425
tp426
a(S'Black Sabbath'
p427
S'Planet Caravan'
p428
S'http://www.last.fm/music/Black+Sabbath/_/Planet+Caravan'
p429
S'1262193680'
p430
tp431
a(S'Black Sabbath'
p432
S'Wicked World'
p433
S'http://www.last.fm/music/Black+Sabbath/_/Wicked+World'
p434
S'1262192818'
p435
tp436
a(S'Black Sabbath'
p437
S'Laguna Sunrise'
p438
S'http://www.last.fm/music/Black+Sabbath/_/Laguna+Sunrise'
p439
S'1262192645'
p440
tp441
a(S'Black Sabbath'
p442
S'Wheels of Confusion'
p443
S'http://www.last.fm/music/Black+Sabbath/_/Wheels+of+Confusion'
p444
S'1262192151'
p445
tp446
a(S'Black Sabbath'
p447
S'Hand of Doom'
p448
S'http://www.last.fm/music/Black+Sabbath/_/Hand+of+Doom'
p449
S'1262191695'
p450
tp451
a(S'Black Sabbath'
p452
S'Killing Yourself to Live'
p453
S'http://www.last.fm/music/Black+Sabbath/_/Killing+Yourself+to+Live'
p454
S'1262191354'
p455
tp456
a(S'Black Sabbath'
p457
S'A National Acrobat'
p458
S'http://www.last.fm/music/Black+Sabbath/_/A+National+Acrobat'
p459
S'1262190977'
p460
tp461
a(S'Black Sabbath'
p462
S'Into the Void'
p463
S'http://www.last.fm/music/Black+Sabbath/_/Into+the+Void'
p464
S'1262190604'
p465
tp466
a(S'Black Sabbath'
p467
S'Who Are You?'
p468
S'http://www.last.fm/music/Black+Sabbath/_/Who+Are+You%3F'
p469
S'1262190252'
p470
tp471
a(S'Black Sabbath'
p472
S'Solitude'
p473
S'http://www.last.fm/music/Black+Sabbath/_/Solitude'
p474
S'1262189950'
p475
tp476
a(S'Black Sabbath'
p477
S'Fluff'
p478
S'http://www.last.fm/music/Black+Sabbath/_/Fluff'
p479
S'1262189696'
p480
tp481
a(S'Black Sabbath'
p482
S'Changes'
p483
S'http://www.last.fm/music/Black+Sabbath/_/Changes'
p484
S'1262189410'
p485
tp486
a(S'Black Sabbath'
p487
S'Spiral Architect'
p488
S'http://www.last.fm/music/Black+Sabbath/_/Spiral+Architect'
p489
S'1262189080'
p490
tp491
a(S'Black Sabbath'
p492
S'Cornucopia'
p493
S'http://www.last.fm/music/Black+Sabbath/_/Cornucopia'
p494
S'1262188845'
p495
tp496
a(S'Black Sabbath'
p497
S'Sabbra Cadabra'
p498
S'http://www.last.fm/music/Black+Sabbath/_/Sabbra+Cadabra'
p499
S'1262188484'
p500
tp501
a(S'Black Sabbath'
p502
S'Megalomania'
p503
S'http://www.last.fm/music/Black+Sabbath/_/Megalomania'
p504
S'1262187904'
p505
tp506
a(S'Black Sabbath'
p507
S'Supernaut'
p508
S'http://www.last.fm/music/Black+Sabbath/_/Supernaut'
p509
S'1262187618'
p510
tp511
a(S'Black Sabbath'
p512
S'Wheels of Confusion'
p513
S'http://www.last.fm/music/Black+Sabbath/_/Wheels+of+Confusion'
p514
S'1262187124'
p515
tp516
a(S'Black Sabbath'
p517
S'Sabbra Cadabra'
p518
S'http://www.last.fm/music/Black+Sabbath/_/Sabbra+Cadabra'
p519
S'1262186763'
p520
tp521
a(S'Black Sabbath'
p522
S'Supernaut'
p523
S'http://www.last.fm/music/Black+Sabbath/_/Supernaut'
p524
S'1262186477'
p525
tp526
a(S'Black Sabbath'
p527
S'A National Acrobat'
p528
S'http://www.last.fm/music/Black+Sabbath/_/A+National+Acrobat'
p529
S'1262186100'
p530
tp531
a(S'Black Sabbath'
p532
S'Who Are You?'
p533
S'http://www.last.fm/music/Black+Sabbath/_/Who+Are+You%3F'
p534
S'1262185849'
p535
tp536
a(S'Black Sabbath'
p537
S'Spiral Architect'
p538
S'http://www.last.fm/music/Black+Sabbath/_/Spiral+Architect'
p539
S'1262185519'
p540
tp541
a(S'Black Sabbath'
p542
S'Into the Void'
p543
S'http://www.last.fm/music/Black+Sabbath/_/Into+the+Void'
p544
S'1262185146'
p545
tp546
a(S'Black Sabbath'
p547
S'Fairies Wear Boots'
p548
S'http://www.last.fm/music/Black+Sabbath/_/Fairies+Wear+Boots'
p549
S'1262184772'
p550
tp551
a(S'Black Sabbath'
p552
S'Laguna Sunrise'
p553
S'http://www.last.fm/music/Black+Sabbath/_/Laguna+Sunrise'
p554
S'1262184599'
p555
tp556
a(S'Black Sabbath'
p557
S'Cornucopia'
p558
S'http://www.last.fm/music/Black+Sabbath/_/Cornucopia'
p559
S'1262184365'
p560
tp561
a(S'Black Sabbath'
p562
S'Killing Yourself to Live'
p563
S'http://www.last.fm/music/Black+Sabbath/_/Killing+Yourself+to+Live'
p564
S'1262184024'
p565
tp566
a(S'Black Sabbath'
p567
S'Solitude'
p568
S'http://www.last.fm/music/Black+Sabbath/_/Solitude'
p569
S'1262183721'
p570
tp571
a(S'Black Sabbath'
p572
S'Behind the Wall of Sleep'
p573
S'http://www.last.fm/music/Black+Sabbath/_/Behind+the+Wall+of+Sleep'
p574
S'1262183505'
p575
tp576
a(S'Black Sabbath'
p577
S'Sabbath Bloody Sabbath'
p578
S'http://www.last.fm/music/Black+Sabbath/_/Sabbath+Bloody+Sabbath'
p579
S'1262183158'
p580
tp581
a(S'Black Sabbath'
p582
S'Fluff'
p583
S'http://www.last.fm/music/Black+Sabbath/_/Fluff'
p584
S'1262182905'
p585
tp586
a(S'Black Sabbath'
p587
S'Hole in the Sky'
p588
S'http://www.last.fm/music/Black+Sabbath/_/Hole+in+the+Sky'
p589
S'1262182665'
p590
tp591
a(S'Black Sabbath'
p592
S'Changes'
p593
S'http://www.last.fm/music/Black+Sabbath/_/Changes'
p594
S'1262182379'
p595
tp596
a(S'Black Sabbath'
p597
S'Planet Caravan'
p598
S'http://www.last.fm/music/Black+Sabbath/_/Planet+Caravan'
p599
S'1262182076'
p600
tp601
a(S'Black Sabbath'
p602
S'Supertzar'
p603
S'http://www.last.fm/music/Black+Sabbath/_/Supertzar'
p604
S'1262181853'
p605
tp606
a(S'Black Sabbath'
p607
S'Hand of Doom'
p608
S'http://www.last.fm/music/Black+Sabbath/_/Hand+of+Doom'
p609
S'1262181425'
p610
tp611
a(S'Black Sabbath'
p612
S'Wicked World'
p613
S'http://www.last.fm/music/Black+Sabbath/_/Wicked+World'
p614
S'1262181142'
p615
tp616
a(S'Black Sabbath'
p617
S'Megalomania'
p618
S'http://www.last.fm/music/Black+Sabbath/_/Megalomania'
p619
S'1262180562'
p620
tp621
a(S'Black Sabbath'
p622
S'The Warning'
p623
S'http://www.last.fm/music/Black+Sabbath/_/The+Warning'
p624
S'1262179929'
p625
tp626
a(S'Black Sabbath'
p627
S'Sabbath Bloody Sabbath'
p628
S'http://www.last.fm/music/Black+Sabbath/_/Sabbath+Bloody+Sabbath'
p629
S'1262179583'
p630
tp631
a(S'Black Sabbath'
p632
S'Spiral Architect'
p633
S'http://www.last.fm/music/Black+Sabbath/_/Spiral+Architect'
p634
S'1262179253'
p635
tp636
a(S'Black Sabbath'
p637
S'Solitude'
p638
S'http://www.last.fm/music/Black+Sabbath/_/Solitude'
p639
S'1262178951'
p640
tp641
a(S'Black Sabbath'
p642
S'A National Acrobat'
p643
S'http://www.last.fm/music/Black+Sabbath/_/A+National+Acrobat'
p644
S'1262178574'
p645
tp646
a(S'Black Sabbath'
p647
S'Wicked World'
p648
S'http://www.last.fm/music/Black+Sabbath/_/Wicked+World'
p649
S'1262178291'
p650
tp651
a(S'Black Sabbath'
p652
S'Planet Caravan'
p653
S'http://www.last.fm/music/Black+Sabbath/_/Planet+Caravan'
p654
S'1262178017'
p655
tp656
a(S'Black Sabbath'
p657
S'Wheels of Confusion'
p658
S'http://www.last.fm/music/Black+Sabbath/_/Wheels+of+Confusion'
p659
S'1262177522'
p660
tp661
a(S'Black Sabbath'
p662
S'Fairies Wear Boots'
p663
S'http://www.last.fm/music/Black+Sabbath/_/Fairies+Wear+Boots'
p664
S'1262177149'
p665
tp666
a(S'Black Sabbath'
p667
S'The Warning'
p668
S'http://www.last.fm/music/Black+Sabbath/_/The+Warning'
p669
S'1262176516'
p670
tp671
a(S'Black Sabbath'
p672
S'Changes'
p673
S'http://www.last.fm/music/Black+Sabbath/_/Changes'
p674
S'1262176230'
p675
tp676
a(S'Black Sabbath'
p677
S'Supernaut'
p678
S'http://www.last.fm/music/Black+Sabbath/_/Supernaut'
p679
S'1262175944'
p680
tp681
a(S'Black Sabbath'
p682
S'Fluff'
p683
S'http://www.last.fm/music/Black+Sabbath/_/Fluff'
p684
S'1262175690'
p685
tp686
a(S'Black Sabbath'
p687
S'Who Are You?'
p688
S'http://www.last.fm/music/Black+Sabbath/_/Who+Are+You%3F'
p689
S'1262175439'
p690
tp691
a(S'Black Sabbath'
p692
S'Hole in the Sky'
p693
S'http://www.last.fm/music/Black+Sabbath/_/Hole+in+the+Sky'
p694
S'1262175199'
p695
tp696
a(S'Black Sabbath'
p697
S'Laguna Sunrise'
p698
S'http://www.last.fm/music/Black+Sabbath/_/Laguna+Sunrise'
p699
S'1262175026'
p700
tp701
a(S'Black Sabbath'
p702
S'Megalomania'
p703
S'http://www.last.fm/music/Black+Sabbath/_/Megalomania'
p704
S'1262174446'
p705
tp706
a(S'Black Sabbath'
p707
S'Sabbra Cadabra'
p708
S'http://www.last.fm/music/Black+Sabbath/_/Sabbra+Cadabra'
p709
S'1262174085'
p710
tp711
a(S'Black Sabbath'
p712
S'Killing Yourself to Live'
p713
S'http://www.last.fm/music/Black+Sabbath/_/Killing+Yourself+to+Live'
p714
S'1262173744'
p715
tp716
a(S'Black Sabbath'
p717
S'Hand of Doom'
p718
S'http://www.last.fm/music/Black+Sabbath/_/Hand+of+Doom'
p719
S'1262173316'
p720
tp721
a(S'Black Sabbath'
p722
S'Into the Void'
p723
S'http://www.last.fm/music/Black+Sabbath/_/Into+the+Void'
p724
S'1262172915'
p725
tp726
a(S'Black Sabbath'
p727
S'Cornucopia'
p728
S'http://www.last.fm/music/Black+Sabbath/_/Cornucopia'
p729
S'1262172680'
p730
tp731
a(S'Black Sabbath'
p732
S'Supertzar'
p733
S'http://www.last.fm/music/Black+Sabbath/_/Supertzar'
p734
S'1262172457'
p735
tp736
a(S'Black Sabbath'
p737
S'Behind the Wall of Sleep'
p738
S'http://www.last.fm/music/Black+Sabbath/_/Behind+the+Wall+of+Sleep'
p739
S'1262172240'
p740
tp741
a(S'Black Sabbath'
p742
S'Sabbra Cadabra'
p743
S'http://www.last.fm/music/Black+Sabbath/_/Sabbra+Cadabra'
p744
S'1262119533'
p745
tp746
a(S'Black Sabbath'
p747
S'Supertzar'
p748
S'http://www.last.fm/music/Black+Sabbath/_/Supertzar'
p749
S'1262119310'
p750
tp751
a(S'Black Sabbath'
p752
S'Solitude'
p753
S'http://www.last.fm/music/Black+Sabbath/_/Solitude'
p754
S'1262119008'
p755
tp756
a(S'Black Sabbath'
p757
S'Fluff'
p758
S'http://www.last.fm/music/Black+Sabbath/_/Fluff'
p759
S'1262118754'
p760
tp761
a(S'Black Sabbath'
p762
S'Killing Yourself to Live'
p763
S'http://www.last.fm/music/Black+Sabbath/_/Killing+Yourself+to+Live'
p764
S'1262118413'
p765
tp766
a(S'Black Sabbath'
p767
S'Laguna Sunrise'
p768
S'http://www.last.fm/music/Black+Sabbath/_/Laguna+Sunrise'
p769
S'1262118240'
p770
tp771
a(S'Black Sabbath'
p772
S'Who Are You?'
p773
S'http://www.last.fm/music/Black+Sabbath/_/Who+Are+You%3F'
p774
S'1262117989'
p775
tp776
a(S'Black Sabbath'
p777
S'Cornucopia'
p778
S'http://www.last.fm/music/Black+Sabbath/_/Cornucopia'
p779
S'1262117754'
p780
tp781
a(S'Black Sabbath'
p782
S'Wheels of Confusion'
p783
S'http://www.last.fm/music/Black+Sabbath/_/Wheels+of+Confusion'
p784
S'1262117259'
p785
tp786
a(S'Black Sabbath'
p787
S'Spiral Architect'
p788
S'http://www.last.fm/music/Black+Sabbath/_/Spiral+Architect'
p789
S'1262116929'
p790
tp791
a(S'Black Sabbath'
p792
S'The Warning'
p793
S'http://www.last.fm/music/Black+Sabbath/_/The+Warning'
p794
S'1262116297'
p795
tp796
a(S'Black Sabbath'
p797
S'Supernaut'
p798
S'http://www.last.fm/music/Black+Sabbath/_/Supernaut'
p799
S'1262115983'
p800
tp801
a(S'Black Sabbath'
p802
S'Sabbath Bloody Sabbath'
p803
S'http://www.last.fm/music/Black+Sabbath/_/Sabbath+Bloody+Sabbath'
p804
S'1262115637'
p805
tp806
a(S'Black Sabbath'
p807
S'Planet Caravan'
p808
S'http://www.last.fm/music/Black+Sabbath/_/Planet+Caravan'
p809
S'1262115363'
p810
tp811
a(S'Black Sabbath'
p812
S'Megalomania'
p813
S'http://www.last.fm/music/Black+Sabbath/_/Megalomania'
p814
S'1262114683'
p815
tp816
a(S'Black Sabbath'
p817
S'Hole in the Sky'
p818
S'http://www.last.fm/music/Black+Sabbath/_/Hole+in+the+Sky'
p819
S'1262114444'
p820
tp821
a(S'Black Sabbath'
p822
S'A National Acrobat'
p823
S'http://www.last.fm/music/Black+Sabbath/_/A+National+Acrobat'
p824
S'1262114067'
p825
tp826
a(S'Black Sabbath'
p827
S'Wicked World'
p828
S'http://www.last.fm/music/Black+Sabbath/_/Wicked+World'
p829
S'1262113784'
p830
tp831
a(S'Black Sabbath'
p832
S'Laguna Sunrise'
p833
S'http://www.last.fm/music/Black+Sabbath/_/Laguna+Sunrise'
p834
S'1262113611'
p835
tp836
a(S'Black Sabbath'
p837
S'Wicked World'
p838
S'http://www.last.fm/music/Black+Sabbath/_/Wicked+World'
p839
S'1262113328'
p840
tp841
a(S'Black Sabbath'
p842
S'Fluff'
p843
S'http://www.last.fm/music/Black+Sabbath/_/Fluff'
p844
S'1262113074'
p845
tp846
a(S'Black Sabbath'
p847
S'Wheels of Confusion'
p848
S'http://www.last.fm/music/Black+Sabbath/_/Wheels+of+Confusion'
p849
S'1262112580'
p850
tp851
a(S'Black Sabbath'
p852
S'Sabbra Cadabra'
p853
S'http://www.last.fm/music/Black+Sabbath/_/Sabbra+Cadabra'
p854
S'1262112219'
p855
tp856
a(S'Black Sabbath'
p857
S'Megalomania'
p858
S'http://www.last.fm/music/Black+Sabbath/_/Megalomania'
p859
S'1262111639'
p860
tp861
a(S'Black Sabbath'
p862
S'Sabbath Bloody Sabbath'
p863
S'http://www.last.fm/music/Black+Sabbath/_/Sabbath+Bloody+Sabbath'
p864
S'1262111292'
p865
tp866
a(S'Black Sabbath'
p867
S'Supernaut'
p868
S'http://www.last.fm/music/Black+Sabbath/_/Supernaut'
p869
S'1262111003'
p870
tp871
a(S'Black Sabbath'
p872
S'Into the Void'
p873
S'http://www.last.fm/music/Black+Sabbath/_/Into+the+Void'
p874
S'1262110630'
p875
tp876
a(S'Black Sabbath'
p877
S'Behind the Wall of Sleep'
p878
S'http://www.last.fm/music/Black+Sabbath/_/Behind+the+Wall+of+Sleep'
p879
S'1262110413'
p880
tp881
a(S'Black Sabbath'
p882
S'Changes'
p883
S'http://www.last.fm/music/Black+Sabbath/_/Changes'
p884
S'1262110127'
p885
tp886
a(S'Black Sabbath'
p887
S'Hand of Doom'
p888
S'http://www.last.fm/music/Black+Sabbath/_/Hand+of+Doom'
p889
S'1262109699'
p890
tp891
a(S'Black Sabbath'
p892
S'Planet Caravan'
p893
S'http://www.last.fm/music/Black+Sabbath/_/Planet+Caravan'
p894
S'1262109425'
p895
tp896
a(S'Black Sabbath'
p897
S'Supertzar'
p898
S'http://www.last.fm/music/Black+Sabbath/_/Supertzar'
p899
S'1262109202'
p900
tp901
a(S'Black Sabbath'
p902
S'Fairies Wear Boots'
p903
S'http://www.last.fm/music/Black+Sabbath/_/Fairies+Wear+Boots'
p904
S'1262108828'
p905
tp906
a(S'Black Sabbath'
p907
S'Spiral Architect'
p908
S'http://www.last.fm/music/Black+Sabbath/_/Spiral+Architect'
p909
S'1262108498'
p910
tp911
a(S'Black Sabbath'
p912
S'Hole in the Sky'
p913
S'http://www.last.fm/music/Black+Sabbath/_/Hole+in+the+Sky'
p914
S'1262108258'
p915
tp916
a(S'Black Sabbath'
p917
S'Solitude'
p918
S'http://www.last.fm/music/Black+Sabbath/_/Solitude'
p919
S'1262107956'
p920
tp921
a(S'Black Sabbath'
p922
S'The Warning'
p923
S'http://www.last.fm/music/Black+Sabbath/_/The+Warning'
p924
S'1262107324'
p925
tp926
a(S'Black Sabbath'
p927
S'Killing Yourself to Live'
p928
S'http://www.last.fm/music/Black+Sabbath/_/Killing+Yourself+to+Live'
p929
S'1262106952'
p930
tp931
a(S'Black Sabbath'
p932
S'A National Acrobat'
p933
S'http://www.last.fm/music/Black+Sabbath/_/A+National+Acrobat'
p934
S'1262106575'
p935
tp936
a(S'Black Sabbath'
p937
S'Cornucopia'
p938
S'http://www.last.fm/music/Black+Sabbath/_/Cornucopia'
p939
S'1262106340'
p940
tp941
a(S'Black Sabbath'
p942
S'Who Are You?'
p943
S'http://www.last.fm/music/Black+Sabbath/_/Who+Are+You%3F'
p944
S'1262106088'
p945
tp946
a(S'Black Sabbath'
p947
S'Snowblind'
p948
S'http://www.last.fm/music/Black+Sabbath/_/Snowblind'
p949
S'1262093744'
p950
tp951
a(S'Black Sabbath'
p952
S'Solitude'
p953
S'http://www.last.fm/music/Black+Sabbath/_/Solitude'
p954
S'1262093025'
p955
tp956
a(S'Black Sabbath'
p957
S'N.I.B.'
p958
S'http://www.last.fm/music/Black+Sabbath/_/N.I.B.'
p959
S'1262092658'
p960
tp961
a(S'Black Sabbath'
p962
S'Megalomania'
p963
S'http://www.last.fm/music/Black+Sabbath/_/Megalomania'
p964
S'1262092078'
p965
tp966
a(S'Black Sabbath'
p967
S'Killing Yourself to Live'
p968
S'http://www.last.fm/music/Black+Sabbath/_/Killing+Yourself+to+Live'
p969
S'1262091737'
p970
tp971
a(S'Black Sabbath'
p972
S'Into the Void'
p973
S'http://www.last.fm/music/Black+Sabbath/_/Into+the+Void'
p974
S'1262091364'
p975
tp976
a(S'Black Sabbath'
p977
S'Spiral Architect'
p978
S'http://www.last.fm/music/Black+Sabbath/_/Spiral+Architect'
p979
S'1262091034'
p980
tp981
a(S'Black Sabbath'
p982
S'Hand of Doom'
p983
S'http://www.last.fm/music/Black+Sabbath/_/Hand+of+Doom'
p984
S'1262090606'
p985
tp986
a(S'Black Sabbath'
p987
S'A National Acrobat'
p988
S'http://www.last.fm/music/Black+Sabbath/_/A+National+Acrobat'
p989
S'1262090229'
p990
tp991
a(S'Black Sabbath'
p992
S'Planet Caravan'
p993
S'http://www.last.fm/music/Black+Sabbath/_/Planet+Caravan'
p994
S'1262089955'
p995
tp996
a(S'Black Sabbath'
p997
S'Behind the Wall of Sleep'
p998
S'http://www.last.fm/music/Black+Sabbath/_/Behind+the+Wall+of+Sleep'
p999
S'1262089738'
p1000
tp1001
a.