(lp1
(S"Guns N' Roses"
p2
S'My Michelle'
p3
S'http://www.last.fm/music/Guns+N%27+Roses/_/My+Michelle'
p4
S'1280774728'
p5
tp6
a(S'Live'
p7
S'Heaven'
p8
S'http://www.last.fm/music/Live/_/Heaven'
p9
S'1280774509'
p10
tp11
a(S'Ozzy Osbourne'
p12
S'Let Me Hear You Scream'
p13
S'http://www.last.fm/music/Ozzy+Osbourne/_/Let+Me+Hear+You+Scream'
p14
S'1280774278'
p15
tp16
a(S'Red Hot Chili Peppers'
p17
S'If You Have to Ask'
p18
S'http://www.last.fm/music/Red+Hot+Chili+Peppers/_/If+You+Have+to+Ask'
p19
S'1280774072'
p20
tp21
a(S'The Toy Dolls'
p22
S'Yul Brynner Was a Skinhead'
p23
S'http://www.last.fm/music/The+Toy+Dolls/_/Yul+Brynner+Was+a+Skinhead'
p24
S'1280773843'
p25
tp26
a(S'Stone Temple Pilots'
p27
S'Hickory Dichotomy'
p28
S'http://www.last.fm/music/Stone+Temple+Pilots/_/Hickory+Dichotomy'
p29
S'1280773658'
p30
tp31
a(S'Yes'
p32
S'Hold On'
p33
S'http://www.last.fm/music/Yes/_/Hold+On'
p34
S'1280773447'
p35
tp36
a(S'Linkin Park'
p37
S'The Little Things Give You Away'
p38
S'http://www.last.fm/music/Linkin+Park/_/The+Little+Things+Give+You+Away'
p39
S'1280773116'
p40
tp41
a(S'Jamiroquai'
p42
S'Love Foolosophy'
p43
S'http://www.last.fm/music/Jamiroquai/_/Love+Foolosophy'
p44
S'1280772707'
p45
tp46
a(S'Liz Phair'
p47
S'Fantasize'
p48
S'http://www.last.fm/music/Liz+Phair/_/Fantasize'
p49
S'1280772388'
p50
tp51
a(S'Ramones'
p52
S'We Want the Airwaves'
p53
S'http://www.last.fm/music/Ramones/_/We+Want+the+Airwaves'
p54
S'1280772273'
p55
tp56
a(S'Madonna'
p57
S'Vogue'
p58
S'http://www.last.fm/music/Madonna/_/Vogue'
p59
S'1280772071'
p60
tp61
a(S'Dire Straits'
p62
S'Down To The Waterline'
p63
S'http://www.last.fm/music/Dire+Straits/_/Down+To+The+Waterline'
p64
S'1280771752'
p65
tp66
a(S'ZZ Top'
p67
S'Lizard Life'
p68
S'http://www.last.fm/music/ZZ+Top/_/Lizard+Life'
p69
S'1280771511'
p70
tp71
a(S'L7'
p72
S'Fuel My Fire'
p73
S'http://www.last.fm/music/L7/_/Fuel+My+Fire'
p74
S'1280771202'
p75
tp76
a(S'Soundgarden'
p77
S'Black Hole Sun'
p78
S'http://www.last.fm/music/Soundgarden/_/Black+Hole+Sun'
p79
S'1280770925'
p80
tp81
a(S'Faith No More'
p82
S'Last Cup of Sorrow'
p83
S'http://www.last.fm/music/Faith+No+More/_/Last+Cup+of+Sorrow'
p84
S'1280770588'
p85
tp86
a(S'Judas Priest'
p87
S'Hell Bent for Leather'
p88
S'http://www.last.fm/music/Judas+Priest/_/Hell+Bent+for+Leather'
p89
S'1280770290'
p90
tp91
a(S'Daft Punk'
p92
S'Aerodynamic'
p93
S'http://www.last.fm/music/Daft+Punk/_/Aerodynamic'
p94
S'1280770102'
p95
tp96
a(S'Ozzy Osbourne'
p97
S'Denial'
p98
S'http://www.last.fm/music/Ozzy+Osbourne/_/Denial'
p99
S'1280769593'
p100
tp101
a(S'Nirvana'
p102
S'Pennyroyal Tea'
p103
S'http://www.last.fm/music/Nirvana/_/Pennyroyal+Tea'
p104
S'1280769222'
p105
tp106
a(S'Tina Turner'
p107
S'Typical Male'
p108
S'http://www.last.fm/music/Tina+Turner/_/Typical+Male'
p109
S'1280768969'
p110
tp111
a(S'Misfits'
p112
S'Devils Whorehouse'
p113
S'http://www.last.fm/music/Misfits/_/Devils+Whorehouse'
p114
S'1280768712'
p115
tp116
a(S'Wesley Willis'
p117
S"Rock Saddam Hussein's Ass"
p118
S'http://www.last.fm/music/Wesley+Willis/_/Rock+Saddam+Hussein%27s+Ass'
p119
S'1280768606'
p120
tp121
a(S'Stone Temple Pilots'
p122
S'Piece of Pie'
p123
S'http://www.last.fm/music/Stone+Temple+Pilots/_/Piece+of+Pie'
p124
S'1280768361'
p125
tp126
a(S'Alice in Chains'
p127
S'Black Gives Way to Blue'
p128
S'http://www.last.fm/music/Alice+in+Chains/_/Black+Gives+Way+to+Blue'
p129
S'1280768037'
p130
tp131
a(S'The Cardigans'
p132
S'Erase/Rewind'
p133
S'http://www.last.fm/music/The+Cardigans/_/Erase%2FRewind'
p134
S'1280767851'
p135
tp136
a(S'Temple of the Dog'
p137
S'Call Me A Dog'
p138
S'http://www.last.fm/music/Temple+of+the+Dog/_/Call+Me+A+Dog'
p139
S'1280767636'
p140
tp141
a(S'Black Sabbath'
p142
S'Sleeping Village'
p143
S'http://www.last.fm/music/Black+Sabbath/_/Sleeping+Village'
p144
S'1280767296'
p145
tp146
a(S'Foo Fighters'
p147
S'Hell'
p148
S'http://www.last.fm/music/Foo+Fighters/_/Hell'
p149
S'1280767070'
p150
tp151
a(S'Bryan Adams'
p152
S'Inside Out'
p153
S'http://www.last.fm/music/Bryan+Adams/_/Inside+Out'
p154
S'1280764523'
p155
tp156
a(S'The Offspring'
p157
S'Bad Habit'
p158
S'http://www.last.fm/music/The+Offspring/_/Bad+Habit'
p159
S'1280764240'
p160
tp161
a(S'The Bar-Kays'
p162
S'Shake Your Rump to the Funk'
p163
S'http://www.last.fm/music/The+Bar-Kays/_/Shake+Your+Rump+to+the+Funk'
p164
S'1280764016'
p165
tp166
a(S'Queens of the Stone Age'
p167
S'Make It Wit Chu'
p168
S'http://www.last.fm/music/Queens+of+the+Stone+Age/_/Make+It+Wit+Chu'
p169
S'1280763802'
p170
tp171
a(S'Alice in Chains'
p172
S'Bleed the Freak'
p173
S'http://www.last.fm/music/Alice+in+Chains/_/Bleed+the+Freak'
p174
S'1280763511'
p175
tp176
a(S'Black Sabbath'
p177
S'Megalomania'
p178
S'http://www.last.fm/music/Black+Sabbath/_/Megalomania'
p179
S'1280763262'
p180
tp181
a(S'Live'
p182
S'Out To Dry'
p183
S'http://www.last.fm/music/Live/_/Out+To+Dry'
p184
S'1280762681'
p185
tp186
a(S'Judas Priest'
p187
S'Locked In'
p188
S'http://www.last.fm/music/Judas+Priest/_/Locked+In'
p189
S'1280762479'
p190
tp191
a(S'Ugly Kid Joe'
p192
S'Goddamn Devil'
p193
S'http://www.last.fm/music/Ugly+Kid+Joe/_/Goddamn+Devil'
p194
S'1280762219'
p195
tp196
a(S'Stone Temple Pilots'
p197
S'Peacoat'
p198
S'http://www.last.fm/music/Stone+Temple+Pilots/_/Peacoat'
p199
S'1280761896'
p200
tp201
a(S"Guns N' Roses"
p202
S'Think About You'
p203
S'http://www.last.fm/music/Guns+N%27+Roses/_/Think+About+You'
p204
S'1280761669'
p205
tp206
a(S'Nirvana'
p207
S'Sliver'
p208
S'http://www.last.fm/music/Nirvana/_/Sliver'
p209
S'1280761347'
p210
tp211
a(S'Alice in Chains'
p212
S'Brother'
p213
S'http://www.last.fm/music/Alice+in+Chains/_/Brother'
p214
S'1280761122'
p215
tp216
a(S'Joe Satriani'
p217
S'Thinking of You'
p218
S'http://www.last.fm/music/Joe+Satriani/_/Thinking+of+You'
p219
S'1280760845'
p220
tp221
a(S"Guns N' Roses"
p222
S"It's So Easy"
p223
S'http://www.last.fm/music/Guns+N%27+Roses/_/It%27s+So+Easy'
p224
S'1280760590'
p225
tp226
a(S'Live'
p227
S'Flow'
p228
S'http://www.last.fm/music/Live/_/Flow'
p229
S'1280760380'
p230
tp231
a(S'Live'
p232
S'Like A Soldier'
p233
S'http://www.last.fm/music/Live/_/Like+A+Soldier'
p234
S'1280760164'
p235
tp236
a(S'Stone Temple Pilots'
p237
S'Huckleberry Crumble'
p238
S'http://www.last.fm/music/Stone+Temple+Pilots/_/Huckleberry+Crumble'
p239
S'1280759868'
p240
tp241
a(S'Audioslave'
p242
S'The Worm'
p243
S'http://www.last.fm/music/Audioslave/_/The+Worm'
p244
S'1280759670'
p245
tp246
a(S'The Rolling Stones'
p247
S'Happy'
p248
S'http://www.last.fm/music/The+Rolling+Stones/_/Happy'
p249
S'1280759424'
p250
tp251
a(S'Michael Jackson'
p252
S"Don't Stop 'Til You Get Enough"
p253
S'http://www.last.fm/music/Michael+Jackson/_/Don%27t+Stop+%27Til+You+Get+Enough'
p254
S'1280759231'
p255
tp256
a(S'Foo Fighters'
p257
S'Low'
p258
S'http://www.last.fm/music/Foo+Fighters/_/Low'
p259
S'1280758856'
p260
tp261
a(S'Foo Fighters'
p262
S'No Way Back'
p263
S'http://www.last.fm/music/Foo+Fighters/_/No+Way+Back'
p264
S'1280758588'
p265
tp266
a(S'Def Leppard'
p267
S'Hysteria'
p268
S'http://www.last.fm/music/Def+Leppard/_/Hysteria'
p269
S'1280758362'
p270
tp271
a(S'Black Sabbath'
p272
S'Die Young'
p273
S'http://www.last.fm/music/Black+Sabbath/_/Die+Young'
p274
S'1280757978'
p275
tp276
a(S'Red Hot Chili Peppers'
p277
S'Stone Cold Bush'
p278
S'http://www.last.fm/music/Red+Hot+Chili+Peppers/_/Stone+Cold+Bush'
p279
S'1280757700'
p280
tp281
a(S'Red Hot Chili Peppers'
p282
S'Higher Ground'
p283
S'http://www.last.fm/music/Red+Hot+Chili+Peppers/_/Higher+Ground'
p284
S'1280757540'
p285
tp286
a(S'Red Hot Chili Peppers'
p287
S'Higher Ground'
p288
S'http://www.last.fm/music/Red+Hot+Chili+Peppers/_/Higher+Ground'
p289
S'1280757310'
p290
tp291
a(S'Red Hot Chili Peppers'
p292
S'Sir Psycho Sexy'
p293
S'http://www.last.fm/music/Red+Hot+Chili+Peppers/_/Sir+Psycho+Sexy'
p294
S'1280756125'
p295
tp296
a(S'Red Hot Chili Peppers'
p297
S'My Lovely Man'
p298
S'http://www.last.fm/music/Red+Hot+Chili+Peppers/_/My+Lovely+Man'
p299
S'1280755649'
p300
tp301
a(S'Red Hot Chili Peppers'
p302
S'The Greeting Song'
p303
S'http://www.last.fm/music/Red+Hot+Chili+Peppers/_/The+Greeting+Song'
p304
S'1280755370'
p305
tp306
a(S'Red Hot Chili Peppers'
p307
S'Apache Rose Peacock'
p308
S'http://www.last.fm/music/Red+Hot+Chili+Peppers/_/Apache+Rose+Peacock'
p309
S'1280755176'
p310
tp311
a(S'Red Hot Chili Peppers'
p312
S'Naked in the Rain'
p313
S'http://www.last.fm/music/Red+Hot+Chili+Peppers/_/Naked+in+the+Rain'
p314
S'1280754894'
p315
tp316
a(S'Red Hot Chili Peppers'
p317
S'Blood Sugar Sex Magik'
p318
S'http://www.last.fm/music/Red+Hot+Chili+Peppers/_/Blood+Sugar+Sex+Magik'
p319
S'1280754574'
p320
tp321
a(S'Red Hot Chili Peppers'
p322
S'Give It Away'
p323
S'http://www.last.fm/music/Red+Hot+Chili+Peppers/_/Give+It+Away'
p324
S'1280754303'
p325
tp326
a(S'Red Hot Chili Peppers'
p327
S'The Righteous & The Wicked'
p328
S'http://www.last.fm/music/Red+Hot+Chili+Peppers/_/The+Righteous+&+The+Wicked'
p329
S'1280754020'
p330
tp331
a(S'Red Hot Chili Peppers'
p332
S'Mellowship Slinky in B Major'
p333
S'http://www.last.fm/music/Red+Hot+Chili+Peppers/_/Mellowship+Slinky+in+B+Major'
p334
S'1280753743'
p335
tp336
a(S'Red Hot Chili Peppers'
p337
S'I Could Have Lied'
p338
S'http://www.last.fm/music/Red+Hot+Chili+Peppers/_/I+Could+Have+Lied'
p339
S'1280753522'
p340
tp341
a(S'Red Hot Chili Peppers'
p342
S'Suck My Kiss'
p343
S'http://www.last.fm/music/Red+Hot+Chili+Peppers/_/Suck+My+Kiss'
p344
S'1280753277'
p345
tp346
a(S'Red Hot Chili Peppers'
p347
S'Funky Monks'
p348
S'http://www.last.fm/music/Red+Hot+Chili+Peppers/_/Funky+Monks'
p349
S'1280753060'
p350
tp351
a(S'Red Hot Chili Peppers'
p352
S'If You Have to Ask'
p353
S'http://www.last.fm/music/Red+Hot+Chili+Peppers/_/If+You+Have+to+Ask'
p354
S'1280752734'
p355
tp356
a(S'Red Hot Chili Peppers'
p357
S'The Power of Equality'
p358
S'http://www.last.fm/music/Red+Hot+Chili+Peppers/_/The+Power+of+Equality'
p359
S'1280752517'
p360
tp361
a(S'Red Hot Chili Peppers'
p362
S'Blood Sugar Sex Magik'
p363
S'http://www.last.fm/music/Red+Hot+Chili+Peppers/_/Blood+Sugar+Sex+Magik'
p364
S'1280752249'
p365
tp366
a(S'Red Hot Chili Peppers'
p367
S'The Righteous & The Wicked'
p368
S'http://www.last.fm/music/Red+Hot+Chili+Peppers/_/The+Righteous+&+The+Wicked'
p369
S'1280751734'
p370
tp371
a(S'Red Hot Chili Peppers'
p372
S'Mellowship Slinky in B Major'
p373
S'http://www.last.fm/music/Red+Hot+Chili+Peppers/_/Mellowship+Slinky+in+B+Major'
p374
S'1280751485'
p375
tp376
a(S'Red Hot Chili Peppers'
p377
S'I Could Have Lied'
p378
S'http://www.last.fm/music/Red+Hot+Chili+Peppers/_/I+Could+Have+Lied'
p379
S'1280751245'
p380
tp381
a(S'Red Hot Chili Peppers'
p382
S'Funky Monks'
p383
S'http://www.last.fm/music/Red+Hot+Chili+Peppers/_/Funky+Monks'
p384
S'1280750994'
p385
tp386
a(S'Red Hot Chili Peppers'
p387
S"They're Red Hot"
p388
S'http://www.last.fm/music/Red+Hot+Chili+Peppers/_/They%27re+Red+Hot'
p389
S'1280718769'
p390
tp391
a(S'Red Hot Chili Peppers'
p392
S'Sir Psycho Sexy'
p393
S'http://www.last.fm/music/Red+Hot+Chili+Peppers/_/Sir+Psycho+Sexy'
p394
S'1280514265'
p395
tp396
a(S'Red Hot Chili Peppers'
p397
S'The Greeting Song'
p398
S'http://www.last.fm/music/Red+Hot+Chili+Peppers/_/The+Greeting+Song'
p399
S'1280513763'
p400
tp401
a(S'Red Hot Chili Peppers'
p402
S'Blood Sugar Sex Magik'
p403
S'http://www.last.fm/music/Red+Hot+Chili+Peppers/_/Blood+Sugar+Sex+Magik'
p404
S'1280513464'
p405
tp406
a(S'Red Hot Chili Peppers'
p407
S'The Righteous & The Wicked'
p408
S'http://www.last.fm/music/Red+Hot+Chili+Peppers/_/The+Righteous+&+The+Wicked'
p409
S'1280513127'
p410
tp411
a(S'Red Hot Chili Peppers'
p412
S'Mellowship Slinky in B Major'
p413
S'http://www.last.fm/music/Red+Hot+Chili+Peppers/_/Mellowship+Slinky+in+B+Major'
p414
S'1280512878'
p415
tp416
a(S'Red Hot Chili Peppers'
p417
S'I Could Have Lied'
p418
S'http://www.last.fm/music/Red+Hot+Chili+Peppers/_/I+Could+Have+Lied'
p419
S'1280512601'
p420
tp421
a(S'Red Hot Chili Peppers'
p422
S'Suck My Kiss'
p423
S'http://www.last.fm/music/Red+Hot+Chili+Peppers/_/Suck+My+Kiss'
p424
S'1280511923'
p425
tp426
a(S'Red Hot Chili Peppers'
p427
S'Funky Monks'
p428
S'http://www.last.fm/music/Red+Hot+Chili+Peppers/_/Funky+Monks'
p429
S'1280511327'
p430
tp431
a(S'Red Hot Chili Peppers'
p432
S'If You Have to Ask'
p433
S'http://www.last.fm/music/Red+Hot+Chili+Peppers/_/If+You+Have+to+Ask'
p434
S'1280511046'
p435
tp436
a(S'Pantera'
p437
S'Walk'
p438
S'http://www.last.fm/music/Pantera/_/Walk'
p439
S'1280510829'
p440
tp441
a(S'Red Hot Chili Peppers'
p442
S'Higher Ground'
p443
S'http://www.last.fm/music/Red+Hot+Chili+Peppers/_/Higher+Ground'
p444
S'1280510640'
p445
tp446
a(S'Stone Temple Pilots'
p447
S'Too Cool Queenie'
p448
S'http://www.last.fm/music/Stone+Temple+Pilots/_/Too+Cool+Queenie'
p449
S'1280510466'
p450
tp451
a(S'Red Hot Chili Peppers'
p452
S'Higher Ground'
p453
S'http://www.last.fm/music/Red+Hot+Chili+Peppers/_/Higher+Ground'
p454
S'1280510300'
p455
tp456
a(S'Van Halen'
p457
S'Spanked'
p458
S'http://www.last.fm/music/Van+Halen/_/Spanked'
p459
S'1280509940'
p460
tp461
a(S'Velvet Revolver'
p462
S'She Builds Quick Machines'
p463
S'http://www.last.fm/music/Velvet+Revolver/_/She+Builds+Quick+Machines'
p464
S'1280509694'
p465
tp466
a(S'Stone Temple Pilots'
p467
S'Huckleberry Crumble'
p468
S'http://www.last.fm/music/Stone+Temple+Pilots/_/Huckleberry+Crumble'
p469
S'1280503649'
p470
tp471
a(S'Stevie Wonder'
p472
S'Higher Ground'
p473
S'http://www.last.fm/music/Stevie+Wonder/_/Higher+Ground'
p474
S'1280503450'
p475
tp476
a(S'Red Hot Chili Peppers'
p477
S'Higher Ground'
p478
S'http://www.last.fm/music/Red+Hot+Chili+Peppers/_/Higher+Ground'
p479
S'1280503212'
p480
tp481
a(S'Red Hot Chili Peppers'
p482
S'Higher Ground'
p483
S'http://www.last.fm/music/Red+Hot+Chili+Peppers/_/Higher+Ground'
p484
S'1280502936'
p485
tp486
a(S'Red Hot Chili Peppers'
p487
S'Higher Ground'
p488
S'http://www.last.fm/music/Red+Hot+Chili+Peppers/_/Higher+Ground'
p489
S'1280502439'
p490
tp491
a(S'Muddy Waters'
p492
S"I Can't Be Satisfied"
p493
S'http://www.last.fm/music/Muddy+Waters/_/I+Can%27t+Be+Satisfied'
p494
S'1280499670'
p495
tp496
a(S'Audioslave'
p497
S'Sound Of A Gun'
p498
S'http://www.last.fm/music/Audioslave/_/Sound+Of+A+Gun'
p499
S'1280499506'
p500
tp501
a(S'Black Sabbath'
p502
S'Die Young'
p503
S'http://www.last.fm/music/Black+Sabbath/_/Die+Young'
p504
S'1280499146'
p505
tp506
a(S'Stone Temple Pilots'
p507
S'Too Cool Queenie'
p508
S'http://www.last.fm/music/Stone+Temple+Pilots/_/Too+Cool+Queenie'
p509
S'1280498743'
p510
tp511
a(S'Red Hot Chili Peppers'
p512
S'Higher Ground'
p513
S'http://www.last.fm/music/Red+Hot+Chili+Peppers/_/Higher+Ground'
p514
S'1280498545'
p515
tp516
a(S'ZZ Top'
p517
S'Fuzzbox Voodoo'
p518
S'http://www.last.fm/music/ZZ+Top/_/Fuzzbox+Voodoo'
p519
S'1280498224'
p520
tp521
a(S'Live'
p522
S"Face And Ghost (The Children's Song)"
p523
S'http://www.last.fm/music/Live/_/Face+And+Ghost+(The+Children%27s+Song)'
p524
S'1280497941'
p525
tp526
a(S'Kyuss'
p527
S'Into the Void'
p528
S'http://www.last.fm/music/Kyuss/_/Into+the+Void'
p529
S'1280497670'
p530
tp531
a(S'Van Halen'
p532
S'Top of the World'
p533
S'http://www.last.fm/music/Van+Halen/_/Top+of+the+World'
p534
S'1280497176'
p535
tp536
a(S'Nirvana'
p537
S'Heart-Shaped Box'
p538
S'http://www.last.fm/music/Nirvana/_/Heart-Shaped+Box'
p539
S'1280496941'
p540
tp541
a(S'Stevie Wonder'
p542
S'Higher Ground'
p543
S'http://www.last.fm/music/Stevie+Wonder/_/Higher+Ground'
p544
S'1280496660'
p545
tp546
a(S'Red Hot Chili Peppers'
p547
S'I Could Have Lied'
p548
S'http://www.last.fm/music/Red+Hot+Chili+Peppers/_/I+Could+Have+Lied'
p549
S'1280496434'
p550
tp551
a(S'Red Hot Chili Peppers'
p552
S'Suck My Kiss'
p553
S'http://www.last.fm/music/Red+Hot+Chili+Peppers/_/Suck+My+Kiss'
p554
S'1280496192'
p555
tp556
a(S'Red Hot Chili Peppers'
p557
S'Funky Monks'
p558
S'http://www.last.fm/music/Red+Hot+Chili+Peppers/_/Funky+Monks'
p559
S'1280495975'
p560
tp561
a(S'Red Hot Chili Peppers'
p562
S'Breaking the Girl'
p563
S'http://www.last.fm/music/Red+Hot+Chili+Peppers/_/Breaking+the+Girl'
p564
S'1280495651'
p565
tp566
a(S'Red Hot Chili Peppers'
p567
S'If You Have to Ask'
p568
S'http://www.last.fm/music/Red+Hot+Chili+Peppers/_/If+You+Have+to+Ask'
p569
S'1280495255'
p570
tp571
a(S'Red Hot Chili Peppers'
p572
S'Higher Ground'
p573
S'http://www.last.fm/music/Red+Hot+Chili+Peppers/_/Higher+Ground'
p574
S'1280494999'
p575
tp576
a(S'Red Hot Chili Peppers'
p577
S'Higher Ground'
p578
S'http://www.last.fm/music/Red+Hot+Chili+Peppers/_/Higher+Ground'
p579
S'1280494791'
p580
tp581
a(S'Red Hot Chili Peppers'
p582
S'Sir Psycho Sexy'
p583
S'http://www.last.fm/music/Red+Hot+Chili+Peppers/_/Sir+Psycho+Sexy'
p584
S'1280494359'
p585
tp586
a(S'Red Hot Chili Peppers'
p587
S'My Lovely Man'
p588
S'http://www.last.fm/music/Red+Hot+Chili+Peppers/_/My+Lovely+Man'
p589
S'1280493861'
p590
tp591
a(S'Red Hot Chili Peppers'
p592
S'The Greeting Song'
p593
S'http://www.last.fm/music/Red+Hot+Chili+Peppers/_/The+Greeting+Song'
p594
S'1280493582'
p595
tp596
a(S'Red Hot Chili Peppers'
p597
S'Apache Rose Peacock'
p598
S'http://www.last.fm/music/Red+Hot+Chili+Peppers/_/Apache+Rose+Peacock'
p599
S'1280493388'
p600
tp601
a(S'Red Hot Chili Peppers'
p602
S'Naked in the Rain'
p603
S'http://www.last.fm/music/Red+Hot+Chili+Peppers/_/Naked+in+the+Rain'
p604
S'1280493106'
p605
tp606
a(S'Red Hot Chili Peppers'
p607
S'Blood Sugar Sex Magik'
p608
S'http://www.last.fm/music/Red+Hot+Chili+Peppers/_/Blood+Sugar+Sex+Magik'
p609
S'1280492835'
p610
tp611
a(S'Red Hot Chili Peppers'
p612
S'Give It Away'
p613
S'http://www.last.fm/music/Red+Hot+Chili+Peppers/_/Give+It+Away'
p614
S'1280492290'
p615
tp616
a(S'Red Hot Chili Peppers'
p617
S'The Righteous & The Wicked'
p618
S'http://www.last.fm/music/Red+Hot+Chili+Peppers/_/The+Righteous+&+The+Wicked'
p619
S'1280492007'
p620
tp621
a(S'Red Hot Chili Peppers'
p622
S'Mellowship Slinky in B Major'
p623
S'http://www.last.fm/music/Red+Hot+Chili+Peppers/_/Mellowship+Slinky+in+B+Major'
p624
S'1280491759'
p625
tp626
a(S'Red Hot Chili Peppers'
p627
S'I Could Have Lied'
p628
S'http://www.last.fm/music/Red+Hot+Chili+Peppers/_/I+Could+Have+Lied'
p629
S'1280491518'
p630
tp631
a(S'Red Hot Chili Peppers'
p632
S'Funky Monks'
p633
S'http://www.last.fm/music/Red+Hot+Chili+Peppers/_/Funky+Monks'
p634
S'1280491269'
p635
tp636
a(S'Red Hot Chili Peppers'
p637
S'Breaking the Girl'
p638
S'http://www.last.fm/music/Red+Hot+Chili+Peppers/_/Breaking+the+Girl'
p639
S'1280490946'
p640
tp641
a(S'Red Hot Chili Peppers'
p642
S'If You Have to Ask'
p643
S'http://www.last.fm/music/Red+Hot+Chili+Peppers/_/If+You+Have+to+Ask'
p644
S'1280490650'
p645
tp646
a(S'Red Hot Chili Peppers'
p647
S'The Power of Equality'
p648
S'http://www.last.fm/music/Red+Hot+Chili+Peppers/_/The+Power+of+Equality'
p649
S'1280490433'
p650
tp651
a(S'Stevie Wonder'
p652
S'Higher Ground'
p653
S'http://www.last.fm/music/Stevie+Wonder/_/Higher+Ground'
p654
S'1280490177'
p655
tp656
a(S'Red Hot Chili Peppers'
p657
S'Higher Ground'
p658
S'http://www.last.fm/music/Red+Hot+Chili+Peppers/_/Higher+Ground'
p659
S'1280489980'
p660
tp661
a(S'Red Hot Chili Peppers'
p662
S'If You Have to Ask'
p663
S'http://www.last.fm/music/Red+Hot+Chili+Peppers/_/If+You+Have+to+Ask'
p664
S'1280489776'
p665
tp666
a(S'Red Hot Chili Peppers'
p667
S'The Power of Equality'
p668
S'http://www.last.fm/music/Red+Hot+Chili+Peppers/_/The+Power+of+Equality'
p669
S'1280442874'
p670
tp671
a(S'Faith No More'
p672
S'What a Day'
p673
S'http://www.last.fm/music/Faith+No+More/_/What+a+Day'
p674
S'1280442630'
p675
tp676
a(S'Red Hot Chili Peppers'
p677
S'Higher Ground'
p678
S'http://www.last.fm/music/Red+Hot+Chili+Peppers/_/Higher+Ground'
p679
S'1280442480'
p680
tp681
a(S'Stone Temple Pilots'
p682
S'Black Again'
p683
S'http://www.last.fm/music/Stone+Temple+Pilots/_/Black+Again'
p684
S'1280442155'
p685
tp686
a(S'Black Sabbath'
p687
S"Don't Start (Too Late)"
p688
S'http://www.last.fm/music/Black+Sabbath/_/Don%27t+Start+(Too+Late)'
p689
S'1280441543'
p690
tp691
a(S'Stevie Wonder'
p692
S'Higher Ground'
p693
S'http://www.last.fm/music/Stevie+Wonder/_/Higher+Ground'
p694
S'1280441493'
p695
tp696
a(S'Red Hot Chili Peppers'
p697
S'Higher Ground'
p698
S'http://www.last.fm/music/Red+Hot+Chili+Peppers/_/Higher+Ground'
p699
S'1280441273'
p700
tp701
a(S'Linkin Park'
p702
S'Somewhere I Belong'
p703
S'http://www.last.fm/music/Linkin+Park/_/Somewhere+I+Belong'
p704
S'1280441059'
p705
tp706
a(S'Judas Priest'
p707
S'Painkiller'
p708
S'http://www.last.fm/music/Judas+Priest/_/Painkiller'
p709
S'1280440823'
p710
tp711
a(S'Linkin Park'
p712
S'Lying from You'
p713
S'http://www.last.fm/music/Linkin+Park/_/Lying+from+You'
p714
S'1280440457'
p715
tp716
a(S'Red Hot Chili Peppers'
p717
S'Blood Sugar Sex Magik'
p718
S'http://www.last.fm/music/Red+Hot+Chili+Peppers/_/Blood+Sugar+Sex+Magik'
p719
S'1280439778'
p720
tp721
a(S'Screaming Trees'
p722
S'Time For Light'
p723
S'http://www.last.fm/music/Screaming+Trees/_/Time+For+Light'
p724
S'1280439045'
p725
tp726
a(S'Velvet Revolver'
p727
S'Dirty Little Thing'
p728
S'http://www.last.fm/music/Velvet+Revolver/_/Dirty+Little+Thing'
p729
S'1280438863'
p730
tp731
a(S'Metallica'
p732
S'The Four Horseman'
p733
S'http://www.last.fm/music/Metallica/_/The+Four+Horseman'
p734
S'1280438626'
p735
tp736
a(S'Audioslave'
p737
S'What You Are'
p738
S'http://www.last.fm/music/Audioslave/_/What+You+Are'
p739
S'1280436147'
p740
tp741
a(S'Alice in Chains'
p742
S'Acid Bubble'
p743
S'http://www.last.fm/music/Alice+in+Chains/_/Acid+Bubble'
p744
S'1280435889'
p745
tp746
a(S'Wesley Willis'
p747
S'Feel the Power of Rock & Roll'
p748
S'http://www.last.fm/music/Wesley+Willis/_/Feel+the+Power+of+Rock+&+Roll'
p749
S'1280435473'
p750
tp751
a(S'Judas Priest'
p752
S'Hot for Love'
p753
S'http://www.last.fm/music/Judas+Priest/_/Hot+for+Love'
p754
S'1280435322'
p755
tp756
a(S'AC/DC'
p757
S'Soul Stripper'
p758
S'http://www.last.fm/music/AC%2FDC/_/Soul+Stripper'
p759
S'1280434857'
p760
tp761
a(S'Live'
p762
S'The Distance'
p763
S'http://www.last.fm/music/Live/_/The+Distance'
p764
S'1280434217'
p765
tp766
a(S'Ozzy Osbourne'
p767
S'Shot in the Dark'
p768
S'http://www.last.fm/music/Ozzy+Osbourne/_/Shot+in+the+Dark'
p769
S'1280433986'
p770
tp771
a(S'Yes'
p772
S'Hold On'
p773
S'http://www.last.fm/music/Yes/_/Hold+On'
p774
S'1280433694'
p775
tp776
a(S'Anthrax'
p777
S'Random Acts Of Senseless Violence'
p778
S'http://www.last.fm/music/Anthrax/_/Random+Acts+Of+Senseless+Violence'
p779
S'1280433370'
p780
tp781
a(S'Misfits'
p782
S'Blacklight (Demo)'
p783
S'http://www.last.fm/music/Misfits/_/Blacklight+(Demo)'
p784
S'1280433121'
p785
tp786
a(S'Red Hot Chili Peppers'
p787
S'The Power of Equality'
p788
S'http://www.last.fm/music/Red+Hot+Chili+Peppers/_/The+Power+of+Equality'
p789
S'1280433047'
p790
tp791
a(S'Linkin Park'
p792
S'The Little Things Give You Away'
p793
S'http://www.last.fm/music/Linkin+Park/_/The+Little+Things+Give+You+Away'
p794
S'1280432789'
p795
tp796
a(S'Iron Maiden'
p797
S'Prodigal Son'
p798
S'http://www.last.fm/music/Iron+Maiden/_/Prodigal+Son'
p799
S'1280432367'
p800
tp801
a(S'Ramones'
p802
S'Main Man'
p803
S'http://www.last.fm/music/Ramones/_/Main+Man'
p804
S'1280431984'
p805
tp806
a(S'Army Of Anyone'
p807
S"It Doesn't Seem To Matter"
p808
S'http://www.last.fm/music/Army+Of+Anyone/_/It+Doesn%27t+Seem+To+Matter'
p809
S'1280431764'
p810
tp811
a(S'Red Hot Chili Peppers'
p812
S'Sir Psycho Sexy'
p813
S'http://www.last.fm/music/Red+Hot+Chili+Peppers/_/Sir+Psycho+Sexy'
p814
S'1280431532'
p815
tp816
a(S'Red Hot Chili Peppers'
p817
S'The Greeting Song'
p818
S'http://www.last.fm/music/Red+Hot+Chili+Peppers/_/The+Greeting+Song'
p819
S'1280431025'
p820
tp821
a(S'Alice in Chains'
p822
S'What The Hell Have I'
p823
S'http://www.last.fm/music/Alice+in+Chains/_/What+The+Hell+Have+I'
p824
S'1280430798'
p825
tp826
a(S'Faith No More'
p827
S'A Small Victory'
p828
S'http://www.last.fm/music/Faith+No+More/_/A+Small+Victory'
p829
S'1280430560'
p830
tp831
a(S'Black Sabbath'
p832
S'Die Young'
p833
S'http://www.last.fm/music/Black+Sabbath/_/Die+Young'
p834
S'1280430225'
p835
tp836
a(S'Velvet Revolver'
p837
S'Headspace'
p838
S'http://www.last.fm/music/Velvet+Revolver/_/Headspace'
p839
S'1280429896'
p840
tp841
a(S'Red Hot Chili Peppers'
p842
S'The Righteous & The Wicked'
p843
S'http://www.last.fm/music/Red+Hot+Chili+Peppers/_/The+Righteous+&+The+Wicked'
p844
S'1280429673'
p845
tp846
a(S'Nirvana'
p847
S'Dumb'
p848
S'http://www.last.fm/music/Nirvana/_/Dumb'
p849
S'1280429380'
p850
tp851
a(S'Nirvana'
p852
S'On a Plain'
p853
S'http://www.last.fm/music/Nirvana/_/On+a+Plain'
p854
S'1280427878'
p855
tp856
a(S'Nirvana'
p857
S'Stay Away'
p858
S'http://www.last.fm/music/Nirvana/_/Stay+Away'
p859
S'1280427673'
p860
tp861
a(S'Foo Fighters'
p862
S'Times Like These'
p863
S'http://www.last.fm/music/Foo+Fighters/_/Times+Like+These'
p864
S'1280427448'
p865
tp866
a(S'Foo Fighters'
p867
S'Live-In Skin'
p868
S'http://www.last.fm/music/Foo+Fighters/_/Live-In+Skin'
p869
S'1280427175'
p870
tp871
a(S'Def Leppard'
p872
S'Hysteria'
p873
S'http://www.last.fm/music/Def+Leppard/_/Hysteria'
p874
S'1280426935'
p875
tp876
a(S'Audioslave'
p877
S'Wide Awake'
p878
S'http://www.last.fm/music/Audioslave/_/Wide+Awake'
p879
S'1280426569'
p880
tp881
a(S'Daft Punk'
p882
S'Aerodynamic'
p883
S'http://www.last.fm/music/Daft+Punk/_/Aerodynamic'
p884
S'1280426195'
p885
tp886
a(S'Linkin Park'
p887
S'Numb'
p888
S'http://www.last.fm/music/Linkin+Park/_/Numb'
p889
S'1280425988'
p890
tp891
a(S'Linkin Park'
p892
S'Bleed It Out'
p893
S'http://www.last.fm/music/Linkin+Park/_/Bleed+It+Out'
p894
S'1280425791'
p895
tp896
a(S'Linkin Park'
p897
S'The Little Things Give You Away'
p898
S'http://www.last.fm/music/Linkin+Park/_/The+Little+Things+Give+You+Away'
p899
S'1280425542'
p900
tp901
a(S'Judas Priest'
p902
S'Hot for Love'
p903
S'http://www.last.fm/music/Judas+Priest/_/Hot+for+Love'
p904
S'1280417813'
p905
tp906
a(S'Red Hot Chili Peppers'
p907
S'Knock Me Down'
p908
S'http://www.last.fm/music/Red+Hot+Chili+Peppers/_/Knock+Me+Down'
p909
S'1280417552'
p910
tp911
a(S'Red Hot Chili Peppers'
p912
S'Higher Ground'
p913
S'http://www.last.fm/music/Red+Hot+Chili+Peppers/_/Higher+Ground'
p914
S'1280417292'
p915
tp916
a(S'Red Hot Chili Peppers'
p917
S"They're Red Hot"
p918
S'http://www.last.fm/music/Red+Hot+Chili+Peppers/_/They%27re+Red+Hot'
p919
S'1280417087'
p920
tp921
a(S'Red Hot Chili Peppers'
p922
S'Sir Psycho Sexy'
p923
S'http://www.last.fm/music/Red+Hot+Chili+Peppers/_/Sir+Psycho+Sexy'
p924
S'1280417052'
p925
tp926
a(S'Red Hot Chili Peppers'
p927
S'My Lovely Man'
p928
S'http://www.last.fm/music/Red+Hot+Chili+Peppers/_/My+Lovely+Man'
p929
S'1280416297'
p930
tp931
a(S'Red Hot Chili Peppers'
p932
S'The Greeting Song'
p933
S'http://www.last.fm/music/Red+Hot+Chili+Peppers/_/The+Greeting+Song'
p934
S'1280416017'
p935
tp936
a(S'Red Hot Chili Peppers'
p937
S'Apache Rose Peacock'
p938
S'http://www.last.fm/music/Red+Hot+Chili+Peppers/_/Apache+Rose+Peacock'
p939
S'1280415760'
p940
tp941
a(S'Red Hot Chili Peppers'
p942
S'Naked in the Rain'
p943
S'http://www.last.fm/music/Red+Hot+Chili+Peppers/_/Naked+in+the+Rain'
p944
S'1280415451'
p945
tp946
a(S'Red Hot Chili Peppers'
p947
S'Blood Sugar Sex Magik'
p948
S'http://www.last.fm/music/Red+Hot+Chili+Peppers/_/Blood+Sugar+Sex+Magik'
p949
S'1280415182'
p950
tp951
a(S'Red Hot Chili Peppers'
p952
S'The Righteous & The Wicked'
p953
S'http://www.last.fm/music/Red+Hot+Chili+Peppers/_/The+Righteous+&+The+Wicked'
p954
S'1280414822'
p955
tp956
a(S'Red Hot Chili Peppers'
p957
S'Mellowship Slinky in B Major'
p958
S'http://www.last.fm/music/Red+Hot+Chili+Peppers/_/Mellowship+Slinky+in+B+Major'
p959
S'1280414573'
p960
tp961
a(S'Red Hot Chili Peppers'
p962
S'I Could Have Lied'
p963
S'http://www.last.fm/music/Red+Hot+Chili+Peppers/_/I+Could+Have+Lied'
p964
S'1280414333'
p965
tp966
a(S'Red Hot Chili Peppers'
p967
S'Suck My Kiss'
p968
S'http://www.last.fm/music/Red+Hot+Chili+Peppers/_/Suck+My+Kiss'
p969
S'1280414088'
p970
tp971
a(S'Red Hot Chili Peppers'
p972
S'Funky Monks'
p973
S'http://www.last.fm/music/Red+Hot+Chili+Peppers/_/Funky+Monks'
p974
S'1280407419'
p975
tp976
a(S'Red Hot Chili Peppers'
p977
S'If You Have to Ask'
p978
S'http://www.last.fm/music/Red+Hot+Chili+Peppers/_/If+You+Have+to+Ask'
p979
S'1280407236'
p980
tp981
a(S'Red Hot Chili Peppers'
p982
S'The Power of Equality'
p983
S'http://www.last.fm/music/Red+Hot+Chili+Peppers/_/The+Power+of+Equality'
p984
S'1280407019'
p985
tp986
a(S'Donita Sparks & The Stellar Moments'
p987
S"He's Got The Honey"
p988
S'http://www.last.fm/music/Donita+Sparks+&+The+Stellar+Moments/_/He%27s+Got+The+Honey'
p989
S'1280346487'
p990
tp991
a(S'Stone Temple Pilots'
p992
S'Interstate Love Song'
p993
S'http://www.last.fm/music/Stone+Temple+Pilots/_/Interstate+Love+Song'
p994
S'1280346286'
p995
tp996
a(S'Nirvana'
p997
S"Jesus Doesn't Want Me For A Sunbeam"
p998
S'http://www.last.fm/music/Nirvana/_/Jesus+Doesn%27t+Want+Me+For+A+Sunbeam'
p999
S'1280346084'
p1000
tp1001
a.