(lp1
(S'Stone Temple Pilots'
p2
S'Too Cool Queenie'
p3
S'http://www.last.fm/music/Stone+Temple+Pilots/_/Too+Cool+Queenie'
p4
S'1276718191'
p5
tp6
a(S'Stone Temple Pilots'
p7
S'Peacoat'
p8
S'http://www.last.fm/music/Stone+Temple+Pilots/_/Peacoat'
p9
S'1276717939'
p10
tp11
a(S'Judas Priest'
p12
S'Hot for Love'
p13
S'http://www.last.fm/music/Judas+Priest/_/Hot+for+Love'
p14
S'1276717812'
p15
tp16
a(S'Alice in Chains'
p17
S'All Secrets Known'
p18
S'http://www.last.fm/music/Alice+in+Chains/_/All+Secrets+Known'
p19
S'1276717560'
p20
tp21
a(S'Velvet Revolver'
p22
S'She Builds Quick Machines'
p23
S'http://www.last.fm/music/Velvet+Revolver/_/She+Builds+Quick+Machines'
p24
S'1276717278'
p25
tp26
a(S'Alice in Chains'
p27
S'Rain When I Die'
p28
S'http://www.last.fm/music/Alice+in+Chains/_/Rain+When+I+Die'
p29
S'1276717034'
p30
tp31
a(S'Audioslave'
p32
S'Set It Off'
p33
S'http://www.last.fm/music/Audioslave/_/Set+It+Off'
p34
S'1276716672'
p35
tp36
a(S'Alice in Chains'
p37
S'Right Turn'
p38
S'http://www.last.fm/music/Alice+in+Chains/_/Right+Turn'
p39
S'1276716410'
p40
tp41
a(S'Ozzy Osbourne'
p42
S"Mama, I'm Coming Home"
p43
S'http://www.last.fm/music/Ozzy+Osbourne/_/Mama,+I%27m+Coming+Home'
p44
S'1276716211'
p45
tp46
a(S'Metallica'
p47
S'My Friend of Misery'
p48
S'http://www.last.fm/music/Metallica/_/My+Friend+of+Misery'
p49
S'1276714593'
p50
tp51
a(S'Alice Cooper'
p52
S'Run Down the Devil'
p53
S'http://www.last.fm/music/Alice+Cooper/_/Run+Down+the+Devil'
p54
S'1276714184'
p55
tp56
a(S'Ozzy Osbourne'
p57
S'Never Know Why'
p58
S'http://www.last.fm/music/Ozzy+Osbourne/_/Never+Know+Why'
p59
S'1276713975'
p60
tp61
a(S'Audioslave'
p62
S'Jewel Of The Summertime'
p63
S'http://www.last.fm/music/Audioslave/_/Jewel+Of+The+Summertime'
p64
S'1276713707'
p65
tp66
a(S'Velvet Revolver'
p67
S'Spectacle'
p68
S'http://www.last.fm/music/Velvet+Revolver/_/Spectacle'
p69
S'1276713476'
p70
tp71
a(S'Rainbow'
p72
S'Gates of Babylon'
p73
S'http://www.last.fm/music/Rainbow/_/Gates+of+Babylon'
p74
S'1276713254'
p75
tp76
a(S'Metallica'
p77
S'Of Wolf and Man'
p78
S'http://www.last.fm/music/Metallica/_/Of+Wolf+and+Man'
p79
S'1276712844'
p80
tp81
a(S'Alice Cooper'
p82
S"Nothing's Free"
p83
S'http://www.last.fm/music/Alice+Cooper/_/Nothing%27s+Free'
p84
S'1276712588'
p85
tp86
a(S'Stone Temple Pilots'
p87
S'Huckleberry Crumble'
p88
S'http://www.last.fm/music/Stone+Temple+Pilots/_/Huckleberry+Crumble'
p89
S'1276712287'
p90
tp91
a(S'Rainbow'
p92
S'Man on the Silver Mountain'
p93
S'http://www.last.fm/music/Rainbow/_/Man+on+the+Silver+Mountain'
p94
S'1276712096'
p95
tp96
a(S'Nirvana'
p97
S'Dumb'
p98
S'http://www.last.fm/music/Nirvana/_/Dumb'
p99
S'1276711879'
p100
tp101
a(S'Velvet Revolver'
p102
S'You Got No Right'
p103
S'http://www.last.fm/music/Velvet+Revolver/_/You+Got+No+Right'
p104
S'1276711706'
p105
tp106
a(S'Audioslave'
p107
S'The Worm'
p108
S'http://www.last.fm/music/Audioslave/_/The+Worm'
p109
S'1276711354'
p110
tp111
a(S'Black Sabbath'
p112
S'Under the Sun'
p113
S'http://www.last.fm/music/Black+Sabbath/_/Under+the+Sun'
p114
S'1276711124'
p115
tp116
a(S'Jerry Cantrell'
p117
S'Between'
p118
S'http://www.last.fm/music/Jerry+Cantrell/_/Between'
p119
S'1276710797'
p120
tp121
a(S'Live'
p122
S'Sparkle'
p123
S'http://www.last.fm/music/Live/_/Sparkle'
p124
S'1276710581'
p125
tp126
a(S'Live'
p127
S'Forever May Not Be Long Enough'
p128
S'http://www.last.fm/music/Live/_/Forever+May+Not+Be+Long+Enough'
p129
S'1276710307'
p130
tp131
a(S'Queens of the Stone Age'
p132
S"3's & 7's"
p133
S'http://www.last.fm/music/Queens+of+the+Stone+Age/_/3%27s+&+7%27s'
p134
S'1276710078'
p135
tp136
a(S'Stone Temple Pilots'
p137
S'Huckleberry Crumble'
p138
S'http://www.last.fm/music/Stone+Temple+Pilots/_/Huckleberry+Crumble'
p139
S'1276709863'
p140
tp141
a(S'Anthrax'
p142
S'Hy Pro Glo'
p143
S'http://www.last.fm/music/Anthrax/_/Hy+Pro+Glo'
p144
S'1276709638'
p145
tp146
a(S'Stone Temple Pilots'
p147
S'Fast as I Can'
p148
S'http://www.last.fm/music/Stone+Temple+Pilots/_/Fast+as+I+Can'
p149
S'1276709366'
p150
tp151
a(S'Alice Cooper'
p152
S'Die For You'
p153
S'http://www.last.fm/music/Alice+Cooper/_/Die+For+You'
p154
S'1276709153'
p155
tp156
a(S'Diamond Head'
p157
S'Muddy Waters'
p158
S'http://www.last.fm/music/Diamond+Head/_/Muddy+Waters'
p159
S'1276708896'
p160
tp161
a(S'Anthrax'
p162
S'Antisocial'
p163
S'http://www.last.fm/music/Anthrax/_/Antisocial'
p164
S'1276708621'
p165
tp166
a(S'Audioslave'
p167
S'Shape Of Things To Come'
p168
S'http://www.last.fm/music/Audioslave/_/Shape+Of+Things+To+Come'
p169
S'1276708355'
p170
tp171
a(S'Lynyrd Skynyrd'
p172
S"What's Your Name"
p173
S'http://www.last.fm/music/Lynyrd+Skynyrd/_/What%27s+Your+Name'
p174
S'1276708081'
p175
tp176
a(S'Lynyrd Skynyrd'
p177
S'G.W.T.G.G.'
p178
S'http://www.last.fm/music/Lynyrd+Skynyrd/_/G.W.T.G.G.'
p179
S'1276707868'
p180
tp181
a(S'Metallica'
p182
S'Of Wolf and Man'
p183
S'http://www.last.fm/music/Metallica/_/Of+Wolf+and+Man'
p184
S'1276707624'
p185
tp186
a(S'Stone Temple Pilots'
p187
S'Adhesive'
p188
S'http://www.last.fm/music/Stone+Temple+Pilots/_/Adhesive'
p189
S'1276707367'
p190
tp191
a(S'Queen'
p192
S'Keep Passing The Open Windows'
p193
S'http://www.last.fm/music/Queen/_/Keep+Passing+The+Open+Windows'
p194
S'1276707033'
p195
tp196
a(S'Soundgarden'
p197
S'Jesus Christ Pose'
p198
S'http://www.last.fm/music/Soundgarden/_/Jesus+Christ+Pose'
p199
S'1276706711'
p200
tp201
a(S'Daft Punk'
p202
S'Crescendolls'
p203
S'http://www.last.fm/music/Daft+Punk/_/Crescendolls'
p204
S'1276706360'
p205
tp206
a(S'Ozzy Osbourne'
p207
S'Black Rain'
p208
S'http://www.last.fm/music/Ozzy+Osbourne/_/Black+Rain'
p209
S'1276706148'
p210
tp211
a(S'Them Crooked Vultures'
p212
S'Spinning in Daffodils'
p213
S'http://www.last.fm/music/Them+Crooked+Vultures/_/Spinning+in+Daffodils'
p214
S'1276705866'
p215
tp216
a(S'Nirvana'
p217
S'About a Girl'
p218
S'http://www.last.fm/music/Nirvana/_/About+a+Girl'
p219
S'1276705418'
p220
tp221
a(S'Lynyrd Skynyrd'
p222
S'Was I Right Or Wrong'
p223
S'http://www.last.fm/music/Lynyrd+Skynyrd/_/Was+I+Right+Or+Wrong'
p224
S'1276705250'
p225
tp226
a(S'Daft Punk'
p227
S'Fresh'
p228
S'http://www.last.fm/music/Daft+Punk/_/Fresh'
p229
S'1276704925'
p230
tp231
a(S'Black Sabbath'
p232
S'Planet Caravan'
p233
S'http://www.last.fm/music/Black+Sabbath/_/Planet+Caravan'
p234
S'1276704678'
p235
tp236
a(S'ZZ Top'
p237
S'Loaded'
p238
S'http://www.last.fm/music/ZZ+Top/_/Loaded'
p239
S'1276704405'
p240
tp241
a(S'Soundgarden'
p242
S'Face Pollution'
p243
S'http://www.last.fm/music/Soundgarden/_/Face+Pollution'
p244
S'1276704176'
p245
tp246
a(S'Blues Traveler'
p247
S'Most Precarious'
p248
S'http://www.last.fm/music/Blues+Traveler/_/Most+Precarious'
p249
S'1276704033'
p250
tp251
a(S'Live'
p252
S'Like I Do'
p253
S'http://www.last.fm/music/Live/_/Like+I+Do'
p254
S'1276703825'
p255
tp256
a(S'Alice in Chains'
p257
S'Rain When I Die'
p258
S'http://www.last.fm/music/Alice+in+Chains/_/Rain+When+I+Die'
p259
S'1276703561'
p260
tp261
a(S'Metallica'
p262
S'My Friend of Misery'
p263
S'http://www.last.fm/music/Metallica/_/My+Friend+of+Misery'
p264
S'1276703199'
p265
tp266
a(S'Stone Temple Pilots'
p267
S'Too Cool Queenie'
p268
S'http://www.last.fm/music/Stone+Temple+Pilots/_/Too+Cool+Queenie'
p269
S'1276702784'
p270
tp271
a(S'Iron Maiden'
p272
S'Stranger In a Strange Land'
p273
S'http://www.last.fm/music/Iron+Maiden/_/Stranger+In+a+Strange+Land'
p274
S'1276702260'
p275
tp276
a(S'Stone Temple Pilots'
p277
S'Peacoat'
p278
S'http://www.last.fm/music/Stone+Temple+Pilots/_/Peacoat'
p279
S'1276701915'
p280
tp281
a(S'Stone Temple Pilots'
p282
S'Peacoat'
p283
S'http://www.last.fm/music/Stone+Temple+Pilots/_/Peacoat'
p284
S'1276701703'
p285
tp286
a(S'Queens of the Stone Age'
p287
S'Medication'
p288
S'http://www.last.fm/music/Queens+of+the+Stone+Age/_/Medication'
p289
S'1276701494'
p290
tp291
a(S'Alice Cooper'
p292
S'Dirty Diamonds'
p293
S'http://www.last.fm/music/Alice+Cooper/_/Dirty+Diamonds'
p294
S'1276701375'
p295
tp296
a(S'Lynyrd Skynyrd'
p297
S'Through It All'
p298
S'http://www.last.fm/music/Lynyrd+Skynyrd/_/Through+It+All'
p299
S'1276701131'
p300
tp301
a(S'Iron Maiden'
p302
S'The Loneliness of the Long Distance Runner'
p303
S'http://www.last.fm/music/Iron+Maiden/_/The+Loneliness+of+the+Long+Distance+Runner'
p304
S'1276700803'
p305
tp306
a(S'Rainbow'
p307
S'Gates of Babylon'
p308
S'http://www.last.fm/music/Rainbow/_/Gates+of+Babylon'
p309
S'1276700416'
p310
tp311
a(S'Stone Temple Pilots'
p312
S'Long Way Home'
p313
S'http://www.last.fm/music/Stone+Temple+Pilots/_/Long+Way+Home'
p314
S'1276699994'
p315
tp316
a(S'Ozzy Osbourne'
p317
S'Secret Loser'
p318
S'http://www.last.fm/music/Ozzy+Osbourne/_/Secret+Loser'
p319
S'1276699639'
p320
tp321
a(S'Alice in Chains'
p322
S'Frogs'
p323
S'http://www.last.fm/music/Alice+in+Chains/_/Frogs'
p324
S'1276699241'
p325
tp326
a(S'Blues Traveler'
p327
S'Hook'
p328
S'http://www.last.fm/music/Blues+Traveler/_/Hook'
p329
S'1276698705'
p330
tp331
a(S'Black Sabbath'
p332
S'Supernaut'
p333
S'http://www.last.fm/music/Black+Sabbath/_/Supernaut'
p334
S'1276698401'
p335
tp336
a(S'Alice in Chains'
p337
S'Whale & Wasp'
p338
S'http://www.last.fm/music/Alice+in+Chains/_/Whale+&+Wasp'
p339
S'1276695146'
p340
tp341
a(S'Alice in Chains'
p342
S'Your Decision'
p343
S'http://www.last.fm/music/Alice+in+Chains/_/Your+Decision'
p344
S'1276695026'
p345
tp346
a(S'Iron Maiden'
p347
S'Only the Good Die Young'
p348
S'http://www.last.fm/music/Iron+Maiden/_/Only+the+Good+Die+Young'
p349
S'1276694716'
p350
tp351
a(S'Blues Traveler'
p352
S'Battle Of Someone'
p353
S'http://www.last.fm/music/Blues+Traveler/_/Battle+Of+Someone'
p354
S'1276694433'
p355
tp356
a(S'ZZ Top'
p357
S"Deal Goin' Down"
p358
S'http://www.last.fm/music/ZZ+Top/_/Deal+Goin%27+Down'
p359
S'1276694070'
p360
tp361
a(S'Alice in Chains'
p362
S'Grind'
p363
S'http://www.last.fm/music/Alice+in+Chains/_/Grind'
p364
S'1276693662'
p365
tp366
a(S'Black Sabbath'
p367
S'Heaven and Hell'
p368
S'http://www.last.fm/music/Black+Sabbath/_/Heaven+and+Hell'
p369
S'1276693376'
p370
tp371
a(S'Ozzy Osbourne'
p372
S'The Ultimate Sin'
p373
S'http://www.last.fm/music/Ozzy+Osbourne/_/The+Ultimate+Sin'
p374
S'1276692961'
p375
tp376
a(S'Stone Temple Pilots'
p377
S'Lounge Fly'
p378
S'http://www.last.fm/music/Stone+Temple+Pilots/_/Lounge+Fly'
p379
S'1276621824'
p380
tp381
a(S'Queen'
p382
S'Calling All Girls'
p383
S'http://www.last.fm/music/Queen/_/Calling+All+Girls'
p384
S'1276621495'
p385
tp386
a(S'Stone Temple Pilots'
p387
S'Regeneration'
p388
S'http://www.last.fm/music/Stone+Temple+Pilots/_/Regeneration'
p389
S'1276621334'
p390
tp391
a(S'Alice in Chains'
p392
S'Lesson Learned'
p393
S'http://www.last.fm/music/Alice+in+Chains/_/Lesson+Learned'
p394
S'1276621098'
p395
tp396
a(S'Soundgarden'
p397
S'Let Me Drown'
p398
S'http://www.last.fm/music/Soundgarden/_/Let+Me+Drown'
p399
S'1276620842'
p400
tp401
a(S'Live'
p402
S'Simple Creed'
p403
S'http://www.last.fm/music/Live/_/Simple+Creed'
p404
S'1276620609'
p405
tp406
a(S'Jerry Cantrell'
p407
S'My Song'
p408
S'http://www.last.fm/music/Jerry+Cantrell/_/My+Song'
p409
S'1276620404'
p410
tp411
a(S'Live'
p412
S'Sweet Release'
p413
S'http://www.last.fm/music/Live/_/Sweet+Release'
p414
S'1276620158'
p415
tp416
a(S'Ozzy Osbourne'
p417
S'Shot in the Dark'
p418
S'http://www.last.fm/music/Ozzy+Osbourne/_/Shot+in+the+Dark'
p419
S'1276619973'
p420
tp421
a(S'Nirvana'
p422
S'Plateau'
p423
S'http://www.last.fm/music/Nirvana/_/Plateau'
p424
S'1276619701'
p425
tp426
a(S'Nirvana'
p427
S'Oh Me'
p428
S'http://www.last.fm/music/Nirvana/_/Oh+Me'
p429
S'1276619483'
p430
tp431
a(S'Alice in Chains'
p432
S'We Die Young (Demo)'
p433
S'http://www.last.fm/music/Alice+in+Chains/_/We+Die+Young+(Demo)'
p434
S'1276619364'
p435
tp436
a(S'Ozzy Osbourne'
p437
S'Denial'
p438
S'http://www.last.fm/music/Ozzy+Osbourne/_/Denial'
p439
S'1276619217'
p440
tp441
a(S'Velvet Revolver'
p442
S'Get Out The Door'
p443
S'http://www.last.fm/music/Velvet+Revolver/_/Get+Out+The+Door'
p444
S'1276618775'
p445
tp446
a(S'Metallica'
p447
S'Blitzkrieg'
p448
S'http://www.last.fm/music/Metallica/_/Blitzkrieg'
p449
S'1276618577'
p450
tp451
a(S'Rainbow'
p452
S'Gates of Babylon'
p453
S'http://www.last.fm/music/Rainbow/_/Gates+of+Babylon'
p454
S'1276618350'
p455
tp456
a(S'Live'
p457
S'Rattlesnake'
p458
S'http://www.last.fm/music/Live/_/Rattlesnake'
p459
S'1276615450'
p460
tp461
a(S'Live'
p462
S"Face And Ghost (The Children's Song)"
p463
S'http://www.last.fm/music/Live/_/Face+And+Ghost+(The+Children%27s+Song)'
p464
S'1276615153'
p465
tp466
a(S'Anthrax'
p467
S'Random Acts Of Senseless Violence'
p468
S'http://www.last.fm/music/Anthrax/_/Random+Acts+Of+Senseless+Violence'
p469
S'1276614883'
p470
tp471
a(S'Bee Gees'
p472
S'E.S.P.'
p473
S'http://www.last.fm/music/Bee+Gees/_/E.S.P.'
p474
S'1276613998'
p475
tp476
a(S'Ozzy Osbourne'
p477
S'Secret Loser'
p478
S'http://www.last.fm/music/Ozzy+Osbourne/_/Secret+Loser'
p479
S'1276613649'
p480
tp481
a(S'Anthrax'
p482
S'Hy Pro Glo'
p483
S'http://www.last.fm/music/Anthrax/_/Hy+Pro+Glo'
p484
S'1276613376'
p485
tp486
a(S'The Rolling Stones'
p487
S'Ventilator Blues'
p488
S'http://www.last.fm/music/The+Rolling+Stones/_/Ventilator+Blues'
p489
S'1276611330'
p490
tp491
a(S'Audioslave'
p492
S'Sound Of A Gun'
p493
S'http://www.last.fm/music/Audioslave/_/Sound+Of+A+Gun'
p494
S'1276611139'
p495
tp496
a(S'Alice in Chains'
p497
S'Rooster'
p498
S'http://www.last.fm/music/Alice+in+Chains/_/Rooster'
p499
S'1276610880'
p500
tp501
a(S'Black Sabbath'
p502
S'Die Young'
p503
S'http://www.last.fm/music/Black+Sabbath/_/Die+Young'
p504
S'1276610333'
p505
tp506
a(S'Iron Maiden'
p507
S'Purgatory'
p508
S'http://www.last.fm/music/Iron+Maiden/_/Purgatory'
p509
S'1276610056'
p510
tp511
a(S'Nirvana'
p512
S'Plateau'
p513
S'http://www.last.fm/music/Nirvana/_/Plateau'
p514
S'1276609847'
p515
tp516
a(S'Queen'
p517
S'Hang On In There'
p518
S'http://www.last.fm/music/Queen/_/Hang+On+In+There'
p519
S'1276609520'
p520
tp521
a(S'Black Sabbath'
p522
S'Laguna Sunrise'
p523
S'http://www.last.fm/music/Black+Sabbath/_/Laguna+Sunrise'
p524
S'1276609333'
p525
tp526
a(S'Jamiroquai'
p527
S'Electric Mistress'
p528
S'http://www.last.fm/music/Jamiroquai/_/Electric+Mistress'
p529
S'1276609160'
p530
tp531
a(S'Queens of the Stone Age'
p532
S'God Is in the Radio'
p533
S'http://www.last.fm/music/Queens+of+the+Stone+Age/_/God+Is+in+the+Radio'
p534
S'1276608917'
p535
tp536
a(S'Blues Traveler'
p537
S'Make My Way'
p538
S'http://www.last.fm/music/Blues+Traveler/_/Make+My+Way'
p539
S'1276608661'
p540
tp541
a(S'ZZ Top'
p542
S"She's Just Killing Me"
p543
S'http://www.last.fm/music/ZZ+Top/_/She%27s+Just+Killing+Me'
p544
S'1276608354'
p545
tp546
a(S'Live'
p547
S'Top'
p548
S'http://www.last.fm/music/Live/_/Top'
p549
S'1276608056'
p550
tp551
a(S'Soundgarden'
p552
S'Fresh Tendrils'
p553
S'http://www.last.fm/music/Soundgarden/_/Fresh+Tendrils'
p554
S'1276607894'
p555
tp556
a(S'Stone Temple Pilots'
p557
S'Huckleberry Crumble'
p558
S'http://www.last.fm/music/Stone+Temple+Pilots/_/Huckleberry+Crumble'
p559
S'1276607623'
p560
tp561
a(S'Anthrax'
p562
S'Hy Pro Glo'
p563
S'http://www.last.fm/music/Anthrax/_/Hy+Pro+Glo'
p564
S'1276607418'
p565
tp566
a(S'Lynyrd Skynyrd'
p567
S'Preacher Man'
p568
S'http://www.last.fm/music/Lynyrd+Skynyrd/_/Preacher+Man'
p569
S'1276606271'
p570
tp571
a(S'Alice Cooper'
p572
S'Perfect'
p573
S'http://www.last.fm/music/Alice+Cooper/_/Perfect'
p574
S'1276605996'
p575
tp576
a(S'Velvet Revolver'
p577
S'Gas and a Dollar Laugh'
p578
S'http://www.last.fm/music/Velvet+Revolver/_/Gas+and+a+Dollar+Laugh'
p579
S'1276605785'
p580
tp581
a(S'Alice Cooper'
p582
S'Bed of Nails'
p583
S'http://www.last.fm/music/Alice+Cooper/_/Bed+of+Nails'
p584
S'1276605587'
p585
tp586
a(S'Audioslave'
p587
S'Yesterday To Tomorrow'
p588
S'http://www.last.fm/music/Audioslave/_/Yesterday+To+Tomorrow'
p589
S'1276605251'
p590
tp591
a(S'Queens of the Stone Age'
p592
S'Skin on Skin'
p593
S'http://www.last.fm/music/Queens+of+the+Stone+Age/_/Skin+on+Skin'
p594
S'1276604972'
p595
tp596
a(S'Soundgarden'
p597
S'Half'
p598
S'http://www.last.fm/music/Soundgarden/_/Half'
p599
S'1276604749'
p600
tp601
a(S'Anthrax'
p602
S'Room For One More'
p603
S'http://www.last.fm/music/Anthrax/_/Room+For+One+More'
p604
S'1276604616'
p605
tp606
a(S'Anthrax'
p607
S'Hy Pro Glo'
p608
S'http://www.last.fm/music/Anthrax/_/Hy+Pro+Glo'
p609
S'1276604312'
p610
tp611
a(S'Anthrax'
p612
S'Room For One More'
p613
S'http://www.last.fm/music/Anthrax/_/Room+For+One+More'
p614
S'1276559960'
p615
tp616
a(S'Alice in Chains'
p617
S'God Am'
p618
S'http://www.last.fm/music/Alice+in+Chains/_/God+Am'
p619
S'1276536387'
p620
tp621
a(S'Anthrax'
p622
S'Only'
p623
S'http://www.last.fm/music/Anthrax/_/Only'
p624
S'1276536139'
p625
tp626
a(S'Black Sabbath'
p627
S'Sabbra Cadabra'
p628
S'http://www.last.fm/music/Black+Sabbath/_/Sabbra+Cadabra'
p629
S'1276535832'
p630
tp631
a(S'Anthrax'
p632
S'Indians'
p633
S'http://www.last.fm/music/Anthrax/_/Indians'
p634
S'1276535471'
p635
tp636
a(S'Jamiroquai'
p637
S'You Give Me Something'
p638
S'http://www.last.fm/music/Jamiroquai/_/You+Give+Me+Something'
p639
S'1276517724'
p640
tp641
a(S'Stone Temple Pilots'
p642
S'Dumb Love'
p643
S'http://www.last.fm/music/Stone+Temple+Pilots/_/Dumb+Love'
p644
S'1276517498'
p645
tp646
a(S'Stone Temple Pilots'
p647
S'Crackerman'
p648
S'http://www.last.fm/music/Stone+Temple+Pilots/_/Crackerman'
p649
S'1276517327'
p650
tp651
a(S'Ozzy Osbourne'
p652
S'Let Me Hear You Scream'
p653
S'http://www.last.fm/music/Ozzy+Osbourne/_/Let+Me+Hear+You+Scream'
p654
S'1276517131'
p655
tp656
a(S'Jamiroquai'
p657
S'You Give Me Something'
p658
S'http://www.last.fm/music/Jamiroquai/_/You+Give+Me+Something'
p659
S'1276294524'
p660
tp661
a(S'Stone Temple Pilots'
p662
S'"Unglued"'
p663
S'http://www.last.fm/music/Stone+Temple+Pilots/_/%22Unglued%22'
p664
S'1276287768'
p665
tp666
a(S'The Rolling Stones'
p667
S'Monkey Man'
p668
S'http://www.last.fm/music/The+Rolling+Stones/_/Monkey+Man'
p669
S'1276287614'
p670
tp671
a(S'Army Of Anyone'
p672
S'Father Figure'
p673
S'http://www.last.fm/music/Army+Of+Anyone/_/Father+Figure'
p674
S'1276287363'
p675
tp676
a(S'Garbage'
p677
S'Only Happy When It Rains'
p678
S'http://www.last.fm/music/Garbage/_/Only+Happy+When+It+Rains'
p679
S'1276287118'
p680
tp681
a(S'Ozzy Osbourne'
p682
S'The Ultimate Sin'
p683
S'http://www.last.fm/music/Ozzy+Osbourne/_/The+Ultimate+Sin'
p684
S'1276286882'
p685
tp686
a(S'Stone Temple Pilots'
p687
S'Hazy Daze'
p688
S'http://www.last.fm/music/Stone+Temple+Pilots/_/Hazy+Daze'
p689
S'1276286658'
p690
tp691
a(S'Metallica'
p692
S'Sad But True'
p693
S'http://www.last.fm/music/Metallica/_/Sad+But+True'
p694
S'1276286480'
p695
tp696
a(S'Live'
p697
S'Show'
p698
S'http://www.last.fm/music/Live/_/Show'
p699
S'1276286138'
p700
tp701
a(S'Velvet Revolver'
p702
S'Sucker Train Blues'
p703
S'http://www.last.fm/music/Velvet+Revolver/_/Sucker+Train+Blues'
p704
S'1276285927'
p705
tp706
a(S'Velvet Revolver'
p707
S'Slither'
p708
S'http://www.last.fm/music/Velvet+Revolver/_/Slither'
p709
S'1276285659'
p710
tp711
a(S'Stone Temple Pilots'
p712
S'Between the Lines'
p713
S'http://www.last.fm/music/Stone+Temple+Pilots/_/Between+the+Lines'
p714
S'1276285411'
p715
tp716
a(S'Live'
p717
S'The Beauty Of Gray'
p718
S'http://www.last.fm/music/Live/_/The+Beauty+Of+Gray'
p719
S'1276285240'
p720
tp721
a(S'Live'
p722
S'Selling The Drama'
p723
S'http://www.last.fm/music/Live/_/Selling+The+Drama'
p724
S'1276284982'
p725
tp726
a(S'Audioslave'
p727
S'Jewel Of The Summertime'
p728
S'http://www.last.fm/music/Audioslave/_/Jewel+Of+The+Summertime'
p729
S'1276284776'
p730
tp731
a(S'Alice in Chains'
p732
S'Shame in You'
p733
S'http://www.last.fm/music/Alice+in+Chains/_/Shame+in+You'
p734
S'1276284559'
p735
tp736
a(S'Velvet Revolver'
p737
S'Get Out The Door'
p738
S'http://www.last.fm/music/Velvet+Revolver/_/Get+Out+The+Door'
p739
S'1276284224'
p740
tp741
a(S'Queen'
p742
S'I Want It All'
p743
S'http://www.last.fm/music/Queen/_/I+Want+It+All'
p744
S'1276284029'
p745
tp746
a(S'Judas Priest'
p747
S'Out in the Cold'
p748
S'http://www.last.fm/music/Judas+Priest/_/Out+in+the+Cold'
p749
S'1276283663'
p750
tp751
a(S'Judas Priest'
p752
S'Hot for Love'
p753
S'http://www.last.fm/music/Judas+Priest/_/Hot+for+Love'
p754
S'1276282425'
p755
tp756
a(S'Ozzy Osbourne'
p757
S'Secret Loser'
p758
S'http://www.last.fm/music/Ozzy+Osbourne/_/Secret+Loser'
p759
S'1276282138'
p760
tp761
a(S'Rainbow'
p762
S'Self Portrait'
p763
S'http://www.last.fm/music/Rainbow/_/Self+Portrait'
p764
S'1276281376'
p765
tp766
a(S'Stone Temple Pilots'
p767
S'Huckleberry Crumble'
p768
S'http://www.last.fm/music/Stone+Temple+Pilots/_/Huckleberry+Crumble'
p769
S'1276281179'
p770
tp771
a(S'Nirvana'
p772
S'On a Plain'
p773
S'http://www.last.fm/music/Nirvana/_/On+a+Plain'
p774
S'1276280989'
p775
tp776
a(S'Live'
p777
S'Voodoo Lady'
p778
S'http://www.last.fm/music/Live/_/Voodoo+Lady'
p779
S'1276280792'
p780
tp781
a(S'Alice Cooper'
p782
S'Dirty Diamonds'
p783
S'http://www.last.fm/music/Alice+Cooper/_/Dirty+Diamonds'
p784
S'1276280532'
p785
tp786
a(S'Live'
p787
S'Freaks'
p788
S'http://www.last.fm/music/Live/_/Freaks'
p789
S'1276280285'
p790
tp791
a(S'Daft Punk'
p792
S'Harder, Better, Faster, Stronger'
p793
S'http://www.last.fm/music/Daft+Punk/_/Harder,+Better,+Faster,+Stronger'
p794
S'1276279995'
p795
tp796
a(S'Live'
p797
S'Run To The Water'
p798
S'http://www.last.fm/music/Live/_/Run+To+The+Water'
p799
S'1276279721'
p800
tp801
a(S'Black Sabbath'
p802
S'Thrill of it All'
p803
S'http://www.last.fm/music/Black+Sabbath/_/Thrill+of+it+All'
p804
S'1276279452'
p805
tp806
a(S'The Cult'
p807
S'Heart of Soul'
p808
S'http://www.last.fm/music/The+Cult/_/Heart+of+Soul'
p809
S'1276279097'
p810
tp811
a(S'Ozzy Osbourne'
p812
S"My Jekyll Doesn't Hide"
p813
S'http://www.last.fm/music/Ozzy+Osbourne/_/My+Jekyll+Doesn%27t+Hide'
p814
S'1276278817'
p815
tp816
a(S'Judas Priest'
p817
S'Hot for Love'
p818
S'http://www.last.fm/music/Judas+Priest/_/Hot+for+Love'
p819
S'1276278373'
p820
tp821
a(S'Iron Maiden'
p822
S'Sea of Madness'
p823
S'http://www.last.fm/music/Iron+Maiden/_/Sea+of+Madness'
p824
S'1276278050'
p825
tp826
a(S'Metallica'
p827
S'The Four Horseman'
p828
S'http://www.last.fm/music/Metallica/_/The+Four+Horseman'
p829
S'1276277805'
p830
tp831
a(S'The Rolling Stones'
p832
S'Slipping Away'
p833
S'http://www.last.fm/music/The+Rolling+Stones/_/Slipping+Away'
p834
S'1276277372'
p835
tp836
a(S'Alice in Chains'
p837
S'Got Me Wrong'
p838
S'http://www.last.fm/music/Alice+in+Chains/_/Got+Me+Wrong'
p839
S'1276277103'
p840
tp841
a(S'Alice Cooper'
p842
S'Burning Our Bed'
p843
S'http://www.last.fm/music/Alice+Cooper/_/Burning+Our+Bed'
p844
S'1276276851'
p845
tp846
a(S'Daft Punk'
p847
S'Something About Us'
p848
S'http://www.last.fm/music/Daft+Punk/_/Something+About+Us'
p849
S'1276276577'
p850
tp851
a(S'Soundgarden'
p852
S'Fell on Black Days'
p853
S'http://www.last.fm/music/Soundgarden/_/Fell+on+Black+Days'
p854
S'1276276345'
p855
tp856
a(S'Queen'
p857
S"If You Can't Beat Them"
p858
S'http://www.last.fm/music/Queen/_/If+You+Can%27t+Beat+Them'
p859
S'1276276063'
p860
tp861
a(S'Alice in Chains'
p862
S'Private Hell'
p863
S'http://www.last.fm/music/Alice+in+Chains/_/Private+Hell'
p864
S'1276275804'
p865
tp866
a(S'Iron Maiden'
p867
S'Killers'
p868
S'http://www.last.fm/music/Iron+Maiden/_/Killers'
p869
S'1276275466'
p870
tp871
a(S'Queens of the Stone Age'
p872
S'Tension Head'
p873
S'http://www.last.fm/music/Queens+of+the+Stone+Age/_/Tension+Head'
p874
S'1276275165'
p875
tp876
a(S'Ozzy Osbourne'
p877
S'Perry Mason'
p878
S'http://www.last.fm/music/Ozzy+Osbourne/_/Perry+Mason'
p879
S'1276274992'
p880
tp881
a(S'Yes'
p882
S'Changes'
p883
S'http://www.last.fm/music/Yes/_/Changes'
p884
S'1276270391'
p885
tp886
a(S'Nirvana'
p887
S'Something in the Way'
p888
S'http://www.last.fm/music/Nirvana/_/Something+in+the+Way'
p889
S'1276269939'
p890
tp891
a(S'Stone Temple Pilots'
p892
S'Dumb Love'
p893
S'http://www.last.fm/music/Stone+Temple+Pilots/_/Dumb+Love'
p894
S'1276269698'
p895
tp896
a(S'Ozzy Osbourne'
p897
S'Secret Loser'
p898
S'http://www.last.fm/music/Ozzy+Osbourne/_/Secret+Loser'
p899
S'1276269518'
p900
tp901
a(S'Ozzy Osbourne'
p902
S'Black Rain'
p903
S'http://www.last.fm/music/Ozzy+Osbourne/_/Black+Rain'
p904
S'1276269269'
p905
tp906
a(S'Audioslave'
p907
S'Cochise'
p908
S'http://www.last.fm/music/Audioslave/_/Cochise'
p909
S'1276268940'
p910
tp911
a(S'Judas Priest'
p912
S'Turbo Lover'
p913
S'http://www.last.fm/music/Judas+Priest/_/Turbo+Lover'
p914
S'1276268102'
p915
tp916
a(S'Nirvana'
p917
S'Plateau'
p918
S'http://www.last.fm/music/Nirvana/_/Plateau'
p919
S'1276267214'
p920
tp921
a(S'Queens of the Stone Age'
p922
S'This Lullaby'
p923
S'http://www.last.fm/music/Queens+of+the+Stone+Age/_/This+Lullaby'
p924
S'1276266996'
p925
tp926
a(S'Ozzy Osbourne'
p927
S'Party With the Animals (Bonus Track)'
p928
S'http://www.last.fm/music/Ozzy+Osbourne/_/Party+With+the+Animals+(Bonus+Track)'
p929
S'1276266943'
p930
tp931
a(S'Judas Priest'
p932
S'Hot for Love'
p933
S'http://www.last.fm/music/Judas+Priest/_/Hot+for+Love'
p934
S'1276266685'
p935
tp936
a(S'Ozzy Osbourne'
p937
S'Secret Loser'
p938
S'http://www.last.fm/music/Ozzy+Osbourne/_/Secret+Loser'
p939
S'1276266433'
p940
tp941
a(S'Stone Temple Pilots'
p942
S'Peacoat'
p943
S'http://www.last.fm/music/Stone+Temple+Pilots/_/Peacoat'
p944
S'1276266113'
p945
tp946
a(S'Soundgarden'
p947
S'The Day I Tried to Live'
p948
S'http://www.last.fm/music/Soundgarden/_/The+Day+I+Tried+to+Live'
p949
S'1276265691'
p950
tp951
a(S'Ozzy Osbourne'
p952
S'Civilize the Universe'
p953
S'http://www.last.fm/music/Ozzy+Osbourne/_/Civilize+the+Universe'
p954
S'1276265372'
p955
tp956
a(S'Alice Cooper'
p957
S"I'm Your Gun"
p958
S'http://www.last.fm/music/Alice+Cooper/_/I%27m+Your+Gun'
p959
S'1276264785'
p960
tp961
a(S'AC/DC'
p962
S'T.N.T.'
p963
S'http://www.last.fm/music/AC%2FDC/_/T.N.T.'
p964
S'1276264556'
p965
tp966
a(S'Queens of the Stone Age'
p967
S'Go With the Flow'
p968
S'http://www.last.fm/music/Queens+of+the+Stone+Age/_/Go+With+the+Flow'
p969
S'1276264223'
p970
tp971
a(S'Jerry Cantrell'
p972
S'Cold Piece'
p973
S'http://www.last.fm/music/Jerry+Cantrell/_/Cold+Piece'
p974
S'1276264036'
p975
tp976
a(S'Them Crooked Vultures'
p977
S'New Fang'
p978
S'http://www.last.fm/music/Them+Crooked+Vultures/_/New+Fang'
p979
S'1276263531'
p980
tp981
a(S'Muddy Waters'
p982
S'Walking Blues'
p983
S'http://www.last.fm/music/Muddy+Waters/_/Walking+Blues'
p984
S'1276263302'
p985
tp986
a(S'Jerry Cantrell'
p987
S'Jesus Hands'
p988
S'http://www.last.fm/music/Jerry+Cantrell/_/Jesus+Hands'
p989
S'1276263122'
p990
tp991
a(S'Audioslave'
p992
S'Gasoline'
p993
S'http://www.last.fm/music/Audioslave/_/Gasoline'
p994
S'1276262749'
p995
tp996
a(S'Ozzy Osbourne'
p997
S'Secret Loser'
p998
S'http://www.last.fm/music/Ozzy+Osbourne/_/Secret+Loser'
p999
S'1276205629'
p1000
tp1001
a.