(lp1
(S'Iron Maiden'
p2
S'Chains of Misery'
p3
S'http://www.last.fm/music/Iron+Maiden/_/Chains+of+Misery'
p4
S'1207838745'
p5
tp6
a(S'Iron Maiden'
p7
S'The Evil That Men Do'
p8
S'http://www.last.fm/music/Iron+Maiden/_/The+Evil+That+Men+Do'
p9
S'1207838471'
p10
tp11
a(S'Jamiroquai'
p12
S'Virtual Insanity'
p13
S'http://www.last.fm/music/Jamiroquai/_/Virtual+Insanity'
p14
S'1207838244'
p15
tp16
a(S'Nirvana'
p17
S'Lithium'
p18
S'http://www.last.fm/music/Nirvana/_/Lithium'
p19
S'1207837987'
p20
tp21
a(S'Jerry Cantrell'
p22
S'Hurt A Long Time'
p23
S'http://www.last.fm/music/Jerry+Cantrell/_/Hurt+A+Long+Time'
p24
S'1207837646'
p25
tp26
a(S'Iron Maiden'
p27
S'Public Enema Number One'
p28
S'http://www.last.fm/music/Iron+Maiden/_/Public+Enema+Number+One'
p29
S'1207837330'
p30
tp31
a(S'Weezer'
p32
S'Buddy Holly'
p33
S'http://www.last.fm/music/Weezer/_/Buddy+Holly'
p34
S'1207837175'
p35
tp36
a(S'Blondie'
p37
S'Call Me'
p38
S'http://www.last.fm/music/Blondie/_/Call+Me'
p39
S'1207836960'
p40
tp41
a(S'T. Rex'
p42
S'20th Century Boy'
p43
S'http://www.last.fm/music/T.+Rex/_/20th+Century+Boy'
p44
S'1207836741'
p45
tp46
a(S'Queens of the Stone Age'
p47
S'Make It Wit Chu'
p48
S'http://www.last.fm/music/Queens+of+the+Stone+Age/_/Make+It+Wit+Chu'
p49
S'1207773505'
p50
tp51
a(S'Queens of the Stone Age'
p52
S"3's & 7's"
p53
S'http://www.last.fm/music/Queens+of+the+Stone+Age/_/3%27s+&+7%27s'
p54
S'1207773291'
p55
tp56
a(S'Jamiroquai'
p57
S'When You Gonna Learn'
p58
S'http://www.last.fm/music/Jamiroquai/_/When+You+Gonna+Learn'
p59
S'1207773062'
p60
tp61
a(S'Jamiroquai'
p62
S'Little L'
p63
S'http://www.last.fm/music/Jamiroquai/_/Little+L'
p64
S'1207772824'
p65
tp66
a(S'Queens of the Stone Age'
p67
S'God Is in the Radio'
p68
S'http://www.last.fm/music/Queens+of+the+Stone+Age/_/God+Is+in+the+Radio'
p69
S'1207772459'
p70
tp71
a(S'Iron Maiden'
p72
S'Only the Good Die Young'
p73
S'http://www.last.fm/music/Iron+Maiden/_/Only+the+Good+Die+Young'
p74
S'1207772177'
p75
tp76
a(S'Queens of the Stone Age'
p77
S'Little Sister'
p78
S'http://www.last.fm/music/Queens+of+the+Stone+Age/_/Little+Sister'
p79
S'1207772006'
p80
tp81
a(S'Jamiroquai'
p82
S'7 days in sunny june'
p83
S'http://www.last.fm/music/Jamiroquai/_/7+days+in+sunny+june'
p84
S'1207771762'
p85
tp86
a(S'Queens of the Stone Age'
p87
S'Make It Wit Chu'
p88
S'http://www.last.fm/music/Queens+of+the+Stone+Age/_/Make+It+Wit+Chu'
p89
S'1207767690'
p90
tp91
a(S'Army Of Anyone'
p92
S'A Better Place'
p93
S'http://www.last.fm/music/Army+Of+Anyone/_/A+Better+Place'
p94
S'1207767383'
p95
tp96
a(S'Army Of Anyone'
p97
S'Generation'
p98
S'http://www.last.fm/music/Army+Of+Anyone/_/Generation'
p99
S'1207767172'
p100
tp101
a(S'Jerry Cantrell'
p102
S'Devil By His Side'
p103
S'http://www.last.fm/music/Jerry+Cantrell/_/Devil+By+His+Side'
p104
S'1207766883'
p105
tp106
a(S'Queens of the Stone Age'
p107
S'God Is in the Radio'
p108
S'http://www.last.fm/music/Queens+of+the+Stone+Age/_/God+Is+in+the+Radio'
p109
S'1207766518'
p110
tp111
a(S'Jerry Cantrell'
p112
S'Hurt A Long Time'
p113
S'http://www.last.fm/music/Jerry+Cantrell/_/Hurt+A+Long+Time'
p114
S'1207766177'
p115
tp116
a(S'Jamiroquai'
p117
S'7 days in sunny june'
p118
S'http://www.last.fm/music/Jamiroquai/_/7+days+in+sunny+june'
p119
S'1207765937'
p120
tp121
a(S'Butthole Surfers'
p122
S'Pepper'
p123
S'http://www.last.fm/music/Butthole+Surfers/_/Pepper'
p124
S'1207765640'
p125
tp126
a(S"Howlin' Wolf"
p127
S'Spoonful'
p128
S'http://www.last.fm/music/Howlin%27+Wolf/_/Spoonful'
p129
S'1207765476'
p130
tp131
a(S'Iron Maiden'
p132
S'The Evil That Men Do'
p133
S'http://www.last.fm/music/Iron+Maiden/_/The+Evil+That+Men+Do'
p134
S'1207765203'
p135
tp136
a(S'Queens of the Stone Age'
p137
S'No One Knows'
p138
S'http://www.last.fm/music/Queens+of+the+Stone+Age/_/No+One+Knows'
p139
S'1207764923'
p140
tp141
a(S'Jamiroquai'
p142
S'7 days in sunny june'
p143
S'http://www.last.fm/music/Jamiroquai/_/7+days+in+sunny+june'
p144
S'1207764765'
p145
tp146
a(S'Iron Maiden'
p147
S'Holy Smoke'
p148
S'http://www.last.fm/music/Iron+Maiden/_/Holy+Smoke'
p149
S'1207685227'
p150
tp151
a(S'Iron Maiden'
p152
S'No Prayer for the Dying'
p153
S'http://www.last.fm/music/Iron+Maiden/_/No+Prayer+for+the+Dying'
p154
S'1207684964'
p155
tp156
a(S'Metallica'
p157
S'Master of Puppets'
p158
S'http://www.last.fm/music/Metallica/_/Master+of+Puppets'
p159
S'1207684447'
p160
tp161
a(S'Metallica'
p162
S'Enter Sandman'
p163
S'http://www.last.fm/music/Metallica/_/Enter+Sandman'
p164
S'1207684116'
p165
tp166
a(S"Howlin' Wolf"
p167
S'Spoonful'
p168
S'http://www.last.fm/music/Howlin%27+Wolf/_/Spoonful'
p169
S'1207683951'
p170
tp171
a(S'The Beatles'
p172
S'Get Back'
p173
S'http://www.last.fm/music/The+Beatles/_/Get+Back'
p174
S'1207683753'
p175
tp176
a(S'Mother Love Bone'
p177
S'Heartshine'
p178
S'http://www.last.fm/music/Mother+Love+Bone/_/Heartshine'
p179
S'1207683475'
p180
tp181
a(S'Iron Maiden'
p182
S'Chains of Misery'
p183
S'http://www.last.fm/music/Iron+Maiden/_/Chains+of+Misery'
p184
S'1207660173'
p185
tp186
a(S'Jamiroquai'
p187
S'Love Foolosophy'
p188
S'http://www.last.fm/music/Jamiroquai/_/Love+Foolosophy'
p189
S'1207659737'
p190
tp191
a(S'Jamiroquai'
p192
S'Space Cowboy'
p193
S'http://www.last.fm/music/Jamiroquai/_/Space+Cowboy'
p194
S'1207614384'
p195
tp196
a(S'Metallica'
p197
S'2 X 4'
p198
S'http://www.last.fm/music/Metallica/_/2+X+4'
p199
S'1207614055'
p200
tp201
a(S'Jerry Cantrell'
p202
S'Jesus Hands'
p203
S'http://www.last.fm/music/Jerry+Cantrell/_/Jesus+Hands'
p204
S'1207613719'
p205
tp206
a(S'Jamiroquai'
p207
S'Little L'
p208
S'http://www.last.fm/music/Jamiroquai/_/Little+L'
p209
S'1207613480'
p210
tp211
a(S'Weezer'
p212
S'Buddy Holly'
p213
S'http://www.last.fm/music/Weezer/_/Buddy+Holly'
p214
S'1207598583'
p215
tp216
a(S'Muddy Waters'
p217
S'Hoochie Coochie Man'
p218
S'http://www.last.fm/music/Muddy+Waters/_/Hoochie+Coochie+Man'
p219
S'1207598360'
p220
tp221
a(S'Donita Sparks & The Stellar Moments'
p222
S"He's Got The Honey"
p223
S'http://www.last.fm/music/Donita+Sparks+&+The+Stellar+Moments/_/He%27s+Got+The+Honey'
p224
S'1207598169'
p225
tp226
a(S'Jerry Cantrell'
p227
S'Satisfy'
p228
S'http://www.last.fm/music/Jerry+Cantrell/_/Satisfy'
p229
S'1207597954'
p230
tp231
a(S'Chuck Berry'
p232
S'Sweet Little Sixteen'
p233
S'http://www.last.fm/music/Chuck+Berry/_/Sweet+Little+Sixteen'
p234
S'1207597756'
p235
tp236
a(S'Army Of Anyone'
p237
S'Generation'
p238
S'http://www.last.fm/music/Army+Of+Anyone/_/Generation'
p239
S'1207597545'
p240
tp241
a(S'Dion'
p242
S'Runaround Sue'
p243
S'http://www.last.fm/music/Dion/_/Runaround+Sue'
p244
S'1207597342'
p245
tp246
a(S'Cyndi Lauper'
p247
S'Girls Just Want to Have Fun'
p248
S'http://www.last.fm/music/Cyndi+Lauper/_/Girls+Just+Want+to+Have+Fun'
p249
S'1207597112'
p250
tp251
a(S'Audioslave'
p252
S'Yesterday To Tomorrow'
p253
S'http://www.last.fm/music/Audioslave/_/Yesterday+To+Tomorrow'
p254
S'1207596838'
p255
tp256
a(S"Guns N' Roses"
p257
S'Paradise City'
p258
S'http://www.last.fm/music/Guns+N%27+Roses/_/Paradise+City'
p259
S'1207596432'
p260
tp261
a(S'Atlantic Starr'
p262
S'Always'
p263
S'http://www.last.fm/music/Atlantic+Starr/_/Always'
p264
S'1207596118'
p265
tp266
a(S'Audioslave'
p267
S'Sound Of A Gun'
p268
S'http://www.last.fm/music/Audioslave/_/Sound+Of+A+Gun'
p269
S'1207595848'
p270
tp271
a(S'Alice Cooper'
p272
S"School's Out"
p273
S'http://www.last.fm/music/Alice+Cooper/_/School%27s+Out'
p274
S'1207595624'
p275
tp276
a(S'Metallica'
p277
S'Orion [Instrumental]'
p278
S'http://www.last.fm/music/Metallica/_/Orion+%5BInstrumental%5D'
p279
S'1207594787'
p280
tp281
a(S'Pearl Jam'
p282
S'Jeremy'
p283
S'http://www.last.fm/music/Pearl+Jam/_/Jeremy'
p284
S'1207594468'
p285
tp286
a(S'Steppenwolf'
p287
S'Born to Be Wild'
p288
S'http://www.last.fm/music/Steppenwolf/_/Born+to+Be+Wild'
p289
S'1207594257'
p290
tp291
a(S'Jerry Cantrell'
p292
S'Keep The Light On'
p293
S'http://www.last.fm/music/Jerry+Cantrell/_/Keep+The+Light+On'
p294
S'1207593970'
p295
tp296
a(S"Howlin' Wolf"
p297
S'Spoonful'
p298
S'http://www.last.fm/music/Howlin%27+Wolf/_/Spoonful'
p299
S'1207593774'
p300
tp301
a(S'Jerry Cantrell'
p302
S'Breaks My Back'
p303
S'http://www.last.fm/music/Jerry+Cantrell/_/Breaks+My+Back'
p304
S'1207593349'
p305
tp306
a(S'Pearl Jam'
p307
S'Even Flow'
p308
S'http://www.last.fm/music/Pearl+Jam/_/Even+Flow'
p309
S'1207593056'
p310
tp311
a(S'Metallica'
p312
S'Dyers Eve'
p313
S'http://www.last.fm/music/Metallica/_/Dyers+Eve'
p314
S'1207592714'
p315
tp316
a(S'Led Zeppelin'
p317
S'Heartbreaker'
p318
S'http://www.last.fm/music/Led+Zeppelin/_/Heartbreaker'
p319
S'1207592459'
p320
tp321
a(S'Run-D.M.C.'
p322
S'Walk This Way'
p323
S'http://www.last.fm/music/Run-D.M.C./_/Walk+This+Way'
p324
S'1207592120'
p325
tp326
a(S'Queens of the Stone Age'
p327
S'Make It Wit Chu'
p328
S'http://www.last.fm/music/Queens+of+the+Stone+Age/_/Make+It+Wit+Chu'
p329
S'1207591830'
p330
tp331
a(S'Queens of the Stone Age'
p332
S'Little Sister'
p333
S'http://www.last.fm/music/Queens+of+the+Stone+Age/_/Little+Sister'
p334
S'1207591656'
p335
tp336
a(S'The Mamas & the Papas'
p337
S"California Dreamin'"
p338
S'http://www.last.fm/music/The+Mamas+&+the+Papas/_/California+Dreamin%27'
p339
S'1207591462'
p340
tp341
a(S'Iron Maiden'
p342
S'Public Enema Number One'
p343
S'http://www.last.fm/music/Iron+Maiden/_/Public+Enema+Number+One'
p344
S'1207584600'
p345
tp346
a(S'Iron Maiden'
p347
S'Sea of Madness'
p348
S'http://www.last.fm/music/Iron+Maiden/_/Sea+of+Madness'
p349
S'1207584259'
p350
tp351
a(S'Jerry Cantrell'
p352
S'Hurt A Long Time'
p353
S'http://www.last.fm/music/Jerry+Cantrell/_/Hurt+A+Long+Time'
p354
S'1207583207'
p355
tp356
a(S'The Rolling Stones'
p357
S'Beast of Burden'
p358
S'http://www.last.fm/music/The+Rolling+Stones/_/Beast+of+Burden'
p359
S'1207582940'
p360
tp361
a(S'Marvin Gaye'
p362
S'Lets Get It On'
p363
S'http://www.last.fm/music/Marvin+Gaye/_/Lets+Get+It+On'
p364
S'1207582648'
p365
tp366
a(S'Queens of the Stone Age'
p367
S'No One Knows'
p368
S'http://www.last.fm/music/Queens+of+the+Stone+Age/_/No+One+Knows'
p369
S'1207582369'
p370
tp371
a(S'The Beach Boys'
p372
S'Caroline, No'
p373
S'http://www.last.fm/music/The+Beach+Boys/_/Caroline,+No'
p374
S'1207582202'
p375
tp376
a(S'Jamiroquai'
p377
S'Love Foolosophy'
p378
S'http://www.last.fm/music/Jamiroquai/_/Love+Foolosophy'
p379
S'1207581598'
p380
tp381
a(S'Jerry Lee Lewis'
p382
S'Great Balls of Fire'
p383
S'http://www.last.fm/music/Jerry+Lee+Lewis/_/Great+Balls+of+Fire'
p384
S'1207581476'
p385
tp386
a(S'Blondie'
p387
S'Call Me'
p388
S'http://www.last.fm/music/Blondie/_/Call+Me'
p389
S'1207581265'
p390
tp391
a(S'Creedence Clearwater Revival'
p392
S"Who'll Stop the Rain"
p393
S'http://www.last.fm/music/Creedence+Clearwater+Revival/_/Who%27ll+Stop+the+Rain'
p394
S'1207581117'
p395
tp396
a(S'Nirvana'
p397
S'In Bloom'
p398
S'http://www.last.fm/music/Nirvana/_/In+Bloom'
p399
S'1207580862'
p400
tp401
a(S'Cream'
p402
S'Sunshine of Your Love'
p403
S'http://www.last.fm/music/Cream/_/Sunshine+of+Your+Love'
p404
S'1207580609'
p405
tp406
a(S'Queen'
p407
S'Bohemian Rhapsody'
p408
S'http://www.last.fm/music/Queen/_/Bohemian+Rhapsody'
p409
S'1207580254'
p410
tp411
a(S'Stevie Wonder'
p412
S'Superstition'
p413
S'http://www.last.fm/music/Stevie+Wonder/_/Superstition'
p414
S'1207579963'
p415
tp416
a(S'Metallica'
p417
S'King Nothing'
p418
S'http://www.last.fm/music/Metallica/_/King+Nothing'
p419
S'1207579627'
p420
tp421
a(S'Iron Maiden'
p422
S'Only the Good Die Young'
p423
S'http://www.last.fm/music/Iron+Maiden/_/Only+the+Good+Die+Young'
p424
S'1207579342'
p425
tp426
a(S'Marvin Gaye'
p427
S'Sexual Healing'
p428
S'http://www.last.fm/music/Marvin+Gaye/_/Sexual+Healing'
p429
S'1207579069'
p430
tp431
a(S'Butthole Surfers'
p432
S'Pepper'
p433
S'http://www.last.fm/music/Butthole+Surfers/_/Pepper'
p434
S'1207578751'
p435
tp436
a(S'Jamiroquai'
p437
S'Little L'
p438
S'http://www.last.fm/music/Jamiroquai/_/Little+L'
p439
S'1207578498'
p440
tp441
a(S'Jamiroquai'
p442
S'Love Foolosophy'
p443
S'http://www.last.fm/music/Jamiroquai/_/Love+Foolosophy'
p444
S'1207578262'
p445
tp446
a(S'Jamiroquai'
p447
S'When You Gonna Learn'
p448
S'http://www.last.fm/music/Jamiroquai/_/When+You+Gonna+Learn'
p449
S'1207578010'
p450
tp451
a(S'Jamiroquai'
p452
S'7 days in sunny june'
p453
S'http://www.last.fm/music/Jamiroquai/_/7+days+in+sunny+june'
p454
S'1207577751'
p455
tp456
a(S'Jamiroquai'
p457
S'Space Cowboy'
p458
S'http://www.last.fm/music/Jamiroquai/_/Space+Cowboy'
p459
S'1207577483'
p460
tp461
a(S'Jamiroquai'
p462
S'Alright'
p463
S'http://www.last.fm/music/Jamiroquai/_/Alright'
p464
S'1207318820'
p465
tp466
a(S'Jamiroquai'
p467
S'Little L'
p468
S'http://www.last.fm/music/Jamiroquai/_/Little+L'
p469
S'1207318490'
p470
tp471
a(S'Jamiroquai'
p472
S'7 days in sunny june'
p473
S'http://www.last.fm/music/Jamiroquai/_/7+days+in+sunny+june'
p474
S'1207317797'
p475
tp476
a(S'Jamiroquai'
p477
S'7 days in sunny june'
p478
S'http://www.last.fm/music/Jamiroquai/_/7+days+in+sunny+june'
p479
S'1207317508'
p480
tp481
a(S'Jamiroquai'
p482
S'Love Foolosophy'
p483
S'http://www.last.fm/music/Jamiroquai/_/Love+Foolosophy'
p484
S'1207317261'
p485
tp486
a(S'Jamiroquai'
p487
S'Little L'
p488
S'http://www.last.fm/music/Jamiroquai/_/Little+L'
p489
S'1207314483'
p490
tp491
a(S'Jamiroquai'
p492
S'7 days in sunny june'
p493
S'http://www.last.fm/music/Jamiroquai/_/7+days+in+sunny+june'
p494
S'1207314243'
p495
tp496
a(S'Jamiroquai'
p497
S'Little L'
p498
S'http://www.last.fm/music/Jamiroquai/_/Little+L'
p499
S'1207314005'
p500
tp501
a(S'Jamiroquai'
p502
S'When You Gonna Learn'
p503
S'http://www.last.fm/music/Jamiroquai/_/When+You+Gonna+Learn'
p504
S'1207313756'
p505
tp506
a(S'Jamiroquai'
p507
S'Virtual Insanity'
p508
S'http://www.last.fm/music/Jamiroquai/_/Virtual+Insanity'
p509
S'1207313528'
p510
tp511
a(S'Jamiroquai'
p512
S'Space Cowboy'
p513
S'http://www.last.fm/music/Jamiroquai/_/Space+Cowboy'
p514
S'1207313310'
p515
tp516
a(S'Jamiroquai'
p517
S'Love Foolosophy'
p518
S'http://www.last.fm/music/Jamiroquai/_/Love+Foolosophy'
p519
S'1207313075'
p520
tp521
a(S'Jamiroquai'
p522
S'Canned Heat'
p523
S'http://www.last.fm/music/Jamiroquai/_/Canned+Heat'
p524
S'1207312848'
p525
tp526
a(S'Jamiroquai'
p527
S'Alright'
p528
S'http://www.last.fm/music/Jamiroquai/_/Alright'
p529
S'1207312641'
p530
tp531
a(S'Jamiroquai'
p532
S'7 days in sunny june'
p533
S'http://www.last.fm/music/Jamiroquai/_/7+days+in+sunny+june'
p534
S'1207310879'
p535
tp536
a(S'Jamiroquai'
p537
S'Space Cowboy'
p538
S'http://www.last.fm/music/Jamiroquai/_/Space+Cowboy'
p539
S'1207158044'
p540
tp541
a(S'Jamiroquai'
p542
S'Alright'
p543
S'http://www.last.fm/music/Jamiroquai/_/Alright'
p544
S'1207157807'
p545
tp546
a(S'Jamiroquai'
p547
S'When You Gonna Learn'
p548
S'http://www.last.fm/music/Jamiroquai/_/When+You+Gonna+Learn'
p549
S'1207157329'
p550
tp551
a(S'Jamiroquai'
p552
S'7 days in sunny june'
p553
S'http://www.last.fm/music/Jamiroquai/_/7+days+in+sunny+june'
p554
S'1207157077'
p555
tp556
a(S'Jamiroquai'
p557
S'7 days in sunny june'
p558
S'http://www.last.fm/music/Jamiroquai/_/7+days+in+sunny+june'
p559
S'1207139009'
p560
tp561
a(S'Jamiroquai'
p562
S'Space Cowboy'
p563
S'http://www.last.fm/music/Jamiroquai/_/Space+Cowboy'
p564
S'1207138578'
p565
tp566
a(S'Jamiroquai'
p567
S'Canned Heat'
p568
S'http://www.last.fm/music/Jamiroquai/_/Canned+Heat'
p569
S'1207138350'
p570
tp571
a(S'Jamiroquai'
p572
S'Love Foolosophy'
p573
S'http://www.last.fm/music/Jamiroquai/_/Love+Foolosophy'
p574
S'1207138124'
p575
tp576
a(S'Jamiroquai'
p577
S'When You Gonna Learn'
p578
S'http://www.last.fm/music/Jamiroquai/_/When+You+Gonna+Learn'
p579
S'1207137817'
p580
tp581
a(S'Jamiroquai'
p582
S'Little L'
p583
S'http://www.last.fm/music/Jamiroquai/_/Little+L'
p584
S'1207137579'
p585
tp586
a(S'Jamiroquai'
p587
S'Love Foolosophy'
p588
S'http://www.last.fm/music/Jamiroquai/_/Love+Foolosophy'
p589
S'1207137337'
p590
tp591
a(S'Jamiroquai'
p592
S'Canned Heat'
p593
S'http://www.last.fm/music/Jamiroquai/_/Canned+Heat'
p594
S'1207136455'
p595
tp596
a(S'Jamiroquai'
p597
S'When You Gonna Learn'
p598
S'http://www.last.fm/music/Jamiroquai/_/When+You+Gonna+Learn'
p599
S'1207136224'
p600
tp601
a(S'Jamiroquai'
p602
S'Little L'
p603
S'http://www.last.fm/music/Jamiroquai/_/Little+L'
p604
S'1207135969'
p605
tp606
a(S'Jamiroquai'
p607
S'Virtual Insanity'
p608
S'http://www.last.fm/music/Jamiroquai/_/Virtual+Insanity'
p609
S'1207135735'
p610
tp611
a(S'Jamiroquai'
p612
S'Space Cowboy'
p613
S'http://www.last.fm/music/Jamiroquai/_/Space+Cowboy'
p614
S'1207135506'
p615
tp616
a(S'Jamiroquai'
p617
S'7 days in sunny june'
p618
S'http://www.last.fm/music/Jamiroquai/_/7+days+in+sunny+june'
p619
S'1207135261'
p620
tp621
a(S'Jerry Cantrell'
p622
S'Keep The Light On'
p623
S'http://www.last.fm/music/Jerry+Cantrell/_/Keep+The+Light+On'
p624
S'1206990602'
p625
tp626
a(S'Jamiroquai'
p627
S'When You Gonna Learn'
p628
S'http://www.last.fm/music/Jamiroquai/_/When+You+Gonna+Learn'
p629
S'1206990365'
p630
tp631
a(S'Jamiroquai'
p632
S'Virtual Insanity'
p633
S'http://www.last.fm/music/Jamiroquai/_/Virtual+Insanity'
p634
S'1206990136'
p635
tp636
a(S'Queens of the Stone Age'
p637
S'Little Sister'
p638
S'http://www.last.fm/music/Queens+of+the+Stone+Age/_/Little+Sister'
p639
S'1206989962'
p640
tp641
a(S'Metallica'
p642
S'One'
p643
S'http://www.last.fm/music/Metallica/_/One'
p644
S'1206989243'
p645
tp646
a(S'Green Day'
p647
S'Basket Case'
p648
S'http://www.last.fm/music/Green+Day/_/Basket+Case'
p649
S'1206989064'
p650
tp651
a(S'Blondie'
p652
S'Call Me'
p653
S'http://www.last.fm/music/Blondie/_/Call+Me'
p654
S'1206988853'
p655
tp656
a(S'Jamiroquai'
p657
S'Love Foolosophy'
p658
S'http://www.last.fm/music/Jamiroquai/_/Love+Foolosophy'
p659
S'1206988614'
p660
tp661
a(S'Jerry Cantrell'
p662
S'Breaks My Back'
p663
S'http://www.last.fm/music/Jerry+Cantrell/_/Breaks+My+Back'
p664
S'1206986954'
p665
tp666
a(S'Metallica'
p667
S'Dyers Eve'
p668
S'http://www.last.fm/music/Metallica/_/Dyers+Eve'
p669
S'1206986662'
p670
tp671
a(S'Iron Maiden'
p672
S'Weekend Warrior'
p673
S'http://www.last.fm/music/Iron+Maiden/_/Weekend+Warrior'
p674
S'1206984352'
p675
tp676
a(S'Jerry Cantrell'
p677
S'Devil By His Side'
p678
S'http://www.last.fm/music/Jerry+Cantrell/_/Devil+By+His+Side'
p679
S'1206984054'
p680
tp681
a(S'Led Zeppelin'
p682
S'Black Dog'
p683
S'http://www.last.fm/music/Led+Zeppelin/_/Black+Dog'
p684
S'1206983710'
p685
tp686
a(S'Metallica'
p687
S'King Nothing'
p688
S'http://www.last.fm/music/Metallica/_/King+Nothing'
p689
S'1206983381'
p690
tp691
a(S'Jamiroquai'
p692
S'Little L'
p693
S'http://www.last.fm/music/Jamiroquai/_/Little+L'
p694
S'1206976502'
p695
tp696
a(S'Donita Sparks & The Stellar Moments'
p697
S"He's Got The Honey"
p698
S'http://www.last.fm/music/Donita+Sparks+&+The+Stellar+Moments/_/He%27s+Got+The+Honey'
p699
S'1206976295'
p700
tp701
a(S'Marvin Gaye'
p702
S'Lets Get It On'
p703
S'http://www.last.fm/music/Marvin+Gaye/_/Lets+Get+It+On'
p704
S'1206975900'
p705
tp706
a(S'Pearl Jam'
p707
S'Jeremy'
p708
S'http://www.last.fm/music/Pearl+Jam/_/Jeremy'
p709
S'1206975568'
p710
tp711
a(S'Jerry Cantrell'
p712
S'Dickeye'
p713
S'http://www.last.fm/music/Jerry+Cantrell/_/Dickeye'
p714
S'1206975265'
p715
tp716
a(S'Iron Maiden'
p717
S'Holy Smoke'
p718
S'http://www.last.fm/music/Iron+Maiden/_/Holy+Smoke'
p719
S'1206974373'
p720
tp721
a(S'Jamiroquai'
p722
S'Virtual Insanity'
p723
S'http://www.last.fm/music/Jamiroquai/_/Virtual+Insanity'
p724
S'1206973138'
p725
tp726
a(S'Jamiroquai'
p727
S'7 days in sunny june'
p728
S'http://www.last.fm/music/Jamiroquai/_/7+days+in+sunny+june'
p729
S'1206972772'
p730
tp731
a(S'Jamiroquai'
p732
S'7 days in sunny june'
p733
S'http://www.last.fm/music/Jamiroquai/_/7+days+in+sunny+june'
p734
S'1206972772'
p735
tp736
a(S'Jamiroquai'
p737
S'When You Gonna Learn'
p738
S'http://www.last.fm/music/Jamiroquai/_/When+You+Gonna+Learn'
p739
S'1206972254'
p740
tp741
a(S'Jamiroquai'
p742
S'Space Cowboy'
p743
S'http://www.last.fm/music/Jamiroquai/_/Space+Cowboy'
p744
S'1206972022'
p745
tp746
a(S'Jamiroquai'
p747
S'Alright'
p748
S'http://www.last.fm/music/Jamiroquai/_/Alright'
p749
S'1206971762'
p750
tp751
a(S'Jamiroquai'
p752
S'Space Cowboy'
p753
S'http://www.last.fm/music/Jamiroquai/_/Space+Cowboy'
p754
S'1206971544'
p755
tp756
a(S'Jamiroquai'
p757
S'When You Gonna Learn'
p758
S'http://www.last.fm/music/Jamiroquai/_/When+You+Gonna+Learn'
p759
S'1206971317'
p760
tp761
a(S'Jamiroquai'
p762
S'7 days in sunny june'
p763
S'http://www.last.fm/music/Jamiroquai/_/7+days+in+sunny+june'
p764
S'1206970666'
p765
tp766
a(S'Jamiroquai'
p767
S'Cosmic Girl'
p768
S'http://www.last.fm/music/Jamiroquai/_/Cosmic+Girl'
p769
S'1206970438'
p770
tp771
a(S'Jamiroquai'
p772
S'Canned Heat'
p773
S'http://www.last.fm/music/Jamiroquai/_/Canned+Heat'
p774
S'1206970204'
p775
tp776
a(S'Jamiroquai'
p777
S'Virtual Insanity'
p778
S'http://www.last.fm/music/Jamiroquai/_/Virtual+Insanity'
p779
S'1206969813'
p780
tp781
a(S'Jamiroquai'
p782
S'Love Foolosophy'
p783
S'http://www.last.fm/music/Jamiroquai/_/Love+Foolosophy'
p784
S'1206969388'
p785
tp786
a(S'Jamiroquai'
p787
S'Love Foolosophy'
p788
S'http://www.last.fm/music/Jamiroquai/_/Love+Foolosophy'
p789
S'1206969388'
p790
tp791
a(S'Jamiroquai'
p792
S'Little L'
p793
S'http://www.last.fm/music/Jamiroquai/_/Little+L'
p794
S'1206969150'
p795
tp796
a(S'Jamiroquai'
p797
S'Feels Like It Should'
p798
S'http://www.last.fm/music/Jamiroquai/_/Feels+Like+It+Should'
p799
S'1206895488'
p800
tp801
a(S'Jamiroquai'
p802
S'Little L'
p803
S'http://www.last.fm/music/Jamiroquai/_/Little+L'
p804
S'1206895249'
p805
tp806
a(S'Jamiroquai'
p807
S'Alright'
p808
S'http://www.last.fm/music/Jamiroquai/_/Alright'
p809
S'1206895027'
p810
tp811
a(S'Jamiroquai'
p812
S'Cosmic Girl'
p813
S'http://www.last.fm/music/Jamiroquai/_/Cosmic+Girl'
p814
S'1206894799'
p815
tp816
a(S'Jamiroquai'
p817
S'Runaway'
p818
S'http://www.last.fm/music/Jamiroquai/_/Runaway'
p819
S'1206894572'
p820
tp821
a(S'Jamiroquai'
p822
S'Too Young to Die'
p823
S'http://www.last.fm/music/Jamiroquai/_/Too+Young+to+Die'
p824
S'1206894368'
p825
tp826
a(S'Jamiroquai'
p827
S'Blow Your Mind'
p828
S'http://www.last.fm/music/Jamiroquai/_/Blow+Your+Mind'
p829
S'1206894131'
p830
tp831
a(S'Jamiroquai'
p832
S'Emergency on Planet Earth'
p833
S'http://www.last.fm/music/Jamiroquai/_/Emergency+on+Planet+Earth'
p834
S'1206893914'
p835
tp836
a(S'Jamiroquai'
p837
S'Virtual Insanity'
p838
S'http://www.last.fm/music/Jamiroquai/_/Virtual+Insanity'
p839
S'1206893372'
p840
tp841
a(S'Jamiroquai'
p842
S'Radio'
p843
S'http://www.last.fm/music/Jamiroquai/_/Radio'
p844
S'1206892755'
p845
tp846
a(S'Jamiroquai'
p847
S'7 days in sunny june'
p848
S'http://www.last.fm/music/Jamiroquai/_/7+days+in+sunny+june'
p849
S'1206892513'
p850
tp851
a(S'Jamiroquai'
p852
S'(Dont) Give Hate A Chance'
p853
S'http://www.last.fm/music/Jamiroquai/_/(Dont)+Give+Hate+A+Chance'
p854
S'1206892282'
p855
tp856
a(S'Jamiroquai'
p857
S'When You Gonna Learn'
p858
S'http://www.last.fm/music/Jamiroquai/_/When+You+Gonna+Learn'
p859
S'1206892052'
p860
tp861
a(S'Jamiroquai'
p862
S'Deeper Underground'
p863
S'http://www.last.fm/music/Jamiroquai/_/Deeper+Underground'
p864
S'1206891765'
p865
tp866
a(S'Jamiroquai'
p867
S'Space Cowboy'
p868
S'http://www.last.fm/music/Jamiroquai/_/Space+Cowboy'
p869
S'1206891548'
p870
tp871
a(S'Jamiroquai'
p872
S'Runaway'
p873
S'http://www.last.fm/music/Jamiroquai/_/Runaway'
p874
S'1206885956'
p875
tp876
a(S'Jamiroquai'
p877
S'Cosmic Girl'
p878
S'http://www.last.fm/music/Jamiroquai/_/Cosmic+Girl'
p879
S'1206885728'
p880
tp881
a(S'Jamiroquai'
p882
S'(Dont) Give Hate A Chance'
p883
S'http://www.last.fm/music/Jamiroquai/_/(Dont)+Give+Hate+A+Chance'
p884
S'1206885497'
p885
tp886
a(S'Jamiroquai'
p887
S'Little L'
p888
S'http://www.last.fm/music/Jamiroquai/_/Little+L'
p889
S'1206885258'
p890
tp891
a(S'Jamiroquai'
p892
S'Feels Like It Should'
p893
S'http://www.last.fm/music/Jamiroquai/_/Feels+Like+It+Should'
p894
S'1206884985'
p895
tp896
a(S'Jamiroquai'
p897
S'Radio'
p898
S'http://www.last.fm/music/Jamiroquai/_/Radio'
p899
S'1206884731'
p900
tp901
a(S'Jamiroquai'
p902
S'Blow Your Mind'
p903
S'http://www.last.fm/music/Jamiroquai/_/Blow+Your+Mind'
p904
S'1206884495'
p905
tp906
a(S'Jamiroquai'
p907
S'Love Foolosophy'
p908
S'http://www.last.fm/music/Jamiroquai/_/Love+Foolosophy'
p909
S'1206884267'
p910
tp911
a(S'Jamiroquai'
p912
S'Space Cowboy'
p913
S'http://www.last.fm/music/Jamiroquai/_/Space+Cowboy'
p914
S'1206884049'
p915
tp916
a(S'Jamiroquai'
p917
S'7 days in sunny june'
p918
S'http://www.last.fm/music/Jamiroquai/_/7+days+in+sunny+june'
p919
S'1206883808'
p920
tp921
a(S'Jamiroquai'
p922
S'Seven Days in Sunny June'
p923
S'http://www.last.fm/music/Jamiroquai/_/Seven+Days+in+Sunny+June'
p924
S'1206741195'
p925
tp926
a(S'Jamiroquai'
p927
S'Seven Days in Sunny June'
p928
S'http://www.last.fm/music/Jamiroquai/_/Seven+Days+in+Sunny+June'
p929
S'1206739753'
p930
tp931
a(S'Queens of the Stone Age'
p932
S'Little Sister'
p933
S'http://www.last.fm/music/Queens+of+the+Stone+Age/_/Little+Sister'
p934
S'1206739579'
p935
tp936
a(S'Marvin Gaye'
p937
S'Sexual Healing'
p938
S'http://www.last.fm/music/Marvin+Gaye/_/Sexual+Healing'
p939
S'1206739341'
p940
tp941
a(S'Marvin Gaye'
p942
S'Lets Get It On'
p943
S'http://www.last.fm/music/Marvin+Gaye/_/Lets+Get+It+On'
p944
S'1206739048'
p945
tp946
a(S'Jerry Cantrell'
p947
S'Between'
p948
S'http://www.last.fm/music/Jerry+Cantrell/_/Between'
p949
S'1206738831'
p950
tp951
a(S'Jerry Cantrell'
p952
S'Keep The Light On'
p953
S'http://www.last.fm/music/Jerry+Cantrell/_/Keep+The+Light+On'
p954
S'1206738544'
p955
tp956
a(S'Jerry Cantrell'
p957
S'Dickeye'
p958
S'http://www.last.fm/music/Jerry+Cantrell/_/Dickeye'
p959
S'1206738242'
p960
tp961
a(S'Jamiroquai'
p962
S'Seven Days in Sunny June'
p963
S'http://www.last.fm/music/Jamiroquai/_/Seven+Days+in+Sunny+June'
p964
S'1206737773'
p965
tp966
a(S'Jamiroquai'
p967
S'Seven Days in Sunny June'
p968
S'http://www.last.fm/music/Jamiroquai/_/Seven+Days+in+Sunny+June'
p969
S'1206716157'
p970
tp971
a(S'Jamiroquai'
p972
S'Seven Days in Sunny June'
p973
S'http://www.last.fm/music/Jamiroquai/_/Seven+Days+in+Sunny+June'
p974
S'1206715879'
p975
tp976
a(S'Muddy Waters'
p977
S'Mannish Boy'
p978
S'http://www.last.fm/music/Muddy+Waters/_/Mannish+Boy'
p979
S'1206715655'
p980
tp981
a(S'Metallica'
p982
S'King Nothing'
p983
S'http://www.last.fm/music/Metallica/_/King+Nothing'
p984
S'1206712069'
p985
tp986
a(S'Jamiroquai'
p987
S'Seven Days in Sunny June'
p988
S'http://www.last.fm/music/Jamiroquai/_/Seven+Days+in+Sunny+June'
p989
S'1206711751'
p990
tp991
a(S'Jerry Cantrell'
p992
S'Between'
p993
S'http://www.last.fm/music/Jerry+Cantrell/_/Between'
p994
S'1206711511'
p995
tp996
a(S"Howlin' Wolf"
p997
S'Spoonful'
p998
S'http://www.last.fm/music/Howlin%27+Wolf/_/Spoonful'
p999
S'1206711331'
p1000
tp1001
a.