(lp1
(S'Black Sabbath'
p2
S'The Warning'
p3
S'http://www.last.fm/music/Black+Sabbath/_/The+Warning'
p4
S'1262883533'
p5
tp6
a(S'Black Sabbath'
p7
S'Wicked World'
p8
S'http://www.last.fm/music/Black+Sabbath/_/Wicked+World'
p9
S'1262883250'
p10
tp11
a(S'Black Sabbath'
p12
S'Spiral Architect'
p13
S'http://www.last.fm/music/Black+Sabbath/_/Spiral+Architect'
p14
S'1262882920'
p15
tp16
a(S'Black Sabbath'
p17
S'Cornucopia'
p18
S'http://www.last.fm/music/Black+Sabbath/_/Cornucopia'
p19
S'1262882686'
p20
tp21
a(S'Black Sabbath'
p22
S'Wheels of Confusion'
p23
S'http://www.last.fm/music/Black+Sabbath/_/Wheels+of+Confusion'
p24
S'1262882191'
p25
tp26
a(S'Black Sabbath'
p27
S'Sabbra Cadabra'
p28
S'http://www.last.fm/music/Black+Sabbath/_/Sabbra+Cadabra'
p29
S'1262881830'
p30
tp31
a(S'Black Sabbath'
p32
S'Behind the Wall of Sleep'
p33
S'http://www.last.fm/music/Black+Sabbath/_/Behind+the+Wall+of+Sleep'
p34
S'1262881613'
p35
tp36
a(S'Black Sabbath'
p37
S'Megalomania'
p38
S'http://www.last.fm/music/Black+Sabbath/_/Megalomania'
p39
S'1262881033'
p40
tp41
a(S'Black Sabbath'
p42
S'The Warning'
p43
S'http://www.last.fm/music/Black+Sabbath/_/The+Warning'
p44
S'1262880382'
p45
tp46
a(S'Black Sabbath'
p47
S'Sabbra Cadabra'
p48
S'http://www.last.fm/music/Black+Sabbath/_/Sabbra+Cadabra'
p49
S'1262880021'
p50
tp51
a(S'Black Sabbath'
p52
S'Solitude'
p53
S'http://www.last.fm/music/Black+Sabbath/_/Solitude'
p54
S'1262879719'
p55
tp56
a(S'Black Sabbath'
p57
S'Planet Caravan'
p58
S'http://www.last.fm/music/Black+Sabbath/_/Planet+Caravan'
p59
S'1262874578'
p60
tp61
a(S'Black Sabbath'
p62
S'Behind the Wall of Sleep'
p63
S'http://www.last.fm/music/Black+Sabbath/_/Behind+the+Wall+of+Sleep'
p64
S'1262874361'
p65
tp66
a(S'Black Sabbath'
p67
S'Cornucopia'
p68
S'http://www.last.fm/music/Black+Sabbath/_/Cornucopia'
p69
S'1262874126'
p70
tp71
a(S'Black Sabbath'
p72
S'Spiral Architect'
p73
S'http://www.last.fm/music/Black+Sabbath/_/Spiral+Architect'
p74
S'1262873796'
p75
tp76
a(S'Black Sabbath'
p77
S'Laguna Sunrise'
p78
S'http://www.last.fm/music/Black+Sabbath/_/Laguna+Sunrise'
p79
S'1262873623'
p80
tp81
a(S'Black Sabbath'
p82
S'Wheels of Confusion'
p83
S'http://www.last.fm/music/Black+Sabbath/_/Wheels+of+Confusion'
p84
S'1262873100'
p85
tp86
a(S'Black Sabbath'
p87
S'Fairies Wear Boots'
p88
S'http://www.last.fm/music/Black+Sabbath/_/Fairies+Wear+Boots'
p89
S'1262872727'
p90
tp91
a(S'Black Sabbath'
p92
S'Fluff'
p93
S'http://www.last.fm/music/Black+Sabbath/_/Fluff'
p94
S'1262872473'
p95
tp96
a(S'Black Sabbath'
p97
S'Changes'
p98
S'http://www.last.fm/music/Black+Sabbath/_/Changes'
p99
S'1262872187'
p100
tp101
a(S'Black Sabbath'
p102
S'Sabbath Bloody Sabbath'
p103
S'http://www.last.fm/music/Black+Sabbath/_/Sabbath+Bloody+Sabbath'
p104
S'1262871841'
p105
tp106
a(S'Black Sabbath'
p107
S'A National Acrobat'
p108
S'http://www.last.fm/music/Black+Sabbath/_/A+National+Acrobat'
p109
S'1262871464'
p110
tp111
a(S'Black Sabbath'
p112
S'Hole in the Sky'
p113
S'http://www.last.fm/music/Black+Sabbath/_/Hole+in+the+Sky'
p114
S'1262871224'
p115
tp116
a(S'Black Sabbath'
p117
S'Hand of Doom'
p118
S'http://www.last.fm/music/Black+Sabbath/_/Hand+of+Doom'
p119
S'1262870797'
p120
tp121
a(S'Black Sabbath'
p122
S'Into the Void'
p123
S'http://www.last.fm/music/Black+Sabbath/_/Into+the+Void'
p124
S'1262870424'
p125
tp126
a(S'Black Sabbath'
p127
S'Wicked World'
p128
S'http://www.last.fm/music/Black+Sabbath/_/Wicked+World'
p129
S'1262870140'
p130
tp131
a(S'Black Sabbath'
p132
S'Supertzar'
p133
S'http://www.last.fm/music/Black+Sabbath/_/Supertzar'
p134
S'1262869582'
p135
tp136
a(S'Black Sabbath'
p137
S'Megalomania'
p138
S'http://www.last.fm/music/Black+Sabbath/_/Megalomania'
p139
S'1262869001'
p140
tp141
a(S'Black Sabbath'
p142
S'Into the Void'
p143
S'http://www.last.fm/music/Black+Sabbath/_/Into+the+Void'
p144
S'1262868589'
p145
tp146
a(S'Black Sabbath'
p147
S'Wicked World'
p148
S'http://www.last.fm/music/Black+Sabbath/_/Wicked+World'
p149
S'1262868306'
p150
tp151
a(S'Black Sabbath'
p152
S'Supertzar'
p153
S'http://www.last.fm/music/Black+Sabbath/_/Supertzar'
p154
S'1262868083'
p155
tp156
a(S'Black Sabbath'
p157
S'Megalomania'
p158
S'http://www.last.fm/music/Black+Sabbath/_/Megalomania'
p159
S'1262867502'
p160
tp161
a(S'Black Sabbath'
p162
S'Supernaut'
p163
S'http://www.last.fm/music/Black+Sabbath/_/Supernaut'
p164
S'1262867217'
p165
tp166
a(S'Black Sabbath'
p167
S'Into the Void'
p168
S'http://www.last.fm/music/Black+Sabbath/_/Into+the+Void'
p169
S'1262807217'
p170
tp171
a(S'Black Sabbath'
p172
S'The Warning'
p173
S'http://www.last.fm/music/Black+Sabbath/_/The+Warning'
p174
S'1262806584'
p175
tp176
a(S'Black Sabbath'
p177
S'Who Are You?'
p178
S'http://www.last.fm/music/Black+Sabbath/_/Who+Are+You%3F'
p179
S'1262805614'
p180
tp181
a(S'Black Sabbath'
p182
S'Solitude'
p183
S'http://www.last.fm/music/Black+Sabbath/_/Solitude'
p184
S'1262801989'
p185
tp186
a(S'Black Sabbath'
p187
S'Megalomania'
p188
S'http://www.last.fm/music/Black+Sabbath/_/Megalomania'
p189
S'1262801408'
p190
tp191
a(S'Black Sabbath'
p192
S'Wicked World'
p193
S'http://www.last.fm/music/Black+Sabbath/_/Wicked+World'
p194
S'1262801125'
p195
tp196
a(S'Black Sabbath'
p197
S'Wheels of Confusion'
p198
S'http://www.last.fm/music/Black+Sabbath/_/Wheels+of+Confusion'
p199
S'1262800870'
p200
tp201
a(S'Black Sabbath'
p202
S'Fluff'
p203
S'http://www.last.fm/music/Black+Sabbath/_/Fluff'
p204
S'1262800617'
p205
tp206
a(S'Black Sabbath'
p207
S'The Warning'
p208
S'http://www.last.fm/music/Black+Sabbath/_/The+Warning'
p209
S'1262799984'
p210
tp211
a(S'Black Sabbath'
p212
S'Sabbra Cadabra'
p213
S'http://www.last.fm/music/Black+Sabbath/_/Sabbra+Cadabra'
p214
S'1262799623'
p215
tp216
a(S'Black Sabbath'
p217
S'Spiral Architect'
p218
S'http://www.last.fm/music/Black+Sabbath/_/Spiral+Architect'
p219
S'1262799293'
p220
tp221
a(S'Black Sabbath'
p222
S'Laguna Sunrise'
p223
S'http://www.last.fm/music/Black+Sabbath/_/Laguna+Sunrise'
p224
S'1262799092'
p225
tp226
a(S'Black Sabbath'
p227
S'Hole in the Sky'
p228
S'http://www.last.fm/music/Black+Sabbath/_/Hole+in+the+Sky'
p229
S'1262798852'
p230
tp231
a(S'Black Sabbath'
p232
S'Sabbath Bloody Sabbath'
p233
S'http://www.last.fm/music/Black+Sabbath/_/Sabbath+Bloody+Sabbath'
p234
S'1262798506'
p235
tp236
a(S'Black Sabbath'
p237
S'Planet Caravan'
p238
S'http://www.last.fm/music/Black+Sabbath/_/Planet+Caravan'
p239
S'1262798232'
p240
tp241
a(S'Black Sabbath'
p242
S'Cornucopia'
p243
S'http://www.last.fm/music/Black+Sabbath/_/Cornucopia'
p244
S'1262797997'
p245
tp246
a(S'Black Sabbath'
p247
S'Behind the Wall of Sleep'
p248
S'http://www.last.fm/music/Black+Sabbath/_/Behind+the+Wall+of+Sleep'
p249
S'1262797780'
p250
tp251
a(S'Black Sabbath'
p252
S'Supernaut'
p253
S'http://www.last.fm/music/Black+Sabbath/_/Supernaut'
p254
S'1262797493'
p255
tp256
a(S'Black Sabbath'
p257
S'Changes'
p258
S'http://www.last.fm/music/Black+Sabbath/_/Changes'
p259
S'1262797207'
p260
tp261
a(S'Black Sabbath'
p262
S'Supertzar'
p263
S'http://www.last.fm/music/Black+Sabbath/_/Supertzar'
p264
S'1262796984'
p265
tp266
a(S'Black Sabbath'
p267
S'Into the Void'
p268
S'http://www.last.fm/music/Black+Sabbath/_/Into+the+Void'
p269
S'1262796610'
p270
tp271
a(S'Black Sabbath'
p272
S'Who Are You?'
p273
S'http://www.last.fm/music/Black+Sabbath/_/Who+Are+You%3F'
p274
S'1262796359'
p275
tp276
a(S'Airbourne'
p277
S'Diamond in the Rough'
p278
S'http://www.last.fm/music/Airbourne/_/Diamond+in+the+Rough'
p279
S'1262796163'
p280
tp281
a(S'Liz Phair'
p282
S"Why Can't I"
p283
S'http://www.last.fm/music/Liz+Phair/_/Why+Can%27t+I'
p284
S'1262795955'
p285
tp286
a(S'Airbourne'
p287
S'Diamond in the Rough'
p288
S'http://www.last.fm/music/Airbourne/_/Diamond+in+the+Rough'
p289
S'1262795780'
p290
tp291
a(S'Jupiter One'
p292
S'Countdown'
p293
S'http://www.last.fm/music/Jupiter+One/_/Countdown'
p294
S'1262795552'
p295
tp296
a(S'Rainbow'
p297
S"Long Live Rock 'N' Roll"
p298
S'http://www.last.fm/music/Rainbow/_/Long+Live+Rock+%27N%27+Roll'
p299
S'1262795291'
p300
tp301
a(S'Liz Phair'
p302
S"Why Can't I"
p303
S'http://www.last.fm/music/Liz+Phair/_/Why+Can%27t+I'
p304
S'1262795082'
p305
tp306
a(S'Chickenfoot'
p307
S'Sexy Little Thing'
p308
S'http://www.last.fm/music/Chickenfoot/_/Sexy+Little+Thing'
p309
S'1262794827'
p310
tp311
a(S'Atreyu'
p312
S'Becoming the Bull'
p313
S'http://www.last.fm/music/Atreyu/_/Becoming+the+Bull'
p314
S'1262794606'
p315
tp316
a(S'AC/DC'
p317
S'Big Jack'
p318
S'http://www.last.fm/music/AC%2FDC/_/Big+Jack'
p319
S'1262794369'
p320
tp321
a(S'Black Sabbath'
p322
S'Megalomania'
p323
S'http://www.last.fm/music/Black+Sabbath/_/Megalomania'
p324
S'1262793788'
p325
tp326
a(S'Rainbow'
p327
S"Long Live Rock 'N' Roll"
p328
S'http://www.last.fm/music/Rainbow/_/Long+Live+Rock+%27N%27+Roll'
p329
S'1262793527'
p330
tp331
a(S'AC/DC'
p332
S'Big Jack'
p333
S'http://www.last.fm/music/AC%2FDC/_/Big+Jack'
p334
S'1262793290'
p335
tp336
a(S'Airbourne'
p337
S'Diamond in the Rough'
p338
S'http://www.last.fm/music/Airbourne/_/Diamond+in+the+Rough'
p339
S'1262793116'
p340
tp341
a(S'Liz Phair'
p342
S"Why Can't I"
p343
S'http://www.last.fm/music/Liz+Phair/_/Why+Can%27t+I'
p344
S'1262792907'
p345
tp346
a(S'Black Sabbath'
p347
S'Megalomania'
p348
S'http://www.last.fm/music/Black+Sabbath/_/Megalomania'
p349
S'1262792327'
p350
tp351
a(S'Jupiter One'
p352
S'Countdown'
p353
S'http://www.last.fm/music/Jupiter+One/_/Countdown'
p354
S'1262792099'
p355
tp356
a(S'Atreyu'
p357
S'Becoming the Bull'
p358
S'http://www.last.fm/music/Atreyu/_/Becoming+the+Bull'
p359
S'1262791878'
p360
tp361
a(S'Chickenfoot'
p362
S'Sexy Little Thing'
p363
S'http://www.last.fm/music/Chickenfoot/_/Sexy+Little+Thing'
p364
S'1262791623'
p365
tp366
a(S'Rainbow'
p367
S"Long Live Rock 'N' Roll"
p368
S'http://www.last.fm/music/Rainbow/_/Long+Live+Rock+%27N%27+Roll'
p369
S'1262791361'
p370
tp371
a(S'AC/DC'
p372
S'Big Jack'
p373
S'http://www.last.fm/music/AC%2FDC/_/Big+Jack'
p374
S'1262791124'
p375
tp376
a(S'Jupiter One'
p377
S'Countdown'
p378
S'http://www.last.fm/music/Jupiter+One/_/Countdown'
p379
S'1262790895'
p380
tp381
a(S'Chickenfoot'
p382
S'Sexy Little Thing'
p383
S'http://www.last.fm/music/Chickenfoot/_/Sexy+Little+Thing'
p384
S'1262790640'
p385
tp386
a(S'Black Sabbath'
p387
S'Megalomania'
p388
S'http://www.last.fm/music/Black+Sabbath/_/Megalomania'
p389
S'1262790060'
p390
tp391
a(S'Airbourne'
p392
S'Diamond in the Rough'
p393
S'http://www.last.fm/music/Airbourne/_/Diamond+in+the+Rough'
p394
S'1262789886'
p395
tp396
a(S'Atreyu'
p397
S'Becoming the Bull'
p398
S'http://www.last.fm/music/Atreyu/_/Becoming+the+Bull'
p399
S'1262789665'
p400
tp401
a(S'Liz Phair'
p402
S"Why Can't I"
p403
S'http://www.last.fm/music/Liz+Phair/_/Why+Can%27t+I'
p404
S'1262789456'
p405
tp406
a(S'Atreyu'
p407
S'Becoming the Bull'
p408
S'http://www.last.fm/music/Atreyu/_/Becoming+the+Bull'
p409
S'1262789236'
p410
tp411
a(S'Jupiter One'
p412
S'Countdown'
p413
S'http://www.last.fm/music/Jupiter+One/_/Countdown'
p414
S'1262789008'
p415
tp416
a(S'Airbourne'
p417
S'Diamond in the Rough'
p418
S'http://www.last.fm/music/Airbourne/_/Diamond+in+the+Rough'
p419
S'1262788834'
p420
tp421
a(S'Rainbow'
p422
S"Long Live Rock 'N' Roll"
p423
S'http://www.last.fm/music/Rainbow/_/Long+Live+Rock+%27N%27+Roll'
p424
S'1262788572'
p425
tp426
a(S'Chickenfoot'
p427
S'Sexy Little Thing'
p428
S'http://www.last.fm/music/Chickenfoot/_/Sexy+Little+Thing'
p429
S'1262788317'
p430
tp431
a(S'AC/DC'
p432
S'Big Jack'
p433
S'http://www.last.fm/music/AC%2FDC/_/Big+Jack'
p434
S'1262788079'
p435
tp436
a(S'Black Sabbath'
p437
S'Megalomania'
p438
S'http://www.last.fm/music/Black+Sabbath/_/Megalomania'
p439
S'1262787499'
p440
tp441
a(S'Liz Phair'
p442
S"Why Can't I"
p443
S'http://www.last.fm/music/Liz+Phair/_/Why+Can%27t+I'
p444
S'1262787290'
p445
tp446
a(S'Liz Phair'
p447
S"Why Can't I"
p448
S'http://www.last.fm/music/Liz+Phair/_/Why+Can%27t+I'
p449
S'1262787082'
p450
tp451
a(S'Airbourne'
p452
S'Diamond in the Rough'
p453
S'http://www.last.fm/music/Airbourne/_/Diamond+in+the+Rough'
p454
S'1262786908'
p455
tp456
a(S'Atreyu'
p457
S'Becoming the Bull'
p458
S'http://www.last.fm/music/Atreyu/_/Becoming+the+Bull'
p459
S'1262786688'
p460
tp461
a(S'Jupiter One'
p462
S'Countdown'
p463
S'http://www.last.fm/music/Jupiter+One/_/Countdown'
p464
S'1262786459'
p465
tp466
a(S'Rainbow'
p467
S"Long Live Rock 'N' Roll"
p468
S'http://www.last.fm/music/Rainbow/_/Long+Live+Rock+%27N%27+Roll'
p469
S'1262786197'
p470
tp471
a(S'Black Sabbath'
p472
S'Megalomania'
p473
S'http://www.last.fm/music/Black+Sabbath/_/Megalomania'
p474
S'1262785617'
p475
tp476
a(S'Chickenfoot'
p477
S'Sexy Little Thing'
p478
S'http://www.last.fm/music/Chickenfoot/_/Sexy+Little+Thing'
p479
S'1262785361'
p480
tp481
a(S'AC/DC'
p482
S'Big Jack'
p483
S'http://www.last.fm/music/AC%2FDC/_/Big+Jack'
p484
S'1262785125'
p485
tp486
a(S'Airbourne'
p487
S'Diamond in the Rough'
p488
S'http://www.last.fm/music/Airbourne/_/Diamond+in+the+Rough'
p489
S'1262784951'
p490
tp491
a(S'AC/DC'
p492
S'Big Jack'
p493
S'http://www.last.fm/music/AC%2FDC/_/Big+Jack'
p494
S'1262784713'
p495
tp496
a(S'Atreyu'
p497
S'Becoming the Bull'
p498
S'http://www.last.fm/music/Atreyu/_/Becoming+the+Bull'
p499
S'1262784493'
p500
tp501
a(S'Jupiter One'
p502
S'Countdown'
p503
S'http://www.last.fm/music/Jupiter+One/_/Countdown'
p504
S'1262784265'
p505
tp506
a(S'Rainbow'
p507
S"Long Live Rock 'N' Roll"
p508
S'http://www.last.fm/music/Rainbow/_/Long+Live+Rock+%27N%27+Roll'
p509
S'1262784003'
p510
tp511
a(S'Liz Phair'
p512
S"Why Can't I"
p513
S'http://www.last.fm/music/Liz+Phair/_/Why+Can%27t+I'
p514
S'1262783794'
p515
tp516
a(S'Chickenfoot'
p517
S'Sexy Little Thing'
p518
S'http://www.last.fm/music/Chickenfoot/_/Sexy+Little+Thing'
p519
S'1262783539'
p520
tp521
a(S'Black Sabbath'
p522
S'Megalomania'
p523
S'http://www.last.fm/music/Black+Sabbath/_/Megalomania'
p524
S'1262782958'
p525
tp526
a(S'Black Sabbath'
p527
S'Megalomania'
p528
S'http://www.last.fm/music/Black+Sabbath/_/Megalomania'
p529
S'1262782378'
p530
tp531
a(S'AC/DC'
p532
S'Big Jack'
p533
S'http://www.last.fm/music/AC%2FDC/_/Big+Jack'
p534
S'1262782141'
p535
tp536
a(S'Chickenfoot'
p537
S'Sexy Little Thing'
p538
S'http://www.last.fm/music/Chickenfoot/_/Sexy+Little+Thing'
p539
S'1262781886'
p540
tp541
a(S'Atreyu'
p542
S'Becoming the Bull'
p543
S'http://www.last.fm/music/Atreyu/_/Becoming+the+Bull'
p544
S'1262781665'
p545
tp546
a(S'Rainbow'
p547
S"Long Live Rock 'N' Roll"
p548
S'http://www.last.fm/music/Rainbow/_/Long+Live+Rock+%27N%27+Roll'
p549
S'1262781403'
p550
tp551
a(S'Liz Phair'
p552
S"Why Can't I"
p553
S'http://www.last.fm/music/Liz+Phair/_/Why+Can%27t+I'
p554
S'1262781195'
p555
tp556
a(S'Jupiter One'
p557
S'Countdown'
p558
S'http://www.last.fm/music/Jupiter+One/_/Countdown'
p559
S'1262780967'
p560
tp561
a(S'Airbourne'
p562
S'Diamond in the Rough'
p563
S'http://www.last.fm/music/Airbourne/_/Diamond+in+the+Rough'
p564
S'1262780792'
p565
tp566
a(S'Chickenfoot'
p567
S'Sexy Little Thing'
p568
S'http://www.last.fm/music/Chickenfoot/_/Sexy+Little+Thing'
p569
S'1262780537'
p570
tp571
a(S'Jupiter One'
p572
S'Countdown'
p573
S'http://www.last.fm/music/Jupiter+One/_/Countdown'
p574
S'1262780309'
p575
tp576
a(S'Rainbow'
p577
S"Long Live Rock 'N' Roll"
p578
S'http://www.last.fm/music/Rainbow/_/Long+Live+Rock+%27N%27+Roll'
p579
S'1262780047'
p580
tp581
a(S'Atreyu'
p582
S'Becoming the Bull'
p583
S'http://www.last.fm/music/Atreyu/_/Becoming+the+Bull'
p584
S'1262779826'
p585
tp586
a(S'Black Sabbath'
p587
S'Megalomania'
p588
S'http://www.last.fm/music/Black+Sabbath/_/Megalomania'
p589
S'1262779246'
p590
tp591
a(S'AC/DC'
p592
S'Big Jack'
p593
S'http://www.last.fm/music/AC%2FDC/_/Big+Jack'
p594
S'1262779009'
p595
tp596
a(S'Liz Phair'
p597
S"Why Can't I"
p598
S'http://www.last.fm/music/Liz+Phair/_/Why+Can%27t+I'
p599
S'1262778800'
p600
tp601
a(S'Airbourne'
p602
S'Diamond in the Rough'
p603
S'http://www.last.fm/music/Airbourne/_/Diamond+in+the+Rough'
p604
S'1262778627'
p605
tp606
a(S'Airbourne'
p607
S'Diamond in the Rough'
p608
S'http://www.last.fm/music/Airbourne/_/Diamond+in+the+Rough'
p609
S'1262778452'
p610
tp611
a(S'Liz Phair'
p612
S"Why Can't I"
p613
S'http://www.last.fm/music/Liz+Phair/_/Why+Can%27t+I'
p614
S'1262778244'
p615
tp616
a(S'Rainbow'
p617
S"Long Live Rock 'N' Roll"
p618
S'http://www.last.fm/music/Rainbow/_/Long+Live+Rock+%27N%27+Roll'
p619
S'1262777982'
p620
tp621
a(S'Chickenfoot'
p622
S'Sexy Little Thing'
p623
S'http://www.last.fm/music/Chickenfoot/_/Sexy+Little+Thing'
p624
S'1262777727'
p625
tp626
a(S'Jupiter One'
p627
S'Countdown'
p628
S'http://www.last.fm/music/Jupiter+One/_/Countdown'
p629
S'1262777499'
p630
tp631
a(S'Jamiroquai'
p632
S'2001'
p633
S'http://www.last.fm/music/Jamiroquai/_/2001'
p634
S'1262777181'
p635
tp636
a(S'Liz Phair'
p637
S"Why Can't I"
p638
S'http://www.last.fm/music/Liz+Phair/_/Why+Can%27t+I'
p639
S'1262776972'
p640
tp641
a(S'Jamiroquai'
p642
S'2001'
p643
S'http://www.last.fm/music/Jamiroquai/_/2001'
p644
S'1262776655'
p645
tp646
a(S'Chickenfoot'
p647
S'Sexy Little Thing'
p648
S'http://www.last.fm/music/Chickenfoot/_/Sexy+Little+Thing'
p649
S'1262776399'
p650
tp651
a(S'Jupiter One'
p652
S'Countdown'
p653
S'http://www.last.fm/music/Jupiter+One/_/Countdown'
p654
S'1262776171'
p655
tp656
a(S'Airbourne'
p657
S'Diamond in the Rough'
p658
S'http://www.last.fm/music/Airbourne/_/Diamond+in+the+Rough'
p659
S'1262775997'
p660
tp661
a(S'Rainbow'
p662
S"Long Live Rock 'N' Roll"
p663
S'http://www.last.fm/music/Rainbow/_/Long+Live+Rock+%27N%27+Roll'
p664
S'1262775735'
p665
tp666
a(S'Jamiroquai'
p667
S'2001'
p668
S'http://www.last.fm/music/Jamiroquai/_/2001'
p669
S'1262775417'
p670
tp671
a(S'Jupiter One'
p672
S'Countdown'
p673
S'http://www.last.fm/music/Jupiter+One/_/Countdown'
p674
S'1262775189'
p675
tp676
a(S'Rainbow'
p677
S"Long Live Rock 'N' Roll"
p678
S'http://www.last.fm/music/Rainbow/_/Long+Live+Rock+%27N%27+Roll'
p679
S'1262774927'
p680
tp681
a(S'Liz Phair'
p682
S"Why Can't I"
p683
S'http://www.last.fm/music/Liz+Phair/_/Why+Can%27t+I'
p684
S'1262774719'
p685
tp686
a(S'Chickenfoot'
p687
S'Sexy Little Thing'
p688
S'http://www.last.fm/music/Chickenfoot/_/Sexy+Little+Thing'
p689
S'1262774463'
p690
tp691
a(S'Airbourne'
p692
S'Diamond in the Rough'
p693
S'http://www.last.fm/music/Airbourne/_/Diamond+in+the+Rough'
p694
S'1262774289'
p695
tp696
a(S'Black Sabbath'
p697
S'Megalomania'
p698
S'http://www.last.fm/music/Black+Sabbath/_/Megalomania'
p699
S'1262708510'
p700
tp701
a(S'Black Sabbath'
p702
S'Cornucopia'
p703
S'http://www.last.fm/music/Black+Sabbath/_/Cornucopia'
p704
S'1262706629'
p705
tp706
a(S'Black Sabbath'
p707
S'Supernaut'
p708
S'http://www.last.fm/music/Black+Sabbath/_/Supernaut'
p709
S'1262706344'
p710
tp711
a(S'Black Sabbath'
p712
S'Who Are You?'
p713
S'http://www.last.fm/music/Black+Sabbath/_/Who+Are+You%3F'
p714
S'1262706092'
p715
tp716
a(S'Black Sabbath'
p717
S'Sabbra Cadabra'
p718
S'http://www.last.fm/music/Black+Sabbath/_/Sabbra+Cadabra'
p719
S'1262705731'
p720
tp721
a(S'Black Sabbath'
p722
S'Megalomania'
p723
S'http://www.last.fm/music/Black+Sabbath/_/Megalomania'
p724
S'1262705151'
p725
tp726
a(S'Black Sabbath'
p727
S'Into the Void'
p728
S'http://www.last.fm/music/Black+Sabbath/_/Into+the+Void'
p729
S'1262704763'
p730
tp731
a(S'Black Sabbath'
p732
S'Spiral Architect'
p733
S'http://www.last.fm/music/Black+Sabbath/_/Spiral+Architect'
p734
S'1262704327'
p735
tp736
a(S'Black Sabbath'
p737
S'Solitude'
p738
S'http://www.last.fm/music/Black+Sabbath/_/Solitude'
p739
S'1262704025'
p740
tp741
a(S'Black Sabbath'
p742
S'Behind the Wall of Sleep'
p743
S'http://www.last.fm/music/Black+Sabbath/_/Behind+the+Wall+of+Sleep'
p744
S'1262703780'
p745
tp746
a(S'Black Sabbath'
p747
S'Sabbra Cadabra'
p748
S'http://www.last.fm/music/Black+Sabbath/_/Sabbra+Cadabra'
p749
S'1262703419'
p750
tp751
a(S'Black Sabbath'
p752
S'Wicked World'
p753
S'http://www.last.fm/music/Black+Sabbath/_/Wicked+World'
p754
S'1262703136'
p755
tp756
a(S'Black Sabbath'
p757
S'Sabbath Bloody Sabbath'
p758
S'http://www.last.fm/music/Black+Sabbath/_/Sabbath+Bloody+Sabbath'
p759
S'1262702790'
p760
tp761
a(S'Black Sabbath'
p762
S'Cornucopia'
p763
S'http://www.last.fm/music/Black+Sabbath/_/Cornucopia'
p764
S'1262702555'
p765
tp766
a(S'Black Sabbath'
p767
S'Fairies Wear Boots'
p768
S'http://www.last.fm/music/Black+Sabbath/_/Fairies+Wear+Boots'
p769
S'1262702182'
p770
tp771
a(S'Black Sabbath'
p772
S'Planet Caravan'
p773
S'http://www.last.fm/music/Black+Sabbath/_/Planet+Caravan'
p774
S'1262701907'
p775
tp776
a(S'Black Sabbath'
p777
S'Who Are You?'
p778
S'http://www.last.fm/music/Black+Sabbath/_/Who+Are+You%3F'
p779
S'1262701656'
p780
tp781
a(S'Black Sabbath'
p782
S'Killing Yourself to Live'
p783
S'http://www.last.fm/music/Black+Sabbath/_/Killing+Yourself+to+Live'
p784
S'1262701315'
p785
tp786
a(S'Black Sabbath'
p787
S'Hole in the Sky'
p788
S'http://www.last.fm/music/Black+Sabbath/_/Hole+in+the+Sky'
p789
S'1262701075'
p790
tp791
a(S'Black Sabbath'
p792
S'Wheels of Confusion'
p793
S'http://www.last.fm/music/Black+Sabbath/_/Wheels+of+Confusion'
p794
S'1262700581'
p795
tp796
a(S'Black Sabbath'
p797
S'Supertzar'
p798
S'http://www.last.fm/music/Black+Sabbath/_/Supertzar'
p799
S'1262700357'
p800
tp801
a(S'Black Sabbath'
p802
S'Laguna Sunrise'
p803
S'http://www.last.fm/music/Black+Sabbath/_/Laguna+Sunrise'
p804
S'1262700184'
p805
tp806
a(S'Black Sabbath'
p807
S'The Warning'
p808
S'http://www.last.fm/music/Black+Sabbath/_/The+Warning'
p809
S'1262699552'
p810
tp811
a(S'Black Sabbath'
p812
S'Hand of Doom'
p813
S'http://www.last.fm/music/Black+Sabbath/_/Hand+of+Doom'
p814
S'1262699124'
p815
tp816
a(S'Black Sabbath'
p817
S'Fluff'
p818
S'http://www.last.fm/music/Black+Sabbath/_/Fluff'
p819
S'1262698871'
p820
tp821
a(S'Black Sabbath'
p822
S'Megalomania'
p823
S'http://www.last.fm/music/Black+Sabbath/_/Megalomania'
p824
S'1262698290'
p825
tp826
a(S'Black Sabbath'
p827
S'Megalomania'
p828
S'http://www.last.fm/music/Black+Sabbath/_/Megalomania'
p829
S'1262697085'
p830
tp831
a(S'Rainbow'
p832
S'Kill the King'
p833
S'http://www.last.fm/music/Rainbow/_/Kill+the+King'
p834
S'1262696303'
p835
tp836
a(S'Them Crooked Vultures'
p837
S'Elephants'
p838
S'http://www.last.fm/music/Them+Crooked+Vultures/_/Elephants'
p839
S'1262695893'
p840
tp841
a(S'Rainbow'
p842
S'Lady Of The Lake'
p843
S'http://www.last.fm/music/Rainbow/_/Lady+Of+The+Lake'
p844
S'1262695674'
p845
tp846
a(S'Rainbow'
p847
S'Gates of Babylon'
p848
S'http://www.last.fm/music/Rainbow/_/Gates+of+Babylon'
p849
S'1262695265'
p850
tp851
a(S'Them Crooked Vultures'
p852
S'Bandoliers'
p853
S'http://www.last.fm/music/Them+Crooked+Vultures/_/Bandoliers'
p854
S'1262694922'
p855
tp856
a(S'Them Crooked Vultures'
p857
S'Bandoliers'
p858
S'http://www.last.fm/music/Them+Crooked+Vultures/_/Bandoliers'
p859
S'1262694579'
p860
tp861
a(S'Them Crooked Vultures'
p862
S'No One Loves Me & Neither Do I'
p863
S'http://www.last.fm/music/Them+Crooked+Vultures/_/No+One+Loves+Me+&+Neither+Do+I'
p864
S'1262694269'
p865
tp866
a(S'Them Crooked Vultures'
p867
S'Mind Eraser, No Chaser'
p868
S'http://www.last.fm/music/Them+Crooked+Vultures/_/Mind+Eraser,+No+Chaser'
p869
S'1262694023'
p870
tp871
a(S'Them Crooked Vultures'
p872
S'Elephants'
p873
S'http://www.last.fm/music/Them+Crooked+Vultures/_/Elephants'
p874
S'1262693613'
p875
tp876
a(S'Them Crooked Vultures'
p877
S'Warsaw or the First Breath You Take After You Give Up'
p878
S'http://www.last.fm/music/Them+Crooked+Vultures/_/Warsaw+or+the+First+Breath+You+Take+After+You+Give+Up'
p879
S'1262693143'
p880
tp881
a(S'Rainbow'
p882
S'Lady Of The Lake'
p883
S'http://www.last.fm/music/Rainbow/_/Lady+Of+The+Lake'
p884
S'1262692924'
p885
tp886
a(S'Them Crooked Vultures'
p887
S'Gunman'
p888
S'http://www.last.fm/music/Them+Crooked+Vultures/_/Gunman'
p889
S'1262692638'
p890
tp891
a(S'Them Crooked Vultures'
p892
S'Dead End Friends'
p893
S'http://www.last.fm/music/Them+Crooked+Vultures/_/Dead+End+Friends'
p894
S'1262692442'
p895
tp896
a(S'Them Crooked Vultures'
p897
S'Spinning in Daffodils'
p898
S'http://www.last.fm/music/Them+Crooked+Vultures/_/Spinning+in+Daffodils'
p899
S'1262691995'
p900
tp901
a(S'Rainbow'
p902
S'Kill the King'
p903
S'http://www.last.fm/music/Rainbow/_/Kill+the+King'
p904
S'1262691725'
p905
tp906
a(S'Them Crooked Vultures'
p907
S'Interlude With Ludes'
p908
S'http://www.last.fm/music/Them+Crooked+Vultures/_/Interlude+With+Ludes'
p909
S'1262691501'
p910
tp911
a(S'Rainbow'
p912
S"Long Live Rock 'N' Roll"
p913
S'http://www.last.fm/music/Rainbow/_/Long+Live+Rock+%27N%27+Roll'
p914
S'1262691239'
p915
tp916
a(S'Them Crooked Vultures'
p917
S'Caligulove'
p918
S'http://www.last.fm/music/Them+Crooked+Vultures/_/Caligulove'
p919
S'1262690172'
p920
tp921
a(S'Them Crooked Vultures'
p922
S'New Fang'
p923
S'http://www.last.fm/music/Them+Crooked+Vultures/_/New+Fang'
p924
S'1262689944'
p925
tp926
a(S'Them Crooked Vultures'
p927
S'Scumbag Blues'
p928
S'http://www.last.fm/music/Them+Crooked+Vultures/_/Scumbag+Blues'
p929
S'1262689677'
p930
tp931
a(S'Them Crooked Vultures'
p932
S'Reptiles'
p933
S'http://www.last.fm/music/Them+Crooked+Vultures/_/Reptiles'
p934
S'1262689421'
p935
tp936
a(S'Rainbow'
p937
S'Rainbow Eyes'
p938
S'http://www.last.fm/music/Rainbow/_/Rainbow+Eyes'
p939
S'1262688989'
p940
tp941
a(S'Rainbow'
p942
S'Gates of Babylon'
p943
S'http://www.last.fm/music/Rainbow/_/Gates+of+Babylon'
p944
S'1262688579'
p945
tp946
a(S'Rainbow'
p947
S"Long Live Rock 'N' Roll"
p948
S'http://www.last.fm/music/Rainbow/_/Long+Live+Rock+%27N%27+Roll'
p949
S'1262688445'
p950
tp951
a(S'Jupiter One'
p952
S'Countdown'
p953
S'http://www.last.fm/music/Jupiter+One/_/Countdown'
p954
S'1262688217'
p955
tp956
a(S'Liz Phair'
p957
S"Why Can't I"
p958
S'http://www.last.fm/music/Liz+Phair/_/Why+Can%27t+I'
p959
S'1262688009'
p960
tp961
a(S'Jamiroquai'
p962
S'2001'
p963
S'http://www.last.fm/music/Jamiroquai/_/2001'
p964
S'1262687691'
p965
tp966
a(S'Airbourne'
p967
S'Diamond in the Rough'
p968
S'http://www.last.fm/music/Airbourne/_/Diamond+in+the+Rough'
p969
S'1262687517'
p970
tp971
a(S'Airbourne'
p972
S'Diamond in the Rough'
p973
S'http://www.last.fm/music/Airbourne/_/Diamond+in+the+Rough'
p974
S'1262640091'
p975
tp976
a(S'Jupiter One'
p977
S'Countdown'
p978
S'http://www.last.fm/music/Jupiter+One/_/Countdown'
p979
S'1262639863'
p980
tp981
a(S'Rainbow'
p982
S"Long Live Rock 'N' Roll"
p983
S'http://www.last.fm/music/Rainbow/_/Long+Live+Rock+%27N%27+Roll'
p984
S'1262639602'
p985
tp986
a(S'Liz Phair'
p987
S"Why Can't I"
p988
S'http://www.last.fm/music/Liz+Phair/_/Why+Can%27t+I'
p989
S'1262639393'
p990
tp991
a(S'Jupiter One'
p992
S'Countdown'
p993
S'http://www.last.fm/music/Jupiter+One/_/Countdown'
p994
S'1262639165'
p995
tp996
a(S'Jamiroquai'
p997
S'2001'
p998
S'http://www.last.fm/music/Jamiroquai/_/2001'
p999
S'1262638847'
p1000
tp1001
a.