(lp1
(S'Eric Clapton'
p2
S"Travelin' Light"
p3
S'http://www.last.fm/music/Eric+Clapton/_/Travelin%27+Light'
p4
S'1392316594'
p5
tp6
a(S'Eric Clapton'
p7
S'Alberta'
p8
S'http://www.last.fm/music/Eric+Clapton/_/Alberta'
p9
S'1392316324'
p10
tp11
a(S'Eric Clapton'
p12
S"Nobody Knows You When You're Down & Out"
p13
S'http://www.last.fm/music/Eric+Clapton/_/Nobody+Knows+You+When+You%27re+Down+&+Out'
p14
S'1392316101'
p15
tp16
a(S'Eric Clapton'
p17
S'Running on Faith'
p18
S'http://www.last.fm/music/Eric+Clapton/_/Running+on+Faith'
p19
S'1392315872'
p20
tp21
a(S'Eric Clapton'
p22
S"I Ain't Gonna Stand For It"
p23
S'http://www.last.fm/music/Eric+Clapton/_/I+Ain%27t+Gonna+Stand+For+It'
p24
S'1392315482'
p25
tp26
a(S'Eric Clapton'
p27
S'Modern Girl'
p28
S'http://www.last.fm/music/Eric+Clapton/_/Modern+Girl'
p29
S'1392315193'
p30
tp31
a(S'Eric Clapton'
p32
S'When You Got a Good Friend'
p33
S'http://www.last.fm/music/Eric+Clapton/_/When+You+Got+a+Good+Friend'
p34
S'1392313922'
p35
tp36
a(S'J.J. Cale & Eric Clapton'
p37
S"Don't Cry Sister"
p38
S'http://www.last.fm/music/J.J.+Cale+&+Eric+Clapton/_/Don%27t+Cry+Sister'
p39
S'1392313759'
p40
tp41
a(S'Rage Against the Machine'
p42
S'People of the Sun'
p43
S'http://www.last.fm/music/Rage+Against+the+Machine/_/People+of+the+Sun'
p44
S'1392313405'
p45
tp46
a(S'Rage Against the Machine'
p47
S'Down Rodeo'
p48
S'http://www.last.fm/music/Rage+Against+the+Machine/_/Down+Rodeo'
p49
S'1392313255'
p50
tp51
a(S'Rage Against the Machine'
p52
S'How I Could Just Kill a Man'
p53
S'http://www.last.fm/music/Rage+Against+the+Machine/_/How+I+Could+Just+Kill+a+Man'
p54
S'1392312934'
p55
tp56
a(S'Rage Against the Machine'
p57
S'Know Your Enemy'
p58
S'http://www.last.fm/music/Rage+Against+the+Machine/_/Know+Your+Enemy'
p59
S'1392312689'
p60
tp61
a(S'Rage Against the Machine'
p62
S'Bullet In The Head (Live)'
p63
S'http://www.last.fm/music/Rage+Against+the+Machine/_/Bullet+In+The+Head+(Live)'
p64
S'1392312394'
p65
tp66
a(S'Rage Against the Machine'
p67
S'Born of a Broken Man'
p68
S'http://www.last.fm/music/Rage+Against+the+Machine/_/Born+of+a+Broken+Man'
p69
S'1392312064'
p70
tp71
a(S'Rage Against the Machine'
p72
S'The Ghost of Tom Joad'
p73
S'http://www.last.fm/music/Rage+Against+the+Machine/_/The+Ghost+of+Tom+Joad'
p74
S'1392311783'
p75
tp76
a(S'Rage Against the Machine'
p77
S'Renegades of Funk'
p78
S'http://www.last.fm/music/Rage+Against+the+Machine/_/Renegades+of+Funk'
p79
S'1392310854'
p80
tp81
a(S'Rage Against the Machine'
p82
S'Voice of the Voiceless'
p83
S'http://www.last.fm/music/Rage+Against+the+Machine/_/Voice+of+the+Voiceless'
p84
S'1392310535'
p85
tp86
a(S'Rage Against the Machine'
p87
S'People of the Sun'
p88
S'http://www.last.fm/music/Rage+Against+the+Machine/_/People+of+the+Sun'
p89
S'1392309920'
p90
tp91
a(S'Rage Against the Machine'
p92
S'Down Rodeo'
p93
S'http://www.last.fm/music/Rage+Against+the+Machine/_/Down+Rodeo'
p94
S'1392309769'
p95
tp96
a(S'Rage Against the Machine'
p97
S'How I Could Just Kill a Man'
p98
S'http://www.last.fm/music/Rage+Against+the+Machine/_/How+I+Could+Just+Kill+a+Man'
p99
S'1392309449'
p100
tp101
a(S'Rage Against the Machine'
p102
S'Know Your Enemy'
p103
S'http://www.last.fm/music/Rage+Against+the+Machine/_/Know+Your+Enemy'
p104
S'1392309204'
p105
tp106
a(S'Rage Against the Machine'
p107
S'Bullet In The Head (Live)'
p108
S'http://www.last.fm/music/Rage+Against+the+Machine/_/Bullet+In+The+Head+(Live)'
p109
S'1392308908'
p110
tp111
a(S'Rage Against the Machine'
p112
S'Born of a Broken Man'
p113
S'http://www.last.fm/music/Rage+Against+the+Machine/_/Born+of+a+Broken+Man'
p114
S'1392308578'
p115
tp116
a(S'AC/DC'
p117
S'Are You Ready'
p118
S'http://www.last.fm/music/AC%2FDC/_/Are+You+Ready'
p119
S'1392306000'
p120
tp121
a(S'AC/DC'
p122
S'Hard as a Rock'
p123
S'http://www.last.fm/music/AC%2FDC/_/Hard+as+a+Rock'
p124
S'1392304509'
p125
tp126
a(S'AC/DC'
p127
S'Given the Dog a Bone'
p128
S'http://www.last.fm/music/AC%2FDC/_/Given+the+Dog+a+Bone'
p129
S'1392304238'
p130
tp131
a(S'AC/DC'
p132
S'Touch Too Much'
p133
S'http://www.last.fm/music/AC%2FDC/_/Touch+Too+Much'
p134
S'1392304025'
p135
tp136
a(S'AC/DC'
p137
S'Shoot to Thrill'
p138
S'http://www.last.fm/music/AC%2FDC/_/Shoot+to+Thrill'
p139
S'1392303759'
p140
tp141
a(S'AC/DC'
p142
S'Spellbound'
p143
S'http://www.last.fm/music/AC%2FDC/_/Spellbound'
p144
S'1392303440'
p145
tp146
a(S'AC/DC'
p147
S'Soul Stripper'
p148
S'http://www.last.fm/music/AC%2FDC/_/Soul+Stripper'
p149
S'1392296343'
p150
tp151
a(S'AC/DC'
p152
S'Moneytalks'
p153
S'http://www.last.fm/music/AC%2FDC/_/Moneytalks'
p154
S'1392295958'
p155
tp156
a(S'AC/DC'
p157
S"You Ain't Got a Hold on Me"
p158
S'http://www.last.fm/music/AC%2FDC/_/You+Ain%27t+Got+a+Hold+on+Me'
p159
S'1392295732'
p160
tp161
a(S'AC/DC'
p162
S'Satellite Blues'
p163
S'http://www.last.fm/music/AC%2FDC/_/Satellite+Blues'
p164
S'1392295523'
p165
tp166
a(S'AC/DC'
p167
S'Shot Down in Flames'
p168
S'http://www.last.fm/music/AC%2FDC/_/Shot+Down+in+Flames'
p169
S'1392295287'
p170
tp171
a(S'AC/DC'
p172
S"Hell Ain't A Bad Place To Be"
p173
S'http://www.last.fm/music/AC%2FDC/_/Hell+Ain%27t+A+Bad+Place+To+Be'
p174
S'1392295085'
p175
tp176
a(S'AC/DC'
p177
S'Moneytalks'
p178
S'http://www.last.fm/music/AC%2FDC/_/Moneytalks'
p179
S'1392222707'
p180
tp181
a(S'Eric Clapton'
p182
S"My Father's Eyes"
p183
S'http://www.last.fm/music/Eric+Clapton/_/My+Father%27s+Eyes'
p184
S'1392222249'
p185
tp186
a(S'Eric Clapton'
p187
S'Broken Down'
p188
S'http://www.last.fm/music/Eric+Clapton/_/Broken+Down'
p189
S'1392221922'
p190
tp191
a(S'Eric Clapton'
p192
S'Broken Down'
p193
S'http://www.last.fm/music/Eric+Clapton/_/Broken+Down'
p194
S'1392221588'
p195
tp196
a(S'Eric Clapton'
p197
S'Blues Before Sunrise'
p198
S'http://www.last.fm/music/Eric+Clapton/_/Blues+Before+Sunrise'
p199
S'1392221263'
p200
tp201
a(S'Eric Clapton'
p202
S'The Core'
p203
S'http://www.last.fm/music/Eric+Clapton/_/The+Core'
p204
S'1392221079'
p205
tp206
a(S'Eric Clapton'
p207
S"They're Red Hot"
p208
S'http://www.last.fm/music/Eric+Clapton/_/They%27re+Red+Hot'
p209
S'1392220553'
p210
tp211
a(S'Eric Clapton'
p212
S'Got You On My Mind'
p213
S'http://www.last.fm/music/Eric+Clapton/_/Got+You+On+My+Mind'
p214
S'1392220432'
p215
tp216
a(S'Eric Clapton'
p217
S'Five Long Years'
p218
S'http://www.last.fm/music/Eric+Clapton/_/Five+Long+Years'
p219
S'1392220162'
p220
tp221
a(S'Eric Clapton'
p222
S'Lonely Stranger'
p223
S'http://www.last.fm/music/Eric+Clapton/_/Lonely+Stranger'
p224
S'1392219874'
p225
tp226
a(S'Eric Clapton'
p227
S'Pretending'
p228
S'http://www.last.fm/music/Eric+Clapton/_/Pretending'
p229
S'1392219546'
p230
tp231
a(S'J.J. Cale & Eric Clapton'
p232
S'Hard To Thrill'
p233
S'http://www.last.fm/music/J.J.+Cale+&+Eric+Clapton/_/Hard+To+Thrill'
p234
S'1392219261'
p235
tp236
a(S'Eric Clapton'
p237
S"Travelin' Light"
p238
S'http://www.last.fm/music/Eric+Clapton/_/Travelin%27+Light'
p239
S'1392218950'
p240
tp241
a(S'Eric Clapton'
p242
S'Superman Inside'
p243
S'http://www.last.fm/music/Eric+Clapton/_/Superman+Inside'
p244
S'1392218693'
p245
tp246
a(S'Eric Clapton'
p247
S'Modern Girl'
p248
S'http://www.last.fm/music/Eric+Clapton/_/Modern+Girl'
p249
S'1392218385'
p250
tp251
a(S'Eric Clapton'
p252
S"Stop Breakin' Down Blues"
p253
S'http://www.last.fm/music/Eric+Clapton/_/Stop+Breakin%27+Down+Blues'
p254
S'1392218096'
p255
tp256
a(S'Eric Clapton'
p257
S"Nobody Knows You When You're Down & Out"
p258
S'http://www.last.fm/music/Eric+Clapton/_/Nobody+Knows+You+When+You%27re+Down+&+Out'
p259
S'1392217946'
p260
tp261
a(S'Eric Clapton'
p262
S'Old Love'
p263
S'http://www.last.fm/music/Eric+Clapton/_/Old+Love'
p264
S'1392217717'
p265
tp266
a(S'Eric Clapton'
p267
S'Signe'
p268
S'http://www.last.fm/music/Eric+Clapton/_/Signe'
p269
S'1392217243'
p270
tp271
a(S'J.J. Cale & Eric Clapton'
p272
S'Missing Person'
p273
S'http://www.last.fm/music/J.J.+Cale+&+Eric+Clapton/_/Missing+Person'
p274
S'1392217049'
p275
tp276
a(S'Eric Clapton'
p277
S"I Ain't Gonna Stand For It"
p278
S'http://www.last.fm/music/Eric+Clapton/_/I+Ain%27t+Gonna+Stand+For+It'
p279
S'1392216783'
p280
tp281
a(S'Eric Clapton'
p282
S'Hoochie Coochie Man'
p283
S'http://www.last.fm/music/Eric+Clapton/_/Hoochie+Coochie+Man'
p284
S'1392216493'
p285
tp286
a(S'Eric Clapton'
p287
S'Malted Milk'
p288
S'http://www.last.fm/music/Eric+Clapton/_/Malted+Milk'
p289
S'1392216297'
p290
tp291
a(S'J.J. Cale & Eric Clapton'
p292
S'Dead End Road'
p293
S'http://www.last.fm/music/J.J.+Cale+&+Eric+Clapton/_/Dead+End+Road'
p294
S'1392216081'
p295
tp296
a(S'Eric Clapton'
p297
S'Cocaine'
p298
S'http://www.last.fm/music/Eric+Clapton/_/Cocaine'
p299
S'1392215871'
p300
tp301
a(S'Eric Clapton'
p302
S"We're All The Way"
p303
S'http://www.last.fm/music/Eric+Clapton/_/We%27re+All+The+Way'
p304
S'1392212467'
p305
tp306
a(S'Eric Clapton'
p307
S'No Alibis'
p308
S'http://www.last.fm/music/Eric+Clapton/_/No+Alibis'
p309
S'1392212314'
p310
tp311
a(S'Eric Clapton'
p312
S'Next Time You See Her'
p313
S'http://www.last.fm/music/Eric+Clapton/_/Next+Time+You+See+Her'
p314
S'1392211975'
p315
tp316
a(S'Eric Clapton'
p317
S'Promises'
p318
S'http://www.last.fm/music/Eric+Clapton/_/Promises'
p319
S'1392211733'
p320
tp321
a(S'Eric Clapton'
p322
S'Lay Down Sally'
p323
S'http://www.last.fm/music/Eric+Clapton/_/Lay+Down+Sally'
p324
S'1392211553'
p325
tp326
a(S'Eric Clapton'
p327
S'How Long Blues'
p328
S'http://www.last.fm/music/Eric+Clapton/_/How+Long+Blues'
p329
S'1392211317'
p330
tp331
a(S'Eric Clapton'
p332
S'Traveling Riverside Blues'
p333
S'http://www.last.fm/music/Eric+Clapton/_/Traveling+Riverside+Blues'
p334
S'1392211128'
p335
tp336
a(S'Eric Clapton'
p337
S'Alberta'
p338
S'http://www.last.fm/music/Eric+Clapton/_/Alberta'
p339
S'1392210857'
p340
tp341
a(S'J.J. Cale & Eric Clapton'
p342
S'Heads In Georgia'
p343
S'http://www.last.fm/music/J.J.+Cale+&+Eric+Clapton/_/Heads+In+Georgia'
p344
S'1392210634'
p345
tp346
a(S'Eric Clapton'
p347
S'When You Got a Good Friend'
p348
S'http://www.last.fm/music/Eric+Clapton/_/When+You+Got+a+Good+Friend'
p349
S'1392209988'
p350
tp351
a(S'Eric Clapton'
p352
S'32-20 Blues'
p353
S'http://www.last.fm/music/Eric+Clapton/_/32-20+Blues'
p354
S'1392209787'
p355
tp356
a(S'Eric Clapton'
p357
S'Running on Faith'
p358
S'http://www.last.fm/music/Eric+Clapton/_/Running+on+Faith'
p359
S'1392209608'
p360
tp361
a(S'Eric Clapton'
p362
S'Before You Accuse Me'
p363
S'http://www.last.fm/music/Eric+Clapton/_/Before+You+Accuse+Me'
p364
S'1392209218'
p365
tp366
a(S'Eric Clapton'
p367
S'It Hurts Me Too'
p368
S'http://www.last.fm/music/Eric+Clapton/_/It+Hurts+Me+Too'
p369
S'1392208994'
p370
tp371
a(S'Eric Clapton'
p372
S'Mean Old Frisco'
p373
S'http://www.last.fm/music/Eric+Clapton/_/Mean+Old+Frisco'
p374
S'1392208795'
p375
tp376
a(S'Eric Clapton'
p377
S'Motherless Child'
p378
S'http://www.last.fm/music/Eric+Clapton/_/Motherless+Child'
p379
S'1392208512'
p380
tp381
a(S'Eric Clapton'
p382
S'Little Queen of Spades'
p383
S'http://www.last.fm/music/Eric+Clapton/_/Little+Queen+of+Spades'
p384
S'1392208335'
p385
tp386
a(S'Eric Clapton'
p387
S'Let It Grow'
p388
S'http://www.last.fm/music/Eric+Clapton/_/Let+It+Grow'
p389
S'1392208037'
p390
tp391
a(S'J.J. Cale & Eric Clapton'
p392
S"Don't Cry Sister"
p393
S'http://www.last.fm/music/J.J.+Cale+&+Eric+Clapton/_/Don%27t+Cry+Sister'
p394
S'1392207740'
p395
tp396
a(S'Eric Clapton'
p397
S'If I Had Possession Over Judgement Day'
p398
S'http://www.last.fm/music/Eric+Clapton/_/If+I+Had+Possession+Over+Judgement+Day'
p399
S'1392207550'
p400
tp401
a(S'Eric Clapton'
p402
S"Milkcow's Calf Blues"
p403
S'http://www.last.fm/music/Eric+Clapton/_/Milkcow%27s+Calf+Blues'
p404
S'1392207342'
p405
tp406
a(S'Eric Clapton'
p407
S"Standin' Round Crying"
p408
S'http://www.last.fm/music/Eric+Clapton/_/Standin%27+Round+Crying'
p409
S'1392207143'
p410
tp411
a(S'Cream'
p412
S'Strange Brew'
p413
S'http://www.last.fm/music/Cream/_/Strange+Brew'
p414
S'1392206925'
p415
tp416
a(S'Eric Clapton'
p417
S'Reptile'
p418
S'http://www.last.fm/music/Eric+Clapton/_/Reptile'
p419
S'1392206757'
p420
tp421
a(S'Eric Clapton'
p422
S"I'm Tore Down"
p423
S'http://www.last.fm/music/Eric+Clapton/_/I%27m+Tore+Down'
p424
S'1392206551'
p425
tp426
a(S'Eric Clapton'
p427
S"I Can't Stand It"
p428
S'http://www.last.fm/music/Eric+Clapton/_/I+Can%27t+Stand+It'
p429
S'1392206368'
p430
tp431
a(S'Eric Clapton'
p432
S'Bad Love'
p433
S'http://www.last.fm/music/Eric+Clapton/_/Bad+Love'
p434
S'1392206118'
p435
tp436
a(S'Derek and the Dominos'
p437
S'Bell Bottom Blues'
p438
S'http://www.last.fm/music/Derek+and+the+Dominos/_/Bell+Bottom+Blues'
p439
S'1392205804'
p440
tp441
a(S'Eric Clapton'
p442
S'Kind Hearted Woman Blues'
p443
S'http://www.last.fm/music/Eric+Clapton/_/Kind+Hearted+Woman+Blues'
p444
S'1392205499'
p445
tp446
a(S'Eric Clapton'
p447
S'Believe in Life'
p448
S'http://www.last.fm/music/Eric+Clapton/_/Believe+in+Life'
p449
S'1392205252'
p450
tp451
a(S'Eric Clapton'
p452
S"My Father's Eyes"
p453
S'http://www.last.fm/music/Eric+Clapton/_/My+Father%27s+Eyes'
p454
S'1392204362'
p455
tp456
a(S'Eric Clapton'
p457
S'Broken Down'
p458
S'http://www.last.fm/music/Eric+Clapton/_/Broken+Down'
p459
S'1392204048'
p460
tp461
a(S'Eric Clapton'
p462
S'Blues Before Sunrise'
p463
S'http://www.last.fm/music/Eric+Clapton/_/Blues+Before+Sunrise'
p464
S'1392203565'
p465
tp466
a(S'Eric Clapton'
p467
S'Swing Low Sweet Chariot'
p468
S'http://www.last.fm/music/Eric+Clapton/_/Swing+Low+Sweet+Chariot'
p469
S'1392203387'
p470
tp471
a(S'Eric Clapton'
p472
S'The Core'
p473
S'http://www.last.fm/music/Eric+Clapton/_/The+Core'
p474
S'1392203179'
p475
tp476
a(S'Eric Clapton'
p477
S"They're Red Hot"
p478
S'http://www.last.fm/music/Eric+Clapton/_/They%27re+Red+Hot'
p479
S'1392202653'
p480
tp481
a(S'Eric Clapton'
p482
S'Got You On My Mind'
p483
S'http://www.last.fm/music/Eric+Clapton/_/Got+You+On+My+Mind'
p484
S'1392202448'
p485
tp486
a(S'Eric Clapton'
p487
S'Lonely Stranger'
p488
S'http://www.last.fm/music/Eric+Clapton/_/Lonely+Stranger'
p489
S'1392202174'
p490
tp491
a(S'Eric Clapton'
p492
S"I'm Tore Down"
p493
S'http://www.last.fm/music/Eric+Clapton/_/I%27m+Tore+Down'
p494
S'1392146069'
p495
tp496
a(S'Eric Clapton'
p497
S'Alberta'
p498
S'http://www.last.fm/music/Eric+Clapton/_/Alberta'
p499
S'1392145886'
p500
tp501
a(S'Eric Clapton'
p502
S'The Core'
p503
S'http://www.last.fm/music/Eric+Clapton/_/The+Core'
p504
S'1392145663'
p505
tp506
a(S'Eric Clapton'
p507
S"My Father's Eyes"
p508
S'http://www.last.fm/music/Eric+Clapton/_/My+Father%27s+Eyes'
p509
S'1392145138'
p510
tp511
a(S'Eric Clapton'
p512
S'Mean Old Frisco'
p513
S'http://www.last.fm/music/Eric+Clapton/_/Mean+Old+Frisco'
p514
S'1392144824'
p515
tp516
a(S'J.J. Cale & Eric Clapton'
p517
S"Don't Cry Sister"
p518
S'http://www.last.fm/music/J.J.+Cale+&+Eric+Clapton/_/Don%27t+Cry+Sister'
p519
S'1392119212'
p520
tp521
a(S'Eric Clapton'
p522
S"I'm Tore Down"
p523
S'http://www.last.fm/music/Eric+Clapton/_/I%27m+Tore+Down'
p524
S'1392119022'
p525
tp526
a(S'J.J. Cale & Eric Clapton'
p527
S'Hard To Thrill'
p528
S'http://www.last.fm/music/J.J.+Cale+&+Eric+Clapton/_/Hard+To+Thrill'
p529
S'1392118839'
p530
tp531
a(S'Eric Clapton'
p532
S'Lay Down Sally'
p533
S'http://www.last.fm/music/Eric+Clapton/_/Lay+Down+Sally'
p534
S'1392118348'
p535
tp536
a(S'Eric Clapton'
p537
S'Old Love'
p538
S'http://www.last.fm/music/Eric+Clapton/_/Old+Love'
p539
S'1392118112'
p540
tp541
a(S'Eric Clapton'
p542
S"Standin' Round Crying"
p543
S'http://www.last.fm/music/Eric+Clapton/_/Standin%27+Round+Crying'
p544
S'1392051644'
p545
tp546
a(S'Rage Against the Machine'
p547
S'Killing in the Name'
p548
S'http://www.last.fm/music/Rage+Against+the+Machine/_/Killing+in+the+Name'
p549
S'1391717649'
p550
tp551
a(S'Rage Against the Machine'
p552
S'Born of a Broken Man'
p553
S'http://www.last.fm/music/Rage+Against+the+Machine/_/Born+of+a+Broken+Man'
p554
S'1391717335'
p555
tp556
a(S'Rage Against the Machine'
p557
S'Township Rebellion'
p558
S'http://www.last.fm/music/Rage+Against+the+Machine/_/Township+Rebellion'
p559
S'1391717073'
p560
tp561
a(S'Rage Against the Machine'
p562
S'People of the Sun'
p563
S'http://www.last.fm/music/Rage+Against+the+Machine/_/People+of+the+Sun'
p564
S'1391716748'
p565
tp566
a(S'Rage Against the Machine'
p567
S'The Ghost of Tom Joad'
p568
S'http://www.last.fm/music/Rage+Against+the+Machine/_/The+Ghost+of+Tom+Joad'
p569
S'1391716557'
p570
tp571
a(S'Rage Against the Machine'
p572
S'Renegades of Funk'
p573
S'http://www.last.fm/music/Rage+Against+the+Machine/_/Renegades+of+Funk'
p574
S'1391708235'
p575
tp576
a(S'Rage Against the Machine'
p577
S'Killing in the Name'
p578
S'http://www.last.fm/music/Rage+Against+the+Machine/_/Killing+in+the+Name'
p579
S'1391707960'
p580
tp581
a(S'Rage Against the Machine'
p582
S'Born of a Broken Man'
p583
S'http://www.last.fm/music/Rage+Against+the+Machine/_/Born+of+a+Broken+Man'
p584
S'1391707646'
p585
tp586
a(S'Rage Against the Machine'
p587
S'How I Could Just Kill a Man'
p588
S'http://www.last.fm/music/Rage+Against+the+Machine/_/How+I+Could+Just+Kill+a+Man'
p589
S'1391707364'
p590
tp591
a(S'Rage Against the Machine'
p592
S'Sleep Now in the Fire'
p593
S'http://www.last.fm/music/Rage+Against+the+Machine/_/Sleep+Now+in+the+Fire'
p594
S'1391707119'
p595
tp596
a(S'Rage Against the Machine'
p597
S'Know Your Enemy'
p598
S'http://www.last.fm/music/Rage+Against+the+Machine/_/Know+Your+Enemy'
p599
S'1391706914'
p600
tp601
a(S'Rage Against the Machine'
p602
S'Township Rebellion'
p603
S'http://www.last.fm/music/Rage+Against+the+Machine/_/Township+Rebellion'
p604
S'1391701667'
p605
tp606
a(S'Rage Against the Machine'
p607
S'People of the Sun'
p608
S'http://www.last.fm/music/Rage+Against+the+Machine/_/People+of+the+Sun'
p609
S'1391701343'
p610
tp611
a(S'Soundgarden'
p612
S"Eyelid's Mouth"
p613
S'http://www.last.fm/music/Soundgarden/_/Eyelid%27s+Mouth'
p614
S'1391613985'
p615
tp616
a(S'Stone Temple Pilots'
p617
S'First Kiss on Mars'
p618
S'http://www.last.fm/music/Stone+Temple+Pilots/_/First+Kiss+on+Mars'
p619
S'1391613706'
p620
tp621
a(S'Jerry Cantrell'
p622
S'Angel Eyes'
p623
S'http://www.last.fm/music/Jerry+Cantrell/_/Angel+Eyes'
p624
S'1391613517'
p625
tp626
a(S'Alice in Chains'
p627
S'Heaven Beside You'
p628
S'http://www.last.fm/music/Alice+in+Chains/_/Heaven+Beside+You'
p629
S'1391613232'
p630
tp631
a(S'Velvet Revolver'
p632
S'You Got No Right'
p633
S'http://www.last.fm/music/Velvet+Revolver/_/You+Got+No+Right'
p634
S'1391612904'
p635
tp636
a(S'Alice in Chains'
p637
S'Choke'
p638
S'http://www.last.fm/music/Alice+in+Chains/_/Choke'
p639
S'1391612569'
p640
tp641
a(S'Midnight Oil'
p642
S'Blue Sky Mine'
p643
S'http://www.last.fm/music/Midnight+Oil/_/Blue+Sky+Mine'
p644
S'1391612224'
p645
tp646
a(S'Soundgarden'
p647
S'Attrition'
p648
S'http://www.last.fm/music/Soundgarden/_/Attrition'
p649
S'1391611964'
p650
tp651
a(S'Queens of the Stone Age'
p652
S'If I Had a Tail'
p653
S'http://www.last.fm/music/Queens+of+the+Stone+Age/_/If+I+Had+a+Tail'
p654
S'1391611791'
p655
tp656
a(S'Queens of the Stone Age'
p657
S'Go With the Flow'
p658
S'http://www.last.fm/music/Queens+of+the+Stone+Age/_/Go+With+the+Flow'
p659
S'1391533020'
p660
tp661
a(S'Soundgarden'
p662
S'Rowing'
p663
S'http://www.last.fm/music/Soundgarden/_/Rowing'
p664
S'1391532832'
p665
tp666
a(S'Velvet Revolver'
p667
S'You Got No Right'
p668
S'http://www.last.fm/music/Velvet+Revolver/_/You+Got+No+Right'
p669
S'1391449011'
p670
tp671
a(S'Soundgarden'
p672
S'Attrition'
p673
S'http://www.last.fm/music/Soundgarden/_/Attrition'
p674
S'1391448675'
p675
tp676
a(S'Super Furry Animals'
p677
S'Golden Retriever'
p678
S'http://www.last.fm/music/Super+Furry+Animals/_/Golden+Retriever'
p679
S'1391447515'
p680
tp681
a(S'Queens of the Stone Age'
p682
S'Go With the Flow'
p683
S'http://www.last.fm/music/Queens+of+the+Stone+Age/_/Go+With+the+Flow'
p684
S'1391447367'
p685
tp686
a(S'Mother Love Bone'
p687
S'Lady Godiva Blues'
p688
S'http://www.last.fm/music/Mother+Love+Bone/_/Lady+Godiva+Blues'
p689
S'1391440704'
p690
tp691
a(S'Stone Temple Pilots'
p692
S'Too Cool Queenie'
p693
S'http://www.last.fm/music/Stone+Temple+Pilots/_/Too+Cool+Queenie'
p694
S'1391440501'
p695
tp696
a(S'Stone Temple Pilots'
p697
S'Vasoline'
p698
S'http://www.last.fm/music/Stone+Temple+Pilots/_/Vasoline'
p699
S'1391440333'
p700
tp701
a(S'Queens of the Stone Age'
p702
S"You Think I Ain't Worth a Dollar, But I Feel Like a Millionaire"
p703
S'http://www.last.fm/music/Queens+of+the+Stone+Age/_/You+Think+I+Ain%27t+Worth+a+Dollar,+But+I+Feel+Like+a+Millionaire'
p704
S'1391440156'
p705
tp706
a(S'Stone Temple Pilots'
p707
S'Peacoat'
p708
S'http://www.last.fm/music/Stone+Temple+Pilots/_/Peacoat'
p709
S'1391439963'
p710
tp711
a(S'Nirvana'
p712
S'Lithium'
p713
S'http://www.last.fm/music/Nirvana/_/Lithium'
p714
S'1391439753'
p715
tp716
a(S'Jerry Cantrell'
p717
S'My Song'
p718
S'http://www.last.fm/music/Jerry+Cantrell/_/My+Song'
p719
S'1391439496'
p720
tp721
a(S'Army Of Anyone'
p722
S'Generation'
p723
S'http://www.last.fm/music/Army+Of+Anyone/_/Generation'
p724
S'1391439250'
p725
tp726
a(S'Queens of the Stone Age'
p727
S'If I Had a Tail'
p728
S'http://www.last.fm/music/Queens+of+the+Stone+Age/_/If+I+Had+a+Tail'
p729
S'1391439039'
p730
tp731
a(S'Jerry Cantrell'
p732
S'Satisfy'
p733
S'http://www.last.fm/music/Jerry+Cantrell/_/Satisfy'
p734
S'1391438743'
p735
tp736
a(S'The Gracious Few'
p737
S'Tredecim'
p738
S'http://www.last.fm/music/The+Gracious+Few/_/Tredecim'
p739
S'1391438528'
p740
tp741
a(S'Stone Temple Pilots'
p742
S'Transmissions From a Lonely Room'
p743
S'http://www.last.fm/music/Stone+Temple+Pilots/_/Transmissions+From+a+Lonely+Room'
p744
S'1391432445'
p745
tp746
a(S'Stone Temple Pilots'
p747
S'First Kiss on Mars'
p748
S'http://www.last.fm/music/Stone+Temple+Pilots/_/First+Kiss+on+Mars'
p749
S'1391432249'
p750
tp751
a(S'Midnight Oil'
p752
S'Blue Sky Mine'
p753
S'http://www.last.fm/music/Midnight+Oil/_/Blue+Sky+Mine'
p754
S'1391432065'
p755
tp756
a(S'Alice in Chains'
p757
S'Scalpel'
p758
S'http://www.last.fm/music/Alice+in+Chains/_/Scalpel'
p759
S'1391431805'
p760
tp761
a(S'Soundgarden'
p762
S'Rowing'
p763
S'http://www.last.fm/music/Soundgarden/_/Rowing'
p764
S'1391431483'
p765
tp766
a(S'Queens of the Stone Age'
p767
S'Misfit Love'
p768
S'http://www.last.fm/music/Queens+of+the+Stone+Age/_/Misfit+Love'
p769
S'1391109965'
p770
tp771
a(S'Stone Temple Pilots'
p772
S'Vasoline'
p773
S'http://www.last.fm/music/Stone+Temple+Pilots/_/Vasoline'
p774
S'1391109625'
p775
tp776
a(S'Nirvana'
p777
S'In Bloom'
p778
S'http://www.last.fm/music/Nirvana/_/In+Bloom'
p779
S'1391109448'
p780
tp781
a(S'Stone Temple Pilots'
p782
S'Pruno'
p783
S'http://www.last.fm/music/Stone+Temple+Pilots/_/Pruno'
p784
S'1391109193'
p785
tp786
a(S'Alice in Chains'
p787
S'Choke'
p788
S'http://www.last.fm/music/Alice+in+Chains/_/Choke'
p789
S'1391108998'
p790
tp791
a(S'Velvet Revolver'
p792
S'Dirty Little Thing'
p793
S'http://www.last.fm/music/Velvet+Revolver/_/Dirty+Little+Thing'
p794
S'1391108653'
p795
tp796
a(S'Talk Show'
p797
S'Hello Hello'
p798
S'http://www.last.fm/music/Talk+Show/_/Hello+Hello'
p799
S'1391108416'
p800
tp801
a(S'Alice in Chains'
p802
S'Scalpel'
p803
S'http://www.last.fm/music/Alice+in+Chains/_/Scalpel'
p804
S'1391108238'
p805
tp806
a(S'Stone Temple Pilots'
p807
S'Huckleberry Crumble'
p808
S'http://www.last.fm/music/Stone+Temple+Pilots/_/Huckleberry+Crumble'
p809
S'1391104594'
p810
tp811
a(S'Stone Temple Pilots'
p812
S'First Kiss on Mars'
p813
S'http://www.last.fm/music/Stone+Temple+Pilots/_/First+Kiss+on+Mars'
p814
S'1391104403'
p815
tp816
a(S'Queens of the Stone Age'
p817
S'If I Had a Tail'
p818
S'http://www.last.fm/music/Queens+of+the+Stone+Age/_/If+I+Had+a+Tail'
p819
S'1391104219'
p820
tp821
a(S'Queens of the Stone Age'
p822
S"You Think I Ain't Worth a Dollar, But I Feel Like a Millionaire"
p823
S'http://www.last.fm/music/Queens+of+the+Stone+Age/_/You+Think+I+Ain%27t+Worth+a+Dollar,+But+I+Feel+Like+a+Millionaire'
p824
S'1391103924'
p825
tp826
a(S'Stone Temple Pilots'
p827
S'Transmissions From a Lonely Room'
p828
S'http://www.last.fm/music/Stone+Temple+Pilots/_/Transmissions+From+a+Lonely+Room'
p829
S'1391086282'
p830
tp831
a(S'Them Crooked Vultures'
p832
S'Gunman'
p833
S'http://www.last.fm/music/Them+Crooked+Vultures/_/Gunman'
p834
S'1391086087'
p835
tp836
a(S'Jerry Cantrell'
p837
S'My Song'
p838
S'http://www.last.fm/music/Jerry+Cantrell/_/My+Song'
p839
S'1391085800'
p840
tp841
a(S'Soundgarden'
p842
S'Attrition'
p843
S'http://www.last.fm/music/Soundgarden/_/Attrition'
p844
S'1391085554'
p845
tp846
a(S'Talk Show'
p847
S'Hide'
p848
S'http://www.last.fm/music/Talk+Show/_/Hide'
p849
S'1391085382'
p850
tp851
a(S'Super Furry Animals'
p852
S'Bad Behaviour'
p853
S'http://www.last.fm/music/Super+Furry+Animals/_/Bad+Behaviour'
p854
S'1391085172'
p855
tp856
a(S'Midnight Oil'
p857
S'Blue Sky Mine'
p858
S'http://www.last.fm/music/Midnight+Oil/_/Blue+Sky+Mine'
p859
S'1391016720'
p860
tp861
a(S'Soundgarden'
p862
S'Attrition'
p863
S'http://www.last.fm/music/Soundgarden/_/Attrition'
p864
S'1391015181'
p865
tp866
a(S'Jerry Cantrell'
p867
S'Angel Eyes'
p868
S'http://www.last.fm/music/Jerry+Cantrell/_/Angel+Eyes'
p869
S'1391015009'
p870
tp871
a(S'Velvet Revolver'
p872
S'You Got No Right'
p873
S'http://www.last.fm/music/Velvet+Revolver/_/You+Got+No+Right'
p874
S'1391014724'
p875
tp876
a(S'Queens of the Stone Age'
p877
S'Misfit Love'
p878
S'http://www.last.fm/music/Queens+of+the+Stone+Age/_/Misfit+Love'
p879
S'1391014388'
p880
tp881
a(S'Queens of the Stone Age'
p882
S'Go With the Flow'
p883
S'http://www.last.fm/music/Queens+of+the+Stone+Age/_/Go+With+the+Flow'
p884
S'1391014048'
p885
tp886
a(S'Soundgarden'
p887
S"Eyelid's Mouth"
p888
S'http://www.last.fm/music/Soundgarden/_/Eyelid%27s+Mouth'
p889
S'1391013861'
p890
tp891
a(S'Soundgarden'
p892
S'Rowing'
p893
S'http://www.last.fm/music/Soundgarden/_/Rowing'
p894
S'1391013581'
p895
tp896
a(S'Alice in Chains'
p897
S'Heaven Beside You'
p898
S'http://www.last.fm/music/Alice+in+Chains/_/Heaven+Beside+You'
p899
S'1391013275'
p900
tp901
a(S'Jerry Cantrell'
p902
S'Between'
p903
S'http://www.last.fm/music/Jerry+Cantrell/_/Between'
p904
S'1391012947'
p905
tp906
a(S'Stone Temple Pilots'
p907
S'Huckleberry Crumble'
p908
S'http://www.last.fm/music/Stone+Temple+Pilots/_/Huckleberry+Crumble'
p909
S'1391012730'
p910
tp911
a(S'Stone Temple Pilots'
p912
S'First Kiss on Mars'
p913
S'http://www.last.fm/music/Stone+Temple+Pilots/_/First+Kiss+on+Mars'
p914
S'1391012314'
p915
tp916
a(S'The Gracious Few'
p917
S'Tredecim'
p918
S'http://www.last.fm/music/The+Gracious+Few/_/Tredecim'
p919
S'1391012130'
p920
tp921
a(S'Talk Show'
p922
S'Hello Hello'
p923
S'http://www.last.fm/music/Talk+Show/_/Hello+Hello'
p924
S'1391011875'
p925
tp926
a(S'Stone Temple Pilots'
p927
S'Vasoline'
p928
S'http://www.last.fm/music/Stone+Temple+Pilots/_/Vasoline'
p929
S'1391011697'
p930
tp931
a(S'Queens of the Stone Age'
p932
S'Make It Wit Chu'
p933
S'http://www.last.fm/music/Queens+of+the+Stone+Age/_/Make+It+Wit+Chu'
p934
S'1391011520'
p935
tp936
a(S'Them Crooked Vultures'
p937
S'Gunman'
p938
S'http://www.last.fm/music/Them+Crooked+Vultures/_/Gunman'
p939
S'1391011229'
p940
tp941
a(S'Queens of the Stone Age'
p942
S"You Think I Ain't Worth a Dollar, But I Feel Like a Millionaire"
p943
S'http://www.last.fm/music/Queens+of+the+Stone+Age/_/You+Think+I+Ain%27t+Worth+a+Dollar,+But+I+Feel+Like+a+Millionaire'
p944
S'1391010943'
p945
tp946
a(S'Queens of the Stone Age'
p947
S'God Is in the Radio'
p948
S'http://www.last.fm/music/Queens+of+the+Stone+Age/_/God+Is+in+the+Radio'
p949
S'1391010750'
p950
tp951
a(S'Alice in Chains'
p952
S'Choke'
p953
S'http://www.last.fm/music/Alice+in+Chains/_/Choke'
p954
S'1391010385'
p955
tp956
a(S'Jerry Cantrell'
p957
S'My Song'
p958
S'http://www.last.fm/music/Jerry+Cantrell/_/My+Song'
p959
S'1391010040'
p960
tp961
a(S'Stone Temple Pilots'
p962
S'Too Cool Queenie'
p963
S'http://www.last.fm/music/Stone+Temple+Pilots/_/Too+Cool+Queenie'
p964
S'1391009794'
p965
tp966
a(S'Stone Temple Pilots'
p967
S'Transmissions From a Lonely Room'
p968
S'http://www.last.fm/music/Stone+Temple+Pilots/_/Transmissions+From+a+Lonely+Room'
p969
S'1391009627'
p970
tp971
a(S'Jerry Cantrell'
p972
S'Satisfy'
p973
S'http://www.last.fm/music/Jerry+Cantrell/_/Satisfy'
p974
S'1391009431'
p975
tp976
a(S'Nirvana'
p977
S'In Bloom'
p978
S'http://www.last.fm/music/Nirvana/_/In+Bloom'
p979
S'1391009216'
p980
tp981
a(S'Super Furry Animals'
p982
S'Golden Retriever'
p983
S'http://www.last.fm/music/Super+Furry+Animals/_/Golden+Retriever'
p984
S'1391008961'
p985
tp986
a(S'Army Of Anyone'
p987
S'Generation'
p988
S'http://www.last.fm/music/Army+Of+Anyone/_/Generation'
p989
S'1391008812'
p990
tp991
a(S'Stone Temple Pilots'
p992
S'Peacoat'
p993
S'http://www.last.fm/music/Stone+Temple+Pilots/_/Peacoat'
p994
S'1391008601'
p995
tp996
a(S'Stone Temple Pilots'
p997
S'Pruno'
p998
S'http://www.last.fm/music/Stone+Temple+Pilots/_/Pruno'
p999
S'1391008391'
p1000
tp1001
a.