(lp1
(S'Sting'
p2
S"We'll Be Together"
p3
S'http://www.last.fm/music/Sting/_/We%27ll+Be+Together'
p4
S'1249990363'
p5
tp6
a(S'Yes'
p7
S'Changes'
p8
S'http://www.last.fm/music/Yes/_/Changes'
p9
S'1249989983'
p10
tp11
a(S'Billy Idol'
p12
S'Dancing With Myself'
p13
S'http://www.last.fm/music/Billy+Idol/_/Dancing+With+Myself'
p14
S'1249940778'
p15
tp16
a(S'Stone Temple Pilots'
p17
S"Trippin' on a Hole in a Paper Heart"
p18
S'http://www.last.fm/music/Stone+Temple+Pilots/_/Trippin%27+on+a+Hole+in+a+Paper+Heart'
p19
S'1249940601'
p20
tp21
a(S'Alice Cooper'
p22
S'Bed of Nails'
p23
S'http://www.last.fm/music/Alice+Cooper/_/Bed+of+Nails'
p24
S'1249940342'
p25
tp26
a(S'Jennifer Hanson'
p27
S'Baby I Was Wrong'
p28
S'http://www.last.fm/music/Jennifer+Hanson/_/Baby+I+Was+Wrong'
p29
S'1249940095'
p30
tp31
a(S'Whitesnake'
p32
S'Too Many Tears'
p33
S'http://www.last.fm/music/Whitesnake/_/Too+Many+Tears'
p34
S'1249939750'
p35
tp36
a(S'Mother Love Bone'
p37
S'Gentle Groove'
p38
S'http://www.last.fm/music/Mother+Love+Bone/_/Gentle+Groove'
p39
S'1249939506'
p40
tp41
a(S'Kiss'
p42
S'Sure Know Something'
p43
S'http://www.last.fm/music/Kiss/_/Sure+Know+Something'
p44
S'1249939252'
p45
tp46
a(S'Roxette'
p47
S'Listen to Your Heart'
p48
S'http://www.last.fm/music/Roxette/_/Listen+to+Your+Heart'
p49
S'1249938941'
p50
tp51
a(S'Scorpions'
p52
S'Still Loving You'
p53
S'http://www.last.fm/music/Scorpions/_/Still+Loving+You'
p54
S'1249938653'
p55
tp56
a(S'Heart'
p57
S'If Looks Could Kill'
p58
S'http://www.last.fm/music/Heart/_/If+Looks+Could+Kill'
p59
S'1249938431'
p60
tp61
a(S'Kiss'
p62
S'She'
p63
S'http://www.last.fm/music/Kiss/_/She'
p64
S'1249938185'
p65
tp66
a(S'Jamiroquai'
p67
S'Electric Mistress'
p68
S'http://www.last.fm/music/Jamiroquai/_/Electric+Mistress'
p69
S'1249937951'
p70
tp71
a(S'Yes'
p72
S'Changes'
p73
S'http://www.last.fm/music/Yes/_/Changes'
p74
S'1249937571'
p75
tp76
a(S'Jamiroquai'
p77
S'Dynamite'
p78
S'http://www.last.fm/music/Jamiroquai/_/Dynamite'
p79
S'1249937277'
p80
tp81
a(S'Roxette'
p82
S'(Do You Get) Excited'
p83
S'http://www.last.fm/music/Roxette/_/(Do+You+Get)+Excited'
p84
S'1249937020'
p85
tp86
a(S'Kiss'
p87
S"Heaven's On Fire"
p88
S'http://www.last.fm/music/Kiss/_/Heaven%27s+On+Fire'
p89
S'1249936818'
p90
tp91
a(S'Iommi'
p92
S'I Go Insane'
p93
S'http://www.last.fm/music/Iommi/_/I+Go+Insane'
p94
S'1249936265'
p95
tp96
a(S'Alice Cooper'
p97
S"Love's a Loaded Gun"
p98
S'http://www.last.fm/music/Alice+Cooper/_/Love%27s+a+Loaded+Gun'
p99
S'1249936013'
p100
tp101
a(S'Yes'
p102
S'Owner of a Lonely Heart'
p103
S'http://www.last.fm/music/Yes/_/Owner+of+a+Lonely+Heart'
p104
S'1249935743'
p105
tp106
a(S'Jamiroquai'
p107
S'Seven Days in Sunny June'
p108
S'http://www.last.fm/music/Jamiroquai/_/Seven+Days+in+Sunny+June'
p109
S'1249935505'
p110
tp111
a(S'Velvet Revolver'
p112
S'Fall To Pieces'
p113
S'http://www.last.fm/music/Velvet+Revolver/_/Fall+To+Pieces'
p114
S'1249935234'
p115
tp116
a(S'Jamiroquai'
p117
S'Love Foolosophy'
p118
S'http://www.last.fm/music/Jamiroquai/_/Love+Foolosophy'
p119
S'1249935006'
p120
tp121
a(S'Placebo'
p122
S'Every You Every Me'
p123
S'http://www.last.fm/music/Placebo/_/Every+You+Every+Me'
p124
S'1249934793'
p125
tp126
a(S'Jamiroquai'
p127
S'You Give Me Something'
p128
S'http://www.last.fm/music/Jamiroquai/_/You+Give+Me+Something'
p129
S'1249934587'
p130
tp131
a(S'Alice Cooper'
p132
S'Sideshow'
p133
S'http://www.last.fm/music/Alice+Cooper/_/Sideshow'
p134
S'1249934187'
p135
tp136
a(S'Liz Phair'
p137
S'Rock Me'
p138
S'http://www.last.fm/music/Liz+Phair/_/Rock+Me'
p139
S'1249933987'
p140
tp141
a(S'Jennifer Hanson'
p142
S'Beautiful Goodbye'
p143
S'http://www.last.fm/music/Jennifer+Hanson/_/Beautiful+Goodbye'
p144
S'1249933728'
p145
tp146
a(S'Alice Cooper'
p147
S'Burning Our Bed'
p148
S'http://www.last.fm/music/Alice+Cooper/_/Burning+Our+Bed'
p149
S'1249933453'
p150
tp151
a(S'Mother Love Bone'
p152
S'Come Bite The Apple'
p153
S'http://www.last.fm/music/Mother+Love+Bone/_/Come+Bite+The+Apple'
p154
S'1249933127'
p155
tp156
a(S'Army Of Anyone'
p157
S'A Better Place'
p158
S'http://www.last.fm/music/Army+Of+Anyone/_/A+Better+Place'
p159
S'1249932828'
p160
tp161
a(S'Mother Love Bone'
p162
S'Stargazer'
p163
S'http://www.last.fm/music/Mother+Love+Bone/_/Stargazer'
p164
S'1249932535'
p165
tp166
a(S'Alice Cooper'
p167
S"Love's a Loaded Gun"
p168
S'http://www.last.fm/music/Alice+Cooper/_/Love%27s+a+Loaded+Gun'
p169
S'1249930413'
p170
tp171
a(S'Jennifer Hanson'
p172
S'Baby I Was Wrong'
p173
S'http://www.last.fm/music/Jennifer+Hanson/_/Baby+I+Was+Wrong'
p174
S'1249930166'
p175
tp176
a(S'Stone Temple Pilots'
p177
S"Trippin' on a Hole in a Paper Heart"
p178
S'http://www.last.fm/music/Stone+Temple+Pilots/_/Trippin%27+on+a+Hole+in+a+Paper+Heart'
p179
S'1249929990'
p180
tp181
a(S'Jamiroquai'
p182
S'You Give Me Something'
p183
S'http://www.last.fm/music/Jamiroquai/_/You+Give+Me+Something'
p184
S'1249929784'
p185
tp186
a(S'Yes'
p187
S'Changes'
p188
S'http://www.last.fm/music/Yes/_/Changes'
p189
S'1249929355'
p190
tp191
a(S'Placebo'
p192
S'Every You Every Me'
p193
S'http://www.last.fm/music/Placebo/_/Every+You+Every+Me'
p194
S'1249929141'
p195
tp196
a(S'Kiss'
p197
S'She'
p198
S'http://www.last.fm/music/Kiss/_/She'
p199
S'1249928895'
p200
tp201
a(S'Stone Temple Pilots'
p202
S'Still Remains'
p203
S'http://www.last.fm/music/Stone+Temple+Pilots/_/Still+Remains'
p204
S'1249928682'
p205
tp206
a(S'Army Of Anyone'
p207
S'A Better Place'
p208
S'http://www.last.fm/music/Army+Of+Anyone/_/A+Better+Place'
p209
S'1249928383'
p210
tp211
a(S'Billy Idol'
p212
S'Dancing With Myself'
p213
S'http://www.last.fm/music/Billy+Idol/_/Dancing+With+Myself'
p214
S'1249928023'
p215
tp216
a(S'Velvet Revolver'
p217
S'Fall To Pieces'
p218
S'http://www.last.fm/music/Velvet+Revolver/_/Fall+To+Pieces'
p219
S'1249927752'
p220
tp221
a(S'Midnight Oil'
p222
S'Blue Sky Mine'
p223
S'http://www.last.fm/music/Midnight+Oil/_/Blue+Sky+Mine'
p224
S'1249927492'
p225
tp226
a(S'Heart'
p227
S'If Looks Could Kill'
p228
S'http://www.last.fm/music/Heart/_/If+Looks+Could+Kill'
p229
S'1249927271'
p230
tp231
a(S'Jamiroquai'
p232
S'Seven Days in Sunny June'
p233
S'http://www.last.fm/music/Jamiroquai/_/Seven+Days+in+Sunny+June'
p234
S'1249927033'
p235
tp236
a(S'Alice Cooper'
p237
S'Sideshow'
p238
S'http://www.last.fm/music/Alice+Cooper/_/Sideshow'
p239
S'1249926633'
p240
tp241
a(S'Kiss'
p242
S'Sure Know Something'
p243
S'http://www.last.fm/music/Kiss/_/Sure+Know+Something'
p244
S'1249926379'
p245
tp246
a(S'Peter Frampton'
p247
S'Breaking All The Rules'
p248
S'http://www.last.fm/music/Peter+Frampton/_/Breaking+All+The+Rules'
p249
S'1249925953'
p250
tp251
a(S'Scorpions'
p252
S'Still Loving You'
p253
S'http://www.last.fm/music/Scorpions/_/Still+Loving+You'
p254
S'1249925665'
p255
tp256
a(S'Alice Cooper'
p257
S'Hell Is Living Without You'
p258
S'http://www.last.fm/music/Alice+Cooper/_/Hell+Is+Living+Without+You'
p259
S'1249923422'
p260
tp261
a(S'Mother Love Bone'
p262
S'Gentle Groove'
p263
S'http://www.last.fm/music/Mother+Love+Bone/_/Gentle+Groove'
p264
S'1249923178'
p265
tp266
a(S'Roxette'
p267
S'Listen to Your Heart'
p268
S'http://www.last.fm/music/Roxette/_/Listen+to+Your+Heart'
p269
S'1249922922'
p270
tp271
a(S'Live'
p272
S'Like I Do'
p273
S'http://www.last.fm/music/Live/_/Like+I+Do'
p274
S'1249922667'
p275
tp276
a(S'Jamiroquai'
p277
S'Dynamite'
p278
S'http://www.last.fm/music/Jamiroquai/_/Dynamite'
p279
S'1249922373'
p280
tp281
a(S'Live'
p282
S'She'
p283
S'http://www.last.fm/music/Live/_/She'
p284
S'1249922212'
p285
tp286
a(S'Jamiroquai'
p287
S'Electric Mistress'
p288
S'http://www.last.fm/music/Jamiroquai/_/Electric+Mistress'
p289
S'1249921979'
p290
tp291
a(S'Roxette'
p292
S'(Do You Get) Excited'
p293
S'http://www.last.fm/music/Roxette/_/(Do+You+Get)+Excited'
p294
S'1249921722'
p295
tp296
a(S'Alice Cooper'
p297
S'Burning Our Bed'
p298
S'http://www.last.fm/music/Alice+Cooper/_/Burning+Our+Bed'
p299
S'1249915187'
p300
tp301
a(S'Alice Cooper'
p302
S'Bed of Nails'
p303
S'http://www.last.fm/music/Alice+Cooper/_/Bed+of+Nails'
p304
S'1249914787'
p305
tp306
a(S'Mother Love Bone'
p307
S'Heartshine'
p308
S'http://www.last.fm/music/Mother+Love+Bone/_/Heartshine'
p309
S'1249913191'
p310
tp311
a(S'Live'
p312
S'Out To Dry'
p313
S'http://www.last.fm/music/Live/_/Out+To+Dry'
p314
S'1249912991'
p315
tp316
a(S'Jennifer Hanson'
p317
S'Beautiful Goodbye'
p318
S'http://www.last.fm/music/Jennifer+Hanson/_/Beautiful+Goodbye'
p319
S'1249911145'
p320
tp321
a(S'Mother Love Bone'
p322
S'Stargazer'
p323
S'http://www.last.fm/music/Mother+Love+Bone/_/Stargazer'
p324
S'1249910853'
p325
tp326
a(S'Jamiroquai'
p327
S'Love Foolosophy'
p328
S'http://www.last.fm/music/Jamiroquai/_/Love+Foolosophy'
p329
S'1249910625'
p330
tp331
a(S'Whitesnake'
p332
S'Too Many Tears'
p333
S'http://www.last.fm/music/Whitesnake/_/Too+Many+Tears'
p334
S'1249910280'
p335
tp336
a(S'Mother Love Bone'
p337
S'Come Bite The Apple'
p338
S'http://www.last.fm/music/Mother+Love+Bone/_/Come+Bite+The+Apple'
p339
S'1249909953'
p340
tp341
a(S'Yes'
p342
S'Owner of a Lonely Heart'
p343
S'http://www.last.fm/music/Yes/_/Owner+of+a+Lonely+Heart'
p344
S'1249909683'
p345
tp346
a(S'Sting'
p347
S"We'll Be Together"
p348
S'http://www.last.fm/music/Sting/_/We%27ll+Be+Together'
p349
S'1249909452'
p350
tp351
a(S'Iommi'
p352
S'I Go Insane'
p353
S'http://www.last.fm/music/Iommi/_/I+Go+Insane'
p354
S'1249908898'
p355
tp356
a(S'Liz Phair'
p357
S'Extraordinary'
p358
S'http://www.last.fm/music/Liz+Phair/_/Extraordinary'
p359
S'1249908693'
p360
tp361
a(S'Alice Cooper'
p362
S'House of Fire'
p363
S'http://www.last.fm/music/Alice+Cooper/_/House+of+Fire'
p364
S'1249908466'
p365
tp366
a(S'Whitesnake'
p367
S'Deeper The Love'
p368
S'http://www.last.fm/music/Whitesnake/_/Deeper+The+Love'
p369
S'1249908203'
p370
tp371
a(S'Jamiroquai'
p372
S'Electric Mistress'
p373
S'http://www.last.fm/music/Jamiroquai/_/Electric+Mistress'
p374
S'1249826780'
p375
tp376
a(S'Jamiroquai'
p377
S'Love Foolosophy'
p378
S'http://www.last.fm/music/Jamiroquai/_/Love+Foolosophy'
p379
S'1249826552'
p380
tp381
a(S'Jamiroquai'
p382
S'Seven Days in Sunny June'
p383
S'http://www.last.fm/music/Jamiroquai/_/Seven+Days+in+Sunny+June'
p384
S'1249826314'
p385
tp386
a(S'Jamiroquai'
p387
S'Little L'
p388
S'http://www.last.fm/music/Jamiroquai/_/Little+L'
p389
S'1249826017'
p390
tp391
a(S'Jamiroquai'
p392
S'Dynamite'
p393
S'http://www.last.fm/music/Jamiroquai/_/Dynamite'
p394
S'1249825723'
p395
tp396
a(S'Jamiroquai'
p397
S'You Give Me Something'
p398
S'http://www.last.fm/music/Jamiroquai/_/You+Give+Me+Something'
p399
S'1249825517'
p400
tp401
a(S'Liz Phair'
p402
S'Extraordinary'
p403
S'http://www.last.fm/music/Liz+Phair/_/Extraordinary'
p404
S'1249825293'
p405
tp406
a(S'Whitesnake'
p407
S'Deeper The Love'
p408
S'http://www.last.fm/music/Whitesnake/_/Deeper+The+Love'
p409
S'1249825031'
p410
tp411
a(S'Live'
p412
S'She'
p413
S'http://www.last.fm/music/Live/_/She'
p414
S'1249751539'
p415
tp416
a(S'Yes'
p417
S'Owner of a Lonely Heart'
p418
S'http://www.last.fm/music/Yes/_/Owner+of+a+Lonely+Heart'
p419
S'1249751269'
p420
tp421
a(S'Placebo'
p422
S'Every You Every Me'
p423
S'http://www.last.fm/music/Placebo/_/Every+You+Every+Me'
p424
S'1249751055'
p425
tp426
a(S'Whitesnake'
p427
S'Deeper The Love'
p428
S'http://www.last.fm/music/Whitesnake/_/Deeper+The+Love'
p429
S'1249750792'
p430
tp431
a(S'Jennifer Hanson'
p432
S'Beautiful Goodbye'
p433
S'http://www.last.fm/music/Jennifer+Hanson/_/Beautiful+Goodbye'
p434
S'1249673687'
p435
tp436
a(S'Whitesnake'
p437
S'Too Many Tears'
p438
S'http://www.last.fm/music/Whitesnake/_/Too+Many+Tears'
p439
S'1249673342'
p440
tp441
a(S'Whitesnake'
p442
S'Deeper The Love'
p443
S'http://www.last.fm/music/Whitesnake/_/Deeper+The+Love'
p444
S'1249673013'
p445
tp446
a(S'Kiss'
p447
S'Sure Know Something'
p448
S'http://www.last.fm/music/Kiss/_/Sure+Know+Something'
p449
S'1249672759'
p450
tp451
a(S'Stone Temple Pilots'
p452
S'Still Remains'
p453
S'http://www.last.fm/music/Stone+Temple+Pilots/_/Still+Remains'
p454
S'1249672546'
p455
tp456
a(S'Billy Idol'
p457
S'Cradle Of Love'
p458
S'http://www.last.fm/music/Billy+Idol/_/Cradle+Of+Love'
p459
S'1249671957'
p460
tp461
a(S'Alice Cooper'
p462
S'Sideshow'
p463
S'http://www.last.fm/music/Alice+Cooper/_/Sideshow'
p464
S'1249671557'
p465
tp466
a(S'Jamiroquai'
p467
S'Dynamite'
p468
S'http://www.last.fm/music/Jamiroquai/_/Dynamite'
p469
S'1249671263'
p470
tp471
a(S'Billy Idol'
p472
S'Dancing With Myself'
p473
S'http://www.last.fm/music/Billy+Idol/_/Dancing+With+Myself'
p474
S'1249670903'
p475
tp476
a(S'Kiss'
p477
S"Heaven's On Fire"
p478
S'http://www.last.fm/music/Kiss/_/Heaven%27s+On+Fire'
p479
S'1249670702'
p480
tp481
a(S'Live'
p482
S'Out To Dry'
p483
S'http://www.last.fm/music/Live/_/Out+To+Dry'
p484
S'1249670502'
p485
tp486
a(S'Live'
p487
S'She'
p488
S'http://www.last.fm/music/Live/_/She'
p489
S'1249670341'
p490
tp491
a(S'Midnight Oil'
p492
S'Blue Sky Mine'
p493
S'http://www.last.fm/music/Midnight+Oil/_/Blue+Sky+Mine'
p494
S'1249670014'
p495
tp496
a(S'Alice Cooper'
p497
S'Burning Our Bed'
p498
S'http://www.last.fm/music/Alice+Cooper/_/Burning+Our+Bed'
p499
S'1249669739'
p500
tp501
a(S'Alice Cooper'
p502
S"Love's a Loaded Gun"
p503
S'http://www.last.fm/music/Alice+Cooper/_/Love%27s+a+Loaded+Gun'
p504
S'1249669488'
p505
tp506
a(S'Live'
p507
S'Sweet Release'
p508
S'http://www.last.fm/music/Live/_/Sweet+Release'
p509
S'1249669305'
p510
tp511
a(S'Kiss'
p512
S'She'
p513
S'http://www.last.fm/music/Kiss/_/She'
p514
S'1249669059'
p515
tp516
a(S'Alice Cooper'
p517
S'Bed of Nails'
p518
S'http://www.last.fm/music/Alice+Cooper/_/Bed+of+Nails'
p519
S'1249668705'
p520
tp521
a(S'Scorpions'
p522
S'Still Loving You'
p523
S'http://www.last.fm/music/Scorpions/_/Still+Loving+You'
p524
S'1249668417'
p525
tp526
a(S'Alice Cooper'
p527
S'Hell Is Living Without You'
p528
S'http://www.last.fm/music/Alice+Cooper/_/Hell+Is+Living+Without+You'
p529
S'1249668017'
p530
tp531
a(S'Velvet Revolver'
p532
S'Fall To Pieces'
p533
S'http://www.last.fm/music/Velvet+Revolver/_/Fall+To+Pieces'
p534
S'1249667746'
p535
tp536
a(S'Yes'
p537
S'Owner of a Lonely Heart'
p538
S'http://www.last.fm/music/Yes/_/Owner+of+a+Lonely+Heart'
p539
S'1249667476'
p540
tp541
a(S'Liz Phair'
p542
S'Extraordinary'
p543
S'http://www.last.fm/music/Liz+Phair/_/Extraordinary'
p544
S'1249667272'
p545
tp546
a(S'Live'
p547
S'Like I Do'
p548
S'http://www.last.fm/music/Live/_/Like+I+Do'
p549
S'1249667017'
p550
tp551
a(S'Placebo'
p552
S'Every You Every Me'
p553
S'http://www.last.fm/music/Placebo/_/Every+You+Every+Me'
p554
S'1249666803'
p555
tp556
a(S'Stone Temple Pilots'
p557
S"Trippin' on a Hole in a Paper Heart"
p558
S'http://www.last.fm/music/Stone+Temple+Pilots/_/Trippin%27+on+a+Hole+in+a+Paper+Heart'
p559
S'1249666627'
p560
tp561
a(S'Yes'
p562
S'Changes'
p563
S'http://www.last.fm/music/Yes/_/Changes'
p564
S'1249653729'
p565
tp566
a(S'Mother Love Bone'
p567
S'Heartshine'
p568
S'http://www.last.fm/music/Mother+Love+Bone/_/Heartshine'
p569
S'1249652937'
p570
tp571
a(S'Roxette'
p572
S'Listen to Your Heart'
p573
S'http://www.last.fm/music/Roxette/_/Listen+to+Your+Heart'
p574
S'1249652439'
p575
tp576
a(S'Jamiroquai'
p577
S'Electric Mistress'
p578
S'http://www.last.fm/music/Jamiroquai/_/Electric+Mistress'
p579
S'1249652205'
p580
tp581
a(S'Sting'
p582
S"We'll Be Together"
p583
S'http://www.last.fm/music/Sting/_/We%27ll+Be+Together'
p584
S'1249651974'
p585
tp586
a(S'Jamiroquai'
p587
S'Love Foolosophy'
p588
S'http://www.last.fm/music/Jamiroquai/_/Love+Foolosophy'
p589
S'1249651746'
p590
tp591
a(S'Mother Love Bone'
p592
S'Gentle Groove'
p593
S'http://www.last.fm/music/Mother+Love+Bone/_/Gentle+Groove'
p594
S'1249651502'
p595
tp596
a(S'Alice Cooper'
p597
S'House of Fire'
p598
S'http://www.last.fm/music/Alice+Cooper/_/House+of+Fire'
p599
S'1249651275'
p600
tp601
a(S'Jamiroquai'
p602
S'You Give Me Something'
p603
S'http://www.last.fm/music/Jamiroquai/_/You+Give+Me+Something'
p604
S'1249651069'
p605
tp606
a(S'Army Of Anyone'
p607
S'A Better Place'
p608
S'http://www.last.fm/music/Army+Of+Anyone/_/A+Better+Place'
p609
S'1249650770'
p610
tp611
a(S'Iommi'
p612
S'I Go Insane'
p613
S'http://www.last.fm/music/Iommi/_/I+Go+Insane'
p614
S'1249649885'
p615
tp616
a(S'Jamiroquai'
p617
S'Seven Days in Sunny June'
p618
S'http://www.last.fm/music/Jamiroquai/_/Seven+Days+in+Sunny+June'
p619
S'1249649647'
p620
tp621
a(S'Liz Phair'
p622
S'Rock Me'
p623
S'http://www.last.fm/music/Liz+Phair/_/Rock+Me'
p624
S'1249649446'
p625
tp626
a(S'Peter Frampton'
p627
S'Breaking All The Rules'
p628
S'http://www.last.fm/music/Peter+Frampton/_/Breaking+All+The+Rules'
p629
S'1249649021'
p630
tp631
a(S'Jennifer Hanson'
p632
S'Baby I Was Wrong'
p633
S'http://www.last.fm/music/Jennifer+Hanson/_/Baby+I+Was+Wrong'
p634
S'1249648111'
p635
tp636
a(S'Roxette'
p637
S'(Do You Get) Excited'
p638
S'http://www.last.fm/music/Roxette/_/(Do+You+Get)+Excited'
p639
S'1249647855'
p640
tp641
a(S'Mother Love Bone'
p642
S'Stargazer'
p643
S'http://www.last.fm/music/Mother+Love+Bone/_/Stargazer'
p644
S'1249647562'
p645
tp646
a(S'Mother Love Bone'
p647
S'Come Bite The Apple'
p648
S'http://www.last.fm/music/Mother+Love+Bone/_/Come+Bite+The+Apple'
p649
S'1249647236'
p650
tp651
a(S'Heart'
p652
S'If Looks Could Kill'
p653
S'http://www.last.fm/music/Heart/_/If+Looks+Could+Kill'
p654
S'1249647014'
p655
tp656
a(S'Jamiroquai'
p657
S'Love Foolosophy'
p658
S'http://www.last.fm/music/Jamiroquai/_/Love+Foolosophy'
p659
S'1249567619'
p660
tp661
a(S'Jamiroquai'
p662
S'You Give Me Something'
p663
S'http://www.last.fm/music/Jamiroquai/_/You+Give+Me+Something'
p664
S'1249567413'
p665
tp666
a(S'Jamiroquai'
p667
S'Electric Mistress'
p668
S'http://www.last.fm/music/Jamiroquai/_/Electric+Mistress'
p669
S'1249567179'
p670
tp671
a(S'Jamiroquai'
p672
S'Seven Days in Sunny June'
p673
S'http://www.last.fm/music/Jamiroquai/_/Seven+Days+in+Sunny+June'
p674
S'1249566942'
p675
tp676
a(S'Jamiroquai'
p677
S'Electric Mistress'
p678
S'http://www.last.fm/music/Jamiroquai/_/Electric+Mistress'
p679
S'1249566708'
p680
tp681
a(S'Jamiroquai'
p682
S'Love Foolosophy'
p683
S'http://www.last.fm/music/Jamiroquai/_/Love+Foolosophy'
p684
S'1249566480'
p685
tp686
a(S'Jamiroquai'
p687
S'Little L'
p688
S'http://www.last.fm/music/Jamiroquai/_/Little+L'
p689
S'1249563770'
p690
tp691
a(S'Jamiroquai'
p692
S'Dynamite'
p693
S'http://www.last.fm/music/Jamiroquai/_/Dynamite'
p694
S'1249560848'
p695
tp696
a(S'Jamiroquai'
p697
S'You Give Me Something'
p698
S'http://www.last.fm/music/Jamiroquai/_/You+Give+Me+Something'
p699
S'1249560642'
p700
tp701
a(S'Jamiroquai'
p702
S'Seven Days in Sunny June'
p703
S'http://www.last.fm/music/Jamiroquai/_/Seven+Days+in+Sunny+June'
p704
S'1249480984'
p705
tp706
a(S'Jamiroquai'
p707
S'Love Foolosophy'
p708
S'http://www.last.fm/music/Jamiroquai/_/Love+Foolosophy'
p709
S'1249480756'
p710
tp711
a(S'Jamiroquai'
p712
S'Little L'
p713
S'http://www.last.fm/music/Jamiroquai/_/Little+L'
p714
S'1249480459'
p715
tp716
a(S'Jamiroquai'
p717
S'Dynamite'
p718
S'http://www.last.fm/music/Jamiroquai/_/Dynamite'
p719
S'1249480164'
p720
tp721
a(S'Jamiroquai'
p722
S'Electric Mistress'
p723
S'http://www.last.fm/music/Jamiroquai/_/Electric+Mistress'
p724
S'1249479930'
p725
tp726
a(S'Jamiroquai'
p727
S'You Give Me Something'
p728
S'http://www.last.fm/music/Jamiroquai/_/You+Give+Me+Something'
p729
S'1249479725'
p730
tp731
a(S'Jamiroquai'
p732
S'You Give Me Something'
p733
S'http://www.last.fm/music/Jamiroquai/_/You+Give+Me+Something'
p734
S'1249479519'
p735
tp736
a(S'Jamiroquai'
p737
S'Electric Mistress'
p738
S'http://www.last.fm/music/Jamiroquai/_/Electric+Mistress'
p739
S'1249479285'
p740
tp741
a(S'Jamiroquai'
p742
S'Little L'
p743
S'http://www.last.fm/music/Jamiroquai/_/Little+L'
p744
S'1249478988'
p745
tp746
a(S'Jamiroquai'
p747
S'Dynamite'
p748
S'http://www.last.fm/music/Jamiroquai/_/Dynamite'
p749
S'1249478693'
p750
tp751
a(S'Jamiroquai'
p752
S'Love Foolosophy'
p753
S'http://www.last.fm/music/Jamiroquai/_/Love+Foolosophy'
p754
S'1249478465'
p755
tp756
a(S'Jamiroquai'
p757
S'Seven Days in Sunny June'
p758
S'http://www.last.fm/music/Jamiroquai/_/Seven+Days+in+Sunny+June'
p759
S'1249478227'
p760
tp761
a(S'Jamiroquai'
p762
S'You Give Me Something'
p763
S'http://www.last.fm/music/Jamiroquai/_/You+Give+Me+Something'
p764
S'1249478022'
p765
tp766
a(S'Jamiroquai'
p767
S'Dynamite'
p768
S'http://www.last.fm/music/Jamiroquai/_/Dynamite'
p769
S'1249477727'
p770
tp771
a(S'Jamiroquai'
p772
S'Love Foolosophy'
p773
S'http://www.last.fm/music/Jamiroquai/_/Love+Foolosophy'
p774
S'1249477499'
p775
tp776
a(S'Jamiroquai'
p777
S'Little L'
p778
S'http://www.last.fm/music/Jamiroquai/_/Little+L'
p779
S'1249477202'
p780
tp781
a(S'Jamiroquai'
p782
S'Electric Mistress'
p783
S'http://www.last.fm/music/Jamiroquai/_/Electric+Mistress'
p784
S'1249476968'
p785
tp786
a(S'Jamiroquai'
p787
S'Seven Days in Sunny June'
p788
S'http://www.last.fm/music/Jamiroquai/_/Seven+Days+in+Sunny+June'
p789
S'1249476730'
p790
tp791
a(S'Jamiroquai'
p792
S'Electric Mistress'
p793
S'http://www.last.fm/music/Jamiroquai/_/Electric+Mistress'
p794
S'1249476496'
p795
tp796
a(S'Jamiroquai'
p797
S'Love Foolosophy'
p798
S'http://www.last.fm/music/Jamiroquai/_/Love+Foolosophy'
p799
S'1249475771'
p800
tp801
a(S'Jamiroquai'
p802
S'Dynamite'
p803
S'http://www.last.fm/music/Jamiroquai/_/Dynamite'
p804
S'1249475477'
p805
tp806
a(S'Jamiroquai'
p807
S'Seven Days in Sunny June'
p808
S'http://www.last.fm/music/Jamiroquai/_/Seven+Days+in+Sunny+June'
p809
S'1249475239'
p810
tp811
a(S'Jamiroquai'
p812
S'Little L'
p813
S'http://www.last.fm/music/Jamiroquai/_/Little+L'
p814
S'1249474941'
p815
tp816
a(S'Jamiroquai'
p817
S'You Give Me Something'
p818
S'http://www.last.fm/music/Jamiroquai/_/You+Give+Me+Something'
p819
S'1249474735'
p820
tp821
a(S'Jamiroquai'
p822
S'You Give Me Something'
p823
S'http://www.last.fm/music/Jamiroquai/_/You+Give+Me+Something'
p824
S'1249474530'
p825
tp826
a(S'Jamiroquai'
p827
S'Electric Mistress'
p828
S'http://www.last.fm/music/Jamiroquai/_/Electric+Mistress'
p829
S'1249474296'
p830
tp831
a(S'Jamiroquai'
p832
S'Little L'
p833
S'http://www.last.fm/music/Jamiroquai/_/Little+L'
p834
S'1249473999'
p835
tp836
a(S'Jamiroquai'
p837
S'Love Foolosophy'
p838
S'http://www.last.fm/music/Jamiroquai/_/Love+Foolosophy'
p839
S'1249473771'
p840
tp841
a(S'Jamiroquai'
p842
S'Seven Days in Sunny June'
p843
S'http://www.last.fm/music/Jamiroquai/_/Seven+Days+in+Sunny+June'
p844
S'1249473533'
p845
tp846
a(S'Jamiroquai'
p847
S'Dynamite'
p848
S'http://www.last.fm/music/Jamiroquai/_/Dynamite'
p849
S'1249473238'
p850
tp851
a(S'Jamiroquai'
p852
S'Love Foolosophy'
p853
S'http://www.last.fm/music/Jamiroquai/_/Love+Foolosophy'
p854
S'1249424042'
p855
tp856
a(S'Jamiroquai'
p857
S'You Give Me Something'
p858
S'http://www.last.fm/music/Jamiroquai/_/You+Give+Me+Something'
p859
S'1249423756'
p860
tp861
a(S'Roxette'
p862
S'(Do You Get) Excited'
p863
S'http://www.last.fm/music/Roxette/_/(Do+You+Get)+Excited'
p864
S'1249423381'
p865
tp866
a(S'AC/DC'
p867
S'Big Jack'
p868
S'http://www.last.fm/music/AC%2FDC/_/Big+Jack'
p869
S'1249423144'
p870
tp871
a(S'Anthrax'
p872
S'Madhouse'
p873
S'http://www.last.fm/music/Anthrax/_/Madhouse'
p874
S'1249422884'
p875
tp876
a(S'Stone Temple Pilots'
p877
S"Trippin' on a Hole in a Paper Heart"
p878
S'http://www.last.fm/music/Stone+Temple+Pilots/_/Trippin%27+on+a+Hole+in+a+Paper+Heart'
p879
S'1249422697'
p880
tp881
a(S'Alice Cooper'
p882
S'Might As Well Be on Mars'
p883
S'http://www.last.fm/music/Alice+Cooper/_/Might+As+Well+Be+on+Mars'
p884
S'1249422268'
p885
tp886
a(S'Jennifer Hanson'
p887
S'Beautiful Goodbye'
p888
S'http://www.last.fm/music/Jennifer+Hanson/_/Beautiful+Goodbye'
p889
S'1249422009'
p890
tp891
a(S'Peter Frampton'
p892
S'Breaking All The Rules'
p893
S'http://www.last.fm/music/Peter+Frampton/_/Breaking+All+The+Rules'
p894
S'1249421645'
p895
tp896
a(S'Ozzy Osbourne'
p897
S'Black Rain'
p898
S'http://www.last.fm/music/Ozzy+Osbourne/_/Black+Rain'
p899
S'1249421363'
p900
tp901
a(S'Stone Temple Pilots'
p902
S'Ride the Cliche'
p903
S'http://www.last.fm/music/Stone+Temple+Pilots/_/Ride+the+Cliche'
p904
S'1249421165'
p905
tp906
a(S'Pantera'
p907
S'Primal Concrete Sledge'
p908
S'http://www.last.fm/music/Pantera/_/Primal+Concrete+Sledge'
p909
S'1249421032'
p910
tp911
a(S'Cypress Hill'
p912
S'Insane in the Brain'
p913
S'http://www.last.fm/music/Cypress+Hill/_/Insane+in+the+Brain'
p914
S'1249420819'
p915
tp916
a(S'Diamond Head'
p917
S'Give It to Me'
p918
S'http://www.last.fm/music/Diamond+Head/_/Give+It+to+Me'
p919
S'1249420585'
p920
tp921
a(S'Jamiroquai'
p922
S'High Times'
p923
S'http://www.last.fm/music/Jamiroquai/_/High+Times'
p924
S'1249414195'
p925
tp926
a(S'Megadeth'
p927
S'Killing Is My Business... and Business Is Good!'
p928
S'http://www.last.fm/music/Megadeth/_/Killing+Is+My+Business...+and+Business+Is+Good!'
p929
S'1249414007'
p930
tp931
a(S'Whitesnake'
p932
S'Deeper The Love'
p933
S'http://www.last.fm/music/Whitesnake/_/Deeper+The+Love'
p934
S'1249413745'
p935
tp936
a(S'Megadeth'
p937
S'Trust'
p938
S'http://www.last.fm/music/Megadeth/_/Trust'
p939
S'1249413544'
p940
tp941
a(S'Megadeth'
p942
S'Elysian Fields'
p943
S'http://www.last.fm/music/Megadeth/_/Elysian+Fields'
p944
S'1249411689'
p945
tp946
a(S'Live'
p947
S'Feel The Quiet River Rage'
p948
S'http://www.last.fm/music/Live/_/Feel+The+Quiet+River+Rage'
p949
S'1249411413'
p950
tp951
a(S'Jerry Cantrell'
p952
S'Breaks My Back'
p953
S'http://www.last.fm/music/Jerry+Cantrell/_/Breaks+My+Back'
p954
S'1249410988'
p955
tp956
a(S'Live'
p957
S'Voodoo Lady'
p958
S'http://www.last.fm/music/Live/_/Voodoo+Lady'
p959
S'1249410728'
p960
tp961
a(S'Megadeth'
p962
S'Train of Consequences'
p963
S'http://www.last.fm/music/Megadeth/_/Train+of+Consequences'
p964
S'1249410522'
p965
tp966
a(S'Butthole Surfers'
p967
S'Pepper'
p968
S'http://www.last.fm/music/Butthole+Surfers/_/Pepper'
p969
S'1249410225'
p970
tp971
a(S'Diamond Head'
p972
S'Killing Me'
p973
S'http://www.last.fm/music/Diamond+Head/_/Killing+Me'
p974
S'1249409835'
p975
tp976
a(S'Metallica'
p977
S'Stone Cold Crazy'
p978
S'http://www.last.fm/music/Metallica/_/Stone+Cold+Crazy'
p979
S'1249409697'
p980
tp981
a(S'Mother Love Bone'
p982
S'Half Ass Monkey Boy'
p983
S'http://www.last.fm/music/Mother+Love+Bone/_/Half+Ass+Monkey+Boy'
p984
S'1249409496'
p985
tp986
a(S'Velvet Revolver'
p987
S'Get Out The Door'
p988
S'http://www.last.fm/music/Velvet+Revolver/_/Get+Out+The+Door'
p989
S'1249409301'
p990
tp991
a(S'Iommi'
p992
S'The Spell'
p993
S'http://www.last.fm/music/Iommi/_/The+Spell'
p994
S'1249409003'
p995
tp996
a(S'Alice in Chains'
p997
S'Love Song'
p998
S'http://www.last.fm/music/Alice+in+Chains/_/Love+Song'
p999
S'1249408779'
p1000
tp1001
a.