(lp1
(S'Rainbow'
p2
S'Kill the King'
p3
S'http://www.last.fm/music/Rainbow/_/Kill+the+King'
p4
S'1375123996'
p5
tp6
a(S'B.B. King & Eric Clapton'
p7
S'Riding With the King'
p8
S'http://www.last.fm/music/B.B.+King+&+Eric+Clapton/_/Riding+With+the+King'
p9
S'1375123734'
p10
tp11
a(S'Daft Punk'
p12
S'Instant Crush (feat. Julian Casablancas)'
p13
S'http://www.last.fm/music/Daft+Punk/_/Instant+Crush+(feat.+Julian+Casablancas)'
p14
S'1375123397'
p15
tp16
a(S'Alice in Chains'
p17
S'Breath on a Window'
p18
S'http://www.last.fm/music/Alice+in+Chains/_/Breath+on+a+Window'
p19
S'1375123078'
p20
tp21
a(S'Grindhouse Hotel'
p22
S'START IT NOW'
p23
S'http://www.last.fm/music/Grindhouse+Hotel/_/START+IT+NOW'
p24
S'1375122831'
p25
tp26
a(S'Alice in Chains'
p27
S'Stone'
p28
S'http://www.last.fm/music/Alice+in+Chains/_/Stone'
p29
S'1375122570'
p30
tp31
a(S'Alice in Chains'
p32
S'The Devil Put Dinosaurs Here'
p33
S'http://www.last.fm/music/Alice+in+Chains/_/The+Devil+Put+Dinosaurs+Here'
p34
S'1375122170'
p35
tp36
a(S'Daft Punk'
p37
S'Get Lucky (feat. Pharrell Williams)'
p38
S'http://www.last.fm/music/Daft+Punk/_/Get+Lucky+(feat.+Pharrell+Williams)'
p39
S'1375121802'
p40
tp41
a(S'Alice in Chains'
p42
S'Hollow'
p43
S'http://www.last.fm/music/Alice+in+Chains/_/Hollow'
p44
S'1375120581'
p45
tp46
a(S'Eric Clapton'
p47
S'Superman Inside'
p48
S'http://www.last.fm/music/Eric+Clapton/_/Superman+Inside'
p49
S'1375120271'
p50
tp51
a(S'Diamond Head'
p52
S'Muddy Waters'
p53
S'http://www.last.fm/music/Diamond+Head/_/Muddy+Waters'
p54
S'1375119996'
p55
tp56
a(S'Alice in Chains'
p57
S'Scalpel'
p58
S'http://www.last.fm/music/Alice+in+Chains/_/Scalpel'
p59
S'1375119672'
p60
tp61
a(S'Deep Purple'
p62
S'Burn (2004 Digital Remaster)'
p63
S'http://www.last.fm/music/Deep+Purple/_/Burn+(2004+Digital+Remaster)'
p64
S'1374863699'
p65
tp66
a(S'Alice in Chains'
p67
S'Scalpel'
p68
S'http://www.last.fm/music/Alice+in+Chains/_/Scalpel'
p69
S'1374863376'
p70
tp71
a(S'Soundgarden'
p72
S'Jesus Christ Pose'
p73
S'http://www.last.fm/music/Soundgarden/_/Jesus+Christ+Pose'
p74
S'1374863022'
p75
tp76
a(S'Heart'
p77
S'Stairway to Heaven (Live At The Kennedy Center Honors)'
p78
S'http://www.last.fm/music/Heart/_/Stairway+to+Heaven+(Live+At+The+Kennedy+Center+Honors)'
p79
S'1374862540'
p80
tp81
a(S'Soundgarden'
p82
S'Attrition'
p83
S'http://www.last.fm/music/Soundgarden/_/Attrition'
p84
S'1374862364'
p85
tp86
a(S'R.E.M.'
p87
S"What's the Frequency, Kenneth?"
p88
S'http://www.last.fm/music/R.E.M./_/What%27s+the+Frequency,+Kenneth%3F'
p89
S'1374862127'
p90
tp91
a(S'Alice Cooper'
p92
S"Nothing's Free"
p93
S'http://www.last.fm/music/Alice+Cooper/_/Nothing%27s+Free'
p94
S'1374861823'
p95
tp96
a(S'Dio'
p97
S'Push'
p98
S'http://www.last.fm/music/Dio/_/Push'
p99
S'1374860626'
p100
tp101
a(S'The Gone Jackals'
p102
S'Born Bad'
p103
S'http://www.last.fm/music/The+Gone+Jackals/_/Born+Bad'
p104
S'1374860418'
p105
tp106
a(S'Heart'
p107
S'Alone'
p108
S'http://www.last.fm/music/Heart/_/Alone'
p109
S'1374860196'
p110
tp111
a(S'ZZ Top'
p112
S'Cherry Red'
p113
S'http://www.last.fm/music/ZZ+Top/_/Cherry+Red'
p114
S'1374859914'
p115
tp116
a(S'Alice in Chains'
p117
S'Breath on a Window'
p118
S'http://www.last.fm/music/Alice+in+Chains/_/Breath+on+a+Window'
p119
S'1374859588'
p120
tp121
a(S'Live'
p122
S'Feel The Quiet River Rage'
p123
S'http://www.last.fm/music/Live/_/Feel+The+Quiet+River+Rage'
p124
S'1374858957'
p125
tp126
a(S'R.E.M.'
p127
S"What's the Frequency, Kenneth?"
p128
S'http://www.last.fm/music/R.E.M./_/What%27s+the+Frequency,+Kenneth%3F'
p129
S'1374858712'
p130
tp131
a(S'Alice in Chains'
p132
S'Breath on a Window'
p133
S'http://www.last.fm/music/Alice+in+Chains/_/Breath+on+a+Window'
p134
S'1374853734'
p135
tp136
a(S'Iron Maiden'
p137
S"The Clansman (Live '01)"
p138
S'http://www.last.fm/music/Iron+Maiden/_/The+Clansman+(Live+%2701)'
p139
S'1374853520'
p140
tp141
a(S'The Gone Jackals'
p142
S'Born Bad'
p143
S'http://www.last.fm/music/The+Gone+Jackals/_/Born+Bad'
p144
S'1374845853'
p145
tp146
a(S'Deep Purple'
p147
S'Burn (2004 Digital Remaster)'
p148
S'http://www.last.fm/music/Deep+Purple/_/Burn+(2004+Digital+Remaster)'
p149
S'1374845485'
p150
tp151
a(S'Heart'
p152
S'Stairway to Heaven (Live At The Kennedy Center Honors)'
p153
S'http://www.last.fm/music/Heart/_/Stairway+to+Heaven+(Live+At+The+Kennedy+Center+Honors)'
p154
S'1374845004'
p155
tp156
a(S'ZZ Top'
p157
S'Jesus Just Left Chicago'
p158
S'http://www.last.fm/music/ZZ+Top/_/Jesus+Just+Left+Chicago'
p159
S'1374844790'
p160
tp161
a(S'Alice in Chains'
p162
S'Breath on a Window'
p163
S'http://www.last.fm/music/Alice+in+Chains/_/Breath+on+a+Window'
p164
S'1374844467'
p165
tp166
a(S'Alice in Chains'
p167
S'Voices'
p168
S'http://www.last.fm/music/Alice+in+Chains/_/Voices'
p169
S'1374844245'
p170
tp171
a(S'Alice in Chains'
p172
S'Breath on a Window'
p173
S'http://www.last.fm/music/Alice+in+Chains/_/Breath+on+a+Window'
p174
S'1374843923'
p175
tp176
a(S'Anthrax'
p177
S'Room For One More'
p178
S'http://www.last.fm/music/Anthrax/_/Room+For+One+More'
p179
S'1374778306'
p180
tp181
a(S'Rainbow'
p182
S'Kill the King'
p183
S'http://www.last.fm/music/Rainbow/_/Kill+the+King'
p184
S'1374778036'
p185
tp186
a(S'Daft Punk'
p187
S'Get Lucky (feat. Pharrell Williams)'
p188
S'http://www.last.fm/music/Daft+Punk/_/Get+Lucky+(feat.+Pharrell+Williams)'
p189
S'1374777668'
p190
tp191
a(S'Daft Punk'
p192
S'Give Life Back to Music'
p193
S'http://www.last.fm/music/Daft+Punk/_/Give+Life+Back+to+Music'
p194
S'1374777392'
p195
tp196
a(S'Daft Punk'
p197
S'Instant Crush (feat. Julian Casablancas)'
p198
S'http://www.last.fm/music/Daft+Punk/_/Instant+Crush+(feat.+Julian+Casablancas)'
p199
S'1374777054'
p200
tp201
a(S'Diamond Head'
p202
S'This Planet and Me'
p203
S'http://www.last.fm/music/Diamond+Head/_/This+Planet+and+Me'
p204
S'1374776758'
p205
tp206
a(S'Alice in Chains'
p207
S'Breath on a Window'
p208
S'http://www.last.fm/music/Alice+in+Chains/_/Breath+on+a+Window'
p209
S'1374776173'
p210
tp211
a(S'Chickenfoot'
p212
S'Sexy Little Thing'
p213
S'http://www.last.fm/music/Chickenfoot/_/Sexy+Little+Thing'
p214
S'1374775920'
p215
tp216
a(S'Anthrax'
p217
S'Only'
p218
S'http://www.last.fm/music/Anthrax/_/Only'
p219
S'1374775625'
p220
tp221
a(S'Derek and the Dominos'
p222
S'Layla'
p223
S'http://www.last.fm/music/Derek+and+the+Dominos/_/Layla'
p224
S'1374775195'
p225
tp226
a(S'The Cult'
p227
S'Fire Woman'
p228
S'http://www.last.fm/music/The+Cult/_/Fire+Woman'
p229
S'1374774884'
p230
tp231
a(S'The Cult'
p232
S'Edie (Ciao Baby)'
p233
S'http://www.last.fm/music/The+Cult/_/Edie+(Ciao+Baby)'
p234
S'1374774637'
p235
tp236
a(S'B.B. King & Eric Clapton'
p237
S'Riding With the King'
p238
S'http://www.last.fm/music/B.B.+King+&+Eric+Clapton/_/Riding+With+the+King'
p239
S'1374774375'
p240
tp241
a(S'Eric Clapton'
p242
S"My Father's Eyes"
p243
S'http://www.last.fm/music/Eric+Clapton/_/My+Father%27s+Eyes'
p244
S'1374774060'
p245
tp246
a(S'Grindhouse Hotel'
p247
S'START IT NOW'
p248
S'http://www.last.fm/music/Grindhouse+Hotel/_/START+IT+NOW'
p249
S'1374773727'
p250
tp251
a(S'The Cult'
p252
S'Fire Woman'
p253
S'http://www.last.fm/music/The+Cult/_/Fire+Woman'
p254
S'1374773416'
p255
tp256
a(S'Eric Clapton'
p257
S'Promises'
p258
S'http://www.last.fm/music/Eric+Clapton/_/Promises'
p259
S'1374773237'
p260
tp261
a(S'B.B. King & Eric Clapton'
p262
S'Riding With the King'
p263
S'http://www.last.fm/music/B.B.+King+&+Eric+Clapton/_/Riding+With+the+King'
p264
S'1374772974'
p265
tp266
a(S'Army Of Anyone'
p267
S'Generation'
p268
S'http://www.last.fm/music/Army+Of+Anyone/_/Generation'
p269
S'1374772765'
p270
tp271
a(S'Anthrax'
p272
S'Room For One More'
p273
S'http://www.last.fm/music/Anthrax/_/Room+For+One+More'
p274
S'1374772470'
p275
tp276
a(S'Daft Punk'
p277
S'Giorgio by Moroder'
p278
S'http://www.last.fm/music/Daft+Punk/_/Giorgio+by+Moroder'
p279
S'1374772212'
p280
tp281
a(S'Eric Clapton'
p282
S'Superman Inside'
p283
S'http://www.last.fm/music/Eric+Clapton/_/Superman+Inside'
p284
S'1374771905'
p285
tp286
a(S'Alice in Chains'
p287
S'Choke'
p288
S'http://www.last.fm/music/Alice+in+Chains/_/Choke'
p289
S'1374771563'
p290
tp291
a(S'Alice in Chains'
p292
S'Hollow'
p293
S'http://www.last.fm/music/Alice+in+Chains/_/Hollow'
p294
S'1374771220'
p295
tp296
a(S'Derek and the Dominos'
p297
S'Layla'
p298
S'http://www.last.fm/music/Derek+and+the+Dominos/_/Layla'
p299
S'1374770791'
p300
tp301
a(S'Daft Punk'
p302
S'Fragments of Time (feat. Todd Edwards)'
p303
S'http://www.last.fm/music/Daft+Punk/_/Fragments+of+Time+(feat.+Todd+Edwards)'
p304
S'1374770513'
p305
tp306
a(S'Daft Punk'
p307
S'Contact'
p308
S'http://www.last.fm/music/Daft+Punk/_/Contact'
p309
S'1374770130'
p310
tp311
a(S'Alice in Chains'
p312
S'Lab Monkey'
p313
S'http://www.last.fm/music/Alice+in+Chains/_/Lab+Monkey'
p314
S'1374769773'
p315
tp316
a(S'Daft Punk'
p317
S'Give Life Back to Music'
p318
S'http://www.last.fm/music/Daft+Punk/_/Give+Life+Back+to+Music'
p319
S'1374759596'
p320
tp321
a(S'Alice in Chains'
p322
S'Scalpel'
p323
S'http://www.last.fm/music/Alice+in+Chains/_/Scalpel'
p324
S'1374759275'
p325
tp326
a(S'Daft Punk'
p327
S'Instant Crush (feat. Julian Casablancas)'
p328
S'http://www.last.fm/music/Daft+Punk/_/Instant+Crush+(feat.+Julian+Casablancas)'
p329
S'1374758939'
p330
tp331
a(S'Eric Clapton'
p332
S"Travelin' Light"
p333
S'http://www.last.fm/music/Eric+Clapton/_/Travelin%27+Light'
p334
S'1374758679'
p335
tp336
a(S'Alice in Chains'
p337
S'The Devil Put Dinosaurs Here'
p338
S'http://www.last.fm/music/Alice+in+Chains/_/The+Devil+Put+Dinosaurs+Here'
p339
S'1374758282'
p340
tp341
a(S'Yes'
p342
S'Changes'
p343
S'http://www.last.fm/music/Yes/_/Changes'
p344
S'1374757902'
p345
tp346
a(S'Army Of Anyone'
p347
S'A Better Place'
p348
S'http://www.last.fm/music/Army+Of+Anyone/_/A+Better+Place'
p349
S'1374757605'
p350
tp351
a(S'Daft Punk'
p352
S'Lose Yourself to Dance (feat. Pharrell Williams)'
p353
S'http://www.last.fm/music/Daft+Punk/_/Lose+Yourself+to+Dance+(feat.+Pharrell+Williams)'
p354
S'1374757252'
p355
tp356
a(S'Eric Clapton'
p357
S"I Can't Stand It"
p358
S'http://www.last.fm/music/Eric+Clapton/_/I+Can%27t+Stand+It'
p359
S'1374757004'
p360
tp361
a(S'Alice in Chains'
p362
S'Breath on a Window'
p363
S'http://www.last.fm/music/Alice+in+Chains/_/Breath+on+a+Window'
p364
S'1374756685'
p365
tp366
a(S'Daft Punk'
p367
S'Lose Yourself to Dance (feat. Pharrell Williams)'
p368
S'http://www.last.fm/music/Daft+Punk/_/Lose+Yourself+to+Dance+(feat.+Pharrell+Williams)'
p369
S'1374755557'
p370
tp371
a(S'Eric Clapton'
p372
S"I Can't Stand It"
p373
S'http://www.last.fm/music/Eric+Clapton/_/I+Can%27t+Stand+It'
p374
S'1374755309'
p375
tp376
a(S'Alice in Chains'
p377
S'Breath on a Window'
p378
S'http://www.last.fm/music/Alice+in+Chains/_/Breath+on+a+Window'
p379
S'1374754987'
p380
tp381
a(S'B.B. King & Eric Clapton'
p382
S'Riding With the King'
p383
S'http://www.last.fm/music/B.B.+King+&+Eric+Clapton/_/Riding+With+the+King'
p384
S'1374670228'
p385
tp386
a(S'Eric Clapton'
p387
S'Promises'
p388
S'http://www.last.fm/music/Eric+Clapton/_/Promises'
p389
S'1374670048'
p390
tp391
a(S'Anthrax'
p392
S'Only'
p393
S'http://www.last.fm/music/Anthrax/_/Only'
p394
S'1374669752'
p395
tp396
a(S'Eric Clapton'
p397
S"Travelin' Light"
p398
S'http://www.last.fm/music/Eric+Clapton/_/Travelin%27+Light'
p399
S'1374669493'
p400
tp401
a(S'Army Of Anyone'
p402
S'A Better Place'
p403
S'http://www.last.fm/music/Army+Of+Anyone/_/A+Better+Place'
p404
S'1374669194'
p405
tp406
a(S'Yes'
p407
S'Changes'
p408
S'http://www.last.fm/music/Yes/_/Changes'
p409
S'1374668503'
p410
tp411
a(S'Army Of Anyone'
p412
S'Generation'
p413
S'http://www.last.fm/music/Army+Of+Anyone/_/Generation'
p414
S'1374668293'
p415
tp416
a(S'Alice in Chains'
p417
S'Stone'
p418
S'http://www.last.fm/music/Alice+in+Chains/_/Stone'
p419
S'1374668030'
p420
tp421
a(S'Rainbow'
p422
S'Kill the King'
p423
S'http://www.last.fm/music/Rainbow/_/Kill+the+King'
p424
S'1374667759'
p425
tp426
a(S'Daft Punk'
p427
S'Lose Yourself to Dance (feat. Pharrell Williams)'
p428
S'http://www.last.fm/music/Daft+Punk/_/Lose+Yourself+to+Dance+(feat.+Pharrell+Williams)'
p429
S'1374667405'
p430
tp431
a(S'Chickenfoot'
p432
S'Sexy Little Thing'
p433
S'http://www.last.fm/music/Chickenfoot/_/Sexy+Little+Thing'
p434
S'1374667153'
p435
tp436
a(S'Alice in Chains'
p437
S'Hollow'
p438
S'http://www.last.fm/music/Alice+in+Chains/_/Hollow'
p439
S'1374666812'
p440
tp441
a(S'Daft Punk'
p442
S'Fragments of Time (feat. Todd Edwards)'
p443
S'http://www.last.fm/music/Daft+Punk/_/Fragments+of+Time+(feat.+Todd+Edwards)'
p444
S'1374612621'
p445
tp446
a(S'Alice in Chains'
p447
S'Scalpel'
p448
S'http://www.last.fm/music/Alice+in+Chains/_/Scalpel'
p449
S'1374612301'
p450
tp451
a(S'Alice in Chains'
p452
S'Voices'
p453
S'http://www.last.fm/music/Alice+in+Chains/_/Voices'
p454
S'1374611958'
p455
tp456
a(S'Alice in Chains'
p457
S'Breath on a Window'
p458
S'http://www.last.fm/music/Alice+in+Chains/_/Breath+on+a+Window'
p459
S'1374611637'
p460
tp461
a(S'Alice in Chains'
p462
S'Low Ceiling'
p463
S'http://www.last.fm/music/Alice+in+Chains/_/Low+Ceiling'
p464
S'1374611320'
p465
tp466
a(S'Eric Clapton'
p467
S'Superman Inside'
p468
S'http://www.last.fm/music/Eric+Clapton/_/Superman+Inside'
p469
S'1374611013'
p470
tp471
a(S'Daft Punk'
p472
S'Get Lucky (feat. Pharrell Williams)'
p473
S'http://www.last.fm/music/Daft+Punk/_/Get+Lucky+(feat.+Pharrell+Williams)'
p474
S'1374610643'
p475
tp476
a(S'Daft Punk'
p477
S'Giorgio by Moroder'
p478
S'http://www.last.fm/music/Daft+Punk/_/Giorgio+by+Moroder'
p479
S'1374604965'
p480
tp481
a(S'Daft Punk'
p482
S'Instant Crush (feat. Julian Casablancas)'
p483
S'http://www.last.fm/music/Daft+Punk/_/Instant+Crush+(feat.+Julian+Casablancas)'
p484
S'1374604627'
p485
tp486
a(S'Alice in Chains'
p487
S'Choke'
p488
S'http://www.last.fm/music/Alice+in+Chains/_/Choke'
p489
S'1374604283'
p490
tp491
a(S'Daft Punk'
p492
S'Contact'
p493
S'http://www.last.fm/music/Daft+Punk/_/Contact'
p494
S'1374603903'
p495
tp496
a(S'Grindhouse Hotel'
p497
S'START IT NOW'
p498
S'http://www.last.fm/music/Grindhouse+Hotel/_/START+IT+NOW'
p499
S'1374603655'
p500
tp501
a(S'Rainbow'
p502
S'Catch the Rainbow'
p503
S'http://www.last.fm/music/Rainbow/_/Catch+the+Rainbow'
p504
S'1374603262'
p505
tp506
a(S'Eric Clapton'
p507
S"My Father's Eyes"
p508
S'http://www.last.fm/music/Eric+Clapton/_/My+Father%27s+Eyes'
p509
S'1374602949'
p510
tp511
a(S'Alice in Chains'
p512
S'The Devil Put Dinosaurs Here'
p513
S'http://www.last.fm/music/Alice+in+Chains/_/The+Devil+Put+Dinosaurs+Here'
p514
S'1374602551'
p515
tp516
a(S'Derek and the Dominos'
p517
S'Layla'
p518
S'http://www.last.fm/music/Derek+and+the+Dominos/_/Layla'
p519
S'1374602122'
p520
tp521
a(S'Eric Clapton'
p522
S"I Can't Stand It"
p523
S'http://www.last.fm/music/Eric+Clapton/_/I+Can%27t+Stand+It'
p524
S'1374601870'
p525
tp526
a(S'Daft Punk'
p527
S'Beyond'
p528
S'http://www.last.fm/music/Daft+Punk/_/Beyond'
p529
S'1374601581'
p530
tp531
a(S'Alice in Chains'
p532
S'Lab Monkey'
p533
S'http://www.last.fm/music/Alice+in+Chains/_/Lab+Monkey'
p534
S'1374601124'
p535
tp536
a(S'Daft Punk'
p537
S'Give Life Back to Music'
p538
S'http://www.last.fm/music/Daft+Punk/_/Give+Life+Back+to+Music'
p539
S'1374600838'
p540
tp541
a(S'Anthrax'
p542
S'Room For One More'
p543
S'http://www.last.fm/music/Anthrax/_/Room+For+One+More'
p544
S'1374585831'
p545
tp546
a(S'B.B. King & Eric Clapton'
p547
S'Riding With the King'
p548
S'http://www.last.fm/music/B.B.+King+&+Eric+Clapton/_/Riding+With+the+King'
p549
S'1374585568'
p550
tp551
a(S'Eric Clapton'
p552
S'Promises'
p553
S'http://www.last.fm/music/Eric+Clapton/_/Promises'
p554
S'1374585388'
p555
tp556
a(S'Eric Clapton'
p557
S"Travelin' Light"
p558
S'http://www.last.fm/music/Eric+Clapton/_/Travelin%27+Light'
p559
S'1374576337'
p560
tp561
a(S'Alice in Chains'
p562
S'Hollow'
p563
S'http://www.last.fm/music/Alice+in+Chains/_/Hollow'
p564
S'1374525339'
p565
tp566
a(S'Alice in Chains'
p567
S'Breath on a Window'
p568
S'http://www.last.fm/music/Alice+in+Chains/_/Breath+on+a+Window'
p569
S'1374522749'
p570
tp571
a(S'Daft Punk'
p572
S'Instant Crush (feat. Julian Casablancas)'
p573
S'http://www.last.fm/music/Daft+Punk/_/Instant+Crush+(feat.+Julian+Casablancas)'
p574
S'1374522412'
p575
tp576
a(S'Daft Punk'
p577
S'Instant Crush (feat. Julian Casablancas)'
p578
S'http://www.last.fm/music/Daft+Punk/_/Instant+Crush+(feat.+Julian+Casablancas)'
p579
S'1374519869'
p580
tp581
a(S'Rainbow'
p582
S'Kill the King'
p583
S'http://www.last.fm/music/Rainbow/_/Kill+the+King'
p584
S'1374519596'
p585
tp586
a(S'Anthrax'
p587
S'Room For One More'
p588
S'http://www.last.fm/music/Anthrax/_/Room+For+One+More'
p589
S'1374519286'
p590
tp591
a(S'Anthrax'
p592
S'Only'
p593
S'http://www.last.fm/music/Anthrax/_/Only'
p594
S'1374518987'
p595
tp596
a(S'Eric Clapton'
p597
S"I Can't Stand It"
p598
S'http://www.last.fm/music/Eric+Clapton/_/I+Can%27t+Stand+It'
p599
S'1374518737'
p600
tp601
a(S'Daft Punk'
p602
S'Beyond'
p603
S'http://www.last.fm/music/Daft+Punk/_/Beyond'
p604
S'1374518448'
p605
tp606
a(S'Anthrax'
p607
S'Antisocial'
p608
S'http://www.last.fm/music/Anthrax/_/Antisocial'
p609
S'1374518183'
p610
tp611
a(S'Daft Punk'
p612
S'Fragments of Time (feat. Todd Edwards)'
p613
S'http://www.last.fm/music/Daft+Punk/_/Fragments+of+Time+(feat.+Todd+Edwards)'
p614
S'1374517894'
p615
tp616
a(S'Daft Punk'
p617
S'Giorgio by Moroder'
p618
S'http://www.last.fm/music/Daft+Punk/_/Giorgio+by+Moroder'
p619
S'1374510849'
p620
tp621
a(S'Anthrax'
p622
S'Random Acts Of Senseless Violence'
p623
S'http://www.last.fm/music/Anthrax/_/Random+Acts+Of+Senseless+Violence'
p624
S'1374510606'
p625
tp626
a(S'Daft Punk'
p627
S'Contact'
p628
S'http://www.last.fm/music/Daft+Punk/_/Contact'
p629
S'1374510226'
p630
tp631
a(S'Alice in Chains'
p632
S'Scalpel'
p633
S'http://www.last.fm/music/Alice+in+Chains/_/Scalpel'
p634
S'1374509905'
p635
tp636
a(S'Daft Punk'
p637
S'Lose Yourself to Dance (feat. Pharrell Williams)'
p638
S'http://www.last.fm/music/Daft+Punk/_/Lose+Yourself+to+Dance+(feat.+Pharrell+Williams)'
p639
S'1374509551'
p640
tp641
a(S'Rainbow'
p642
S'Catch the Rainbow'
p643
S'http://www.last.fm/music/Rainbow/_/Catch+the+Rainbow'
p644
S'1374500330'
p645
tp646
a(S'Daft Punk'
p647
S'Get Lucky (feat. Pharrell Williams)'
p648
S'http://www.last.fm/music/Daft+Punk/_/Get+Lucky+(feat.+Pharrell+Williams)'
p649
S'1374499962'
p650
tp651
a(S'Derek and the Dominos'
p652
S'Layla'
p653
S'http://www.last.fm/music/Derek+and+the+Dominos/_/Layla'
p654
S'1374499532'
p655
tp656
a(S'Eric Clapton'
p657
S'Superman Inside'
p658
S'http://www.last.fm/music/Eric+Clapton/_/Superman+Inside'
p659
S'1374499226'
p660
tp661
a(S'Eric Clapton'
p662
S"Travelin' Light"
p663
S'http://www.last.fm/music/Eric+Clapton/_/Travelin%27+Light'
p664
S'1374498966'
p665
tp666
a(S'Daft Punk'
p667
S'Give Life Back to Music'
p668
S'http://www.last.fm/music/Daft+Punk/_/Give+Life+Back+to+Music'
p669
S'1374498692'
p670
tp671
a(S'Alice in Chains'
p672
S'Stone'
p673
S'http://www.last.fm/music/Alice+in+Chains/_/Stone'
p674
S'1374498430'
p675
tp676
a(S'B.B. King & Eric Clapton'
p677
S'Riding With the King'
p678
S'http://www.last.fm/music/B.B.+King+&+Eric+Clapton/_/Riding+With+the+King'
p679
S'1374498168'
p680
tp681
a(S'Eric Clapton'
p682
S'Promises'
p683
S'http://www.last.fm/music/Eric+Clapton/_/Promises'
p684
S'1374497988'
p685
tp686
a(S'Alice in Chains'
p687
S'Choke'
p688
S'http://www.last.fm/music/Alice+in+Chains/_/Choke'
p689
S'1374497644'
p690
tp691
a(S'Eric Clapton'
p692
S"My Father's Eyes"
p693
S'http://www.last.fm/music/Eric+Clapton/_/My+Father%27s+Eyes'
p694
S'1374497331'
p695
tp696
a(S'Alice in Chains'
p697
S'Lab Monkey'
p698
S'http://www.last.fm/music/Alice+in+Chains/_/Lab+Monkey'
p699
S'1374496973'
p700
tp701
a(S'Alice in Chains'
p702
S'Voices'
p703
S'http://www.last.fm/music/Alice+in+Chains/_/Voices'
p704
S'1374496630'
p705
tp706
a(S'Alice in Chains'
p707
S'The Devil Put Dinosaurs Here'
p708
S'http://www.last.fm/music/Alice+in+Chains/_/The+Devil+Put+Dinosaurs+Here'
p709
S'1374496230'
p710
tp711
a(S'Alice in Chains'
p712
S'Hollow'
p713
S'http://www.last.fm/music/Alice+in+Chains/_/Hollow'
p714
S'1374495888'
p715
tp716
a(S'Daft Punk'
p717
S'Instant Crush (feat. Julian Casablancas)'
p718
S'http://www.last.fm/music/Daft+Punk/_/Instant+Crush+(feat.+Julian+Casablancas)'
p719
S'1374495115'
p720
tp721
a(S'B.B. King'
p722
S'Tell Me Baby'
p723
S'http://www.last.fm/music/B.B.+King/_/Tell+Me+Baby'
p724
S'1374271405'
p725
tp726
a(S'B.B. King'
p727
S'Blues Man'
p728
S'http://www.last.fm/music/B.B.+King/_/Blues+Man'
p729
S'1374271081'
p730
tp731
a(S'Black Sabbath'
p732
S'Wishing Well'
p733
S'http://www.last.fm/music/Black+Sabbath/_/Wishing+Well'
p734
S'1374270882'
p735
tp736
a(S'Dio'
p737
S'Push'
p738
S'http://www.last.fm/music/Dio/_/Push'
p739
S'1374270632'
p740
tp741
a(S'Eric Clapton'
p742
S'Lay Down Sally'
p743
S'http://www.last.fm/music/Eric+Clapton/_/Lay+Down+Sally'
p744
S'1374270377'
p745
tp746
a(S'Eric Clapton'
p747
S"My Father's Eyes"
p748
S'http://www.last.fm/music/Eric+Clapton/_/My+Father%27s+Eyes'
p749
S'1374270051'
p750
tp751
a(S'Eric Clapton'
p752
S"My Father's Eyes"
p753
S'http://www.last.fm/music/Eric+Clapton/_/My+Father%27s+Eyes'
p754
S'1374262706'
p755
tp756
a(S'Eric Clapton'
p757
S'Every Little Thing'
p758
S'http://www.last.fm/music/Eric+Clapton/_/Every+Little+Thing'
p759
S'1374262637'
p760
tp761
a(S'Eric Clapton'
p762
S'No Alibis'
p763
S'http://www.last.fm/music/Eric+Clapton/_/No+Alibis'
p764
S'1374262159'
p765
tp766
a(S'Eric Clapton'
p767
S'Lay Down Sally'
p768
S'http://www.last.fm/music/Eric+Clapton/_/Lay+Down+Sally'
p769
S'1374261784'
p770
tp771
a(S'Eric Clapton'
p772
S'Blues Before Sunrise (live)'
p773
S'http://www.last.fm/music/Eric+Clapton/_/Blues+Before+Sunrise+(live)'
p774
S'1374261602'
p775
tp776
a(S'Eric Clapton'
p777
S'Mean Old Frisco'
p778
S'http://www.last.fm/music/Eric+Clapton/_/Mean+Old+Frisco'
p779
S'1374261316'
p780
tp781
a(S'Eric Clapton'
p782
S'Superman Inside'
p783
S'http://www.last.fm/music/Eric+Clapton/_/Superman+Inside'
p784
S'1374261007'
p785
tp786
a(S'Eric Clapton'
p787
S'Lonesome And A Long Way From Home'
p788
S'http://www.last.fm/music/Eric+Clapton/_/Lonesome+And+A+Long+Way+From+Home'
p789
S'1374260888'
p790
tp791
a(S'Eric Clapton'
p792
S"My Father's Eyes"
p793
S'http://www.last.fm/music/Eric+Clapton/_/My+Father%27s+Eyes'
p794
S'1374260333'
p795
tp796
a(S'Eric Clapton'
p797
S"My Father's Eyes"
p798
S'http://www.last.fm/music/Eric+Clapton/_/My+Father%27s+Eyes'
p799
S'1374260032'
p800
tp801
a(S'Daft Punk'
p802
S'Contact'
p803
S'http://www.last.fm/music/Daft+Punk/_/Contact'
p804
S'1373981608'
p805
tp806
a(S'Daft Punk'
p807
S'Contact'
p808
S'http://www.last.fm/music/Daft+Punk/_/Contact'
p809
S'1373981608'
p810
tp811
a(S'Muddy Waters'
p812
S'Canary Bird'
p813
S'http://www.last.fm/music/Muddy+Waters/_/Canary+Bird'
p814
S'1373630242'
p815
tp816
a(S"Howlin' Wolf"
p817
S'Louise'
p818
S'http://www.last.fm/music/Howlin%27+Wolf/_/Louise'
p819
S'1373630072'
p820
tp821
a(S"Howlin' Wolf"
p822
S'Nature'
p823
S'http://www.last.fm/music/Howlin%27+Wolf/_/Nature'
p824
S'1373629902'
p825
tp826
a(S"Howlin' Wolf"
p827
S'My Country Sugar Mama'
p828
S'http://www.last.fm/music/Howlin%27+Wolf/_/My+Country+Sugar+Mama'
p829
S'1373629741'
p830
tp831
a(S'Muddy Waters'
p832
S'Kind Hearted Woman'
p833
S'http://www.last.fm/music/Muddy+Waters/_/Kind+Hearted+Woman'
p834
S'1373629580'
p835
tp836
a(S'Sonny Boy Williamson'
p837
S'Close To Me (Stereo Version)'
p838
S'http://www.last.fm/music/Sonny+Boy+Williamson/_/Close+To+Me+(Stereo+Version)'
p839
S'1373629385'
p840
tp841
a(S'Sonny Boy Williamson'
p842
S'Too Old To Think (Mono Version)'
p843
S'http://www.last.fm/music/Sonny+Boy+Williamson/_/Too+Old+To+Think+(Mono+Version)'
p844
S'1373629208'
p845
tp846
a(S'Daft Punk'
p847
S'Motherboard'
p848
S'http://www.last.fm/music/Daft+Punk/_/Motherboard'
p849
S'1373577683'
p850
tp851
a(S'Alice in Chains'
p852
S'Pretty Done'
p853
S'http://www.last.fm/music/Alice+in+Chains/_/Pretty+Done'
p854
S'1373577408'
p855
tp856
a(S'Rainbow'
p857
S'Catch the Rainbow'
p858
S'http://www.last.fm/music/Rainbow/_/Catch+the+Rainbow'
p859
S'1373577016'
p860
tp861
a(S'Alice in Chains'
p862
S'Scalpel'
p863
S'http://www.last.fm/music/Alice+in+Chains/_/Scalpel'
p864
S'1373570886'
p865
tp866
a(S'Alice in Chains'
p867
S'Choke'
p868
S'http://www.last.fm/music/Alice+in+Chains/_/Choke'
p869
S'1373560279'
p870
tp871
a(S'Daft Punk'
p872
S'Get Lucky (feat. Pharrell Williams)'
p873
S'http://www.last.fm/music/Daft+Punk/_/Get+Lucky+(feat.+Pharrell+Williams)'
p874
S'1373493323'
p875
tp876
a(S'Alice in Chains'
p877
S'Voices'
p878
S'http://www.last.fm/music/Alice+in+Chains/_/Voices'
p879
S'1373492982'
p880
tp881
a(S'Rainbow'
p882
S'Kill the King'
p883
S'http://www.last.fm/music/Rainbow/_/Kill+the+King'
p884
S'1373486003'
p885
tp886
a(S'Daft Punk'
p887
S'Giorgio by Moroder'
p888
S'http://www.last.fm/music/Daft+Punk/_/Giorgio+by+Moroder'
p889
S'1373483684'
p890
tp891
a(S'Alice in Chains'
p892
S'Low Ceiling'
p893
S'http://www.last.fm/music/Alice+in+Chains/_/Low+Ceiling'
p894
S'1373483369'
p895
tp896
a(S'Alice in Chains'
p897
S'Lab Monkey'
p898
S'http://www.last.fm/music/Alice+in+Chains/_/Lab+Monkey'
p899
S'1373483010'
p900
tp901
a(S'Daft Punk'
p902
S'Contact'
p903
S'http://www.last.fm/music/Daft+Punk/_/Contact'
p904
S'1373482629'
p905
tp906
a(S'Daft Punk'
p907
S'Beyond'
p908
S'http://www.last.fm/music/Daft+Punk/_/Beyond'
p909
S'1373482168'
p910
tp911
a(S'Daft Punk'
p912
S'Touch (feat. Paul Williams)'
p913
S'http://www.last.fm/music/Daft+Punk/_/Touch+(feat.+Paul+Williams)'
p914
S'1373481668'
p915
tp916
a(S'Daft Punk'
p917
S'Give Life Back to Music'
p918
S'http://www.last.fm/music/Daft+Punk/_/Give+Life+Back+to+Music'
p919
S'1373481390'
p920
tp921
a(S'Dio'
p922
S'Holy Diver'
p923
S'http://www.last.fm/music/Dio/_/Holy+Diver'
p924
S'1373481039'
p925
tp926
a(S'Daft Punk'
p927
S'Fragments of Time (feat. Todd Edwards)'
p928
S'http://www.last.fm/music/Daft+Punk/_/Fragments+of+Time+(feat.+Todd+Edwards)'
p929
S'1373480760'
p930
tp931
a(S'Daft Punk'
p932
S'Horizon (Japan Bonus Track)'
p933
S'http://www.last.fm/music/Daft+Punk/_/Horizon+(Japan+Bonus+Track)'
p934
S'1373480567'
p935
tp936
a(S'Daft Punk'
p937
S'Within'
p938
S'http://www.last.fm/music/Daft+Punk/_/Within'
p939
S'1373480338'
p940
tp941
a(S'Daft Punk'
p942
S'Instant Crush (feat. Julian Casablancas)'
p943
S'http://www.last.fm/music/Daft+Punk/_/Instant+Crush+(feat.+Julian+Casablancas)'
p944
S'1373479999'
p945
tp946
a(S'Alice in Chains'
p947
S'Hollow'
p948
S'http://www.last.fm/music/Alice+in+Chains/_/Hollow'
p949
S'1373479659'
p950
tp951
a(S'Alice in Chains'
p952
S'Phantom Limb'
p953
S'http://www.last.fm/music/Alice+in+Chains/_/Phantom+Limb'
p954
S'1373479231'
p955
tp956
a(S'Alice in Chains'
p957
S'Hung on a Hook'
p958
S'http://www.last.fm/music/Alice+in+Chains/_/Hung+on+a+Hook'
p959
S'1373478896'
p960
tp961
a(S'Daft Punk'
p962
S'Lose Yourself to Dance (feat. Pharrell Williams)'
p963
S'http://www.last.fm/music/Daft+Punk/_/Lose+Yourself+to+Dance+(feat.+Pharrell+Williams)'
p964
S'1373478544'
p965
tp966
a(S'Alice in Chains'
p967
S'Stone'
p968
S'http://www.last.fm/music/Alice+in+Chains/_/Stone'
p969
S'1373478282'
p970
tp971
a(S'Alice in Chains'
p972
S'The Devil Put Dinosaurs Here'
p973
S'http://www.last.fm/music/Alice+in+Chains/_/The+Devil+Put+Dinosaurs+Here'
p974
S'1373477883'
p975
tp976
a(S'Daft Punk'
p977
S'Motherboard'
p978
S'http://www.last.fm/music/Daft+Punk/_/Motherboard'
p979
S'1373477542'
p980
tp981
a(S'Alice in Chains'
p982
S'Pretty Done'
p983
S'http://www.last.fm/music/Alice+in+Chains/_/Pretty+Done'
p984
S'1373477268'
p985
tp986
a(S'Rainbow'
p987
S'Catch the Rainbow'
p988
S'http://www.last.fm/music/Rainbow/_/Catch+the+Rainbow'
p989
S'1373476876'
p990
tp991
a(S'Alice in Chains'
p992
S'Scalpel'
p993
S'http://www.last.fm/music/Alice+in+Chains/_/Scalpel'
p994
S'1373476555'
p995
tp996
a(S'Alice in Chains'
p997
S'Choke'
p998
S'http://www.last.fm/music/Alice+in+Chains/_/Choke'
p999
S'1373476210'
p1000
tp1001
a.