(lp1
(S'Soundgarden'
p2
S'Room a Thousand Years Wide'
p3
S'http://www.last.fm/music/Soundgarden/_/Room+a+Thousand+Years+Wide'
p4
S'1272546529'
p5
tp6
a(S'Live'
p7
S'Where Fishes Go'
p8
S'http://www.last.fm/music/Live/_/Where+Fishes+Go'
p9
S'1272546266'
p10
tp11
a(S'Army Of Anyone'
p12
S'A Better Place'
p13
S'http://www.last.fm/music/Army+Of+Anyone/_/A+Better+Place'
p14
S'1272545968'
p15
tp16
a(S'Soundgarden'
p17
S'The Day I Tried to Live'
p18
S'http://www.last.fm/music/Soundgarden/_/The+Day+I+Tried+to+Live'
p19
S'1272545648'
p20
tp21
a(S'Soundgarden'
p22
S'Superunknown'
p23
S'http://www.last.fm/music/Soundgarden/_/Superunknown'
p24
S'1272545342'
p25
tp26
a(S'Stone Temple Pilots'
p27
S'Vasoline'
p28
S'http://www.last.fm/music/Stone+Temple+Pilots/_/Vasoline'
p29
S'1272545165'
p30
tp31
a(S'Queens of the Stone Age'
p32
S'Make It Wit Chu'
p33
S'http://www.last.fm/music/Queens+of+the+Stone+Age/_/Make+It+Wit+Chu'
p34
S'1272544874'
p35
tp36
a(S'Nirvana'
p37
S'About a Girl'
p38
S'http://www.last.fm/music/Nirvana/_/About+a+Girl'
p39
S'1272544706'
p40
tp41
a(S'Stone Temple Pilots'
p42
S'Silvergun Superman'
p43
S'http://www.last.fm/music/Stone+Temple+Pilots/_/Silvergun+Superman'
p44
S'1272544358'
p45
tp46
a(S'Audioslave'
p47
S'Sound Of A Gun'
p48
S'http://www.last.fm/music/Audioslave/_/Sound+Of+A+Gun'
p49
S'1272544100'
p50
tp51
a(S'Soundgarden'
p52
S'Drawing Flies'
p53
S'http://www.last.fm/music/Soundgarden/_/Drawing+Flies'
p54
S'1272543860'
p55
tp56
a(S'Pearl Jam'
p57
S'Do the Evolution'
p58
S'http://www.last.fm/music/Pearl+Jam/_/Do+the+Evolution'
p59
S'1272543626'
p60
tp61
a(S'Them Crooked Vultures'
p62
S'New Fang'
p63
S'http://www.last.fm/music/Them+Crooked+Vultures/_/New+Fang'
p64
S'1272543397'
p65
tp66
a(S'Live'
p67
S'Tired of "Me"'
p68
S'http://www.last.fm/music/Live/_/Tired+of+%22Me%22'
p69
S'1272465241'
p70
tp71
a(S'Velvet Revolver'
p72
S'Get Out The Door'
p73
S'http://www.last.fm/music/Velvet+Revolver/_/Get+Out+The+Door'
p74
S'1272465047'
p75
tp76
a(S'Audioslave'
p77
S'Your Time Has Come'
p78
S'http://www.last.fm/music/Audioslave/_/Your+Time+Has+Come'
p79
S'1272464768'
p80
tp81
a(S'Stone Temple Pilots'
p82
S'Adhesive'
p83
S'http://www.last.fm/music/Stone+Temple+Pilots/_/Adhesive'
p84
S'1272464434'
p85
tp86
a(S'Velvet Revolver'
p87
S'Headspace'
p88
S'http://www.last.fm/music/Velvet+Revolver/_/Headspace'
p89
S'1272464211'
p90
tp91
a(S'Mother Love Bone'
p92
S'Gentle Groove'
p93
S'http://www.last.fm/music/Mother+Love+Bone/_/Gentle+Groove'
p94
S'1272463966'
p95
tp96
a(S'Live'
p97
S"Face And Ghost (The Children's Song)"
p98
S'http://www.last.fm/music/Live/_/Face+And+Ghost+(The+Children%27s+Song)'
p99
S'1272463696'
p100
tp101
a(S'Alice in Chains'
p102
S'Rotten Apple'
p103
S'http://www.last.fm/music/Alice+in+Chains/_/Rotten+Apple'
p104
S'1272463277'
p105
tp106
a(S'Velvet Revolver'
p107
S'Big Machine'
p108
S'http://www.last.fm/music/Velvet+Revolver/_/Big+Machine'
p109
S'1272463011'
p110
tp111
a(S'Pearl Jam'
p112
S'Leash'
p113
S'http://www.last.fm/music/Pearl+Jam/_/Leash'
p114
S'1272462822'
p115
tp116
a(S'Bad Religion'
p117
S'Better Off Dead'
p118
S'http://www.last.fm/music/Bad+Religion/_/Better+Off+Dead'
p119
S'1272462663'
p120
tp121
a(S'Temple of the Dog'
p122
S'Four Walled World'
p123
S'http://www.last.fm/music/Temple+of+the+Dog/_/Four+Walled+World'
p124
S'1272462403'
p125
tp126
a(S'Nirvana'
p127
S'Polly'
p128
S'http://www.last.fm/music/Nirvana/_/Polly'
p129
S'1272459542'
p130
tp131
a(S'Live'
p132
S'Where Fishes Go'
p133
S'http://www.last.fm/music/Live/_/Where+Fishes+Go'
p134
S'1272459280'
p135
tp136
a(S'Live'
p137
S'Operation Spirit (The Tyranny Of Tradition)'
p138
S'http://www.last.fm/music/Live/_/Operation+Spirit+(The+Tyranny+Of+Tradition)'
p139
S'1272459081'
p140
tp141
a(S'Alice in Chains'
p142
S'Man in the Box'
p143
S'http://www.last.fm/music/Alice+in+Chains/_/Man+in+the+Box'
p144
S'1272458794'
p145
tp146
a(S'Mother Love Bone'
p147
S'This Is Shangrila'
p148
S'http://www.last.fm/music/Mother+Love+Bone/_/This+Is+Shangrila'
p149
S'1272458572'
p150
tp151
a(S'Alice in Chains'
p152
S'No Excuses'
p153
S'http://www.last.fm/music/Alice+in+Chains/_/No+Excuses'
p154
S'1272458051'
p155
tp156
a(S'Soundgarden'
p157
S'Outshined'
p158
S'http://www.last.fm/music/Soundgarden/_/Outshined'
p159
S'1272457741'
p160
tp161
a(S'Live'
p162
S'Brothers Unaware'
p163
S'http://www.last.fm/music/Live/_/Brothers+Unaware'
p164
S'1272457455'
p165
tp166
a(S'Queens of the Stone Age'
p167
S'Make It Wit Chu'
p168
S'http://www.last.fm/music/Queens+of+the+Stone+Age/_/Make+It+Wit+Chu'
p169
S'1272457164'
p170
tp171
a(S'Jerry Cantrell'
p172
S'Settling Down'
p173
S'http://www.last.fm/music/Jerry+Cantrell/_/Settling+Down'
p174
S'1272456795'
p175
tp176
a(S'Alice in Chains'
p177
S'All Secrets Known'
p178
S'http://www.last.fm/music/Alice+in+Chains/_/All+Secrets+Known'
p179
S'1272456512'
p180
tp181
a(S'Them Crooked Vultures'
p182
S'New Fang'
p183
S'http://www.last.fm/music/Them+Crooked+Vultures/_/New+Fang'
p184
S'1272456284'
p185
tp186
a(S'Alice in Chains'
p187
S'Lesson Learned'
p188
S'http://www.last.fm/music/Alice+in+Chains/_/Lesson+Learned'
p189
S'1272319097'
p190
tp191
a(S'Nirvana'
p192
S'Polly'
p193
S'http://www.last.fm/music/Nirvana/_/Polly'
p194
S'1272318920'
p195
tp196
a(S'Army Of Anyone'
p197
S'A Better Place'
p198
S'http://www.last.fm/music/Army+Of+Anyone/_/A+Better+Place'
p199
S'1272318621'
p200
tp201
a(S'Queens of the Stone Age'
p202
S'Misfit Love'
p203
S'http://www.last.fm/music/Queens+of+the+Stone+Age/_/Misfit+Love'
p204
S'1272317276'
p205
tp206
a(S'Alice in Chains'
p207
S'Right Turn'
p208
S'http://www.last.fm/music/Alice+in+Chains/_/Right+Turn'
p209
S'1272317078'
p210
tp211
a(S'Pearl Jam'
p212
S'Leash'
p213
S'http://www.last.fm/music/Pearl+Jam/_/Leash'
p214
S'1272316888'
p215
tp216
a(S'Velvet Revolver'
p217
S'Slither'
p218
S'http://www.last.fm/music/Velvet+Revolver/_/Slither'
p219
S'1272316640'
p220
tp221
a(S'Nirvana'
p222
S'Lithium'
p223
S'http://www.last.fm/music/Nirvana/_/Lithium'
p224
S'1272316383'
p225
tp226
a(S'Queens of the Stone Age'
p227
S'Make It Wit Chu'
p228
S'http://www.last.fm/music/Queens+of+the+Stone+Age/_/Make+It+Wit+Chu'
p229
S'1272316092'
p230
tp231
a(S'Temple of the Dog'
p232
S'Wooden Jesus'
p233
S'http://www.last.fm/music/Temple+of+the+Dog/_/Wooden+Jesus'
p234
S'1272315842'
p235
tp236
a(S'Velvet Revolver'
p237
S'Slither'
p238
S'http://www.last.fm/music/Velvet+Revolver/_/Slither'
p239
S'1272315594'
p240
tp241
a(S'Nirvana'
p242
S'About a Girl'
p243
S'http://www.last.fm/music/Nirvana/_/About+a+Girl'
p244
S'1272315426'
p245
tp246
a(S'Audioslave'
p247
S'Your Time Has Come'
p248
S'http://www.last.fm/music/Audioslave/_/Your+Time+Has+Come'
p249
S'1272315170'
p250
tp251
a(S'Alice in Chains'
p252
S'Brother'
p253
S'http://www.last.fm/music/Alice+in+Chains/_/Brother'
p254
S'1272314902'
p255
tp256
a(S'Stone Temple Pilots'
p257
S'Still Remains'
p258
S'http://www.last.fm/music/Stone+Temple+Pilots/_/Still+Remains'
p259
S'1272314690'
p260
tp261
a(S'Temple of the Dog'
p262
S'Reach Down'
p263
S'http://www.last.fm/music/Temple+of+the+Dog/_/Reach+Down'
p264
S'1272314017'
p265
tp266
a(S'Live'
p267
S'Where Fishes Go'
p268
S'http://www.last.fm/music/Live/_/Where+Fishes+Go'
p269
S'1272313755'
p270
tp271
a(S'Velvet Revolver'
p272
S'You Got No Right'
p273
S'http://www.last.fm/music/Velvet+Revolver/_/You+Got+No+Right'
p274
S'1272313419'
p275
tp276
a(S'Mother Love Bone'
p277
S'Gentle Groove'
p278
S'http://www.last.fm/music/Mother+Love+Bone/_/Gentle+Groove'
p279
S'1272313175'
p280
tp281
a(S'Velvet Revolver'
p282
S'Big Machine'
p283
S'http://www.last.fm/music/Velvet+Revolver/_/Big+Machine'
p284
S'1272312910'
p285
tp286
a(S'Stone Temple Pilots'
p287
S'Lounge Fly'
p288
S'http://www.last.fm/music/Stone+Temple+Pilots/_/Lounge+Fly'
p289
S'1272312591'
p290
tp291
a(S'Audioslave'
p292
S'Show Me How To Live'
p293
S'http://www.last.fm/music/Audioslave/_/Show+Me+How+To+Live'
p294
S'1272312313'
p295
tp296
a(S'Stone Temple Pilots'
p297
S'Vasoline'
p298
S'http://www.last.fm/music/Stone+Temple+Pilots/_/Vasoline'
p299
S'1272312136'
p300
tp301
a(S'Them Crooked Vultures'
p302
S'Dead End Friends'
p303
S'http://www.last.fm/music/Them+Crooked+Vultures/_/Dead+End+Friends'
p304
S'1272311941'
p305
tp306
a(S'Alice in Chains'
p307
S'I Stay Away'
p308
S'http://www.last.fm/music/Alice+in+Chains/_/I+Stay+Away'
p309
S'1272311686'
p310
tp311
a(S'Velvet Revolver'
p312
S'Superhuman'
p313
S'http://www.last.fm/music/Velvet+Revolver/_/Superhuman'
p314
S'1272311430'
p315
tp316
a(S'Velvet Revolver'
p317
S'Headspace'
p318
S'http://www.last.fm/music/Velvet+Revolver/_/Headspace'
p319
S'1272309430'
p320
tp321
a(S'Audioslave'
p322
S'Somedays'
p323
S'http://www.last.fm/music/Audioslave/_/Somedays'
p324
S'1272309218'
p325
tp326
a(S'Pearl Jam'
p327
S'Do the Evolution'
p328
S'http://www.last.fm/music/Pearl+Jam/_/Do+the+Evolution'
p329
S'1272308984'
p330
tp331
a(S'Live'
p332
S'Operation Spirit (The Tyranny Of Tradition)'
p333
S'http://www.last.fm/music/Live/_/Operation+Spirit+(The+Tyranny+Of+Tradition)'
p334
S'1272308785'
p335
tp336
a(S'Live'
p337
S"Face And Ghost (The Children's Song)"
p338
S'http://www.last.fm/music/Live/_/Face+And+Ghost+(The+Children%27s+Song)'
p339
S'1272308514'
p340
tp341
a(S'Queens of the Stone Age'
p342
S'Misfit Love'
p343
S'http://www.last.fm/music/Queens+of+the+Stone+Age/_/Misfit+Love'
p344
S'1272308174'
p345
tp346
a(S'Soundgarden'
p347
S'The Day I Tried to Live'
p348
S'http://www.last.fm/music/Soundgarden/_/The+Day+I+Tried+to+Live'
p349
S'1272306895'
p350
tp351
a(S'Stone Temple Pilots'
p352
S'Seven Caged Tigers'
p353
S'http://www.last.fm/music/Stone+Temple+Pilots/_/Seven+Caged+Tigers'
p354
S'1272306636'
p355
tp356
a(S'Live'
p357
S'Brothers Unaware'
p358
S'http://www.last.fm/music/Live/_/Brothers+Unaware'
p359
S'1272306350'
p360
tp361
a(S'Soundgarden'
p362
S'Room a Thousand Years Wide'
p363
S'http://www.last.fm/music/Soundgarden/_/Room+a+Thousand+Years+Wide'
p364
S'1272306104'
p365
tp366
a(S'Stone Temple Pilots'
p367
S'Army Ants'
p368
S'http://www.last.fm/music/Stone+Temple+Pilots/_/Army+Ants'
p369
S'1272305878'
p370
tp371
a(S'Nirvana'
p372
S'Polly'
p373
S'http://www.last.fm/music/Nirvana/_/Polly'
p374
S'1272305701'
p375
tp376
a(S'Live'
p377
S'Tired of "Me"'
p378
S'http://www.last.fm/music/Live/_/Tired+of+%22Me%22'
p379
S'1272305477'
p380
tp381
a(S'Soundgarden'
p382
S'Superunknown'
p383
S'http://www.last.fm/music/Soundgarden/_/Superunknown'
p384
S'1272304371'
p385
tp386
a(S'Jerry Cantrell'
p387
S'Between'
p388
S'http://www.last.fm/music/Jerry+Cantrell/_/Between'
p389
S'1272304154'
p390
tp391
a(S'Audioslave'
p392
S'Shadow On The Sun'
p393
S'http://www.last.fm/music/Audioslave/_/Shadow+On+The+Sun'
p394
S'1272303810'
p395
tp396
a(S'Soundgarden'
p397
S'My Wave'
p398
S'http://www.last.fm/music/Soundgarden/_/My+Wave'
p399
S'1272303499'
p400
tp401
a(S'Alice in Chains'
p402
S'Over Now'
p403
S'http://www.last.fm/music/Alice+in+Chains/_/Over+Now'
p404
S'1272303075'
p405
tp406
a(S'Soundgarden'
p407
S'Fresh Tendrils'
p408
S'http://www.last.fm/music/Soundgarden/_/Fresh+Tendrils'
p409
S'1272302819'
p410
tp411
a(S'Audioslave'
p412
S'Sound Of A Gun'
p413
S'http://www.last.fm/music/Audioslave/_/Sound+Of+A+Gun'
p414
S'1272302560'
p415
tp416
a(S'Stone Temple Pilots'
p417
S'And So I Know'
p418
S'http://www.last.fm/music/Stone+Temple+Pilots/_/And+So+I+Know'
p419
S'1272302323'
p420
tp421
a(S'Alice in Chains'
p422
S'Got Me Wrong'
p423
S'http://www.last.fm/music/Alice+in+Chains/_/Got+Me+Wrong'
p424
S'1272302071'
p425
tp426
a(S'Alice in Chains'
p427
S'Man in the Box'
p428
S'http://www.last.fm/music/Alice+in+Chains/_/Man+in+the+Box'
p429
S'1272301649'
p430
tp431
a(S'Stone Temple Pilots'
p432
S'Meat Plow'
p433
S'http://www.last.fm/music/Stone+Temple+Pilots/_/Meat+Plow'
p434
S'1272299878'
p435
tp436
a(S'Alice in Chains'
p437
S'Private Hell'
p438
S'http://www.last.fm/music/Alice+in+Chains/_/Private+Hell'
p439
S'1272299370'
p440
tp441
a(S'Army Of Anyone'
p442
S'A Better Place'
p443
S'http://www.last.fm/music/Army+Of+Anyone/_/A+Better+Place'
p444
S'1272299071'
p445
tp446
a(S'Alice in Chains'
p447
S'Rotten Apple'
p448
S'http://www.last.fm/music/Alice+in+Chains/_/Rotten+Apple'
p449
S'1272298652'
p450
tp451
a(S'Velvet Revolver'
p452
S'Get Out The Door'
p453
S'http://www.last.fm/music/Velvet+Revolver/_/Get+Out+The+Door'
p454
S'1272298458'
p455
tp456
a(S'Temple of the Dog'
p457
S'Four Walled World'
p458
S'http://www.last.fm/music/Temple+of+the+Dog/_/Four+Walled+World'
p459
S'1272298044'
p460
tp461
a(S'Stone Temple Pilots'
p462
S'Kitchenware & Candybars'
p463
S'http://www.last.fm/music/Stone+Temple+Pilots/_/Kitchenware+&+Candybars'
p464
S'1272297558'
p465
tp466
a(S'Alice in Chains'
p467
S'All Secrets Known'
p468
S'http://www.last.fm/music/Alice+in+Chains/_/All+Secrets+Known'
p469
S'1272293244'
p470
tp471
a(S'Talk Show'
p472
S'Hello Hello'
p473
S'http://www.last.fm/music/Talk+Show/_/Hello+Hello'
p474
S'1272293067'
p475
tp476
a(S'Queens of the Stone Age'
p477
S'Little Sister'
p478
S'http://www.last.fm/music/Queens+of+the+Stone+Age/_/Little+Sister'
p479
S'1272292893'
p480
tp481
a(S'Mother Love Bone'
p482
S'This Is Shangrila'
p483
S'http://www.last.fm/music/Mother+Love+Bone/_/This+Is+Shangrila'
p484
S'1272292671'
p485
tp486
a(S'Soundgarden'
p487
S'Let Me Drown'
p488
S'http://www.last.fm/music/Soundgarden/_/Let+Me+Drown'
p489
S'1272292439'
p490
tp491
a(S'Jerry Cantrell'
p492
S'Settling Down'
p493
S'http://www.last.fm/music/Jerry+Cantrell/_/Settling+Down'
p494
S'1272292069'
p495
tp496
a(S'Soundgarden'
p497
S'Drawing Flies'
p498
S'http://www.last.fm/music/Soundgarden/_/Drawing+Flies'
p499
S'1272291923'
p500
tp501
a(S'Nirvana'
p502
S'Lithium'
p503
S'http://www.last.fm/music/Nirvana/_/Lithium'
p504
S'1272291666'
p505
tp506
a(S'Them Crooked Vultures'
p507
S'New Fang'
p508
S'http://www.last.fm/music/Them+Crooked+Vultures/_/New+Fang'
p509
S'1272291438'
p510
tp511
a(S'Jerry Cantrell'
p512
S'Satisfy'
p513
S'http://www.last.fm/music/Jerry+Cantrell/_/Satisfy'
p514
S'1272291223'
p515
tp516
a(S'Alice in Chains'
p517
S'Right Turn'
p518
S'http://www.last.fm/music/Alice+in+Chains/_/Right+Turn'
p519
S'1272291025'
p520
tp521
a(S'Alice in Chains'
p522
S'Nutshell'
p523
S'http://www.last.fm/music/Alice+in+Chains/_/Nutshell'
p524
S'1272290736'
p525
tp526
a(S'Live'
p527
S'Waterboy'
p528
S'http://www.last.fm/music/Live/_/Waterboy'
p529
S'1272289121'
p530
tp531
a(S'Queens of the Stone Age'
p532
S'Make It Wit Chu'
p533
S'http://www.last.fm/music/Queens+of+the+Stone+Age/_/Make+It+Wit+Chu'
p534
S'1272288831'
p535
tp536
a(S'Soundgarden'
p537
S'Mind Riot'
p538
S'http://www.last.fm/music/Soundgarden/_/Mind+Riot'
p539
S'1272288542'
p540
tp541
a(S'Bad Religion'
p542
S'Better Off Dead'
p543
S'http://www.last.fm/music/Bad+Religion/_/Better+Off+Dead'
p544
S'1272288383'
p545
tp546
a(S'Soundgarden'
p547
S'Rusty Cage'
p548
S'http://www.last.fm/music/Soundgarden/_/Rusty+Cage'
p549
S'1272288116'
p550
tp551
a(S'Alice in Chains'
p552
S'No Excuses'
p553
S'http://www.last.fm/music/Alice+in+Chains/_/No+Excuses'
p554
S'1272287789'
p555
tp556
a(S'Stone Temple Pilots'
p557
S'"Unglued"'
p558
S'http://www.last.fm/music/Stone+Temple+Pilots/_/%22Unglued%22'
p559
S'1272287635'
p560
tp561
a(S'Army Of Anyone'
p562
S'Generation'
p563
S'http://www.last.fm/music/Army+Of+Anyone/_/Generation'
p564
S'1272287424'
p565
tp566
a(S'Pearl Jam'
p567
S'Leash'
p568
S'http://www.last.fm/music/Pearl+Jam/_/Leash'
p569
S'1272287234'
p570
tp571
a(S'Soundgarden'
p572
S'Outshined'
p573
S'http://www.last.fm/music/Soundgarden/_/Outshined'
p574
S'1272286440'
p575
tp576
a(S'Alice in Chains'
p577
S'Lesson Learned'
p578
S'http://www.last.fm/music/Alice+in+Chains/_/Lesson+Learned'
p579
S'1272286184'
p580
tp581
a(S'Live'
p582
S'Mirror Song'
p583
S'http://www.last.fm/music/Live/_/Mirror+Song'
p584
S'1272285965'
p585
tp586
a(S'Stone Temple Pilots'
p587
S"Trippin' on a Hole in a Paper Heart"
p588
S'http://www.last.fm/music/Stone+Temple+Pilots/_/Trippin%27+on+a+Hole+in+a+Paper+Heart'
p589
S'1272285789'
p590
tp591
a(S'Mother Love Bone'
p592
S'Stardog Champion'
p593
S'http://www.last.fm/music/Mother+Love+Bone/_/Stardog+Champion'
p594
S'1272285451'
p595
tp596
a(S'Temple of the Dog'
p597
S'Pushin Forward Back'
p598
S'http://www.last.fm/music/Temple+of+the+Dog/_/Pushin+Forward+Back'
p599
S'1272285226'
p600
tp601
a(S'Them Crooked Vultures'
p602
S'No One Loves Me & Neither Do I'
p603
S'http://www.last.fm/music/Them+Crooked+Vultures/_/No+One+Loves+Me+&+Neither+Do+I'
p604
S'1272284916'
p605
tp606
a(S'Them Crooked Vultures'
p607
S'Gunman'
p608
S'http://www.last.fm/music/Them+Crooked+Vultures/_/Gunman'
p609
S'1272284630'
p610
tp611
a(S'Stone Temple Pilots'
p612
S'Still Remains'
p613
S'http://www.last.fm/music/Stone+Temple+Pilots/_/Still+Remains'
p614
S'1271963961'
p615
tp616
a(S'Alice in Chains'
p617
S'I Stay Away'
p618
S'http://www.last.fm/music/Alice+in+Chains/_/I+Stay+Away'
p619
S'1271963707'
p620
tp621
a(S'Jerry Cantrell'
p622
S'Between'
p623
S'http://www.last.fm/music/Jerry+Cantrell/_/Between'
p624
S'1271963490'
p625
tp626
a(S'Army Of Anyone'
p627
S'A Better Place'
p628
S'http://www.last.fm/music/Army+Of+Anyone/_/A+Better+Place'
p629
S'1271963191'
p630
tp631
a(S'Live'
p632
S'Mirror Song'
p633
S'http://www.last.fm/music/Live/_/Mirror+Song'
p634
S'1271962973'
p635
tp636
a(S'Jerry Cantrell'
p637
S'Satisfy'
p638
S'http://www.last.fm/music/Jerry+Cantrell/_/Satisfy'
p639
S'1271962759'
p640
tp641
a(S'Them Crooked Vultures'
p642
S'Gunman'
p643
S'http://www.last.fm/music/Them+Crooked+Vultures/_/Gunman'
p644
S'1271962473'
p645
tp646
a(S'Stone Temple Pilots'
p647
S'Lounge Fly'
p648
S'http://www.last.fm/music/Stone+Temple+Pilots/_/Lounge+Fly'
p649
S'1271943965'
p650
tp651
a(S'Live'
p652
S"Face And Ghost (The Children's Song)"
p653
S'http://www.last.fm/music/Live/_/Face+And+Ghost+(The+Children%27s+Song)'
p654
S'1271943695'
p655
tp656
a(S'Live'
p657
S'Operation Spirit (The Tyranny Of Tradition)'
p658
S'http://www.last.fm/music/Live/_/Operation+Spirit+(The+Tyranny+Of+Tradition)'
p659
S'1271943496'
p660
tp661
a(S'Stone Temple Pilots'
p662
S'Vasoline'
p663
S'http://www.last.fm/music/Stone+Temple+Pilots/_/Vasoline'
p664
S'1271943319'
p665
tp666
a(S'Audioslave'
p667
S'Shadow On The Sun'
p668
S'http://www.last.fm/music/Audioslave/_/Shadow+On+The+Sun'
p669
S'1271942975'
p670
tp671
a(S'Nirvana'
p672
S'Polly'
p673
S'http://www.last.fm/music/Nirvana/_/Polly'
p674
S'1271942798'
p675
tp676
a(S'Stone Temple Pilots'
p677
S'Still Remains'
p678
S'http://www.last.fm/music/Stone+Temple+Pilots/_/Still+Remains'
p679
S'1271800267'
p680
tp681
a(S'Stone Temple Pilots'
p682
S'Silvergun Superman'
p683
S'http://www.last.fm/music/Stone+Temple+Pilots/_/Silvergun+Superman'
p684
S'1271799950'
p685
tp686
a(S'Pearl Jam'
p687
S'Leash'
p688
S'http://www.last.fm/music/Pearl+Jam/_/Leash'
p689
S'1271799761'
p690
tp691
a(S'Stone Temple Pilots'
p692
S'Lounge Fly'
p693
S'http://www.last.fm/music/Stone+Temple+Pilots/_/Lounge+Fly'
p694
S'1271799442'
p695
tp696
a(S'Talk Show'
p697
S'Hello Hello'
p698
S'http://www.last.fm/music/Talk+Show/_/Hello+Hello'
p699
S'1271799265'
p700
tp701
a(S'Soundgarden'
p702
S'Outshined'
p703
S'http://www.last.fm/music/Soundgarden/_/Outshined'
p704
S'1271798954'
p705
tp706
a(S'Alice in Chains'
p707
S'Got Me Wrong'
p708
S'http://www.last.fm/music/Alice+in+Chains/_/Got+Me+Wrong'
p709
S'1271798702'
p710
tp711
a(S'Live'
p712
S'Waterboy'
p713
S'http://www.last.fm/music/Live/_/Waterboy'
p714
S'1271798199'
p715
tp716
a(S'Soundgarden'
p717
S'Rusty Cage'
p718
S'http://www.last.fm/music/Soundgarden/_/Rusty+Cage'
p719
S'1271797932'
p720
tp721
a(S'Soundgarden'
p722
S'Fresh Tendrils'
p723
S'http://www.last.fm/music/Soundgarden/_/Fresh+Tendrils'
p724
S'1271797676'
p725
tp726
a(S'Live'
p727
S'Brothers Unaware'
p728
S'http://www.last.fm/music/Live/_/Brothers+Unaware'
p729
S'1271797390'
p730
tp731
a(S'Nirvana'
p732
S'About a Girl'
p733
S'http://www.last.fm/music/Nirvana/_/About+a+Girl'
p734
S'1271797222'
p735
tp736
a(S'Audioslave'
p737
S'Show Me How To Live'
p738
S'http://www.last.fm/music/Audioslave/_/Show+Me+How+To+Live'
p739
S'1271796944'
p740
tp741
a(S'Stone Temple Pilots'
p742
S'Army Ants'
p743
S'http://www.last.fm/music/Stone+Temple+Pilots/_/Army+Ants'
p744
S'1271796717'
p745
tp746
a(S'Alice in Chains'
p747
S'I Stay Away'
p748
S'http://www.last.fm/music/Alice+in+Chains/_/I+Stay+Away'
p749
S'1271796463'
p750
tp751
a(S'Jerry Cantrell'
p752
S'Settling Down'
p753
S'http://www.last.fm/music/Jerry+Cantrell/_/Settling+Down'
p754
S'1271794498'
p755
tp756
a(S'Temple of the Dog'
p757
S'Pushin Forward Back'
p758
S'http://www.last.fm/music/Temple+of+the+Dog/_/Pushin+Forward+Back'
p759
S'1271794270'
p760
tp761
a(S'Stone Temple Pilots'
p762
S'"Unglued"'
p763
S'http://www.last.fm/music/Stone+Temple+Pilots/_/%22Unglued%22'
p764
S'1271794116'
p765
tp766
a(S'Mother Love Bone'
p767
S'Stardog Champion'
p768
S'http://www.last.fm/music/Mother+Love+Bone/_/Stardog+Champion'
p769
S'1271793818'
p770
tp771
a(S'Velvet Revolver'
p772
S'Slither'
p773
S'http://www.last.fm/music/Velvet+Revolver/_/Slither'
p774
S'1271793570'
p775
tp776
a(S'Soundgarden'
p777
S'Let Me Drown'
p778
S'http://www.last.fm/music/Soundgarden/_/Let+Me+Drown'
p779
S'1271793338'
p780
tp781
a(S'Them Crooked Vultures'
p782
S'New Fang'
p783
S'http://www.last.fm/music/Them+Crooked+Vultures/_/New+Fang'
p784
S'1271793110'
p785
tp786
a(S'Alice in Chains'
p787
S'Rotten Apple'
p788
S'http://www.last.fm/music/Alice+in+Chains/_/Rotten+Apple'
p789
S'1271792691'
p790
tp791
a(S'Pearl Jam'
p792
S'Do the Evolution'
p793
S'http://www.last.fm/music/Pearl+Jam/_/Do+the+Evolution'
p794
S'1271792457'
p795
tp796
a(S'Bad Religion'
p797
S'Better Off Dead'
p798
S'http://www.last.fm/music/Bad+Religion/_/Better+Off+Dead'
p799
S'1271792298'
p800
tp801
a(S'Stone Temple Pilots'
p802
S'And So I Know'
p803
S'http://www.last.fm/music/Stone+Temple+Pilots/_/And+So+I+Know'
p804
S'1271792060'
p805
tp806
a(S'Queens of the Stone Age'
p807
S'Little Sister'
p808
S'http://www.last.fm/music/Queens+of+the+Stone+Age/_/Little+Sister'
p809
S'1271791887'
p810
tp811
a(S'Jerry Cantrell'
p812
S'Satisfy'
p813
S'http://www.last.fm/music/Jerry+Cantrell/_/Satisfy'
p814
S'1271791672'
p815
tp816
a(S'Audioslave'
p817
S'Your Time Has Come'
p818
S'http://www.last.fm/music/Audioslave/_/Your+Time+Has+Come'
p819
S'1271791417'
p820
tp821
a(S'Mother Love Bone'
p822
S'This Is Shangrila'
p823
S'http://www.last.fm/music/Mother+Love+Bone/_/This+Is+Shangrila'
p824
S'1271791194'
p825
tp826
a(S'Alice in Chains'
p827
S'Nutshell'
p828
S'http://www.last.fm/music/Alice+in+Chains/_/Nutshell'
p829
S'1271790935'
p830
tp831
a(S'Them Crooked Vultures'
p832
S'Gunman'
p833
S'http://www.last.fm/music/Them+Crooked+Vultures/_/Gunman'
p834
S'1271790649'
p835
tp836
a(S'Soundgarden'
p837
S'The Day I Tried to Live'
p838
S'http://www.last.fm/music/Soundgarden/_/The+Day+I+Tried+to+Live'
p839
S'1271790330'
p840
tp841
a(S'Soundgarden'
p842
S'Fell on Black Days'
p843
S'http://www.last.fm/music/Soundgarden/_/Fell+on+Black+Days'
p844
S'1271790047'
p845
tp846
a(S'Them Crooked Vultures'
p847
S'Reptiles'
p848
S'http://www.last.fm/music/Them+Crooked+Vultures/_/Reptiles'
p849
S'1271789791'
p850
tp851
a(S'Live'
p852
S'Tired of "Me"'
p853
S'http://www.last.fm/music/Live/_/Tired+of+%22Me%22'
p854
S'1271789585'
p855
tp856
a(S'Audioslave'
p857
S'Sound Of A Gun'
p858
S'http://www.last.fm/music/Audioslave/_/Sound+Of+A+Gun'
p859
S'1271789327'
p860
tp861
a(S'Audioslave'
p862
S'Shadow On The Sun'
p863
S'http://www.last.fm/music/Audioslave/_/Shadow+On+The+Sun'
p864
S'1271788984'
p865
tp866
a(S'Alice in Chains'
p867
S'Brother'
p868
S'http://www.last.fm/music/Alice+in+Chains/_/Brother'
p869
S'1271788716'
p870
tp871
a(S'Stone Temple Pilots'
p872
S'Meat Plow'
p873
S'http://www.last.fm/music/Stone+Temple+Pilots/_/Meat+Plow'
p874
S'1271788499'
p875
tp876
a(S'Temple of the Dog'
p877
S'Reach Down'
p878
S'http://www.last.fm/music/Temple+of+the+Dog/_/Reach+Down'
p879
S'1271787826'
p880
tp881
a(S'Alice in Chains'
p882
S'All Secrets Known'
p883
S'http://www.last.fm/music/Alice+in+Chains/_/All+Secrets+Known'
p884
S'1271787544'
p885
tp886
a(S'Stone Temple Pilots'
p887
S'Adhesive'
p888
S'http://www.last.fm/music/Stone+Temple+Pilots/_/Adhesive'
p889
S'1271787210'
p890
tp891
a(S'Mother Love Bone'
p892
S'Gentle Groove'
p893
S'http://www.last.fm/music/Mother+Love+Bone/_/Gentle+Groove'
p894
S'1271786966'
p895
tp896
a(S'Soundgarden'
p897
S'My Wave'
p898
S'http://www.last.fm/music/Soundgarden/_/My+Wave'
p899
S'1271786654'
p900
tp901
a(S'Them Crooked Vultures'
p902
S'Dead End Friends'
p903
S'http://www.last.fm/music/Them+Crooked+Vultures/_/Dead+End+Friends'
p904
S'1271786459'
p905
tp906
a(S'Queens of the Stone Age'
p907
S'Make It Wit Chu'
p908
S'http://www.last.fm/music/Queens+of+the+Stone+Age/_/Make+It+Wit+Chu'
p909
S'1271786168'
p910
tp911
a(S'Soundgarden'
p912
S'Superunknown'
p913
S'http://www.last.fm/music/Soundgarden/_/Superunknown'
p914
S'1271785862'
p915
tp916
a(S'Stone Temple Pilots'
p917
S"Trippin' on a Hole in a Paper Heart"
p918
S'http://www.last.fm/music/Stone+Temple+Pilots/_/Trippin%27+on+a+Hole+in+a+Paper+Heart'
p919
S'1271785685'
p920
tp921
a(S'Alice in Chains'
p922
S'Over Now'
p923
S'http://www.last.fm/music/Alice+in+Chains/_/Over+Now'
p924
S'1271785261'
p925
tp926
a(S'Alice in Chains'
p927
S'No Excuses'
p928
S'http://www.last.fm/music/Alice+in+Chains/_/No+Excuses'
p929
S'1271785006'
p930
tp931
a(S'Alice in Chains'
p932
S'Lesson Learned'
p933
S'http://www.last.fm/music/Alice+in+Chains/_/Lesson+Learned'
p934
S'1271784744'
p935
tp936
a(S'Queens of the Stone Age'
p937
S'Misfit Love'
p938
S'http://www.last.fm/music/Queens+of+the+Stone+Age/_/Misfit+Love'
p939
S'1271784306'
p940
tp941
a(S'Alice in Chains'
p942
S'Private Hell'
p943
S'http://www.last.fm/music/Alice+in+Chains/_/Private+Hell'
p944
S'1271783967'
p945
tp946
a(S'Stone Temple Pilots'
p947
S'Seven Caged Tigers'
p948
S'http://www.last.fm/music/Stone+Temple+Pilots/_/Seven+Caged+Tigers'
p949
S'1271783711'
p950
tp951
a(S'Soundgarden'
p952
S'Room a Thousand Years Wide'
p953
S'http://www.last.fm/music/Soundgarden/_/Room+a+Thousand+Years+Wide'
p954
S'1271783465'
p955
tp956
a(S'Live'
p957
S'Mirror Song'
p958
S'http://www.last.fm/music/Live/_/Mirror+Song'
p959
S'1271783246'
p960
tp961
a(S'Soundgarden'
p962
S'Drawing Flies'
p963
S'http://www.last.fm/music/Soundgarden/_/Drawing+Flies'
p964
S'1271783100'
p965
tp966
a(S'Stone Temple Pilots'
p967
S'Vasoline'
p968
S'http://www.last.fm/music/Stone+Temple+Pilots/_/Vasoline'
p969
S'1271782923'
p970
tp971
a(S'Velvet Revolver'
p972
S'Big Machine'
p973
S'http://www.last.fm/music/Velvet+Revolver/_/Big+Machine'
p974
S'1271782657'
p975
tp976
a(S'Live'
p977
S"Face And Ghost (The Children's Song)"
p978
S'http://www.last.fm/music/Live/_/Face+And+Ghost+(The+Children%27s+Song)'
p979
S'1271782387'
p980
tp981
a(S'Audioslave'
p982
S'Somedays'
p983
S'http://www.last.fm/music/Audioslave/_/Somedays'
p984
S'1271782174'
p985
tp986
a(S'Live'
p987
S'Where Fishes Go'
p988
S'http://www.last.fm/music/Live/_/Where+Fishes+Go'
p989
S'1271781912'
p990
tp991
a(S'Alice in Chains'
p992
S'Man in the Box'
p993
S'http://www.last.fm/music/Alice+in+Chains/_/Man+in+the+Box'
p994
S'1271781536'
p995
tp996
a(S'Nirvana'
p997
S'Polly'
p998
S'http://www.last.fm/music/Nirvana/_/Polly'
p999
S'1271781359'
p1000
tp1001
a.