(lp1
(S'Bad Religion'
p2
S'At the Mercy of Imbeciles'
p3
S'http://www.last.fm/music/Bad+Religion/_/At+the+Mercy+of+Imbeciles'
p4
S'1393251625'
p5
tp6
a(S'Foo Fighters'
p7
S'Learn to Fly'
p8
S'http://www.last.fm/music/Foo+Fighters/_/Learn+to+Fly'
p9
S'1393251530'
p10
tp11
a(S'Queens of the Stone Age'
p12
S"You Think I Ain't Worth a Dollar, But I Feel Like a Millionaire"
p13
S'http://www.last.fm/music/Queens+of+the+Stone+Age/_/You+Think+I+Ain%27t+Worth+a+Dollar,+But+I+Feel+Like+a+Millionaire'
p14
S'1393251295'
p15
tp16
a(S'Foo Fighters'
p17
S'Resolve'
p18
S'http://www.last.fm/music/Foo+Fighters/_/Resolve'
p19
S'1393251102'
p20
tp21
a(S'Nirvana'
p22
S'Breed'
p23
S'http://www.last.fm/music/Nirvana/_/Breed'
p24
S'1393250813'
p25
tp26
a(S'Stone Temple Pilots'
p27
S'Silvergun Superman'
p28
S'http://www.last.fm/music/Stone+Temple+Pilots/_/Silvergun+Superman'
p29
S'1393250630'
p30
tp31
a(S'Soundgarden'
p32
S'Rusty Cage'
p33
S'http://www.last.fm/music/Soundgarden/_/Rusty+Cage'
p34
S'1393250313'
p35
tp36
a(S'Live'
p37
S'Insomnia And The Hole In The Universe'
p38
S'http://www.last.fm/music/Live/_/Insomnia+And+The+Hole+In+The+Universe'
p39
S'1393250046'
p40
tp41
a(S'Stone Temple Pilots'
p42
S'Pruno'
p43
S'http://www.last.fm/music/Stone+Temple+Pilots/_/Pruno'
p44
S'1393249803'
p45
tp46
a(S'Stone Temple Pilots'
p47
S'Plush'
p48
S'http://www.last.fm/music/Stone+Temple+Pilots/_/Plush'
p49
S'1393249608'
p50
tp51
a(S'Live'
p52
S'Sweet Release'
p53
S'http://www.last.fm/music/Live/_/Sweet+Release'
p54
S'1393249293'
p55
tp56
a(S'Nirvana'
p57
S'In Bloom'
p58
S'http://www.last.fm/music/Nirvana/_/In+Bloom'
p59
S'1393249110'
p60
tp61
a(S'Stone Temple Pilots'
p62
S'Transmissions From a Lonely Room'
p63
S'http://www.last.fm/music/Stone+Temple+Pilots/_/Transmissions+From+a+Lonely+Room'
p64
S'1393248547'
p65
tp66
a(S'Velvet Revolver'
p67
S'Headspace'
p68
S'http://www.last.fm/music/Velvet+Revolver/_/Headspace'
p69
S'1393248351'
p70
tp71
a(S'Queens of the Stone Age'
p72
S'Little Sister'
p73
S'http://www.last.fm/music/Queens+of+the+Stone+Age/_/Little+Sister'
p74
S'1393248128'
p75
tp76
a(S'Velvet Revolver'
p77
S'Spectacle'
p78
S'http://www.last.fm/music/Velvet+Revolver/_/Spectacle'
p79
S'1393247127'
p80
tp81
a(S'Foo Fighters'
p82
S'Headwires'
p83
S'http://www.last.fm/music/Foo+Fighters/_/Headwires'
p84
S'1393246905'
p85
tp86
a(S'Alice in Chains'
p87
S'Breath on a Window'
p88
S'http://www.last.fm/music/Alice+in+Chains/_/Breath+on+a+Window'
p89
S'1393246627'
p90
tp91
a(S'Alice in Chains'
p92
S'Acid Bubble'
p93
S'http://www.last.fm/music/Alice+in+Chains/_/Acid+Bubble'
p94
S'1393246308'
p95
tp96
a(S'Army Of Anyone'
p97
S'A Better Place'
p98
S'http://www.last.fm/music/Army+Of+Anyone/_/A+Better+Place'
p99
S'1393245891'
p100
tp101
a(S'Stone Temple Pilots'
p102
S'Too Cool Queenie'
p103
S'http://www.last.fm/music/Stone+Temple+Pilots/_/Too+Cool+Queenie'
p104
S'1393245592'
p105
tp106
a(S'Velvet Revolver'
p107
S'You Got No Right'
p108
S'http://www.last.fm/music/Velvet+Revolver/_/You+Got+No+Right'
p109
S'1393245425'
p110
tp111
a(S'Bad Religion'
p112
S'Atheist Peace'
p113
S'http://www.last.fm/music/Bad+Religion/_/Atheist+Peace'
p114
S'1392993187'
p115
tp116
a(S'Them Crooked Vultures'
p117
S'New Fang'
p118
S'http://www.last.fm/music/Them+Crooked+Vultures/_/New+Fang'
p119
S'1392993070'
p120
tp121
a(S'Velvet Revolver'
p122
S'Do It For The Kids'
p123
S'http://www.last.fm/music/Velvet+Revolver/_/Do+It+For+The+Kids'
p124
S'1392992841'
p125
tp126
a(S'Bad Religion'
p127
S'What It Is'
p128
S'http://www.last.fm/music/Bad+Religion/_/What+It+Is'
p129
S'1392992605'
p130
tp131
a(S'Live'
p132
S'Sweet Release'
p133
S'http://www.last.fm/music/Live/_/Sweet+Release'
p134
S'1392992476'
p135
tp136
a(S'Stone Temple Pilots'
p137
S'Plush'
p138
S'http://www.last.fm/music/Stone+Temple+Pilots/_/Plush'
p139
S'1392989541'
p140
tp141
a(S'Soundgarden'
p142
S'The Day I Tried to Live'
p143
S'http://www.last.fm/music/Soundgarden/_/The+Day+I+Tried+to+Live'
p144
S'1392989227'
p145
tp146
a(S'Foo Fighters'
p147
S'Walk'
p148
S'http://www.last.fm/music/Foo+Fighters/_/Walk'
p149
S'1392988907'
p150
tp151
a(S'Stone Temple Pilots'
p152
S'Peacoat'
p153
S'http://www.last.fm/music/Stone+Temple+Pilots/_/Peacoat'
p154
S'1392988651'
p155
tp156
a(S'Bad Religion'
p157
S'Inner Logic'
p158
S'http://www.last.fm/music/Bad+Religion/_/Inner+Logic'
p159
S'1392988442'
p160
tp161
a(S'Velvet Revolver'
p162
S'Slither'
p163
S'http://www.last.fm/music/Velvet+Revolver/_/Slither'
p164
S'1392988264'
p165
tp166
a(S'Alice in Chains'
p167
S'Lesson Learned'
p168
S'http://www.last.fm/music/Alice+in+Chains/_/Lesson+Learned'
p169
S'1392988015'
p170
tp171
a(S'Live'
p172
S'Insomnia And The Hole In The Universe'
p173
S'http://www.last.fm/music/Live/_/Insomnia+And+The+Hole+In+The+Universe'
p174
S'1392987759'
p175
tp176
a(S'Queens of the Stone Age'
p177
S'No One Knows'
p178
S'http://www.last.fm/music/Queens+of+the+Stone+Age/_/No+One+Knows'
p179
S'1392987517'
p180
tp181
a(S'Bad Religion'
p182
S'Punk Rock Song'
p183
S'http://www.last.fm/music/Bad+Religion/_/Punk+Rock+Song'
p184
S'1392987238'
p185
tp186
a(S'Alice in Chains'
p187
S'Voices'
p188
S'http://www.last.fm/music/Alice+in+Chains/_/Voices'
p189
S'1392987091'
p190
tp191
a(S'Soundgarden'
p192
S'Taree'
p193
S'http://www.last.fm/music/Soundgarden/_/Taree'
p194
S'1392986748'
p195
tp196
a(S'Jerry Cantrell'
p197
S'Angel Eyes'
p198
S'http://www.last.fm/music/Jerry+Cantrell/_/Angel+Eyes'
p199
S'1392986529'
p200
tp201
a(S'Alice in Chains'
p202
S'Acid Bubble'
p203
S'http://www.last.fm/music/Alice+in+Chains/_/Acid+Bubble'
p204
S'1392986245'
p205
tp206
a(S'Bad Religion'
p207
S'Fuck Armageddon'
p208
S'http://www.last.fm/music/Bad+Religion/_/Fuck+Armageddon'
p209
S'1392984824'
p210
tp211
a(S'Bad Religion'
p212
S'Inner Logic'
p213
S'http://www.last.fm/music/Bad+Religion/_/Inner+Logic'
p214
S'1392984643'
p215
tp216
a(S'Bad Religion'
p217
S'The Empire Strikes First'
p218
S'http://www.last.fm/music/Bad+Religion/_/The+Empire+Strikes+First'
p219
S'1392984465'
p220
tp221
a(S'Alice Cooper'
p222
S'Dangerous Tonight'
p223
S'http://www.last.fm/music/Alice+Cooper/_/Dangerous+Tonight'
p224
S'1392929183'
p225
tp226
a(S'Alice Cooper'
p227
S'Zombie Dance'
p228
S'http://www.last.fm/music/Alice+Cooper/_/Zombie+Dance'
p229
S'1392928901'
p230
tp231
a(S'Alice Cooper'
p232
S'Bed of Nails'
p233
S'http://www.last.fm/music/Alice+Cooper/_/Bed+of+Nails'
p234
S'1392928637'
p235
tp236
a(S'Alice Cooper'
p237
S'Love Should Never Feel Like This'
p238
S'http://www.last.fm/music/Alice+Cooper/_/Love+Should+Never+Feel+Like+This'
p239
S'1392928377'
p240
tp241
a(S'Alice Cooper'
p242
S'Novocaine'
p243
S'http://www.last.fm/music/Alice+Cooper/_/Novocaine'
p244
S'1392928164'
p245
tp246
a(S'Alice Cooper'
p247
S'Stolen Prayer'
p248
S'http://www.last.fm/music/Alice+Cooper/_/Stolen+Prayer'
p249
S'1392927976'
p250
tp251
a(S'Alice Cooper'
p252
S'Might As Well Be on Mars'
p253
S'http://www.last.fm/music/Alice+Cooper/_/Might+As+Well+Be+on+Mars'
p254
S'1392927639'
p255
tp256
a(S'Alice Cooper'
p257
S'Hurricane Years'
p258
S'http://www.last.fm/music/Alice+Cooper/_/Hurricane+Years'
p259
S'1392927209'
p260
tp261
a(S'Alice Cooper'
p262
S'House of Fire'
p263
S'http://www.last.fm/music/Alice+Cooper/_/House+of+Fire'
p264
S'1392926970'
p265
tp266
a(S'Rage Against the Machine'
p267
S'Know Your Enemy'
p268
S'http://www.last.fm/music/Rage+Against+the+Machine/_/Know+Your+Enemy'
p269
S'1392918212'
p270
tp271
a(S'Rage Against the Machine'
p272
S'How I Could Just Kill a Man'
p273
S'http://www.last.fm/music/Rage+Against+the+Machine/_/How+I+Could+Just+Kill+a+Man'
p274
S'1392917786'
p275
tp276
a(S'Rage Against the Machine'
p277
S'People of the Sun'
p278
S'http://www.last.fm/music/Rage+Against+the+Machine/_/People+of+the+Sun'
p279
S'1392917541'
p280
tp281
a(S'Rage Against the Machine'
p282
S'Maria'
p283
S'http://www.last.fm/music/Rage+Against+the+Machine/_/Maria'
p284
S'1392917391'
p285
tp286
a(S'Rage Against the Machine'
p287
S'Born of a Broken Man'
p288
S'http://www.last.fm/music/Rage+Against+the+Machine/_/Born+of+a+Broken+Man'
p289
S'1392917162'
p290
tp291
a(S'Rage Against the Machine'
p292
S'Renegades of Funk'
p293
S'http://www.last.fm/music/Rage+Against+the+Machine/_/Renegades+of+Funk'
p294
S'1392916881'
p295
tp296
a(S'Rage Against the Machine'
p297
S'Township Rebellion'
p298
S'http://www.last.fm/music/Rage+Against+the+Machine/_/Township+Rebellion'
p299
S'1392916606'
p300
tp301
a(S'Rage Against the Machine'
p302
S'Testify'
p303
S'http://www.last.fm/music/Rage+Against+the+Machine/_/Testify'
p304
S'1392916281'
p305
tp306
a(S'Rage Against the Machine'
p307
S'Voice of the Voiceless'
p308
S'http://www.last.fm/music/Rage+Against+the+Machine/_/Voice+of+the+Voiceless'
p309
S'1392916071'
p310
tp311
a(S'Rage Against the Machine'
p312
S'Know Your Enemy'
p313
S'http://www.last.fm/music/Rage+Against+the+Machine/_/Know+Your+Enemy'
p314
S'1392912268'
p315
tp316
a(S'Rage Against the Machine'
p317
S'Testify'
p318
S'http://www.last.fm/music/Rage+Against+the+Machine/_/Testify'
p319
S'1392911973'
p320
tp321
a(S'Rage Against the Machine'
p322
S'People of the Sun'
p323
S'http://www.last.fm/music/Rage+Against+the+Machine/_/People+of+the+Sun'
p324
S'1392911762'
p325
tp326
a(S'Rage Against the Machine'
p327
S'Born of a Broken Man'
p328
S'http://www.last.fm/music/Rage+Against+the+Machine/_/Born+of+a+Broken+Man'
p329
S'1392911612'
p330
tp331
a(S'Rage Against the Machine'
p332
S'Township Rebellion'
p333
S'http://www.last.fm/music/Rage+Against+the+Machine/_/Township+Rebellion'
p334
S'1392911331'
p335
tp336
a(S'Rage Against the Machine'
p337
S'How I Could Just Kill a Man'
p338
S'http://www.last.fm/music/Rage+Against+the+Machine/_/How+I+Could+Just+Kill+a+Man'
p339
S'1392911006'
p340
tp341
a(S'Rage Against the Machine'
p342
S'Born of a Broken Man'
p343
S'http://www.last.fm/music/Rage+Against+the+Machine/_/Born+of+a+Broken+Man'
p344
S'1392819720'
p345
tp346
a(S'Rage Against the Machine'
p347
S'Know Your Enemy'
p348
S'http://www.last.fm/music/Rage+Against+the+Machine/_/Know+Your+Enemy'
p349
S'1392819439'
p350
tp351
a(S'Rage Against the Machine'
p352
S'Township Rebellion'
p353
S'http://www.last.fm/music/Rage+Against+the+Machine/_/Township+Rebellion'
p354
S'1392819144'
p355
tp356
a(S'Rage Against the Machine'
p357
S'Down Rodeo'
p358
S'http://www.last.fm/music/Rage+Against+the+Machine/_/Down+Rodeo'
p359
S'1392818819'
p360
tp361
a(S'Rage Against the Machine'
p362
S'Bullet In The Head (Live)'
p363
S'http://www.last.fm/music/Rage+Against+the+Machine/_/Bullet+In+The+Head+(Live)'
p364
S'1392818498'
p365
tp366
a(S'Rage Against the Machine'
p367
S'Testify'
p368
S'http://www.last.fm/music/Rage+Against+the+Machine/_/Testify'
p369
S'1392818168'
p370
tp371
a(S'Rage Against the Machine'
p372
S'Maria'
p373
S'http://www.last.fm/music/Rage+Against+the+Machine/_/Maria'
p374
S'1392817958'
p375
tp376
a(S'Rage Against the Machine'
p377
S'People of the Sun'
p378
S'http://www.last.fm/music/Rage+Against+the+Machine/_/People+of+the+Sun'
p379
S'1392817827'
p380
tp381
a(S'Rage Against the Machine'
p382
S'Renegades of Funk'
p383
S'http://www.last.fm/music/Rage+Against+the+Machine/_/Renegades+of+Funk'
p384
S'1392817663'
p385
tp386
a(S'Rage Against the Machine'
p387
S'How I Could Just Kill a Man'
p388
S'http://www.last.fm/music/Rage+Against+the+Machine/_/How+I+Could+Just+Kill+a+Man'
p389
S'1392817387'
p390
tp391
a(S'Rage Against the Machine'
p392
S'Voice of the Voiceless'
p393
S'http://www.last.fm/music/Rage+Against+the+Machine/_/Voice+of+the+Voiceless'
p394
S'1392816610'
p395
tp396
a(S'Rage Against the Machine'
p397
S'Born of a Broken Man'
p398
S'http://www.last.fm/music/Rage+Against+the+Machine/_/Born+of+a+Broken+Man'
p399
S'1392815484'
p400
tp401
a(S'Rage Against the Machine'
p402
S'Know Your Enemy'
p403
S'http://www.last.fm/music/Rage+Against+the+Machine/_/Know+Your+Enemy'
p404
S'1392815203'
p405
tp406
a(S'Rage Against the Machine'
p407
S'Bullet In The Head (Live)'
p408
S'http://www.last.fm/music/Rage+Against+the+Machine/_/Bullet+In+The+Head+(Live)'
p409
S'1392814733'
p410
tp411
a(S'Rage Against the Machine'
p412
S'Testify'
p413
S'http://www.last.fm/music/Rage+Against+the+Machine/_/Testify'
p414
S'1392746380'
p415
tp416
a(S'Rage Against the Machine'
p417
S'Know Your Enemy'
p418
S'http://www.last.fm/music/Rage+Against+the+Machine/_/Know+Your+Enemy'
p419
S'1392746170'
p420
tp421
a(S'Rage Against the Machine'
p422
S'The Ghost of Tom Joad'
p423
S'http://www.last.fm/music/Rage+Against+the+Machine/_/The+Ghost+of+Tom+Joad'
p424
S'1392745874'
p425
tp426
a(S'Rage Against the Machine'
p427
S'Down Rodeo'
p428
S'http://www.last.fm/music/Rage+Against+the+Machine/_/Down+Rodeo'
p429
S'1392745535'
p430
tp431
a(S'Rage Against the Machine'
p432
S'Revolver'
p433
S'http://www.last.fm/music/Rage+Against+the+Machine/_/Revolver'
p434
S'1392745214'
p435
tp436
a(S'Rage Against the Machine'
p437
S'Voice of the Voiceless'
p438
S'http://www.last.fm/music/Rage+Against+the+Machine/_/Voice+of+the+Voiceless'
p439
S'1392744884'
p440
tp441
a(S'Rage Against the Machine'
p442
S'Born of a Broken Man'
p443
S'http://www.last.fm/music/Rage+Against+the+Machine/_/Born+of+a+Broken+Man'
p444
S'1392744732'
p445
tp446
a(S'Rage Against the Machine'
p447
S'Renegades of Funk'
p448
S'http://www.last.fm/music/Rage+Against+the+Machine/_/Renegades+of+Funk'
p449
S'1392744451'
p450
tp451
a(S'Rage Against the Machine'
p452
S'How I Could Just Kill a Man'
p453
S'http://www.last.fm/music/Rage+Against+the+Machine/_/How+I+Could+Just+Kill+a+Man'
p454
S'1392744176'
p455
tp456
a(S'Rage Against the Machine'
p457
S'Maria'
p458
S'http://www.last.fm/music/Rage+Against+the+Machine/_/Maria'
p459
S'1392743931'
p460
tp461
a(S'Rage Against the Machine'
p462
S'People of the Sun'
p463
S'http://www.last.fm/music/Rage+Against+the+Machine/_/People+of+the+Sun'
p464
S'1392743703'
p465
tp466
a(S'Rage Against the Machine'
p467
S'Bullet In The Head (Live)'
p468
S'http://www.last.fm/music/Rage+Against+the+Machine/_/Bullet+In+The+Head+(Live)'
p469
S'1392740930'
p470
tp471
a(S'Rage Against the Machine'
p472
S'Testify'
p473
S'http://www.last.fm/music/Rage+Against+the+Machine/_/Testify'
p474
S'1392734104'
p475
tp476
a(S'Rage Against the Machine'
p477
S'Know Your Enemy'
p478
S'http://www.last.fm/music/Rage+Against+the+Machine/_/Know+Your+Enemy'
p479
S'1392733894'
p480
tp481
a(S'Rage Against the Machine'
p482
S'The Ghost of Tom Joad'
p483
S'http://www.last.fm/music/Rage+Against+the+Machine/_/The+Ghost+of+Tom+Joad'
p484
S'1392733598'
p485
tp486
a(S'Rage Against the Machine'
p487
S'Down Rodeo'
p488
S'http://www.last.fm/music/Rage+Against+the+Machine/_/Down+Rodeo'
p489
S'1392733259'
p490
tp491
a(S'Rage Against the Machine'
p492
S'Revolver'
p493
S'http://www.last.fm/music/Rage+Against+the+Machine/_/Revolver'
p494
S'1392732938'
p495
tp496
a(S'Rage Against the Machine'
p497
S'Voice of the Voiceless'
p498
S'http://www.last.fm/music/Rage+Against+the+Machine/_/Voice+of+the+Voiceless'
p499
S'1392732634'
p500
tp501
a(S'Rage Against the Machine'
p502
S'Born of a Broken Man'
p503
S'http://www.last.fm/music/Rage+Against+the+Machine/_/Born+of+a+Broken+Man'
p504
S'1392732483'
p505
tp506
a(S'Rage Against the Machine'
p507
S'Renegades of Funk'
p508
S'http://www.last.fm/music/Rage+Against+the+Machine/_/Renegades+of+Funk'
p509
S'1392732202'
p510
tp511
a(S'Rage Against the Machine'
p512
S'Maria'
p513
S'http://www.last.fm/music/Rage+Against+the+Machine/_/Maria'
p514
S'1392731211'
p515
tp516
a(S'Rage Against the Machine'
p517
S'People of the Sun'
p518
S'http://www.last.fm/music/Rage+Against+the+Machine/_/People+of+the+Sun'
p519
S'1392730983'
p520
tp521
a(S'Rage Against the Machine'
p522
S'Township Rebellion'
p523
S'http://www.last.fm/music/Rage+Against+the+Machine/_/Township+Rebellion'
p524
S'1392730833'
p525
tp526
a(S'Rage Against the Machine'
p527
S'Testify'
p528
S'http://www.last.fm/music/Rage+Against+the+Machine/_/Testify'
p529
S'1392729014'
p530
tp531
a(S'Rage Against the Machine'
p532
S'Know Your Enemy'
p533
S'http://www.last.fm/music/Rage+Against+the+Machine/_/Know+Your+Enemy'
p534
S'1392728804'
p535
tp536
a(S'Rage Against the Machine'
p537
S'The Ghost of Tom Joad'
p538
S'http://www.last.fm/music/Rage+Against+the+Machine/_/The+Ghost+of+Tom+Joad'
p539
S'1392728508'
p540
tp541
a(S'Rage Against the Machine'
p542
S'Down Rodeo'
p543
S'http://www.last.fm/music/Rage+Against+the+Machine/_/Down+Rodeo'
p544
S'1392728169'
p545
tp546
a(S'Rage Against the Machine'
p547
S'Revolver'
p548
S'http://www.last.fm/music/Rage+Against+the+Machine/_/Revolver'
p549
S'1392727848'
p550
tp551
a(S'Rage Against the Machine'
p552
S'Voice of the Voiceless'
p553
S'http://www.last.fm/music/Rage+Against+the+Machine/_/Voice+of+the+Voiceless'
p554
S'1392727518'
p555
tp556
a(S'Rage Against the Machine'
p557
S'Born of a Broken Man'
p558
S'http://www.last.fm/music/Rage+Against+the+Machine/_/Born+of+a+Broken+Man'
p559
S'1392727366'
p560
tp561
a(S'Rage Against the Machine'
p562
S'Renegades of Funk'
p563
S'http://www.last.fm/music/Rage+Against+the+Machine/_/Renegades+of+Funk'
p564
S'1392727085'
p565
tp566
a(S'Rage Against the Machine'
p567
S'How I Could Just Kill a Man'
p568
S'http://www.last.fm/music/Rage+Against+the+Machine/_/How+I+Could+Just+Kill+a+Man'
p569
S'1392726810'
p570
tp571
a(S'Rage Against the Machine'
p572
S'Township Rebellion'
p573
S'http://www.last.fm/music/Rage+Against+the+Machine/_/Township+Rebellion'
p574
S'1392671088'
p575
tp576
a(S'Rage Against the Machine'
p577
S'Know Your Enemy'
p578
S'http://www.last.fm/music/Rage+Against+the+Machine/_/Know+Your+Enemy'
p579
S'1392670763'
p580
tp581
a(S'Rage Against the Machine'
p582
S'Testify'
p583
S'http://www.last.fm/music/Rage+Against+the+Machine/_/Testify'
p584
S'1392668953'
p585
tp586
a(S'Rage Against the Machine'
p587
S'Revolver'
p588
S'http://www.last.fm/music/Rage+Against+the+Machine/_/Revolver'
p589
S'1392655751'
p590
tp591
a(S'Rage Against the Machine'
p592
S'Born of a Broken Man'
p593
S'http://www.last.fm/music/Rage+Against+the+Machine/_/Born+of+a+Broken+Man'
p594
S'1392655421'
p595
tp596
a(S'Rage Against the Machine'
p597
S'How I Could Just Kill a Man'
p598
S'http://www.last.fm/music/Rage+Against+the+Machine/_/How+I+Could+Just+Kill+a+Man'
p599
S'1392655139'
p600
tp601
a(S'Rage Against the Machine'
p602
S'Bullet In The Head (Live)'
p603
S'http://www.last.fm/music/Rage+Against+the+Machine/_/Bullet+In+The+Head+(Live)'
p604
S'1392654894'
p605
tp606
a(S'Rage Against the Machine'
p607
S'People of the Sun'
p608
S'http://www.last.fm/music/Rage+Against+the+Machine/_/People+of+the+Sun'
p609
S'1392653721'
p610
tp611
a(S'Rage Against the Machine'
p612
S'Testify'
p613
S'http://www.last.fm/music/Rage+Against+the+Machine/_/Testify'
p614
S'1392653483'
p615
tp616
a(S'Alice Cooper'
p617
S'Love Should Never Feel Like This'
p618
S'http://www.last.fm/music/Alice+Cooper/_/Love+Should+Never+Feel+Like+This'
p619
S'1392653174'
p620
tp621
a(S'Alice Cooper'
p622
S'Public Animal #9'
p623
S'http://www.last.fm/music/Alice+Cooper/_/Public+Animal+%239'
p624
S'1392651838'
p625
tp626
a(S'Alice Cooper'
p627
S'Perfect'
p628
S'http://www.last.fm/music/Alice+Cooper/_/Perfect'
p629
S'1392651603'
p630
tp631
a(S'Alice Cooper'
p632
S"The Song That Didn't Rhyme"
p633
S'http://www.last.fm/music/Alice+Cooper/_/The+Song+That+Didn%27t+Rhyme'
p634
S'1392651391'
p635
tp636
a(S'Alice Cooper'
p637
S"School's Out"
p638
S'http://www.last.fm/music/Alice+Cooper/_/School%27s+Out'
p639
S'1392646635'
p640
tp641
a(S'Alice Cooper'
p642
S'Burning Our Bed'
p643
S'http://www.last.fm/music/Alice+Cooper/_/Burning+Our+Bed'
p644
S'1392646425'
p645
tp646
a(S'Alice Cooper'
p647
S'Hell Is Living Without You'
p648
S'http://www.last.fm/music/Alice+Cooper/_/Hell+Is+Living+Without+You'
p649
S'1392646150'
p650
tp651
a(S'Alice Cooper'
p652
S'No More Mr. Nice Guy'
p653
S'http://www.last.fm/music/Alice+Cooper/_/No+More+Mr.+Nice+Guy'
p654
S'1392645669'
p655
tp656
a(S'Alice Cooper'
p657
S'Novocaine'
p658
S'http://www.last.fm/music/Alice+Cooper/_/Novocaine'
p659
S'1392645483'
p660
tp661
a(S'Alice Cooper'
p662
S'Dangerous Tonight'
p663
S'http://www.last.fm/music/Alice+Cooper/_/Dangerous+Tonight'
p664
S'1392645294'
p665
tp666
a(S'Alice Cooper'
p667
S"Nothing's Free"
p668
S'http://www.last.fm/music/Alice+Cooper/_/Nothing%27s+Free'
p669
S'1392645012'
p670
tp671
a(S'Alice Cooper'
p672
S'Spirits Rebellious'
p673
S'http://www.last.fm/music/Alice+Cooper/_/Spirits+Rebellious'
p674
S'1392643941'
p675
tp676
a(S'Alice Cooper'
p677
S'Trash'
p678
S'http://www.last.fm/music/Alice+Cooper/_/Trash'
p679
S'1392643725'
p680
tp681
a(S'Alice Cooper'
p682
S'Hurricane Years'
p683
S'http://www.last.fm/music/Alice+Cooper/_/Hurricane+Years'
p684
S'1392643499'
p685
tp686
a(S'Alice Cooper'
p687
S'Zombie Dance'
p688
S'http://www.last.fm/music/Alice+Cooper/_/Zombie+Dance'
p689
S'1392643260'
p690
tp691
a(S'Alice Cooper'
p692
S'House of Fire'
p693
S'http://www.last.fm/music/Alice+Cooper/_/House+of+Fire'
p694
S'1392642997'
p695
tp696
a(S'Alice Cooper'
p697
S"Love's a Loaded Gun"
p698
S'http://www.last.fm/music/Alice+Cooper/_/Love%27s+a+Loaded+Gun'
p699
S'1392642769'
p700
tp701
a(S'Alice Cooper'
p702
S'Snakebite'
p703
S'http://www.last.fm/music/Alice+Cooper/_/Snakebite'
p704
S'1392642518'
p705
tp706
a(S'Alice Cooper'
p707
S'Hey Stoopid'
p708
S'http://www.last.fm/music/Alice+Cooper/_/Hey+Stoopid'
p709
S'1392641229'
p710
tp711
a(S'Alice Cooper'
p712
S'Poison'
p713
S'http://www.last.fm/music/Alice+Cooper/_/Poison'
p714
S'1392640955'
p715
tp716
a(S'Alice Cooper'
p717
S'Love Should Never Feel Like This'
p718
S'http://www.last.fm/music/Alice+Cooper/_/Love+Should+Never+Feel+Like+This'
p719
S'1392640685'
p720
tp721
a(S'Alice Cooper'
p722
S'Public Animal #9'
p723
S'http://www.last.fm/music/Alice+Cooper/_/Public+Animal+%239'
p724
S'1392640472'
p725
tp726
a(S'Alice Cooper'
p727
S'House of Fire'
p728
S'http://www.last.fm/music/Alice+Cooper/_/House+of+Fire'
p729
S'1392401507'
p730
tp731
a(S'Alice Cooper'
p732
S'Bed of Nails'
p733
S'http://www.last.fm/music/Alice+Cooper/_/Bed+of+Nails'
p734
S'1392401279'
p735
tp736
a(S'Alice Cooper'
p737
S'Burning Our Bed'
p738
S'http://www.last.fm/music/Alice+Cooper/_/Burning+Our+Bed'
p739
S'1392401019'
p740
tp741
a(S'Alice Cooper'
p742
S'Poison'
p743
S'http://www.last.fm/music/Alice+Cooper/_/Poison'
p744
S'1392400745'
p745
tp746
a(S'Alice Cooper'
p747
S'Snakebite'
p748
S'http://www.last.fm/music/Alice+Cooper/_/Snakebite'
p749
S'1392400404'
p750
tp751
a(S'Alice Cooper'
p752
S'Hurricane Years'
p753
S'http://www.last.fm/music/Alice+Cooper/_/Hurricane+Years'
p754
S'1392400131'
p755
tp756
a(S'Alice Cooper'
p757
S'Hey Stoopid'
p758
S'http://www.last.fm/music/Alice+Cooper/_/Hey+Stoopid'
p759
S'1392399892'
p760
tp761
a(S'Alice Cooper'
p762
S'Love Should Never Feel Like This'
p763
S'http://www.last.fm/music/Alice+Cooper/_/Love+Should+Never+Feel+Like+This'
p764
S'1392399617'
p765
tp766
a(S'Alice Cooper'
p767
S'Hell Is Living Without You'
p768
S'http://www.last.fm/music/Alice+Cooper/_/Hell+Is+Living+Without+You'
p769
S'1392399404'
p770
tp771
a(S'Alice Cooper'
p772
S'Might As Well Be on Mars'
p773
S'http://www.last.fm/music/Alice+Cooper/_/Might+As+Well+Be+on+Mars'
p774
S'1392399153'
p775
tp776
a(S'Alice Cooper'
p777
S'Zombie Dance'
p778
S'http://www.last.fm/music/Alice+Cooper/_/Zombie+Dance'
p779
S'1392398723'
p780
tp781
a(S'Alice Cooper'
p782
S'No More Mr. Nice Guy'
p783
S'http://www.last.fm/music/Alice+Cooper/_/No+More+Mr.+Nice+Guy'
p784
S'1392398460'
p785
tp786
a(S'Alice Cooper'
p787
S"The Song That Didn't Rhyme"
p788
S'http://www.last.fm/music/Alice+Cooper/_/The+Song+That+Didn%27t+Rhyme'
p789
S'1392398273'
p790
tp791
a(S'Alice Cooper'
p792
S'Stolen Prayer'
p793
S'http://www.last.fm/music/Alice+Cooper/_/Stolen+Prayer'
p794
S'1392398076'
p795
tp796
a(S'Alice Cooper'
p797
S'Trash'
p798
S'http://www.last.fm/music/Alice+Cooper/_/Trash'
p799
S'1392397733'
p800
tp801
a(S'Alice Cooper'
p802
S"Nothing's Free"
p803
S'http://www.last.fm/music/Alice+Cooper/_/Nothing%27s+Free'
p804
S'1392397550'
p805
tp806
a(S'Alice Cooper'
p807
S'Dangerous Tonight'
p808
S'http://www.last.fm/music/Alice+Cooper/_/Dangerous+Tonight'
p809
S'1392397248'
p810
tp811
a(S'Alice Cooper'
p812
S'Sideshow'
p813
S'http://www.last.fm/music/Alice+Cooper/_/Sideshow'
p814
S'1392396966'
p815
tp816
a(S'Alice Cooper'
p817
S"Love's a Loaded Gun"
p818
S'http://www.last.fm/music/Alice+Cooper/_/Love%27s+a+Loaded+Gun'
p819
S'1392396566'
p820
tp821
a(S'Alice Cooper'
p822
S'House of Fire'
p823
S'http://www.last.fm/music/Alice+Cooper/_/House+of+Fire'
p824
S'1392390748'
p825
tp826
a(S'Alice Cooper'
p827
S'Snakebite'
p828
S'http://www.last.fm/music/Alice+Cooper/_/Snakebite'
p829
S'1392390459'
p830
tp831
a(S'Alice Cooper'
p832
S'Hurricane Years'
p833
S'http://www.last.fm/music/Alice+Cooper/_/Hurricane+Years'
p834
S'1392390185'
p835
tp836
a(S'Alice Cooper'
p837
S'Hey Stoopid'
p838
S'http://www.last.fm/music/Alice+Cooper/_/Hey+Stoopid'
p839
S'1392389947'
p840
tp841
a(S'Alice Cooper'
p842
S'Love Should Never Feel Like This'
p843
S'http://www.last.fm/music/Alice+Cooper/_/Love+Should+Never+Feel+Like+This'
p844
S'1392389672'
p845
tp846
a(S'Alice Cooper'
p847
S'Might As Well Be on Mars'
p848
S'http://www.last.fm/music/Alice+Cooper/_/Might+As+Well+Be+on+Mars'
p849
S'1392384909'
p850
tp851
a(S'Alice Cooper'
p852
S'Zombie Dance'
p853
S'http://www.last.fm/music/Alice+Cooper/_/Zombie+Dance'
p854
S'1392384480'
p855
tp856
a(S'Alice Cooper'
p857
S'No More Mr. Nice Guy'
p858
S'http://www.last.fm/music/Alice+Cooper/_/No+More+Mr.+Nice+Guy'
p859
S'1392384216'
p860
tp861
a(S'Alice Cooper'
p862
S"The Song That Didn't Rhyme"
p863
S'http://www.last.fm/music/Alice+Cooper/_/The+Song+That+Didn%27t+Rhyme'
p864
S'1392384030'
p865
tp866
a(S'Alice Cooper'
p867
S"Nothing's Free"
p868
S'http://www.last.fm/music/Alice+Cooper/_/Nothing%27s+Free'
p869
S'1392383600'
p870
tp871
a(S'Alice Cooper'
p872
S'Dangerous Tonight'
p873
S'http://www.last.fm/music/Alice+Cooper/_/Dangerous+Tonight'
p874
S'1392383298'
p875
tp876
a(S'Alice Cooper'
p877
S'Sideshow'
p878
S'http://www.last.fm/music/Alice+Cooper/_/Sideshow'
p879
S'1392383016'
p880
tp881
a(S'Alice Cooper'
p882
S"Love's a Loaded Gun"
p883
S'http://www.last.fm/music/Alice+Cooper/_/Love%27s+a+Loaded+Gun'
p884
S'1392382616'
p885
tp886
a(S'Alice Cooper'
p887
S'Perfect'
p888
S'http://www.last.fm/music/Alice+Cooper/_/Perfect'
p889
S'1392382365'
p890
tp891
a(S'Alice Cooper'
p892
S'House of Fire'
p893
S'http://www.last.fm/music/Alice+Cooper/_/House+of+Fire'
p894
S'1392382154'
p895
tp896
a(S'Alice Cooper'
p897
S'Bed of Nails'
p898
S'http://www.last.fm/music/Alice+Cooper/_/Bed+of+Nails'
p899
S'1392381926'
p900
tp901
a(S'Alice Cooper'
p902
S'Burning Our Bed'
p903
S'http://www.last.fm/music/Alice+Cooper/_/Burning+Our+Bed'
p904
S'1392381666'
p905
tp906
a(S'Alice Cooper'
p907
S'Poison'
p908
S'http://www.last.fm/music/Alice+Cooper/_/Poison'
p909
S'1392381391'
p910
tp911
a(S'Alice Cooper'
p912
S'Public Animal #9'
p913
S'http://www.last.fm/music/Alice+Cooper/_/Public+Animal+%239'
p914
S'1392381121'
p915
tp916
a(S'Alice Cooper'
p917
S'Novocaine'
p918
S'http://www.last.fm/music/Alice+Cooper/_/Novocaine'
p919
S'1392380886'
p920
tp921
a(S'Alice Cooper'
p922
S'Spirits Rebellious'
p923
S'http://www.last.fm/music/Alice+Cooper/_/Spirits+Rebellious'
p924
S'1392380698'
p925
tp926
a(S'Alice Cooper'
p927
S'Snakebite'
p928
S'http://www.last.fm/music/Alice+Cooper/_/Snakebite'
p929
S'1392380483'
p930
tp931
a(S'Alice Cooper'
p932
S'Hurricane Years'
p933
S'http://www.last.fm/music/Alice+Cooper/_/Hurricane+Years'
p934
S'1392380210'
p935
tp936
a(S'Alice Cooper'
p937
S'Hey Stoopid'
p938
S'http://www.last.fm/music/Alice+Cooper/_/Hey+Stoopid'
p939
S'1392379971'
p940
tp941
a(S'Alice Cooper'
p942
S'Love Should Never Feel Like This'
p943
S'http://www.last.fm/music/Alice+Cooper/_/Love+Should+Never+Feel+Like+This'
p944
S'1392379697'
p945
tp946
a(S'Alice Cooper'
p947
S'Hell Is Living Without You'
p948
S'http://www.last.fm/music/Alice+Cooper/_/Hell+Is+Living+Without+You'
p949
S'1392379484'
p950
tp951
a(S'Alice Cooper'
p952
S'Zombie Dance'
p953
S'http://www.last.fm/music/Alice+Cooper/_/Zombie+Dance'
p954
S'1392378226'
p955
tp956
a(S'Derek and the Dominos'
p957
S'Bell Bottom Blues'
p958
S'http://www.last.fm/music/Derek+and+the+Dominos/_/Bell+Bottom+Blues'
p959
S'1392377832'
p960
tp961
a(S'Eric Clapton'
p962
S"We're All The Way"
p963
S'http://www.last.fm/music/Eric+Clapton/_/We%27re+All+The+Way'
p964
S'1392377181'
p965
tp966
a(S'Eric Clapton'
p967
S'Swing Low Sweet Chariot'
p968
S'http://www.last.fm/music/Eric+Clapton/_/Swing+Low+Sweet+Chariot'
p969
S'1392377020'
p970
tp971
a(S'J.J. Cale & Eric Clapton'
p972
S'Dead End Road'
p973
S'http://www.last.fm/music/J.J.+Cale+&+Eric+Clapton/_/Dead+End+Road'
p974
S'1392376806'
p975
tp976
a(S'Eric Clapton'
p977
S'If I Had Possession Over Judgement Day'
p978
S'http://www.last.fm/music/Eric+Clapton/_/If+I+Had+Possession+Over+Judgement+Day'
p979
S'1392376596'
p980
tp981
a(S'Eric Clapton'
p982
S'Promises'
p983
S'http://www.last.fm/music/Eric+Clapton/_/Promises'
p984
S'1392376139'
p985
tp986
a(S'Eric Clapton'
p987
S'Malted Milk'
p988
S'http://www.last.fm/music/Eric+Clapton/_/Malted+Milk'
p989
S'1392375959'
p990
tp991
a(S'Eric Clapton'
p992
S'Old Love'
p993
S'http://www.last.fm/music/Eric+Clapton/_/Old+Love'
p994
S'1392317593'
p995
tp996
a(S'Eric Clapton'
p997
S'The Core'
p998
S'http://www.last.fm/music/Eric+Clapton/_/The+Core'
p999
S'1392317120'
p1000
tp1001
a.