(lp1
(S'Danko Jones'
p2
S'Code of the Road'
p3
S'http://www.last.fm/music/Danko+Jones/_/Code+of+the+Road'
p4
S'1382112932'
p5
tp6
a(S'Bob Marley & The Wailers'
p7
S'Exodus'
p8
S'http://www.last.fm/music/Bob+Marley+&+The+Wailers/_/Exodus'
p9
S'1382112477'
p10
tp11
a(S'Slash'
p12
S'Paradise City (feat. Cypress Hill & Fergie)'
p13
S'http://www.last.fm/music/Slash/_/Paradise+City+(feat.+Cypress+Hill+&+Fergie)'
p14
S'1382112164'
p15
tp16
a(S'Roxette'
p17
S'Cinnamon Street'
p18
S'http://www.last.fm/music/Roxette/_/Cinnamon+Street'
p19
S'1382109208'
p20
tp21
a(S'Jerry Cantrell'
p22
S'Spiderbite'
p23
S'http://www.last.fm/music/Jerry+Cantrell/_/Spiderbite'
p24
S'1382108809'
p25
tp26
a(S'Danzig'
p27
S'Mother'
p28
S'http://www.last.fm/music/Danzig/_/Mother'
p29
S'1382108568'
p30
tp31
a(S'ZZ Top'
p32
S"What's Up With That"
p33
S'http://www.last.fm/music/ZZ+Top/_/What%27s+Up+With+That'
p34
S'1382108248'
p35
tp36
a(S'Black Sabbath'
p37
S'Megalomania'
p38
S'http://www.last.fm/music/Black+Sabbath/_/Megalomania'
p39
S'1382107668'
p40
tp41
a(S'Roxette'
p42
S"Knockin' on Every Door"
p43
S'http://www.last.fm/music/Roxette/_/Knockin%27+on+Every+Door'
p44
S'1382107432'
p45
tp46
a(S'Jerry Cantrell'
p47
S'Anger Rising'
p48
S'http://www.last.fm/music/Jerry+Cantrell/_/Anger+Rising'
p49
S'1382107059'
p50
tp51
a(S'B.B. King & Eric Clapton'
p52
S'Riding With the King'
p53
S'http://www.last.fm/music/B.B.+King+&+Eric+Clapton/_/Riding+With+the+King'
p54
S'1382106796'
p55
tp56
a(S'Queens of the Stone Age'
p57
S'If I Had a Tail'
p58
S'http://www.last.fm/music/Queens+of+the+Stone+Age/_/If+I+Had+a+Tail'
p59
S'1382106502'
p60
tp61
a(S'Black Sabbath'
p62
S'Wheels of Confusion / The Straightener'
p63
S'http://www.last.fm/music/Black+Sabbath/_/Wheels+of+Confusion+%2F+The+Straightener'
p64
S'1382106008'
p65
tp66
a(S'Ugly Kid Joe'
p67
S"Panhandlin' Prince"
p68
S'http://www.last.fm/music/Ugly+Kid+Joe/_/Panhandlin%27+Prince'
p69
S'1382105668'
p70
tp71
a(S'Roxette'
p72
S'Things Will Never Be the Same'
p73
S'http://www.last.fm/music/Roxette/_/Things+Will+Never+Be+the+Same'
p74
S'1382105402'
p75
tp76
a(S'Stevie Ray Vaughan and Double Trouble'
p77
S'Voodoo Chile (Slight Return)'
p78
S'http://www.last.fm/music/Stevie+Ray+Vaughan+and+Double+Trouble/_/Voodoo+Chile+(Slight+Return)'
p79
S'1382104826'
p80
tp81
a(S'Jerry Cantrell'
p82
S'Pig Charmer'
p83
S'http://www.last.fm/music/Jerry+Cantrell/_/Pig+Charmer'
p84
S'1382104335'
p85
tp86
a(S'Roxette'
p87
S'I Remember You'
p88
S'http://www.last.fm/music/Roxette/_/I+Remember+You'
p89
S'1382104101'
p90
tp91
a(S'Queens of the Stone Age'
p92
S'Smooth Sailing'
p93
S'http://www.last.fm/music/Queens+of+the+Stone+Age/_/Smooth+Sailing'
p94
S'1382103810'
p95
tp96
a(S'Katy Perry'
p97
S'Circle the Drain'
p98
S'http://www.last.fm/music/Katy+Perry/_/Circle+the+Drain'
p99
S'1382103535'
p100
tp101
a(S'Black Sabbath'
p102
S'Megalomania'
p103
S'http://www.last.fm/music/Black+Sabbath/_/Megalomania'
p104
S'1382041858'
p105
tp106
a(S'Jerry Cantrell'
p107
S'Pig Charmer'
p108
S'http://www.last.fm/music/Jerry+Cantrell/_/Pig+Charmer'
p109
S'1382035072'
p110
tp111
a(S'Ugly Kid Joe'
p112
S'Cats in the Cradle'
p113
S'http://www.last.fm/music/Ugly+Kid+Joe/_/Cats+in+the+Cradle'
p114
S'1382034118'
p115
tp116
a(S'Ugly Kid Joe'
p117
S"Panhandlin' Prince"
p118
S'http://www.last.fm/music/Ugly+Kid+Joe/_/Panhandlin%27+Prince'
p119
S'1382033775'
p120
tp121
a(S'Black Sabbath'
p122
S'Wheels of Confusion / The Straightener'
p123
S'http://www.last.fm/music/Black+Sabbath/_/Wheels+of+Confusion+%2F+The+Straightener'
p124
S'1382033282'
p125
tp126
a(S'Roxette'
p127
S'I Remember You'
p128
S'http://www.last.fm/music/Roxette/_/I+Remember+You'
p129
S'1382033048'
p130
tp131
a(S'Ramones'
p132
S'Censorshit'
p133
S'http://www.last.fm/music/Ramones/_/Censorshit'
p134
S'1382032857'
p135
tp136
a(S'Jerry Cantrell'
p137
S'Angel Eyes'
p138
S'http://www.last.fm/music/Jerry+Cantrell/_/Angel+Eyes'
p139
S'1382031688'
p140
tp141
a(S'Queens of the Stone Age'
p142
S'Smooth Sailing'
p143
S'http://www.last.fm/music/Queens+of+the+Stone+Age/_/Smooth+Sailing'
p144
S'1382031377'
p145
tp146
a(S'Danko Jones'
p147
S'Code of the Road'
p148
S'http://www.last.fm/music/Danko+Jones/_/Code+of+the+Road'
p149
S'1382031200'
p150
tp151
a(S'Roxette'
p152
S'(Do You Get) Excited?'
p153
S'http://www.last.fm/music/Roxette/_/(Do+You+Get)+Excited%3F'
p154
S'1382030944'
p155
tp156
a(S'Roxette'
p157
S"Knockin' on Every Door"
p158
S'http://www.last.fm/music/Roxette/_/Knockin%27+on+Every+Door'
p159
S'1382030707'
p160
tp161
a(S'Roxette'
p162
S'Things Will Never Be the Same'
p163
S'http://www.last.fm/music/Roxette/_/Things+Will+Never+Be+the+Same'
p164
S'1382030440'
p165
tp166
a(S'Black Sabbath'
p167
S'Megalomania'
p168
S'http://www.last.fm/music/Black+Sabbath/_/Megalomania'
p169
S'1382029860'
p170
tp171
a(S'Jerry Cantrell'
p172
S'Pig Charmer'
p173
S'http://www.last.fm/music/Jerry+Cantrell/_/Pig+Charmer'
p174
S'1382029367'
p175
tp176
a(S'Katy Perry'
p177
S'Circle the Drain'
p178
S'http://www.last.fm/music/Katy+Perry/_/Circle+the+Drain'
p179
S'1381878542'
p180
tp181
a(S'Jerry Cantrell'
p182
S'Spiderbite'
p183
S'http://www.last.fm/music/Jerry+Cantrell/_/Spiderbite'
p184
S'1381878145'
p185
tp186
a(S'Jerry Cantrell'
p187
S'Angel Eyes'
p188
S'http://www.last.fm/music/Jerry+Cantrell/_/Angel+Eyes'
p189
S'1381877859'
p190
tp191
a(S'Ramones'
p192
S'Censorshit'
p193
S'http://www.last.fm/music/Ramones/_/Censorshit'
p194
S'1381877668'
p195
tp196
a(S'ZZ Top'
p197
S"What's Up With That"
p198
S'http://www.last.fm/music/ZZ+Top/_/What%27s+Up+With+That'
p199
S'1381877348'
p200
tp201
a(S'Danzig'
p202
S'Mother'
p203
S'http://www.last.fm/music/Danzig/_/Mother'
p204
S'1381877145'
p205
tp206
a(S'Roxette'
p207
S"Knockin' on Every Door"
p208
S'http://www.last.fm/music/Roxette/_/Knockin%27+on+Every+Door'
p209
S'1381876909'
p210
tp211
a(S'Jerry Cantrell'
p212
S'Anger Rising'
p213
S'http://www.last.fm/music/Jerry+Cantrell/_/Anger+Rising'
p214
S'1381876536'
p215
tp216
a(S'Roxette'
p217
S'Things Will Never Be the Same'
p218
S'http://www.last.fm/music/Roxette/_/Things+Will+Never+Be+the+Same'
p219
S'1381876270'
p220
tp221
a(S'Roxette'
p222
S'(Do You Get) Excited?'
p223
S'http://www.last.fm/music/Roxette/_/(Do+You+Get)+Excited%3F'
p224
S'1381876012'
p225
tp226
a(S'Danko Jones'
p227
S'Code of the Road'
p228
S'http://www.last.fm/music/Danko+Jones/_/Code+of+the+Road'
p229
S'1381875835'
p230
tp231
a(S'Queens of the Stone Age'
p232
S'Smooth Sailing'
p233
S'http://www.last.fm/music/Queens+of+the+Stone+Age/_/Smooth+Sailing'
p234
S'1381875545'
p235
tp236
a(S'Black Sabbath'
p237
S'Wheels of Confusion / The Straightener'
p238
S'http://www.last.fm/music/Black+Sabbath/_/Wheels+of+Confusion+%2F+The+Straightener'
p239
S'1381875051'
p240
tp241
a(S'Queens of the Stone Age'
p242
S'If I Had a Tail'
p243
S'http://www.last.fm/music/Queens+of+the+Stone+Age/_/If+I+Had+a+Tail'
p244
S'1381874757'
p245
tp246
a(S'Black Sabbath'
p247
S'Megalomania'
p248
S'http://www.last.fm/music/Black+Sabbath/_/Megalomania'
p249
S'1381874177'
p250
tp251
a(S'Stevie Ray Vaughan and Double Trouble'
p252
S'Voodoo Chile (Slight Return)'
p253
S'http://www.last.fm/music/Stevie+Ray+Vaughan+and+Double+Trouble/_/Voodoo+Chile+(Slight+Return)'
p254
S'1381873600'
p255
tp256
a(S'Roxette'
p257
S'Cinnamon Street'
p258
S'http://www.last.fm/music/Roxette/_/Cinnamon+Street'
p259
S'1381873301'
p260
tp261
a(S'Roxette'
p262
S'I Remember You'
p263
S'http://www.last.fm/music/Roxette/_/I+Remember+You'
p264
S'1381873067'
p265
tp266
a(S'Bob Marley & The Wailers'
p267
S'Exodus'
p268
S'http://www.last.fm/music/Bob+Marley+&+The+Wailers/_/Exodus'
p269
S'1381872614'
p270
tp271
a(S'Jerry Cantrell'
p272
S'Pig Charmer'
p273
S'http://www.last.fm/music/Jerry+Cantrell/_/Pig+Charmer'
p274
S'1381872123'
p275
tp276
a(S'Slash'
p277
S'Paradise City (feat. Cypress Hill & Fergie)'
p278
S'http://www.last.fm/music/Slash/_/Paradise+City+(feat.+Cypress+Hill+&+Fergie)'
p279
S'1381871810'
p280
tp281
a(S'B.B. King & Eric Clapton'
p282
S'Riding With the King'
p283
S'http://www.last.fm/music/B.B.+King+&+Eric+Clapton/_/Riding+With+the+King'
p284
S'1381871547'
p285
tp286
a(S'Slash'
p287
S'No More Heroes'
p288
S'http://www.last.fm/music/Slash/_/No+More+Heroes'
p289
S'1381871285'
p290
tp291
a(S'Ugly Kid Joe'
p292
S"Panhandlin' Prince"
p293
S'http://www.last.fm/music/Ugly+Kid+Joe/_/Panhandlin%27+Prince'
p294
S'1381870944'
p295
tp296
a(S'Eric Clapton'
p297
S"My Father's Eyes"
p298
S'http://www.last.fm/music/Eric+Clapton/_/My+Father%27s+Eyes'
p299
S'1381870630'
p300
tp301
a(S'Ugly Kid Joe'
p302
S'Cats in the Cradle'
p303
S'http://www.last.fm/music/Ugly+Kid+Joe/_/Cats+in+the+Cradle'
p304
S'1381870389'
p305
tp306
a(S'Katy Perry'
p307
S'Circle the Drain'
p308
S'http://www.last.fm/music/Katy+Perry/_/Circle+the+Drain'
p309
S'1381870116'
p310
tp311
a(S'Jerry Cantrell'
p312
S'Spiderbite'
p313
S'http://www.last.fm/music/Jerry+Cantrell/_/Spiderbite'
p314
S'1381869716'
p315
tp316
a(S'Jerry Cantrell'
p317
S'Angel Eyes'
p318
S'http://www.last.fm/music/Jerry+Cantrell/_/Angel+Eyes'
p319
S'1381869425'
p320
tp321
a(S'Ugly Kid Joe'
p322
S"Panhandlin' Prince"
p323
S'http://www.last.fm/music/Ugly+Kid+Joe/_/Panhandlin%27+Prince'
p324
S'1381869059'
p325
tp326
a(S'Eric Clapton'
p327
S"My Father's Eyes"
p328
S'http://www.last.fm/music/Eric+Clapton/_/My+Father%27s+Eyes'
p329
S'1381868745'
p330
tp331
a(S'Ugly Kid Joe'
p332
S'Cats in the Cradle'
p333
S'http://www.last.fm/music/Ugly+Kid+Joe/_/Cats+in+the+Cradle'
p334
S'1381868504'
p335
tp336
a(S'Slash'
p337
S'No More Heroes'
p338
S'http://www.last.fm/music/Slash/_/No+More+Heroes'
p339
S'1381867816'
p340
tp341
a(S'B.B. King & Eric Clapton'
p342
S'Riding With the King'
p343
S'http://www.last.fm/music/B.B.+King+&+Eric+Clapton/_/Riding+With+the+King'
p344
S'1381867551'
p345
tp346
a(S'Ugly Kid Joe'
p347
S"Panhandlin' Prince"
p348
S'http://www.last.fm/music/Ugly+Kid+Joe/_/Panhandlin%27+Prince'
p349
S'1381867205'
p350
tp351
a(S'Katy Perry'
p352
S'Circle the Drain'
p353
S'http://www.last.fm/music/Katy+Perry/_/Circle+the+Drain'
p354
S'1381866930'
p355
tp356
a(S'Jerry Cantrell'
p357
S'Spiderbite'
p358
S'http://www.last.fm/music/Jerry+Cantrell/_/Spiderbite'
p359
S'1381866532'
p360
tp361
a(S'Jerry Cantrell'
p362
S'Angel Eyes'
p363
S'http://www.last.fm/music/Jerry+Cantrell/_/Angel+Eyes'
p364
S'1381866246'
p365
tp366
a(S'Ramones'
p367
S'Censorshit'
p368
S'http://www.last.fm/music/Ramones/_/Censorshit'
p369
S'1381866055'
p370
tp371
a(S'ZZ Top'
p372
S"What's Up With That"
p373
S'http://www.last.fm/music/ZZ+Top/_/What%27s+Up+With+That'
p374
S'1381865736'
p375
tp376
a(S'Danzig'
p377
S'Mother'
p378
S'http://www.last.fm/music/Danzig/_/Mother'
p379
S'1381865530'
p380
tp381
a(S'Jerry Cantrell'
p382
S'She Was My Girl'
p383
S'http://www.last.fm/music/Jerry+Cantrell/_/She+Was+My+Girl'
p384
S'1381864842'
p385
tp386
a(S'ZZ Top'
p387
S"What's Up With That"
p388
S'http://www.last.fm/music/ZZ+Top/_/What%27s+Up+With+That'
p389
S'1381864523'
p390
tp391
a(S'Queens of the Stone Age'
p392
S'Smooth Sailing'
p393
S'http://www.last.fm/music/Queens+of+the+Stone+Age/_/Smooth+Sailing'
p394
S'1381863129'
p395
tp396
a(S'Black Sabbath'
p397
S'Wheels of Confusion / The Straightener'
p398
S'http://www.last.fm/music/Black+Sabbath/_/Wheels+of+Confusion+%2F+The+Straightener'
p399
S'1381862633'
p400
tp401
a(S'Roxette'
p402
S'Things Will Never Be the Same'
p403
S'http://www.last.fm/music/Roxette/_/Things+Will+Never+Be+the+Same'
p404
S'1381862367'
p405
tp406
a(S'Roxette'
p407
S'I Remember You'
p408
S'http://www.last.fm/music/Roxette/_/I+Remember+You'
p409
S'1381862132'
p410
tp411
a(S'Roxette'
p412
S"Knockin' on Every Door"
p413
S'http://www.last.fm/music/Roxette/_/Knockin%27+on+Every+Door'
p414
S'1381861714'
p415
tp416
a(S'Slash'
p417
S'Paradise City (feat. Cypress Hill & Fergie)'
p418
S'http://www.last.fm/music/Slash/_/Paradise+City+(feat.+Cypress+Hill+&+Fergie)'
p419
S'1381860936'
p420
tp421
a(S'Jerry Cantrell'
p422
S'Spiderbite'
p423
S'http://www.last.fm/music/Jerry+Cantrell/_/Spiderbite'
p424
S'1381860538'
p425
tp426
a(S'B.B. King & Eric Clapton'
p427
S'Riding With the King'
p428
S'http://www.last.fm/music/B.B.+King+&+Eric+Clapton/_/Riding+With+the+King'
p429
S'1381860275'
p430
tp431
a(S'Ugly Kid Joe'
p432
S"Panhandlin' Prince"
p433
S'http://www.last.fm/music/Ugly+Kid+Joe/_/Panhandlin%27+Prince'
p434
S'1381859935'
p435
tp436
a(S'Katy Perry'
p437
S'Circle the Drain'
p438
S'http://www.last.fm/music/Katy+Perry/_/Circle+the+Drain'
p439
S'1381859663'
p440
tp441
a(S'Eric Clapton'
p442
S"My Father's Eyes"
p443
S'http://www.last.fm/music/Eric+Clapton/_/My+Father%27s+Eyes'
p444
S'1381859349'
p445
tp446
a(S'Placebo'
p447
S'Pure Morning'
p448
S'http://www.last.fm/music/Placebo/_/Pure+Morning'
p449
S'1381859097'
p450
tp451
a(S'Ugly Kid Joe'
p452
S'Cats in the Cradle'
p453
S'http://www.last.fm/music/Ugly+Kid+Joe/_/Cats+in+the+Cradle'
p454
S'1381858854'
p455
tp456
a(S'Slash'
p457
S'No More Heroes'
p458
S'http://www.last.fm/music/Slash/_/No+More+Heroes'
p459
S'1381858592'
p460
tp461
a(S'Danko Jones'
p462
S'Code of the Road'
p463
S'http://www.last.fm/music/Danko+Jones/_/Code+of+the+Road'
p464
S'1381857709'
p465
tp466
a(S'Black Sabbath'
p467
S'Wheels of Confusion / The Straightener'
p468
S'http://www.last.fm/music/Black+Sabbath/_/Wheels+of+Confusion+%2F+The+Straightener'
p469
S'1381856603'
p470
tp471
a(S'Roxette'
p472
S'Things Will Never Be the Same'
p473
S'http://www.last.fm/music/Roxette/_/Things+Will+Never+Be+the+Same'
p474
S'1381856338'
p475
tp476
a(S'Roxette'
p477
S'I Remember You'
p478
S'http://www.last.fm/music/Roxette/_/I+Remember+You'
p479
S'1381856100'
p480
tp481
a(S'Roxette'
p482
S"Knockin' on Every Door"
p483
S'http://www.last.fm/music/Roxette/_/Knockin%27+on+Every+Door'
p484
S'1381855863'
p485
tp486
a(S'Roxette'
p487
S'Cinnamon Street'
p488
S'http://www.last.fm/music/Roxette/_/Cinnamon+Street'
p489
S'1381855563'
p490
tp491
a(S'Stevie Ray Vaughan and Double Trouble'
p492
S'Voodoo Chile (Slight Return)'
p493
S'http://www.last.fm/music/Stevie+Ray+Vaughan+and+Double+Trouble/_/Voodoo+Chile+(Slight+Return)'
p494
S'1381854980'
p495
tp496
a(S'Bob Marley & The Wailers'
p497
S'Exodus'
p498
S'http://www.last.fm/music/Bob+Marley+&+The+Wailers/_/Exodus'
p499
S'1381847889'
p500
tp501
a(S'Jerry Cantrell'
p502
S'Angel Eyes'
p503
S'http://www.last.fm/music/Jerry+Cantrell/_/Angel+Eyes'
p504
S'1381847509'
p505
tp506
a(S'Queens of the Stone Age'
p507
S'Smooth Sailing'
p508
S'http://www.last.fm/music/Queens+of+the+Stone+Age/_/Smooth+Sailing'
p509
S'1381841481'
p510
tp511
a(S'Black Sabbath'
p512
S'Wheels of Confusion / The Straightener'
p513
S'http://www.last.fm/music/Black+Sabbath/_/Wheels+of+Confusion+%2F+The+Straightener'
p514
S'1381840547'
p515
tp516
a(S'Roxette'
p517
S'Things Will Never Be the Same'
p518
S'http://www.last.fm/music/Roxette/_/Things+Will+Never+Be+the+Same'
p519
S'1381839184'
p520
tp521
a(S'Roxette'
p522
S'I Remember You'
p523
S'http://www.last.fm/music/Roxette/_/I+Remember+You'
p524
S'1381838949'
p525
tp526
a(S'Roxette'
p527
S"Knockin' on Every Door"
p528
S'http://www.last.fm/music/Roxette/_/Knockin%27+on+Every+Door'
p529
S'1381838712'
p530
tp531
a(S'Roxette'
p532
S'Cinnamon Street'
p533
S'http://www.last.fm/music/Roxette/_/Cinnamon+Street'
p534
S'1381838412'
p535
tp536
a(S'Black Sabbath'
p537
S'Wheels of Confusion / The Straightener'
p538
S'http://www.last.fm/music/Black+Sabbath/_/Wheels+of+Confusion+%2F+The+Straightener'
p539
S'1381782029'
p540
tp541
a(S'ZZ Top'
p542
S"What's Up With That"
p543
S'http://www.last.fm/music/ZZ+Top/_/What%27s+Up+With+That'
p544
S'1381781709'
p545
tp546
a(S'Jerry Cantrell'
p547
S'She Was My Girl'
p548
S'http://www.last.fm/music/Jerry+Cantrell/_/She+Was+My+Girl'
p549
S'1381781471'
p550
tp551
a(S'Roxette'
p552
S'Things Will Never Be the Same'
p553
S'http://www.last.fm/music/Roxette/_/Things+Will+Never+Be+the+Same'
p554
S'1381781205'
p555
tp556
a(S'Stevie Ray Vaughan and Double Trouble'
p557
S'Voodoo Chile (Slight Return)'
p558
S'http://www.last.fm/music/Stevie+Ray+Vaughan+and+Double+Trouble/_/Voodoo+Chile+(Slight+Return)'
p559
S'1381780628'
p560
tp561
a(S'Queens of the Stone Age'
p562
S'If I Had a Tail'
p563
S'http://www.last.fm/music/Queens+of+the+Stone+Age/_/If+I+Had+a+Tail'
p564
S'1381780332'
p565
tp566
a(S'Ramones'
p567
S'Censorshit'
p568
S'http://www.last.fm/music/Ramones/_/Censorshit'
p569
S'1381780140'
p570
tp571
a(S'Roxette'
p572
S'(Do You Get) Excited?'
p573
S'http://www.last.fm/music/Roxette/_/(Do+You+Get)+Excited%3F'
p574
S'1381779885'
p575
tp576
a(S'Queens of the Stone Age'
p577
S'Smooth Sailing'
p578
S'http://www.last.fm/music/Queens+of+the+Stone+Age/_/Smooth+Sailing'
p579
S'1381779303'
p580
tp581
a(S'Jerry Cantrell'
p582
S'Angel Eyes'
p583
S'http://www.last.fm/music/Jerry+Cantrell/_/Angel+Eyes'
p584
S'1381779018'
p585
tp586
a(S'Roxette'
p587
S"Knockin' on Every Door"
p588
S'http://www.last.fm/music/Roxette/_/Knockin%27+on+Every+Door'
p589
S'1381778783'
p590
tp591
a(S'Roxette'
p592
S'Cinnamon Street'
p593
S'http://www.last.fm/music/Roxette/_/Cinnamon+Street'
p594
S'1381777111'
p595
tp596
a(S'Roxette'
p597
S'I Remember You'
p598
S'http://www.last.fm/music/Roxette/_/I+Remember+You'
p599
S'1381776878'
p600
tp601
a(S'Black Sabbath'
p602
S'Megalomania'
p603
S'http://www.last.fm/music/Black+Sabbath/_/Megalomania'
p604
S'1381774377'
p605
tp606
a(S'Jerry Cantrell'
p607
S'Anger Rising'
p608
S'http://www.last.fm/music/Jerry+Cantrell/_/Anger+Rising'
p609
S'1381774003'
p610
tp611
a(S'Black Sabbath'
p612
S'Wheels of Confusion / The Straightener'
p613
S'http://www.last.fm/music/Black+Sabbath/_/Wheels+of+Confusion+%2F+The+Straightener'
p614
S'1381773500'
p615
tp616
a(S'Jerry Cantrell'
p617
S'She Was My Girl'
p618
S'http://www.last.fm/music/Jerry+Cantrell/_/She+Was+My+Girl'
p619
S'1381773075'
p620
tp621
a(S'Queens of the Stone Age'
p622
S'If I Had a Tail'
p623
S'http://www.last.fm/music/Queens+of+the+Stone+Age/_/If+I+Had+a+Tail'
p624
S'1381772634'
p625
tp626
a(S'Ramones'
p627
S'Censorshit'
p628
S'http://www.last.fm/music/Ramones/_/Censorshit'
p629
S'1381772443'
p630
tp631
a(S'Roxette'
p632
S'(Do You Get) Excited?'
p633
S'http://www.last.fm/music/Roxette/_/(Do+You+Get)+Excited%3F'
p634
S'1381772178'
p635
tp636
a(S'Queens of the Stone Age'
p637
S'Smooth Sailing'
p638
S'http://www.last.fm/music/Queens+of+the+Stone+Age/_/Smooth+Sailing'
p639
S'1381771887'
p640
tp641
a(S'Jerry Cantrell'
p642
S'Angel Eyes'
p643
S'http://www.last.fm/music/Jerry+Cantrell/_/Angel+Eyes'
p644
S'1381771601'
p645
tp646
a(S'Black Sabbath'
p647
S'Wheels of Confusion / The Straightener'
p648
S'http://www.last.fm/music/Black+Sabbath/_/Wheels+of+Confusion+%2F+The+Straightener'
p649
S'1381429964'
p650
tp651
a(S'Jerry Cantrell'
p652
S'Anger Rising'
p653
S'http://www.last.fm/music/Jerry+Cantrell/_/Anger+Rising'
p654
S'1381429591'
p655
tp656
a(S'Ramones'
p657
S'Censorshit'
p658
S'http://www.last.fm/music/Ramones/_/Censorshit'
p659
S'1381429398'
p660
tp661
a(S'Stevie Ray Vaughan and Double Trouble'
p662
S'Voodoo Chile (Slight Return)'
p663
S'http://www.last.fm/music/Stevie+Ray+Vaughan+and+Double+Trouble/_/Voodoo+Chile+(Slight+Return)'
p664
S'1381428821'
p665
tp666
a(S'ZZ Top'
p667
S"What's Up With That"
p668
S'http://www.last.fm/music/ZZ+Top/_/What%27s+Up+With+That'
p669
S'1381428500'
p670
tp671
a(S'Queens of the Stone Age'
p672
S'If I Had a Tail'
p673
S'http://www.last.fm/music/Queens+of+the+Stone+Age/_/If+I+Had+a+Tail'
p674
S'1381427515'
p675
tp676
a(S'Jerry Cantrell'
p677
S'She Was My Girl'
p678
S'http://www.last.fm/music/Jerry+Cantrell/_/She+Was+My+Girl'
p679
S'1381427276'
p680
tp681
a(S'Jerry Cantrell'
p682
S'Angel Eyes'
p683
S'http://www.last.fm/music/Jerry+Cantrell/_/Angel+Eyes'
p684
S'1381426991'
p685
tp686
a(S'Roxette'
p687
S'Things Will Never Be the Same'
p688
S'http://www.last.fm/music/Roxette/_/Things+Will+Never+Be+the+Same'
p689
S'1381426725'
p690
tp691
a(S'Black Sabbath'
p692
S'Megalomania'
p693
S'http://www.last.fm/music/Black+Sabbath/_/Megalomania'
p694
S'1381426146'
p695
tp696
a(S'Queens of the Stone Age'
p697
S'Smooth Sailing'
p698
S'http://www.last.fm/music/Queens+of+the+Stone+Age/_/Smooth+Sailing'
p699
S'1381425856'
p700
tp701
a(S'Roxette'
p702
S'(Do You Get) Excited?'
p703
S'http://www.last.fm/music/Roxette/_/(Do+You+Get)+Excited%3F'
p704
S'1381425601'
p705
tp706
a(S'Black Sabbath'
p707
S'Wheels of Confusion / The Straightener'
p708
S'http://www.last.fm/music/Black+Sabbath/_/Wheels+of+Confusion+%2F+The+Straightener'
p709
S'1381425107'
p710
tp711
a(S'Jerry Cantrell'
p712
S'Anger Rising'
p713
S'http://www.last.fm/music/Jerry+Cantrell/_/Anger+Rising'
p714
S'1381423511'
p715
tp716
a(S'Jerry Cantrell'
p717
S'Angel Eyes'
p718
S'http://www.last.fm/music/Jerry+Cantrell/_/Angel+Eyes'
p719
S'1381423225'
p720
tp721
a(S'Queens of the Stone Age'
p722
S'Smooth Sailing'
p723
S'http://www.last.fm/music/Queens+of+the+Stone+Age/_/Smooth+Sailing'
p724
S'1381422935'
p725
tp726
a(S'Queens of the Stone Age'
p727
S'If I Had a Tail'
p728
S'http://www.last.fm/music/Queens+of+the+Stone+Age/_/If+I+Had+a+Tail'
p729
S'1381422431'
p730
tp731
a(S'ZZ Top'
p732
S"What's Up With That"
p733
S'http://www.last.fm/music/ZZ+Top/_/What%27s+Up+With+That'
p734
S'1381422112'
p735
tp736
a(S'Jerry Cantrell'
p737
S'She Was My Girl'
p738
S'http://www.last.fm/music/Jerry+Cantrell/_/She+Was+My+Girl'
p739
S'1381421871'
p740
tp741
a(S'Jerry Cantrell'
p742
S'Anger Rising'
p743
S'http://www.last.fm/music/Jerry+Cantrell/_/Anger+Rising'
p744
S'1381421489'
p745
tp746
a(S'Queens of the Stone Age'
p747
S'Smooth Sailing'
p748
S'http://www.last.fm/music/Queens+of+the+Stone+Age/_/Smooth+Sailing'
p749
S'1381346677'
p750
tp751
a(S'Jerry Cantrell'
p752
S'She Was My Girl'
p753
S'http://www.last.fm/music/Jerry+Cantrell/_/She+Was+My+Girl'
p754
S'1381346113'
p755
tp756
a(S'Jerry Cantrell'
p757
S'Angel Eyes'
p758
S'http://www.last.fm/music/Jerry+Cantrell/_/Angel+Eyes'
p759
S'1381345828'
p760
tp761
a(S'Queens of the Stone Age'
p762
S'If I Had a Tail'
p763
S'http://www.last.fm/music/Queens+of+the+Stone+Age/_/If+I+Had+a+Tail'
p764
S'1381345533'
p765
tp766
a(S'ZZ Top'
p767
S"What's Up With That"
p768
S'http://www.last.fm/music/ZZ+Top/_/What%27s+Up+With+That'
p769
S'1381345214'
p770
tp771
a(S'Jerry Cantrell'
p772
S'Anger Rising'
p773
S'http://www.last.fm/music/Jerry+Cantrell/_/Anger+Rising'
p774
S'1381344841'
p775
tp776
a(S'Queens of the Stone Age'
p777
S'Smooth Sailing'
p778
S'http://www.last.fm/music/Queens+of+the+Stone+Age/_/Smooth+Sailing'
p779
S'1381344550'
p780
tp781
a(S'Jerry Cantrell'
p782
S'She Was My Girl'
p783
S'http://www.last.fm/music/Jerry+Cantrell/_/She+Was+My+Girl'
p784
S'1381344312'
p785
tp786
a(S'Jerry Cantrell'
p787
S'Angel Eyes'
p788
S'http://www.last.fm/music/Jerry+Cantrell/_/Angel+Eyes'
p789
S'1381344026'
p790
tp791
a(S'Queens of the Stone Age'
p792
S'If I Had a Tail'
p793
S'http://www.last.fm/music/Queens+of+the+Stone+Age/_/If+I+Had+a+Tail'
p794
S'1381343732'
p795
tp796
a(S'ZZ Top'
p797
S"What's Up With That"
p798
S'http://www.last.fm/music/ZZ+Top/_/What%27s+Up+With+That'
p799
S'1381343412'
p800
tp801
a(S'Jerry Cantrell'
p802
S'Anger Rising'
p803
S'http://www.last.fm/music/Jerry+Cantrell/_/Anger+Rising'
p804
S'1381343038'
p805
tp806
a(S'Queens of the Stone Age'
p807
S'Smooth Sailing'
p808
S'http://www.last.fm/music/Queens+of+the+Stone+Age/_/Smooth+Sailing'
p809
S'1381342748'
p810
tp811
a(S'Jerry Cantrell'
p812
S'She Was My Girl'
p813
S'http://www.last.fm/music/Jerry+Cantrell/_/She+Was+My+Girl'
p814
S'1381342510'
p815
tp816
a(S'Jerry Cantrell'
p817
S'Angel Eyes'
p818
S'http://www.last.fm/music/Jerry+Cantrell/_/Angel+Eyes'
p819
S'1381342225'
p820
tp821
a(S'Queens of the Stone Age'
p822
S'If I Had a Tail'
p823
S'http://www.last.fm/music/Queens+of+the+Stone+Age/_/If+I+Had+a+Tail'
p824
S'1381341930'
p825
tp826
a(S'ZZ Top'
p827
S"What's Up With That"
p828
S'http://www.last.fm/music/ZZ+Top/_/What%27s+Up+With+That'
p829
S'1381341611'
p830
tp831
a(S'Jerry Cantrell'
p832
S'Anger Rising'
p833
S'http://www.last.fm/music/Jerry+Cantrell/_/Anger+Rising'
p834
S'1381341238'
p835
tp836
a(S'Queens of the Stone Age'
p837
S'Smooth Sailing'
p838
S'http://www.last.fm/music/Queens+of+the+Stone+Age/_/Smooth+Sailing'
p839
S'1381340947'
p840
tp841
a(S'Jerry Cantrell'
p842
S'She Was My Girl'
p843
S'http://www.last.fm/music/Jerry+Cantrell/_/She+Was+My+Girl'
p844
S'1381340706'
p845
tp846
a(S'Jerry Cantrell'
p847
S'Angel Eyes'
p848
S'http://www.last.fm/music/Jerry+Cantrell/_/Angel+Eyes'
p849
S'1381340419'
p850
tp851
a(S'Queens of the Stone Age'
p852
S'If I Had a Tail'
p853
S'http://www.last.fm/music/Queens+of+the+Stone+Age/_/If+I+Had+a+Tail'
p854
S'1381340124'
p855
tp856
a(S'ZZ Top'
p857
S"What's Up With That"
p858
S'http://www.last.fm/music/ZZ+Top/_/What%27s+Up+With+That'
p859
S'1381339804'
p860
tp861
a(S'Jerry Cantrell'
p862
S'Anger Rising'
p863
S'http://www.last.fm/music/Jerry+Cantrell/_/Anger+Rising'
p864
S'1381339424'
p865
tp866
a(S'Queens of the Stone Age'
p867
S'Smooth Sailing'
p868
S'http://www.last.fm/music/Queens+of+the+Stone+Age/_/Smooth+Sailing'
p869
S'1381339132'
p870
tp871
a(S'Queens of the Stone Age'
p872
S'If I Had a Tail'
p873
S'http://www.last.fm/music/Queens+of+the+Stone+Age/_/If+I+Had+a+Tail'
p874
S'1381338835'
p875
tp876
a(S'Jerry Cantrell'
p877
S'Angel Eyes'
p878
S'http://www.last.fm/music/Jerry+Cantrell/_/Angel+Eyes'
p879
S'1381338550'
p880
tp881
a(S'Jerry Cantrell'
p882
S'She Was My Girl'
p883
S'http://www.last.fm/music/Jerry+Cantrell/_/She+Was+My+Girl'
p884
S'1381338309'
p885
tp886
a(S'Jerry Cantrell'
p887
S'Anger Rising'
p888
S'http://www.last.fm/music/Jerry+Cantrell/_/Anger+Rising'
p889
S'1381337933'
p890
tp891
a(S'Queens of the Stone Age'
p892
S'Smooth Sailing'
p893
S'http://www.last.fm/music/Queens+of+the+Stone+Age/_/Smooth+Sailing'
p894
S'1381336415'
p895
tp896
a(S'Jerry Cantrell'
p897
S'Anger Rising'
p898
S'http://www.last.fm/music/Jerry+Cantrell/_/Anger+Rising'
p899
S'1381262289'
p900
tp901
a(S'Jerry Cantrell'
p902
S'Angel Eyes'
p903
S'http://www.last.fm/music/Jerry+Cantrell/_/Angel+Eyes'
p904
S'1381261994'
p905
tp906
a(S'Jerry Cantrell'
p907
S'She Was My Girl'
p908
S'http://www.last.fm/music/Jerry+Cantrell/_/She+Was+My+Girl'
p909
S'1381261751'
p910
tp911
a(S'Queens of the Stone Age'
p912
S'If I Had a Tail'
p913
S'http://www.last.fm/music/Queens+of+the+Stone+Age/_/If+I+Had+a+Tail'
p914
S'1381261456'
p915
tp916
a(S'Queens of the Stone Age'
p917
S'Smooth Sailing'
p918
S'http://www.last.fm/music/Queens+of+the+Stone+Age/_/Smooth+Sailing'
p919
S'1381261162'
p920
tp921
a(S'Jerry Cantrell'
p922
S'Anger Rising'
p923
S'http://www.last.fm/music/Jerry+Cantrell/_/Anger+Rising'
p924
S'1381260785'
p925
tp926
a(S'Jerry Cantrell'
p927
S'Angel Eyes'
p928
S'http://www.last.fm/music/Jerry+Cantrell/_/Angel+Eyes'
p929
S'1381260494'
p930
tp931
a(S'Rage Against the Machine'
p932
S'Renegades of Funk'
p933
S'http://www.last.fm/music/Rage+Against+the+Machine/_/Renegades+of+Funk'
p934
S'1380918473'
p935
tp936
a(S'Rage Against the Machine'
p937
S'Township Rebellion'
p938
S'http://www.last.fm/music/Rage+Against+the+Machine/_/Township+Rebellion'
p939
S'1380918136'
p940
tp941
a(S'Monster Magnet'
p942
S'Space Lord'
p943
S'http://www.last.fm/music/Monster+Magnet/_/Space+Lord'
p944
S'1380917799'
p945
tp946
a(S'Velvet Revolver'
p947
S'You Got No Right'
p948
S'http://www.last.fm/music/Velvet+Revolver/_/You+Got+No+Right'
p949
S'1380917464'
p950
tp951
a(S'Velvet Revolver'
p952
S'She Builds Quick Machines'
p953
S'http://www.last.fm/music/Velvet+Revolver/_/She+Builds+Quick+Machines'
p954
S'1380917222'
p955
tp956
a(S'Foreigner'
p957
S'Cold as Ice'
p958
S'http://www.last.fm/music/Foreigner/_/Cold+as+Ice'
p959
S'1380917022'
p960
tp961
a(S'Judas Priest'
p962
S'Reckless'
p963
S'http://www.last.fm/music/Judas+Priest/_/Reckless'
p964
S'1380916054'
p965
tp966
a(S'Rage Against the Machine'
p967
S'The Ghost of Tom Joad'
p968
S'http://www.last.fm/music/Rage+Against+the+Machine/_/The+Ghost+of+Tom+Joad'
p969
S'1380915715'
p970
tp971
a(S'Judas Priest'
p972
S'Hot for Love'
p973
S'http://www.last.fm/music/Judas+Priest/_/Hot+for+Love'
p974
S'1380913347'
p975
tp976
a(S'Velvet Revolver'
p977
S'Superhuman'
p978
S'http://www.last.fm/music/Velvet+Revolver/_/Superhuman'
p979
S'1380913091'
p980
tp981
a(S"Class of '99"
p982
S'Another Brick in the Wall, Part 2'
p983
S'http://www.last.fm/music/Class+of+%2799/_/Another+Brick+in+the+Wall,+Part+2'
p984
S'1380912832'
p985
tp986
a(S'Beastie Boys'
p987
S'Triple Trouble'
p988
S'http://www.last.fm/music/Beastie+Boys/_/Triple+Trouble'
p989
S'1380912667'
p990
tp991
a(S'Velvet Revolver'
p992
S'She Builds Quick Machines'
p993
S'http://www.last.fm/music/Velvet+Revolver/_/She+Builds+Quick+Machines'
p994
S'1380912424'
p995
tp996
a(S'Them Crooked Vultures'
p997
S'Dead End Friends'
p998
S'http://www.last.fm/music/Them+Crooked+Vultures/_/Dead+End+Friends'
p999
S'1380912229'
p1000
tp1001
a.