(lp1
(S'Audioslave'
p2
S'Cochise'
p3
S'http://www.last.fm/music/Audioslave/_/Cochise'
p4
S'1278449388'
p5
tp6
a(S'Iron Maiden'
p7
S'Seventh Son of a Seventh Son'
p8
S'http://www.last.fm/music/Iron+Maiden/_/Seventh+Son+of+a+Seventh+Son'
p9
S'1278449166'
p10
tp11
a(S'Audioslave'
p12
S'Your Time Has Come'
p13
S'http://www.last.fm/music/Audioslave/_/Your+Time+Has+Come'
p14
S'1278448572'
p15
tp16
a(S'Judas Priest'
p17
S'White Heat, Red Hot'
p18
S'http://www.last.fm/music/Judas+Priest/_/White+Heat,+Red+Hot'
p19
S'1278448318'
p20
tp21
a(S'Joe Satriani'
p22
S'Summer Song'
p23
S'http://www.last.fm/music/Joe+Satriani/_/Summer+Song'
p24
S'1278448057'
p25
tp26
a(S'Alice in Chains'
p27
S'Swing on This'
p28
S'http://www.last.fm/music/Alice+in+Chains/_/Swing+on+This'
p29
S'1278447697'
p30
tp31
a(S'Twisted Sister'
p32
S'Come On Feel The Noise'
p33
S'http://www.last.fm/music/Twisted+Sister/_/Come+On+Feel+The+Noise'
p34
S'1278447451'
p35
tp36
a(S'Nirvana'
p37
S'All Apologies'
p38
S'http://www.last.fm/music/Nirvana/_/All+Apologies'
p39
S'1278447191'
p40
tp41
a(S'Ozzy Osbourne'
p42
S'The Ultimate Sin'
p43
S'http://www.last.fm/music/Ozzy+Osbourne/_/The+Ultimate+Sin'
p44
S'1278445406'
p45
tp46
a(S'ZZ Top'
p47
S'Fuzzbox Voodoo'
p48
S'http://www.last.fm/music/ZZ+Top/_/Fuzzbox+Voodoo'
p49
S'1278445140'
p50
tp51
a(S'Ozzy Osbourne'
p52
S'Shot in the Dark'
p53
S'http://www.last.fm/music/Ozzy+Osbourne/_/Shot+in+the+Dark'
p54
S'1278444858'
p55
tp56
a(S'Jimi Hendrix'
p57
S'Crosstown Traffic'
p58
S'http://www.last.fm/music/Jimi+Hendrix/_/Crosstown+Traffic'
p59
S'1278444601'
p60
tp61
a(S'Stone Temple Pilots'
p62
S'Sex Type Thing'
p63
S'http://www.last.fm/music/Stone+Temple+Pilots/_/Sex+Type+Thing'
p64
S'1278443846'
p65
tp66
a(S'Madonna'
p67
S'Into the Groove'
p68
S'http://www.last.fm/music/Madonna/_/Into+the+Groove'
p69
S'1278443628'
p70
tp71
a(S'Anthrax'
p72
S'This Is Not An Exit'
p73
S'http://www.last.fm/music/Anthrax/_/This+Is+Not+An+Exit'
p74
S'1278443283'
p75
tp76
a(S'Live'
p77
S'Heaven'
p78
S'http://www.last.fm/music/Live/_/Heaven'
p79
S'1278443055'
p80
tp81
a(S'Queen'
p82
S'Put Out The Fire'
p83
S'http://www.last.fm/music/Queen/_/Put+Out+The+Fire'
p84
S'1278442827'
p85
tp86
a(S'Iron Maiden'
p87
S'Alexander the Great'
p88
S'http://www.last.fm/music/Iron+Maiden/_/Alexander+the+Great'
p89
S'1278442626'
p90
tp91
a(S'Judas Priest'
p92
S'Riding on the Wind'
p93
S'http://www.last.fm/music/Judas+Priest/_/Riding+on+the+Wind'
p94
S'1278442111'
p95
tp96
a(S'Queens of the Stone Age'
p97
S'Long Slow Goodbye'
p98
S'http://www.last.fm/music/Queens+of+the+Stone+Age/_/Long+Slow+Goodbye'
p99
S'1278441920'
p100
tp101
a(S'Metallica'
p102
S'Whiplash'
p103
S'http://www.last.fm/music/Metallica/_/Whiplash'
p104
S'1278441507'
p105
tp106
a(S'Twisted Sister'
p107
S"We're Not Gonna Take It"
p108
S'http://www.last.fm/music/Twisted+Sister/_/We%27re+Not+Gonna+Take+It'
p109
S'1278441257'
p110
tp111
a(S'John Hiatt'
p112
S'What Do We Do Now'
p113
S'http://www.last.fm/music/John+Hiatt/_/What+Do+We+Do+Now'
p114
S'1278441041'
p115
tp116
a(S'Audioslave'
p117
S'Light My Way'
p118
S'http://www.last.fm/music/Audioslave/_/Light+My+Way'
p119
S'1278440863'
p120
tp121
a(S'The Tuesdays'
p122
S"It's Up To You"
p123
S'http://www.last.fm/music/The+Tuesdays/_/It%27s+Up+To+You'
p124
S'1278440560'
p125
tp126
a(S'Live'
p127
S'Lighthouse'
p128
S'http://www.last.fm/music/Live/_/Lighthouse'
p129
S'1278440291'
p130
tp131
a(S'The Bar-Kays'
p132
S'Summer Of Our Love'
p133
S'http://www.last.fm/music/The+Bar-Kays/_/Summer+Of+Our+Love'
p134
S'1278440104'
p135
tp136
a(S'Tina Turner'
p137
S"We Don't Need Another Hero"
p138
S'http://www.last.fm/music/Tina+Turner/_/We+Don%27t+Need+Another+Hero'
p139
S'1278439838'
p140
tp141
a(S'Yes'
p142
S'Owner of a Lonely Heart'
p143
S'http://www.last.fm/music/Yes/_/Owner+of+a+Lonely+Heart'
p144
S'1278439545'
p145
tp146
a(S'Yes'
p147
S'Owner of a Lonely Heart (extended remix)'
p148
S'http://www.last.fm/music/Yes/_/Owner+of+a+Lonely+Heart+(extended+remix)'
p149
S'1278437657'
p150
tp151
a(S'Liz Phair'
p152
S'Headache'
p153
S'http://www.last.fm/music/Liz+Phair/_/Headache'
p154
S'1278429914'
p155
tp156
a(S'Audioslave'
p157
S'Jewel Of The Summertime'
p158
S'http://www.last.fm/music/Audioslave/_/Jewel+Of+The+Summertime'
p159
S'1278429735'
p160
tp161
a(S'Audioslave'
p162
S'Out Of Exile'
p163
S'http://www.last.fm/music/Audioslave/_/Out+Of+Exile'
p164
S'1278429503'
p165
tp166
a(S'Van Halen'
p167
S"In 'n' Out"
p168
S'http://www.last.fm/music/Van+Halen/_/In+%27n%27+Out'
p169
S'1278422542'
p170
tp171
a(S'Diamond Head'
p172
S'Broken Pieces'
p173
S'http://www.last.fm/music/Diamond+Head/_/Broken+Pieces'
p174
S'1278421242'
p175
tp176
a(S'Live'
p177
S'Unsheathed'
p178
S'http://www.last.fm/music/Live/_/Unsheathed'
p179
S'1278420948'
p180
tp181
a(S'Misfits'
p182
S'Scream!'
p183
S'http://www.last.fm/music/Misfits/_/Scream!'
p184
S'1278420725'
p185
tp186
a(S'ZZ Top'
p187
S'Fuzzbox Voodoo'
p188
S'http://www.last.fm/music/ZZ+Top/_/Fuzzbox+Voodoo'
p189
S'1278420390'
p190
tp191
a(S'Ozzy Osbourne'
p192
S'Shot in the Dark'
p193
S'http://www.last.fm/music/Ozzy+Osbourne/_/Shot+in+the+Dark'
p194
S'1278420106'
p195
tp196
a(S'Jimi Hendrix'
p197
S'Crosstown Traffic'
p198
S'http://www.last.fm/music/Jimi+Hendrix/_/Crosstown+Traffic'
p199
S'1278419739'
p200
tp201
a(S'Stone Temple Pilots'
p202
S'Sex Type Thing'
p203
S'http://www.last.fm/music/Stone+Temple+Pilots/_/Sex+Type+Thing'
p204
S'1278419600'
p205
tp206
a(S'Madonna'
p207
S'Into the Groove'
p208
S'http://www.last.fm/music/Madonna/_/Into+the+Groove'
p209
S'1278419227'
p210
tp211
a(S'Michael Jackson'
p212
S'The Way You Make Me Feel'
p213
S'http://www.last.fm/music/Michael+Jackson/_/The+Way+You+Make+Me+Feel'
p214
S'1278368023'
p215
tp216
a(S'Ozzy Osbourne'
p217
S'Ghost Behind My Eyes'
p218
S'http://www.last.fm/music/Ozzy+Osbourne/_/Ghost+Behind+My+Eyes'
p219
S'1278367818'
p220
tp221
a(S'Stevie Ray Vaughan and Double Trouble'
p222
S'Love Struck Baby'
p223
S'http://www.last.fm/music/Stevie+Ray+Vaughan+and+Double+Trouble/_/Love+Struck+Baby'
p224
S'1278367508'
p225
tp226
a(S'Stevie Ray Vaughan and Double Trouble'
p227
S'Love Struck Baby'
p228
S'http://www.last.fm/music/Stevie+Ray+Vaughan+and+Double+Trouble/_/Love+Struck+Baby'
p229
S'1278367395'
p230
tp231
a(S'Liz Phair'
p232
S'Extraordinary'
p233
S'http://www.last.fm/music/Liz+Phair/_/Extraordinary'
p234
S'1278367281'
p235
tp236
a(S'Michael Jackson'
p237
S"Don't Stop 'Til You Get Enough"
p238
S'http://www.last.fm/music/Michael+Jackson/_/Don%27t+Stop+%27Til+You+Get+Enough'
p239
S'1278367077'
p240
tp241
a(S'Ozzy Osbourne'
p242
S'Road To Nowhere'
p243
S'http://www.last.fm/music/Ozzy+Osbourne/_/Road+To+Nowhere'
p244
S'1278366646'
p245
tp246
a(S'Anthrax'
p247
S'Room For One More'
p248
S'http://www.last.fm/music/Anthrax/_/Room+For+One+More'
p249
S'1278366334'
p250
tp251
a(S'Misfits'
p252
S'Crawling Eye'
p253
S'http://www.last.fm/music/Misfits/_/Crawling+Eye'
p254
S'1278366038'
p255
tp256
a(S'Bon Jovi'
p257
S'Runaway'
p258
S'http://www.last.fm/music/Bon+Jovi/_/Runaway'
p259
S'1278365895'
p260
tp261
a(S'Misfits'
p262
S'Teenagers From Mars'
p263
S'http://www.last.fm/music/Misfits/_/Teenagers+From+Mars'
p264
S'1278365661'
p265
tp266
a(S'ZZ Top'
p267
S'Cover Your Rig'
p268
S'http://www.last.fm/music/ZZ+Top/_/Cover+Your+Rig'
p269
S'1278365490'
p270
tp271
a(S'Queens of the Stone Age'
p272
S'Misfit Love'
p273
S'http://www.last.fm/music/Queens+of+the+Stone+Age/_/Misfit+Love'
p274
S'1278365141'
p275
tp276
a(S'Nirvana'
p277
S"Jesus Doesn't Want Me For A Sunbeam"
p278
S'http://www.last.fm/music/Nirvana/_/Jesus+Doesn%27t+Want+Me+For+A+Sunbeam'
p279
S'1278364801'
p280
tp281
a(S'The Cult'
p282
S'Earth Mofo'
p283
S'http://www.last.fm/music/The+Cult/_/Earth+Mofo'
p284
S'1278364481'
p285
tp286
a(S'Madonna'
p287
S'La Isla Bonita'
p288
S'http://www.last.fm/music/Madonna/_/La+Isla+Bonita'
p289
S'1278364128'
p290
tp291
a(S'Live'
p292
S'Sweet Release'
p293
S'http://www.last.fm/music/Live/_/Sweet+Release'
p294
S'1278364001'
p295
tp296
a(S'Jerry Cantrell'
p297
S'Between'
p298
S'http://www.last.fm/music/Jerry+Cantrell/_/Between'
p299
S'1278363741'
p300
tp301
a(S'Them Crooked Vultures'
p302
S'Reptiles'
p303
S'http://www.last.fm/music/Them+Crooked+Vultures/_/Reptiles'
p304
S'1278363532'
p305
tp306
a(S'Diamond Head'
p307
S'Give It to Me'
p308
S'http://www.last.fm/music/Diamond+Head/_/Give+It+to+Me'
p309
S'1278363275'
p310
tp311
a(S'The Toy Dolls'
p312
S'Park Lane Punch Up'
p313
S'http://www.last.fm/music/The+Toy+Dolls/_/Park+Lane+Punch+Up'
p314
S'1278363090'
p315
tp316
a(S'The Offspring'
p317
S"It'll Be a Long Time"
p318
S'http://www.last.fm/music/The+Offspring/_/It%27ll+Be+a+Long+Time'
p319
S'1278362865'
p320
tp321
a(S'Van Halen'
p322
S'Aftershock'
p323
S'http://www.last.fm/music/Van+Halen/_/Aftershock'
p324
S'1278362689'
p325
tp326
a(S'Led Zeppelin'
p327
S'What Is and What Should Never Be'
p328
S'http://www.last.fm/music/Led+Zeppelin/_/What+Is+and+What+Should+Never+Be'
p329
S'1278361915'
p330
tp331
a(S'The Toy Dolls'
p332
S'Nowt Can Compare To Sunderland Fine Fare'
p333
S'http://www.last.fm/music/The+Toy+Dolls/_/Nowt+Can+Compare+To+Sunderland+Fine+Fare'
p334
S'1278361708'
p335
tp336
a(S'Pearl Jam'
p337
S'Corduroy'
p338
S'http://www.last.fm/music/Pearl+Jam/_/Corduroy'
p339
S'1278361525'
p340
tp341
a(S'Stone Temple Pilots'
p342
S'MC5'
p343
S'http://www.last.fm/music/Stone+Temple+Pilots/_/MC5'
p344
S'1278361251'
p345
tp346
a(S'Ozzy Osbourne'
p347
S'The Ultimate Sin'
p348
S'http://www.last.fm/music/Ozzy+Osbourne/_/The+Ultimate+Sin'
p349
S'1278361089'
p350
tp351
a(S'Jamiroquai'
p352
S'2001'
p353
S'http://www.last.fm/music/Jamiroquai/_/2001'
p354
S'1278360502'
p355
tp356
a(S"Guns N' Roses"
p357
S'Rocket Queen'
p358
S'http://www.last.fm/music/Guns+N%27+Roses/_/Rocket+Queen'
p359
S'1278360178'
p360
tp361
a(S'Alice in Chains'
p362
S'Got Me Wrong'
p363
S'http://www.last.fm/music/Alice+in+Chains/_/Got+Me+Wrong'
p364
S'1278358471'
p365
tp366
a(S'Alice in Chains'
p367
S'Iron Gland'
p368
S'http://www.last.fm/music/Alice+in+Chains/_/Iron+Gland'
p369
S'1278358171'
p370
tp371
a(S'Jamiroquai'
p372
S'Dynamite'
p373
S'http://www.last.fm/music/Jamiroquai/_/Dynamite'
p374
S'1278358128'
p375
tp376
a(S'Soundgarden'
p377
S'Rusty Cage'
p378
S'http://www.last.fm/music/Soundgarden/_/Rusty+Cage'
p379
S'1278357825'
p380
tp381
a(S'Foo Fighters'
p382
S'Wind Up'
p383
S'http://www.last.fm/music/Foo+Fighters/_/Wind+Up'
p384
S'1278357558'
p385
tp386
a(S'Them Crooked Vultures'
p387
S'Scumbag Blues'
p388
S'http://www.last.fm/music/Them+Crooked+Vultures/_/Scumbag+Blues'
p389
S'1278357406'
p390
tp391
a(S'Black Sabbath'
p392
S'Who Are You?'
p393
S'http://www.last.fm/music/Black+Sabbath/_/Who+Are+You%3F'
p394
S'1278357139'
p395
tp396
a(S'Misfits'
p397
S'Skulls'
p398
S'http://www.last.fm/music/Misfits/_/Skulls'
p399
S'1278356877'
p400
tp401
a(S'Yes'
p402
S'Hold On'
p403
S'http://www.last.fm/music/Yes/_/Hold+On'
p404
S'1278356755'
p405
tp406
a(S'Jamiroquai'
p407
S'Talulah'
p408
S'http://www.last.fm/music/Jamiroquai/_/Talulah'
p409
S'1278356435'
p410
tp411
a(S"Guns N' Roses"
p412
S'Rocket Queen'
p413
S'http://www.last.fm/music/Guns+N%27+Roses/_/Rocket+Queen'
p414
S'1278356071'
p415
tp416
a(S'Joe Satriani'
p417
S'Rubina'
p418
S'http://www.last.fm/music/Joe+Satriani/_/Rubina'
p419
S'1278355685'
p420
tp421
a(S'Nirvana'
p422
S'Serve The Servants'
p423
S'http://www.last.fm/music/Nirvana/_/Serve+The+Servants'
p424
S'1278355281'
p425
tp426
a(S'Velvet Revolver'
p427
S'Let It Roll'
p428
S'http://www.last.fm/music/Velvet+Revolver/_/Let+It+Roll'
p429
S'1278355065'
p430
tp431
a(S'Stone Temple Pilots'
p432
S'Hickory Dichotomy'
p433
S'http://www.last.fm/music/Stone+Temple+Pilots/_/Hickory+Dichotomy'
p434
S'1278354912'
p435
tp436
a(S'Liz Phair'
p437
S'Mesmerizing'
p438
S'http://www.last.fm/music/Liz+Phair/_/Mesmerizing'
p439
S'1278354710'
p440
tp441
a(S'Stone Temple Pilots'
p442
S'Peacoat'
p443
S'http://www.last.fm/music/Stone+Temple+Pilots/_/Peacoat'
p444
S'1278354557'
p445
tp446
a(S'Stone Temple Pilots'
p447
S'Huckleberry Crumble'
p448
S'http://www.last.fm/music/Stone+Temple+Pilots/_/Huckleberry+Crumble'
p449
S'1278354337'
p450
tp451
a(S'Alice in Chains'
p452
S'Head Creeps'
p453
S'http://www.last.fm/music/Alice+in+Chains/_/Head+Creeps'
p454
S'1278353659'
p455
tp456
a(S'Collective Soul'
p457
S'Why, Pt. 2'
p458
S'http://www.last.fm/music/Collective+Soul/_/Why,+Pt.+2'
p459
S'1278353454'
p460
tp461
a(S'Rainbow'
p462
S'Self Portrait'
p463
S'http://www.last.fm/music/Rainbow/_/Self+Portrait'
p464
S'1278353235'
p465
tp466
a(S'The Rolling Stones'
p467
S'You Got the Silver'
p468
S'http://www.last.fm/music/The+Rolling+Stones/_/You+Got+the+Silver'
p469
S'1278353038'
p470
tp471
a(S'Alice Cooper'
p472
S'Little By Little'
p473
S'http://www.last.fm/music/Alice+Cooper/_/Little+By+Little'
p474
S'1278352868'
p475
tp476
a(S"Guns N' Roses"
p477
S'Out Ta Get Me'
p478
S'http://www.last.fm/music/Guns+N%27+Roses/_/Out+Ta+Get+Me'
p479
S'1278352592'
p480
tp481
a(S'The Who'
p482
S"Baba O'Riley"
p483
S'http://www.last.fm/music/The+Who/_/Baba+O%27Riley'
p484
S'1278352204'
p485
tp486
a(S'Misfits'
p487
S'Hollywood Babylon'
p488
S'http://www.last.fm/music/Misfits/_/Hollywood+Babylon'
p489
S'1278352016'
p490
tp491
a(S'Wesley Willis'
p492
S'Feel the Power of Rock & Roll'
p493
S'http://www.last.fm/music/Wesley+Willis/_/Feel+the+Power+of+Rock+&+Roll'
p494
S'1278351876'
p495
tp496
a(S'Foo Fighters'
p497
S'Monkey Wrench'
p498
S'http://www.last.fm/music/Foo+Fighters/_/Monkey+Wrench'
p499
S'1278351713'
p500
tp501
a(S'Live'
p502
S'Top'
p503
S'http://www.last.fm/music/Live/_/Top'
p504
S'1278351482'
p505
tp506
a(S'Stone Temple Pilots'
p507
S'Dead and Bloated'
p508
S'http://www.last.fm/music/Stone+Temple+Pilots/_/Dead+and+Bloated'
p509
S'1278351208'
p510
tp511
a(S'Wesley Willis'
p512
S'vampirebat'
p513
S'http://www.last.fm/music/Wesley+Willis/_/vampirebat'
p514
S'1278350897'
p515
tp516
a(S'Ozzy Osbourne'
p517
S'Secret Loser'
p518
S'http://www.last.fm/music/Ozzy+Osbourne/_/Secret+Loser'
p519
S'1278350736'
p520
tp521
a(S'Alice in Chains'
p522
S'Swing on This'
p523
S'http://www.last.fm/music/Alice+in+Chains/_/Swing+on+This'
p524
S'1278350413'
p525
tp526
a(S'Shemekia Copeland'
p527
S'I Always Get My Man'
p528
S'http://www.last.fm/music/Shemekia+Copeland/_/I+Always+Get+My+Man'
p529
S'1278350218'
p530
tp531
a(S'Daft Punk'
p532
S'Human After All'
p533
S'http://www.last.fm/music/Daft+Punk/_/Human+After+All'
p534
S'1278349988'
p535
tp536
a(S'Stone Temple Pilots'
p537
S'Tumble in the Rough'
p538
S'http://www.last.fm/music/Stone+Temple+Pilots/_/Tumble+in+the+Rough'
p539
S'1278349669'
p540
tp541
a(S'John Hiatt'
p542
S'Take It Down'
p543
S'http://www.last.fm/music/John+Hiatt/_/Take+It+Down'
p544
S'1278349470'
p545
tp546
a(S'Liz Phair'
p547
S'Mesmerizing'
p548
S'http://www.last.fm/music/Liz+Phair/_/Mesmerizing'
p549
S'1278349151'
p550
tp551
a(S'Ozzy Osbourne'
p552
S'Party With the Animals (Bonus Track)'
p553
S'http://www.last.fm/music/Ozzy+Osbourne/_/Party+With+the+Animals+(Bonus+Track)'
p554
S'1278348994'
p555
tp556
a(S'Stone Temple Pilots'
p557
S'Peacoat'
p558
S'http://www.last.fm/music/Stone+Temple+Pilots/_/Peacoat'
p559
S'1278348736'
p560
tp561
a(S'Live'
p562
S'River Town'
p563
S'http://www.last.fm/music/Live/_/River+Town'
p564
S'1278348493'
p565
tp566
a(S'Madonna'
p567
S'Into the Groove'
p568
S'http://www.last.fm/music/Madonna/_/Into+the+Groove'
p569
S'1278343962'
p570
tp571
a(S'Maroon 5'
p572
S'This Love'
p573
S'http://www.last.fm/music/Maroon+5/_/This+Love'
p574
S'1278343665'
p575
tp576
a(S'Ozzy Osbourne'
p577
S'I Love You All'
p578
S'http://www.last.fm/music/Ozzy+Osbourne/_/I+Love+You+All'
p579
S'1277329372'
p580
tp581
a(S'Ozzy Osbourne'
p582
S"Latimer's Mercy"
p583
S'http://www.last.fm/music/Ozzy+Osbourne/_/Latimer%27s+Mercy'
p584
S'1277329309'
p585
tp586
a(S'Ozzy Osbourne'
p587
S'I Want It More'
p588
S'http://www.last.fm/music/Ozzy+Osbourne/_/I+Want+It+More'
p589
S'1277324321'
p590
tp591
a(S'Ozzy Osbourne'
p592
S'Time'
p593
S'http://www.last.fm/music/Ozzy+Osbourne/_/Time'
p594
S'1277323985'
p595
tp596
a(S'Ozzy Osbourne'
p597
S'Fearless'
p598
S'http://www.last.fm/music/Ozzy+Osbourne/_/Fearless'
p599
S'1277323653'
p600
tp601
a(S'Ozzy Osbourne'
p602
S'Crucify'
p603
S'http://www.last.fm/music/Ozzy+Osbourne/_/Crucify'
p604
S'1277323431'
p605
tp606
a(S'Ozzy Osbourne'
p607
S"Diggin' Me Down"
p608
S'http://www.last.fm/music/Ozzy+Osbourne/_/Diggin%27+Me+Down'
p609
S'1277323222'
p610
tp611
a(S'Ozzy Osbourne'
p612
S"Life Won't Wait"
p613
S'http://www.last.fm/music/Ozzy+Osbourne/_/Life+Won%27t+Wait'
p614
S'1277322858'
p615
tp616
a(S'Ozzy Osbourne'
p617
S'Soul Sucker'
p618
S'http://www.last.fm/music/Ozzy+Osbourne/_/Soul+Sucker'
p619
S'1277322552'
p620
tp621
a(S'Ozzy Osbourne'
p622
S'Let Me Hear You Scream'
p623
S'http://www.last.fm/music/Ozzy+Osbourne/_/Let+Me+Hear+You+Scream'
p624
S'1277322277'
p625
tp626
a(S'Ozzy Osbourne'
p627
S'Let It Die'
p628
S'http://www.last.fm/music/Ozzy+Osbourne/_/Let+It+Die'
p629
S'1277322071'
p630
tp631
a(S'Nirvana'
p632
S'Plateau'
p633
S'http://www.last.fm/music/Nirvana/_/Plateau'
p634
S'1277321486'
p635
tp636
a(S'Stone Temple Pilots'
p637
S'Huckleberry Crumble'
p638
S'http://www.last.fm/music/Stone+Temple+Pilots/_/Huckleberry+Crumble'
p639
S'1277321268'
p640
tp641
a(S'Them Crooked Vultures'
p642
S'Gunman'
p643
S'http://www.last.fm/music/Them+Crooked+Vultures/_/Gunman'
p644
S'1277320428'
p645
tp646
a(S'Ozzy Osbourne'
p647
S'Secret Loser'
p648
S'http://www.last.fm/music/Ozzy+Osbourne/_/Secret+Loser'
p649
S'1277320142'
p650
tp651
a(S'Rainbow'
p652
S'Lady Of The Lake'
p653
S'http://www.last.fm/music/Rainbow/_/Lady+Of+The+Lake'
p654
S'1277319893'
p655
tp656
a(S'Stone Temple Pilots'
p657
S'Peacoat'
p658
S'http://www.last.fm/music/Stone+Temple+Pilots/_/Peacoat'
p659
S'1277319674'
p660
tp661
a(S'Stone Temple Pilots'
p662
S'Peacoat'
p663
S'http://www.last.fm/music/Stone+Temple+Pilots/_/Peacoat'
p664
S'1277319459'
p665
tp666
a(S'Them Crooked Vultures'
p667
S'Dead End Friends'
p668
S'http://www.last.fm/music/Them+Crooked+Vultures/_/Dead+End+Friends'
p669
S'1277319250'
p670
tp671
a(S'Ozzy Osbourne'
p672
S'Perry Mason'
p673
S'http://www.last.fm/music/Ozzy+Osbourne/_/Perry+Mason'
p674
S'1277319054'
p675
tp676
a(S'Stone Temple Pilots'
p677
S'Take a Load Off'
p678
S'http://www.last.fm/music/Stone+Temple+Pilots/_/Take+a+Load+Off'
p679
S'1277318701'
p680
tp681
a(S'Nirvana'
p682
S'Lake Of Fire'
p683
S'http://www.last.fm/music/Nirvana/_/Lake+Of+Fire'
p684
S'1277318510'
p685
tp686
a(S'Nirvana'
p687
S'The Man Who Sold the World'
p688
S'http://www.last.fm/music/Nirvana/_/The+Man+Who+Sold+the+World'
p689
S'1277318334'
p690
tp691
a(S'Stone Temple Pilots'
p692
S'Hickory Dichotomy'
p693
S'http://www.last.fm/music/Stone+Temple+Pilots/_/Hickory+Dichotomy'
p694
S'1277318073'
p695
tp696
a(S'Nirvana'
p697
S'About a Girl'
p698
S'http://www.last.fm/music/Nirvana/_/About+a+Girl'
p699
S'1277317871'
p700
tp701
a(S'Ozzy Osbourne'
p702
S'Civilize the Universe'
p703
S'http://www.last.fm/music/Ozzy+Osbourne/_/Civilize+the+Universe'
p704
S'1277317653'
p705
tp706
a(S'Them Crooked Vultures'
p707
S'Mind Eraser, No Chaser'
p708
S'http://www.last.fm/music/Them+Crooked+Vultures/_/Mind+Eraser,+No+Chaser'
p709
S'1277317370'
p710
tp711
a(S'Nirvana'
p712
S'Plateau'
p713
S'http://www.last.fm/music/Nirvana/_/Plateau'
p714
S'1277315522'
p715
tp716
a(S'Nirvana'
p717
S'About a Girl'
p718
S'http://www.last.fm/music/Nirvana/_/About+a+Girl'
p719
S'1277315304'
p720
tp721
a(S'Ozzy Osbourne'
p722
S'Let Me Hear You Scream'
p723
S'http://www.last.fm/music/Ozzy+Osbourne/_/Let+Me+Hear+You+Scream'
p724
S'1277315087'
p725
tp726
a(S'Nirvana'
p727
S'Lake Of Fire'
p728
S'http://www.last.fm/music/Nirvana/_/Lake+Of+Fire'
p729
S'1277314881'
p730
tp731
a(S'Ozzy Osbourne'
p732
S'Perry Mason'
p733
S'http://www.last.fm/music/Ozzy+Osbourne/_/Perry+Mason'
p734
S'1277314705'
p735
tp736
a(S'Them Crooked Vultures'
p737
S'Gunman'
p738
S'http://www.last.fm/music/Them+Crooked+Vultures/_/Gunman'
p739
S'1277314352'
p740
tp741
a(S'Ozzy Osbourne'
p742
S'Denial'
p743
S'http://www.last.fm/music/Ozzy+Osbourne/_/Denial'
p744
S'1277314066'
p745
tp746
a(S'Rainbow'
p747
S'Lady Of The Lake'
p748
S'http://www.last.fm/music/Rainbow/_/Lady+Of+The+Lake'
p749
S'1277313756'
p750
tp751
a(S'Stone Temple Pilots'
p752
S'Take a Load Off'
p753
S'http://www.last.fm/music/Stone+Temple+Pilots/_/Take+a+Load+Off'
p754
S'1277306485'
p755
tp756
a(S'Nirvana'
p757
S'The Man Who Sold the World'
p758
S'http://www.last.fm/music/Nirvana/_/The+Man+Who+Sold+the+World'
p759
S'1277306290'
p760
tp761
a(S'Stone Temple Pilots'
p762
S'Hickory Dichotomy'
p763
S'http://www.last.fm/music/Stone+Temple+Pilots/_/Hickory+Dichotomy'
p764
S'1277306021'
p765
tp766
a(S'Stone Temple Pilots'
p767
S'Between the Lines'
p768
S'http://www.last.fm/music/Stone+Temple+Pilots/_/Between+the+Lines'
p769
S'1277305817'
p770
tp771
a(S'Stone Temple Pilots'
p772
S'Peacoat'
p773
S'http://www.last.fm/music/Stone+Temple+Pilots/_/Peacoat'
p774
S'1277305646'
p775
tp776
a(S'Ozzy Osbourne'
p777
S'Secret Loser'
p778
S'http://www.last.fm/music/Ozzy+Osbourne/_/Secret+Loser'
p779
S'1277305436'
p780
tp781
a(S'Stone Temple Pilots'
p782
S'Huckleberry Crumble'
p783
S'http://www.last.fm/music/Stone+Temple+Pilots/_/Huckleberry+Crumble'
p784
S'1277304880'
p785
tp786
a(S'Them Crooked Vultures'
p787
S'Mind Eraser, No Chaser'
p788
S'http://www.last.fm/music/Them+Crooked+Vultures/_/Mind+Eraser,+No+Chaser'
p789
S'1277304689'
p790
tp791
a(S'Them Crooked Vultures'
p792
S'Dead End Friends'
p793
S'http://www.last.fm/music/Them+Crooked+Vultures/_/Dead+End+Friends'
p794
S'1277304443'
p795
tp796
a(S'Stone Temple Pilots'
p797
S'Take a Load Off'
p798
S'http://www.last.fm/music/Stone+Temple+Pilots/_/Take+a+Load+Off'
p799
S'1277304248'
p800
tp801
a(S'Stone Temple Pilots'
p802
S'Hickory Dichotomy'
p803
S'http://www.last.fm/music/Stone+Temple+Pilots/_/Hickory+Dichotomy'
p804
S'1277304049'
p805
tp806
a(S'Stone Temple Pilots'
p807
S'Peacoat'
p808
S'http://www.last.fm/music/Stone+Temple+Pilots/_/Peacoat'
p809
S'1277303846'
p810
tp811
a(S'Ozzy Osbourne'
p812
S'Civilize the Universe'
p813
S'http://www.last.fm/music/Ozzy+Osbourne/_/Civilize+the+Universe'
p814
S'1277303592'
p815
tp816
a(S'Ozzy Osbourne'
p817
S'Secret Loser'
p818
S'http://www.last.fm/music/Ozzy+Osbourne/_/Secret+Loser'
p819
S'1277303309'
p820
tp821
a(S'Nirvana'
p822
S'Plateau'
p823
S'http://www.last.fm/music/Nirvana/_/Plateau'
p824
S'1277303060'
p825
tp826
a(S'Ozzy Osbourne'
p827
S'Let Me Hear You Scream'
p828
S'http://www.last.fm/music/Ozzy+Osbourne/_/Let+Me+Hear+You+Scream'
p829
S'1277302842'
p830
tp831
a(S'Nirvana'
p832
S'Lake Of Fire'
p833
S'http://www.last.fm/music/Nirvana/_/Lake+Of+Fire'
p834
S'1277302637'
p835
tp836
a(S'Them Crooked Vultures'
p837
S'Mind Eraser, No Chaser'
p838
S'http://www.last.fm/music/Them+Crooked+Vultures/_/Mind+Eraser,+No+Chaser'
p839
S'1277302461'
p840
tp841
a(S'Ozzy Osbourne'
p842
S'Denial'
p843
S'http://www.last.fm/music/Ozzy+Osbourne/_/Denial'
p844
S'1277301774'
p845
tp846
a(S'Them Crooked Vultures'
p847
S'Gunman'
p848
S'http://www.last.fm/music/Them+Crooked+Vultures/_/Gunman'
p849
S'1277300845'
p850
tp851
a(S'Them Crooked Vultures'
p852
S'Dead End Friends'
p853
S'http://www.last.fm/music/Them+Crooked+Vultures/_/Dead+End+Friends'
p854
S'1277300558'
p855
tp856
a(S'Stone Temple Pilots'
p857
S'Between the Lines'
p858
S'http://www.last.fm/music/Stone+Temple+Pilots/_/Between+the+Lines'
p859
S'1277300363'
p860
tp861
a(S'Rainbow'
p862
S'Lady Of The Lake'
p863
S'http://www.last.fm/music/Rainbow/_/Lady+Of+The+Lake'
p864
S'1277300193'
p865
tp866
a(S'Ozzy Osbourne'
p867
S'Perry Mason'
p868
S'http://www.last.fm/music/Ozzy+Osbourne/_/Perry+Mason'
p869
S'1277299973'
p870
tp871
a(S'Nirvana'
p872
S'The Man Who Sold the World'
p873
S'http://www.last.fm/music/Nirvana/_/The+Man+Who+Sold+the+World'
p874
S'1277299620'
p875
tp876
a(S'Stone Temple Pilots'
p877
S'Huckleberry Crumble'
p878
S'http://www.last.fm/music/Stone+Temple+Pilots/_/Huckleberry+Crumble'
p879
S'1277299359'
p880
tp881
a(S'Velvet Revolver'
p882
S'Do It For The Kids'
p883
S'http://www.last.fm/music/Velvet+Revolver/_/Do+It+For+The+Kids'
p884
S'1277142179'
p885
tp886
a(S'Alice in Chains'
p887
S'Private Hell'
p888
S'http://www.last.fm/music/Alice+in+Chains/_/Private+Hell'
p889
S'1277141943'
p890
tp891
a(S'Anthrax'
p892
S'Hy Pro Glo'
p893
S'http://www.last.fm/music/Anthrax/_/Hy+Pro+Glo'
p894
S'1277141605'
p895
tp896
a(S'Stone Temple Pilots'
p897
S'Peacoat'
p898
S'http://www.last.fm/music/Stone+Temple+Pilots/_/Peacoat'
p899
S'1277135918'
p900
tp901
a(S'Soundgarden'
p902
S'Fresh Tendrils'
p903
S'http://www.last.fm/music/Soundgarden/_/Fresh+Tendrils'
p904
S'1277135708'
p905
tp906
a(S'Audioslave'
p907
S'Your Time Has Come'
p908
S'http://www.last.fm/music/Audioslave/_/Your+Time+Has+Come'
p909
S'1277135452'
p910
tp911
a(S'Nirvana'
p912
S'Breed'
p913
S'http://www.last.fm/music/Nirvana/_/Breed'
p914
S'1277135305'
p915
tp916
a(S'Judas Priest'
p917
S'Reckless'
p918
S'http://www.last.fm/music/Judas+Priest/_/Reckless'
p919
S'1277135121'
p920
tp921
a(S'Diamond Head'
p922
S'Muddy Waters'
p923
S'http://www.last.fm/music/Diamond+Head/_/Muddy+Waters'
p924
S'1277134861'
p925
tp926
a(S'Nirvana'
p927
S'On a Plain'
p928
S'http://www.last.fm/music/Nirvana/_/On+a+Plain'
p929
S'1277134586'
p930
tp931
a(S'Bee Gees'
p932
S'E.S.P.'
p933
S'http://www.last.fm/music/Bee+Gees/_/E.S.P.'
p934
S'1277134361'
p935
tp936
a(S'Alice in Chains'
p937
S'Them Bones'
p938
S'http://www.last.fm/music/Alice+in+Chains/_/Them+Bones'
p939
S'1277134027'
p940
tp941
a(S'Metallica'
p942
S'Holier Than Thou'
p943
S'http://www.last.fm/music/Metallica/_/Holier+Than+Thou'
p944
S'1277133866'
p945
tp946
a(S'Anthrax'
p947
S'Room For One More'
p948
S'http://www.last.fm/music/Anthrax/_/Room+For+One+More'
p949
S'1277133638'
p950
tp951
a(S'Stone Temple Pilots'
p952
S'Meat Plow'
p953
S'http://www.last.fm/music/Stone+Temple+Pilots/_/Meat+Plow'
p954
S'1277133459'
p955
tp956
a(S'Ozzy Osbourne'
p957
S'Let Me Hear You Scream'
p958
S'http://www.last.fm/music/Ozzy+Osbourne/_/Let+Me+Hear+You+Scream'
p959
S'1277133242'
p960
tp961
a(S'Ozzy Osbourne'
p962
S'Denial'
p963
S'http://www.last.fm/music/Ozzy+Osbourne/_/Denial'
p964
S'1277132189'
p965
tp966
a(S'Yes'
p967
S'Changes'
p968
S'http://www.last.fm/music/Yes/_/Changes'
p969
S'1277128387'
p970
tp971
a(S'Alice in Chains'
p972
S'All Secrets Known'
p973
S'http://www.last.fm/music/Alice+in+Chains/_/All+Secrets+Known'
p974
S'1277128007'
p975
tp976
a(S'Rainbow'
p977
S'Lady Of The Lake'
p978
S'http://www.last.fm/music/Rainbow/_/Lady+Of+The+Lake'
p979
S'1277127699'
p980
tp981
a(S'Judas Priest'
p982
S'Hot for Love'
p983
S'http://www.last.fm/music/Judas+Priest/_/Hot+for+Love'
p984
S'1277127480'
p985
tp986
a(S'Stone Temple Pilots'
p987
S'Pruno'
p988
S'http://www.last.fm/music/Stone+Temple+Pilots/_/Pruno'
p989
S'1277127228'
p990
tp991
a(S'Judas Priest'
p992
S'Turbo Lover'
p993
S'http://www.last.fm/music/Judas+Priest/_/Turbo+Lover'
p994
S'1277126531'
p995
tp996
a(S'Alice in Chains'
p997
S'Lesson Learned'
p998
S'http://www.last.fm/music/Alice+in+Chains/_/Lesson+Learned'
p999
S'1277126197'
p1000
tp1001
a.