(lp1
(S'Rage Against the Machine'
p2
S'Bullet In The Head (Live)'
p3
S'http://www.last.fm/music/Rage+Against+the+Machine/_/Bullet+In+The+Head+(Live)'
p4
S'1236633457'
p5
tp6
a(S'Megadeth'
p7
S"Crush 'em"
p8
S'http://www.last.fm/music/Megadeth/_/Crush+%27em'
p9
S'1236633163'
p10
tp11
a(S'Pantera'
p12
S'Fucking Hostile'
p13
S'http://www.last.fm/music/Pantera/_/Fucking+Hostile'
p14
S'1236632995'
p15
tp16
a(S'Metallica'
p17
S'2 X 4'
p18
S'http://www.last.fm/music/Metallica/_/2+X+4'
p19
S'1236632665'
p20
tp21
a(S'Megadeth'
p22
S'A Secret Place'
p23
S'http://www.last.fm/music/Megadeth/_/A+Secret+Place'
p24
S'1236632340'
p25
tp26
a(S'Metallica'
p27
S"Ain't My Bitch"
p28
S'http://www.last.fm/music/Metallica/_/Ain%27t+My+Bitch'
p29
S'1236632034'
p30
tp31
a(S'Megadeth'
p32
S"Crush 'em"
p33
S'http://www.last.fm/music/Megadeth/_/Crush+%27em'
p34
S'1236607962'
p35
tp36
a(S'Jerry Cantrell'
p37
S'Hurt A Long Time'
p38
S'http://www.last.fm/music/Jerry+Cantrell/_/Hurt+A+Long+Time'
p39
S'1236607622'
p40
tp41
a(S'Corrosion of Conformity'
p42
S'Clean My Wounds'
p43
S'http://www.last.fm/music/Corrosion+of+Conformity/_/Clean+My+Wounds'
p44
S'1236607409'
p45
tp46
a(S'Metallica'
p47
S'2 X 4'
p48
S'http://www.last.fm/music/Metallica/_/2+X+4'
p49
S'1236607079'
p50
tp51
a(S'Alice Cooper'
p52
S'Poison'
p53
S'http://www.last.fm/music/Alice+Cooper/_/Poison'
p54
S'1236606809'
p55
tp56
a(S'Jerry Cantrell'
p57
S'Satisfy'
p58
S'http://www.last.fm/music/Jerry+Cantrell/_/Satisfy'
p59
S'1236606595'
p60
tp61
a(S'AC/DC'
p62
S'Money Made'
p63
S'http://www.last.fm/music/AC%2FDC/_/Money+Made'
p64
S'1236606339'
p65
tp66
a(S'Alice Cooper'
p67
S'Bed of Nails'
p68
S'http://www.last.fm/music/Alice+Cooper/_/Bed+of+Nails'
p69
S'1236606079'
p70
tp71
a(S'Megadeth'
p72
S'Diadems'
p73
S'http://www.last.fm/music/Megadeth/_/Diadems'
p74
S'1236605844'
p75
tp76
a(S'Megadeth'
p77
S'Symphony of Destruction'
p78
S'http://www.last.fm/music/Megadeth/_/Symphony+of+Destruction'
p79
S'1236605603'
p80
tp81
a(S'Megadeth'
p82
S'The Disintegrators'
p83
S'http://www.last.fm/music/Megadeth/_/The+Disintegrators'
p84
S'1236605419'
p85
tp86
a(S'Jerry Cantrell'
p87
S'Settling Down'
p88
S'http://www.last.fm/music/Jerry+Cantrell/_/Settling+Down'
p89
S'1236605048'
p90
tp91
a(S'Megadeth'
p92
S'Wanderlust'
p93
S'http://www.last.fm/music/Megadeth/_/Wanderlust'
p94
S'1236604700'
p95
tp96
a(S'Metallica'
p97
S'Cure'
p98
S'http://www.last.fm/music/Metallica/_/Cure'
p99
S'1236603570'
p100
tp101
a(S'Megadeth'
p102
S'Elysian Fields'
p103
S'http://www.last.fm/music/Megadeth/_/Elysian+Fields'
p104
S'1236603326'
p105
tp106
a(S'Rage Against the Machine'
p107
S'Bullet In The Head (Live)'
p108
S'http://www.last.fm/music/Rage+Against+the+Machine/_/Bullet+In+The+Head+(Live)'
p109
S'1236602997'
p110
tp111
a(S'Pantera'
p112
S'Fucking Hostile'
p113
S'http://www.last.fm/music/Pantera/_/Fucking+Hostile'
p114
S'1236602828'
p115
tp116
a(S'Metallica'
p117
S"Ain't My Bitch"
p118
S'http://www.last.fm/music/Metallica/_/Ain%27t+My+Bitch'
p119
S'1236602522'
p120
tp121
a(S'Jamiroquai'
p122
S'Corner of the Earth'
p123
S'http://www.last.fm/music/Jamiroquai/_/Corner+of+the+Earth'
p124
S'1236602270'
p125
tp126
a(S'Jamiroquai'
p127
S'Black Crow'
p128
S'http://www.last.fm/music/Jamiroquai/_/Black+Crow'
p129
S'1236602026'
p130
tp131
a(S'Jamiroquai'
p132
S'You Give Me Something'
p133
S'http://www.last.fm/music/Jamiroquai/_/You+Give+Me+Something'
p134
S'1236601817'
p135
tp136
a(S'Jamiroquai'
p137
S'Picture of My Life'
p138
S'http://www.last.fm/music/Jamiroquai/_/Picture+of+My+Life'
p139
S'1236601277'
p140
tp141
a(S'Jamiroquai'
p142
S'Starchild'
p143
S'http://www.last.fm/music/Jamiroquai/_/Starchild'
p144
S'1236600967'
p145
tp146
a(S'Jamiroquai'
p147
S'Everyday'
p148
S'http://www.last.fm/music/Jamiroquai/_/Everyday'
p149
S'1236600698'
p150
tp151
a(S'Jamiroquai'
p152
S'Seven Days in Sunny June'
p153
S'http://www.last.fm/music/Jamiroquai/_/Seven+Days+in+Sunny+June'
p154
S'1236600460'
p155
tp156
a(S'Jamiroquai'
p157
S'Starchild'
p158
S'http://www.last.fm/music/Jamiroquai/_/Starchild'
p159
S'1236600149'
p160
tp161
a(S'Jamiroquai'
p162
S'You Give Me Something'
p163
S'http://www.last.fm/music/Jamiroquai/_/You+Give+Me+Something'
p164
S'1236599556'
p165
tp166
a(S'Jamiroquai'
p167
S'Virtual Insanity'
p168
S'http://www.last.fm/music/Jamiroquai/_/Virtual+Insanity'
p169
S'1236599198'
p170
tp171
a(S'Jamiroquai'
p172
S'You Give Me Something'
p173
S'http://www.last.fm/music/Jamiroquai/_/You+Give+Me+Something'
p174
S'1236598992'
p175
tp176
a(S'Jamiroquai'
p177
S'Hot Tequila Brown'
p178
S'http://www.last.fm/music/Jamiroquai/_/Hot+Tequila+Brown'
p179
S'1236598717'
p180
tp181
a(S'Jamiroquai'
p182
S'Electric Mistress'
p183
S'http://www.last.fm/music/Jamiroquai/_/Electric+Mistress'
p184
S'1236598484'
p185
tp186
a(S'Jamiroquai'
p187
S'Little L'
p188
S'http://www.last.fm/music/Jamiroquai/_/Little+L'
p189
S'1236598186'
p190
tp191
a(S'Jamiroquai'
p192
S'Dynamite'
p193
S'http://www.last.fm/music/Jamiroquai/_/Dynamite'
p194
S'1236597891'
p195
tp196
a(S'Jamiroquai'
p197
S'Electric Mistress'
p198
S'http://www.last.fm/music/Jamiroquai/_/Electric+Mistress'
p199
S'1236527178'
p200
tp201
a(S'Jamiroquai'
p202
S'When You Gonna Learn (digerido)'
p203
S'http://www.last.fm/music/Jamiroquai/_/When+You+Gonna+Learn+(digerido)'
p204
S'1236526947'
p205
tp206
a(S'Jamiroquai'
p207
S'Space Cowboy'
p208
S'http://www.last.fm/music/Jamiroquai/_/Space+Cowboy'
p209
S'1236526562'
p210
tp211
a(S'Jamiroquai'
p212
S'Love Foolosophy'
p213
S'http://www.last.fm/music/Jamiroquai/_/Love+Foolosophy'
p214
S'1236526334'
p215
tp216
a(S'Jamiroquai'
p217
S'Little L'
p218
S'http://www.last.fm/music/Jamiroquai/_/Little+L'
p219
S'1236526037'
p220
tp221
a(S'Jamiroquai'
p222
S'Dynamite'
p223
S'http://www.last.fm/music/Jamiroquai/_/Dynamite'
p224
S'1236525742'
p225
tp226
a(S'Jamiroquai'
p227
S'You Give Me Something'
p228
S'http://www.last.fm/music/Jamiroquai/_/You+Give+Me+Something'
p229
S'1236525537'
p230
tp231
a(S'Pantera'
p232
S'Cowboys from Hell'
p233
S'http://www.last.fm/music/Pantera/_/Cowboys+from+Hell'
p234
S'1236379109'
p235
tp236
a(S'Rage Against the Machine'
p237
S'Bullet In The Head (Live)'
p238
S'http://www.last.fm/music/Rage+Against+the+Machine/_/Bullet+In+The+Head+(Live)'
p239
S'1236378779'
p240
tp241
a(S'Pantera'
p242
S'Mouth for War'
p243
S'http://www.last.fm/music/Pantera/_/Mouth+for+War'
p244
S'1236378543'
p245
tp246
a(S'Metallica'
p247
S'The Outlaw Torn'
p248
S'http://www.last.fm/music/Metallica/_/The+Outlaw+Torn'
p249
S'1236377955'
p250
tp251
a(S'Jerry Cantrell'
p252
S'Hurt A Long Time'
p253
S'http://www.last.fm/music/Jerry+Cantrell/_/Hurt+A+Long+Time'
p254
S'1236377615'
p255
tp256
a(S'Metallica'
p257
S'The Outlaw Torn'
p258
S'http://www.last.fm/music/Metallica/_/The+Outlaw+Torn'
p259
S'1236376687'
p260
tp261
a(S'Rage Against the Machine'
p262
S'Bullet In The Head (Live)'
p263
S'http://www.last.fm/music/Rage+Against+the+Machine/_/Bullet+In+The+Head+(Live)'
p264
S'1236376331'
p265
tp266
a(S'Megadeth'
p267
S"Crush 'em"
p268
S'http://www.last.fm/music/Megadeth/_/Crush+%27em'
p269
S'1236376037'
p270
tp271
a(S'Metallica'
p272
S'2 X 4'
p273
S'http://www.last.fm/music/Metallica/_/2+X+4'
p274
S'1236375707'
p275
tp276
a(S'Metallica'
p277
S'King Nothing'
p278
S'http://www.last.fm/music/Metallica/_/King+Nothing'
p279
S'1236375377'
p280
tp281
a(S'Megadeth'
p282
S'Addicted to Chaos'
p283
S'http://www.last.fm/music/Megadeth/_/Addicted+to+Chaos'
p284
S'1236375050'
p285
tp286
a(S'Jamiroquai'
p287
S'Starchild'
p288
S'http://www.last.fm/music/Jamiroquai/_/Starchild'
p289
S'1236374628'
p290
tp291
a(S'Jamiroquai'
p292
S'You Give Me Something'
p293
S'http://www.last.fm/music/Jamiroquai/_/You+Give+Me+Something'
p294
S'1236374430'
p295
tp296
a(S'Jamiroquai'
p297
S'Love Foolosophy'
p298
S'http://www.last.fm/music/Jamiroquai/_/Love+Foolosophy'
p299
S'1236374202'
p300
tp301
a(S'Jamiroquai'
p302
S'Seven Days in Sunny June'
p303
S'http://www.last.fm/music/Jamiroquai/_/Seven+Days+in+Sunny+June'
p304
S'1236373964'
p305
tp306
a(S'Jamiroquai'
p307
S'Cosmic Girl'
p308
S'http://www.last.fm/music/Jamiroquai/_/Cosmic+Girl'
p309
S'1236373720'
p310
tp311
a(S'Jamiroquai'
p312
S'Hot Tequila Brown'
p313
S'http://www.last.fm/music/Jamiroquai/_/Hot+Tequila+Brown'
p314
S'1236373445'
p315
tp316
a(S'Jamiroquai'
p317
S'Dynamite'
p318
S'http://www.last.fm/music/Jamiroquai/_/Dynamite'
p319
S'1236373150'
p320
tp321
a(S'Jamiroquai'
p322
S'Dynamite'
p323
S'http://www.last.fm/music/Jamiroquai/_/Dynamite'
p324
S'1236341334'
p325
tp326
a(S'Jamiroquai'
p327
S'Electric Mistress'
p328
S'http://www.last.fm/music/Jamiroquai/_/Electric+Mistress'
p329
S'1236340979'
p330
tp331
a(S'Jamiroquai'
p332
S'You Give Me Something'
p333
S'http://www.last.fm/music/Jamiroquai/_/You+Give+Me+Something'
p334
S'1236340773'
p335
tp336
a(S'Jamiroquai'
p337
S'Seven Days in Sunny June'
p338
S'http://www.last.fm/music/Jamiroquai/_/Seven+Days+in+Sunny+June'
p339
S'1236340367'
p340
tp341
a(S'Jamiroquai'
p342
S'Talulah'
p343
S'http://www.last.fm/music/Jamiroquai/_/Talulah'
p344
S'1236340003'
p345
tp346
a(S'Jamiroquai'
p347
S'Love Foolosophy'
p348
S'http://www.last.fm/music/Jamiroquai/_/Love+Foolosophy'
p349
S'1236339775'
p350
tp351
a(S'Jamiroquai'
p352
S'Little L'
p353
S'http://www.last.fm/music/Jamiroquai/_/Little+L'
p354
S'1236339478'
p355
tp356
a(S'Jamiroquai'
p357
S'Cosmic Girl'
p358
S'http://www.last.fm/music/Jamiroquai/_/Cosmic+Girl'
p359
S'1236339234'
p360
tp361
a(S'Jamiroquai'
p362
S'Everyday'
p363
S'http://www.last.fm/music/Jamiroquai/_/Everyday'
p364
S'1236338965'
p365
tp366
a(S'Jamiroquai'
p367
S'Dynamite'
p368
S'http://www.last.fm/music/Jamiroquai/_/Dynamite'
p369
S'1236338670'
p370
tp371
a(S'Jamiroquai'
p372
S'Love Foolosophy'
p373
S'http://www.last.fm/music/Jamiroquai/_/Love+Foolosophy'
p374
S'1236292267'
p375
tp376
a(S'Jamiroquai'
p377
S'Cosmic Girl'
p378
S'http://www.last.fm/music/Jamiroquai/_/Cosmic+Girl'
p379
S'1236292023'
p380
tp381
a(S'Jamiroquai'
p382
S'Alright'
p383
S'http://www.last.fm/music/Jamiroquai/_/Alright'
p384
S'1236291758'
p385
tp386
a(S'Jamiroquai'
p387
S'Main Vein'
p388
S'http://www.last.fm/music/Jamiroquai/_/Main+Vein'
p389
S'1236291453'
p390
tp391
a(S'Jamiroquai'
p392
S'Everyday'
p393
S'http://www.last.fm/music/Jamiroquai/_/Everyday'
p394
S'1236291184'
p395
tp396
a(S'Jamiroquai'
p397
S'Starchild'
p398
S'http://www.last.fm/music/Jamiroquai/_/Starchild'
p399
S'1236290873'
p400
tp401
a(S'Jamiroquai'
p402
S'Black Crow'
p403
S'http://www.last.fm/music/Jamiroquai/_/Black+Crow'
p404
S'1236290629'
p405
tp406
a(S'Jamiroquai'
p407
S'Dynamite'
p408
S'http://www.last.fm/music/Jamiroquai/_/Dynamite'
p409
S'1236290334'
p410
tp411
a(S'Jamiroquai'
p412
S'Dynamite'
p413
S'http://www.last.fm/music/Jamiroquai/_/Dynamite'
p414
S'1236290037'
p415
tp416
a(S'Jamiroquai'
p417
S'Cosmic Girl'
p418
S'http://www.last.fm/music/Jamiroquai/_/Cosmic+Girl'
p419
S'1236261568'
p420
tp421
a(S'Jamiroquai'
p422
S'Corner of the Earth'
p423
S'http://www.last.fm/music/Jamiroquai/_/Corner+of+the+Earth'
p424
S'1236261226'
p425
tp426
a(S'Jamiroquai'
p427
S'Corner of the Earth'
p428
S'http://www.last.fm/music/Jamiroquai/_/Corner+of+the+Earth'
p429
S'1236260884'
p430
tp431
a(S'Jamiroquai'
p432
S'Everyday'
p433
S'http://www.last.fm/music/Jamiroquai/_/Everyday'
p434
S'1236260615'
p435
tp436
a(S'Jamiroquai'
p437
S'Electric Mistress'
p438
S'http://www.last.fm/music/Jamiroquai/_/Electric+Mistress'
p439
S'1236260381'
p440
tp441
a(S'Jamiroquai'
p442
S'Dynamite'
p443
S'http://www.last.fm/music/Jamiroquai/_/Dynamite'
p444
S'1236259669'
p445
tp446
a(S'Jamiroquai'
p447
S'Alright'
p448
S'http://www.last.fm/music/Jamiroquai/_/Alright'
p449
S'1236259358'
p450
tp451
a(S'Jamiroquai'
p452
S'Seven Days in Sunny June'
p453
S'http://www.last.fm/music/Jamiroquai/_/Seven+Days+in+Sunny+June'
p454
S'1236259120'
p455
tp456
a(S'Jamiroquai'
p457
S'Love Foolosophy'
p458
S'http://www.last.fm/music/Jamiroquai/_/Love+Foolosophy'
p459
S'1236258892'
p460
tp461
a(S'Jamiroquai'
p462
S'Main Vein'
p463
S'http://www.last.fm/music/Jamiroquai/_/Main+Vein'
p464
S'1236258587'
p465
tp466
a(S'Jamiroquai'
p467
S'Starchild'
p468
S'http://www.last.fm/music/Jamiroquai/_/Starchild'
p469
S'1236258276'
p470
tp471
a(S'Jamiroquai'
p472
S'High Times'
p473
S'http://www.last.fm/music/Jamiroquai/_/High+Times'
p474
S'1236257918'
p475
tp476
a(S'Jamiroquai'
p477
S'Little L'
p478
S'http://www.last.fm/music/Jamiroquai/_/Little+L'
p479
S'1236257620'
p480
tp481
a(S'Jamiroquai'
p482
S'Picture of My Life'
p483
S'http://www.last.fm/music/Jamiroquai/_/Picture+of+My+Life'
p484
S'1236257240'
p485
tp486
a(S'Jamiroquai'
p487
S'Virtual Insanity'
p488
S'http://www.last.fm/music/Jamiroquai/_/Virtual+Insanity'
p489
S'1236256899'
p490
tp491
a(S'Jamiroquai'
p492
S'You Give Me Something'
p493
S'http://www.last.fm/music/Jamiroquai/_/You+Give+Me+Something'
p494
S'1236256693'
p495
tp496
a(S'Jamiroquai'
p497
S'Electric Mistress'
p498
S'http://www.last.fm/music/Jamiroquai/_/Electric+Mistress'
p499
S'1236256339'
p500
tp501
a(S'Jamiroquai'
p502
S'Dynamite'
p503
S'http://www.last.fm/music/Jamiroquai/_/Dynamite'
p504
S'1236256044'
p505
tp506
a(S'Jamiroquai'
p507
S'Black Crow'
p508
S'http://www.last.fm/music/Jamiroquai/_/Black+Crow'
p509
S'1236255758'
p510
tp511
a(S'Jamiroquai'
p512
S'Alright'
p513
S'http://www.last.fm/music/Jamiroquai/_/Alright'
p514
S'1236255493'
p515
tp516
a(S'Jamiroquai'
p517
S'Seven Days in Sunny June'
p518
S'http://www.last.fm/music/Jamiroquai/_/Seven+Days+in+Sunny+June'
p519
S'1236255255'
p520
tp521
a(S'Jamiroquai'
p522
S'Love Foolosophy'
p523
S'http://www.last.fm/music/Jamiroquai/_/Love+Foolosophy'
p524
S'1236255027'
p525
tp526
a(S'Jamiroquai'
p527
S'Main Vein'
p528
S'http://www.last.fm/music/Jamiroquai/_/Main+Vein'
p529
S'1236254721'
p530
tp531
a(S'Jamiroquai'
p532
S'Starchild'
p533
S'http://www.last.fm/music/Jamiroquai/_/Starchild'
p534
S'1236254411'
p535
tp536
a(S'Jamiroquai'
p537
S'High Times'
p538
S'http://www.last.fm/music/Jamiroquai/_/High+Times'
p539
S'1236254052'
p540
tp541
a(S'Jamiroquai'
p542
S'Little L'
p543
S'http://www.last.fm/music/Jamiroquai/_/Little+L'
p544
S'1236253755'
p545
tp546
a(S'Jamiroquai'
p547
S'Picture of My Life'
p548
S'http://www.last.fm/music/Jamiroquai/_/Picture+of+My+Life'
p549
S'1236253375'
p550
tp551
a(S'Jamiroquai'
p552
S'Virtual Insanity'
p553
S'http://www.last.fm/music/Jamiroquai/_/Virtual+Insanity'
p554
S'1236253033'
p555
tp556
a(S'Jamiroquai'
p557
S'You Give Me Something'
p558
S'http://www.last.fm/music/Jamiroquai/_/You+Give+Me+Something'
p559
S'1236252828'
p560
tp561
a(S'Jamiroquai'
p562
S'You Give Me Something'
p563
S'http://www.last.fm/music/Jamiroquai/_/You+Give+Me+Something'
p564
S'1236118772'
p565
tp566
a(S'Jamiroquai'
p567
S'Everyday'
p568
S'http://www.last.fm/music/Jamiroquai/_/Everyday'
p569
S'1236118621'
p570
tp571
a(S'Jamiroquai'
p572
S'Electric Mistress'
p573
S'http://www.last.fm/music/Jamiroquai/_/Electric+Mistress'
p574
S'1236118387'
p575
tp576
a(S'Jamiroquai'
p577
S'Dynamite'
p578
S'http://www.last.fm/music/Jamiroquai/_/Dynamite'
p579
S'1236118092'
p580
tp581
a(S'Jamiroquai'
p582
S'Starchild'
p583
S'http://www.last.fm/music/Jamiroquai/_/Starchild'
p584
S'1236117863'
p585
tp586
a(S'Jamiroquai'
p587
S'Picture of My Life'
p588
S'http://www.last.fm/music/Jamiroquai/_/Picture+of+My+Life'
p589
S'1236117483'
p590
tp591
a(S'Jamiroquai'
p592
S'High Times'
p593
S'http://www.last.fm/music/Jamiroquai/_/High+Times'
p594
S'1236117125'
p595
tp596
a(S'Jamiroquai'
p597
S'Talulah'
p598
S'http://www.last.fm/music/Jamiroquai/_/Talulah'
p599
S'1236116760'
p600
tp601
a(S'Jamiroquai'
p602
S'Virtual Insanity'
p603
S'http://www.last.fm/music/Jamiroquai/_/Virtual+Insanity'
p604
S'1236116419'
p605
tp606
a(S'Jamiroquai'
p607
S'Little L'
p608
S'http://www.last.fm/music/Jamiroquai/_/Little+L'
p609
S'1236115946'
p610
tp611
a(S'Jamiroquai'
p612
S'Seven Days in Sunny June'
p613
S'http://www.last.fm/music/Jamiroquai/_/Seven+Days+in+Sunny+June'
p614
S'1236115708'
p615
tp616
a(S'Jamiroquai'
p617
S'Main Vein'
p618
S'http://www.last.fm/music/Jamiroquai/_/Main+Vein'
p619
S'1236115402'
p620
tp621
a(S'Jamiroquai'
p622
S'Hot Tequila Brown'
p623
S'http://www.last.fm/music/Jamiroquai/_/Hot+Tequila+Brown'
p624
S'1236115071'
p625
tp626
a(S'Jamiroquai'
p627
S'You Give Me Something'
p628
S'http://www.last.fm/music/Jamiroquai/_/You+Give+Me+Something'
p629
S'1236114666'
p630
tp631
a(S'Jamiroquai'
p632
S'Alright'
p633
S'http://www.last.fm/music/Jamiroquai/_/Alright'
p634
S'1235997887'
p635
tp636
a(S'Jamiroquai'
p637
S'Hot Tequila Brown'
p638
S'http://www.last.fm/music/Jamiroquai/_/Hot+Tequila+Brown'
p639
S'1235997612'
p640
tp641
a(S'Jamiroquai'
p642
S'Talulah'
p643
S'http://www.last.fm/music/Jamiroquai/_/Talulah'
p644
S'1235997248'
p645
tp646
a(S'Jamiroquai'
p647
S'Picture of My Life'
p648
S'http://www.last.fm/music/Jamiroquai/_/Picture+of+My+Life'
p649
S'1235996868'
p650
tp651
a(S'Jamiroquai'
p652
S'Love Foolosophy'
p653
S'http://www.last.fm/music/Jamiroquai/_/Love+Foolosophy'
p654
S'1235996639'
p655
tp656
a(S'Jamiroquai'
p657
S'Electric Mistress'
p658
S'http://www.last.fm/music/Jamiroquai/_/Electric+Mistress'
p659
S'1235996406'
p660
tp661
a(S'Jamiroquai'
p662
S'Main Vein'
p663
S'http://www.last.fm/music/Jamiroquai/_/Main+Vein'
p664
S'1235996100'
p665
tp666
a(S'Jamiroquai'
p667
S'Canned Head (7"Edit)'
p668
S'http://www.last.fm/music/Jamiroquai/_/Canned+Head+(7%22Edit)'
p669
S'1235995875'
p670
tp671
a(S'Jamiroquai'
p672
S'Dynamite'
p673
S'http://www.last.fm/music/Jamiroquai/_/Dynamite'
p674
S'1235995555'
p675
tp676
a(S'Jamiroquai'
p677
S'Seven Days in Sunny June'
p678
S'http://www.last.fm/music/Jamiroquai/_/Seven+Days+in+Sunny+June'
p679
S'1235995317'
p680
tp681
a(S'Jamiroquai'
p682
S'Cosmic Girl'
p683
S'http://www.last.fm/music/Jamiroquai/_/Cosmic+Girl'
p684
S'1235995073'
p685
tp686
a(S'Jamiroquai'
p687
S'Little L'
p688
S'http://www.last.fm/music/Jamiroquai/_/Little+L'
p689
S'1235994776'
p690
tp691
a(S'Jamiroquai'
p692
S'You Give Me Something'
p693
S'http://www.last.fm/music/Jamiroquai/_/You+Give+Me+Something'
p694
S'1235994570'
p695
tp696
a(S'Metallica'
p697
S'King Nothing'
p698
S'http://www.last.fm/music/Metallica/_/King+Nothing'
p699
S'1235565246'
p700
tp701
a(S'Alice Cooper'
p702
S"I'm Your Gun"
p703
S'http://www.last.fm/music/Alice+Cooper/_/I%27m+Your+Gun'
p704
S'1235565016'
p705
tp706
a(S'Rage Against the Machine'
p707
S'Bullet In The Head (Live)'
p708
S'http://www.last.fm/music/Rage+Against+the+Machine/_/Bullet+In+The+Head+(Live)'
p709
S'1235564687'
p710
tp711
a(S'Jerry Cantrell'
p712
S'Settling Down'
p713
S'http://www.last.fm/music/Jerry+Cantrell/_/Settling+Down'
p714
S'1235564317'
p715
tp716
a(S'Metallica'
p717
S'The Outlaw Torn'
p718
S'http://www.last.fm/music/Metallica/_/The+Outlaw+Torn'
p719
S'1235563729'
p720
tp721
a(S'Metallica'
p722
S'The House Jack Built'
p723
S'http://www.last.fm/music/Metallica/_/The+House+Jack+Built'
p724
S'1235562973'
p725
tp726
a(S'Megadeth'
p727
S'Breadline'
p728
S'http://www.last.fm/music/Megadeth/_/Breadline'
p729
S'1235562701'
p730
tp731
a(S'Judas Priest'
p732
S'Out in the Cold'
p733
S'http://www.last.fm/music/Judas+Priest/_/Out+in+the+Cold'
p734
S'1235562287'
p735
tp736
a(S'AC/DC'
p737
S'Money Made'
p738
S'http://www.last.fm/music/AC%2FDC/_/Money+Made'
p739
S'1235562032'
p740
tp741
a(S'Jerry Cantrell'
p742
S'Satisfy'
p743
S'http://www.last.fm/music/Jerry+Cantrell/_/Satisfy'
p744
S'1235561817'
p745
tp746
a(S'Alice Cooper'
p747
S'Bed of Nails'
p748
S'http://www.last.fm/music/Alice+Cooper/_/Bed+of+Nails'
p749
S'1235561557'
p750
tp751
a(S'AC/DC'
p752
S'Decibel'
p753
S'http://www.last.fm/music/AC%2FDC/_/Decibel'
p754
S'1235561343'
p755
tp756
a(S'AC/DC'
p757
S"Spoilin' For A Fight"
p758
S'http://www.last.fm/music/AC%2FDC/_/Spoilin%27+For+A+Fight'
p759
S'1235561146'
p760
tp761
a(S'Metallica'
p762
S'2 X 4'
p763
S'http://www.last.fm/music/Metallica/_/2+X+4'
p764
S'1235560817'
p765
tp766
a(S'AC/DC'
p767
S'Rock N Roll Train'
p768
S'http://www.last.fm/music/AC%2FDC/_/Rock+N+Roll+Train'
p769
S'1235560555'
p770
tp771
a(S'Corrosion of Conformity'
p772
S'Clean My Wounds'
p773
S'http://www.last.fm/music/Corrosion+of+Conformity/_/Clean+My+Wounds'
p774
S'1235560342'
p775
tp776
a(S'Pantera'
p777
S'Cowboys from Hell'
p778
S'http://www.last.fm/music/Pantera/_/Cowboys+from+Hell'
p779
S'1235560095'
p780
tp781
a(S'Pantera'
p782
S'Shattered'
p783
S'http://www.last.fm/music/Pantera/_/Shattered'
p784
S'1235559893'
p785
tp786
a(S'Megadeth'
p787
S'A Secret Place'
p788
S'http://www.last.fm/music/Megadeth/_/A+Secret+Place'
p789
S'1235559568'
p790
tp791
a(S'Pantera'
p792
S'Fucking Hostile'
p793
S'http://www.last.fm/music/Pantera/_/Fucking+Hostile'
p794
S'1235559400'
p795
tp796
a(S'Megadeth'
p797
S'Addicted to Chaos'
p798
S'http://www.last.fm/music/Megadeth/_/Addicted+to+Chaos'
p799
S'1235558818'
p800
tp801
a(S'Jamiroquai'
p802
S'Cosmic Girl'
p803
S'http://www.last.fm/music/Jamiroquai/_/Cosmic+Girl'
p804
S'1235419476'
p805
tp806
a(S'Jamiroquai'
p807
S'Canned Head (7"Edit)'
p808
S'http://www.last.fm/music/Jamiroquai/_/Canned+Head+(7%22Edit)'
p809
S'1235419251'
p810
tp811
a(S'Jamiroquai'
p812
S'Virtual Insanity'
p813
S'http://www.last.fm/music/Jamiroquai/_/Virtual+Insanity'
p814
S'1235418910'
p815
tp816
a(S'Jamiroquai'
p817
S'Little L'
p818
S'http://www.last.fm/music/Jamiroquai/_/Little+L'
p819
S'1235418612'
p820
tp821
a(S'Jamiroquai'
p822
S'Picture of My Life'
p823
S'http://www.last.fm/music/Jamiroquai/_/Picture+of+My+Life'
p824
S'1235418232'
p825
tp826
a(S'Jamiroquai'
p827
S'Love Foolosophy'
p828
S'http://www.last.fm/music/Jamiroquai/_/Love+Foolosophy'
p829
S'1235418004'
p830
tp831
a(S'Jamiroquai'
p832
S'Main Vein'
p833
S'http://www.last.fm/music/Jamiroquai/_/Main+Vein'
p834
S'1235417699'
p835
tp836
a(S'Jamiroquai'
p837
S'Dynamite'
p838
S'http://www.last.fm/music/Jamiroquai/_/Dynamite'
p839
S'1235417404'
p840
tp841
a(S'Jamiroquai'
p842
S'High Times'
p843
S'http://www.last.fm/music/Jamiroquai/_/High+Times'
p844
S'1235417046'
p845
tp846
a(S'Jamiroquai'
p847
S'Corner of the Earth'
p848
S'http://www.last.fm/music/Jamiroquai/_/Corner+of+the+Earth'
p849
S'1235416703'
p850
tp851
a(S'Jamiroquai'
p852
S'Alright'
p853
S'http://www.last.fm/music/Jamiroquai/_/Alright'
p854
S'1235416438'
p855
tp856
a(S'Jamiroquai'
p857
S'Hot Tequila Brown'
p858
S'http://www.last.fm/music/Jamiroquai/_/Hot+Tequila+Brown'
p859
S'1235416163'
p860
tp861
a(S'Jamiroquai'
p862
S'You Give Me Something'
p863
S'http://www.last.fm/music/Jamiroquai/_/You+Give+Me+Something'
p864
S'1235415957'
p865
tp866
a(S'Megadeth'
p867
S'Symphony of Destruction'
p868
S'http://www.last.fm/music/Megadeth/_/Symphony+of+Destruction'
p869
S'1235415675'
p870
tp871
a(S'Pantera'
p872
S'Shattered'
p873
S'http://www.last.fm/music/Pantera/_/Shattered'
p874
S'1235415473'
p875
tp876
a(S'AC/DC'
p877
S'War Machine'
p878
S'http://www.last.fm/music/AC%2FDC/_/War+Machine'
p879
S'1235415266'
p880
tp881
a(S'Megadeth'
p882
S'Diadems'
p883
S'http://www.last.fm/music/Megadeth/_/Diadems'
p884
S'1235415030'
p885
tp886
a(S'Metallica'
p887
S'Cure'
p888
S'http://www.last.fm/music/Metallica/_/Cure'
p889
S'1235414733'
p890
tp891
a(S'Metallica'
p892
S'The House Jack Built'
p893
S'http://www.last.fm/music/Metallica/_/The+House+Jack+Built'
p894
S'1235414262'
p895
tp896
a(S'Metallica'
p897
S'The Outlaw Torn'
p898
S'http://www.last.fm/music/Metallica/_/The+Outlaw+Torn'
p899
S'1235413463'
p900
tp901
a(S'Megadeth'
p902
S'Wanderlust'
p903
S'http://www.last.fm/music/Megadeth/_/Wanderlust'
p904
S'1235413207'
p905
tp906
a(S'Diamond Head'
p907
S'Calling Out'
p908
S'http://www.last.fm/music/Diamond+Head/_/Calling+Out'
p909
S'1235412978'
p910
tp911
a(S'Jerry Cantrell'
p912
S'Dickeye'
p913
S'http://www.last.fm/music/Jerry+Cantrell/_/Dickeye'
p914
S'1235412669'
p915
tp916
a(S'Jerry Cantrell'
p917
S'Satisfy'
p918
S'http://www.last.fm/music/Jerry+Cantrell/_/Satisfy'
p919
S'1235412448'
p920
tp921
a(S'AC/DC'
p922
S'Decibel'
p923
S'http://www.last.fm/music/AC%2FDC/_/Decibel'
p924
S'1235412234'
p925
tp926
a(S'Megadeth'
p927
S'Addicted to Chaos'
p928
S'http://www.last.fm/music/Megadeth/_/Addicted+to+Chaos'
p929
S'1235411319'
p930
tp931
a(S'Billy Idol'
p932
S'Dancing With Myself'
p933
S'http://www.last.fm/music/Billy+Idol/_/Dancing+With+Myself'
p934
S'1235237080'
p935
tp936
a(S'The Cult'
p937
S'Wild Flower'
p938
S'http://www.last.fm/music/The+Cult/_/Wild+Flower'
p939
S'1235236866'
p940
tp941
a(S'Tears for Fears'
p942
S'Advice For The Young At Heart'
p943
S'http://www.last.fm/music/Tears+for+Fears/_/Advice+For+The+Young+At+Heart'
p944
S'1235236587'
p945
tp946
a(S'Mr. Big'
p947
S'To Be With You'
p948
S'http://www.last.fm/music/Mr.+Big/_/To+Be+With+You'
p949
S'1235236386'
p950
tp951
a(S'The Cardigans'
p952
S'Lovefool'
p953
S'http://www.last.fm/music/The+Cardigans/_/Lovefool'
p954
S'1235236187'
p955
tp956
a(S'Rick Astley'
p957
S'Never Going to Give You Up'
p958
S'http://www.last.fm/music/Rick+Astley/_/Never+Going+to+Give+You+Up'
p959
S'1235235973'
p960
tp961
a(S'Scorpions'
p962
S'Wind of Change'
p963
S'http://www.last.fm/music/Scorpions/_/Wind+of+Change'
p964
S'1235235661'
p965
tp966
a(S'Faith No More'
p967
S'Easy'
p968
S'http://www.last.fm/music/Faith+No+More/_/Easy'
p969
S'1235235465'
p970
tp971
a(S'Starship'
p972
S"Nothing's Gonna Stop Us Now"
p973
S'http://www.last.fm/music/Starship/_/Nothing%27s+Gonna+Stop+Us+Now'
p974
S'1235235182'
p975
tp976
a(S'Stevie Nicks'
p977
S'Edge of Seventeen'
p978
S'http://www.last.fm/music/Stevie+Nicks/_/Edge+of+Seventeen'
p979
S'1235234859'
p980
tp981
a(S'Survivor'
p982
S'Burning Heart'
p983
S'http://www.last.fm/music/Survivor/_/Burning+Heart'
p984
S'1235234625'
p985
tp986
a(S'Jamiroquai'
p987
S'Love Foolosophy'
p988
S'http://www.last.fm/music/Jamiroquai/_/Love+Foolosophy'
p989
S'1235234397'
p990
tp991
a(S'Sweet'
p992
S'The Ballroom Blitz'
p993
S'http://www.last.fm/music/Sweet/_/The+Ballroom+Blitz'
p994
S'1235234155'
p995
tp996
a(S'Temple of the Dog'
p997
S'Wooden Jesus'
p998
S'http://www.last.fm/music/Temple+of+the+Dog/_/Wooden+Jesus'
p999
S'1235233906'
p1000
tp1001
a.