(lp1
(S'Soundgarden'
p2
S'Somewhere'
p3
S'http://www.last.fm/music/Soundgarden/_/Somewhere'
p4
S'1340630291'
p5
tp6
a(S'Alice in Chains'
p7
S'Them Bones'
p8
S'http://www.last.fm/music/Alice+in+Chains/_/Them+Bones'
p9
S'1340630141'
p10
tp11
a(S'Them Crooked Vultures'
p12
S'Gunman'
p13
S'http://www.last.fm/music/Them+Crooked+Vultures/_/Gunman'
p14
S'1340629855'
p15
tp16
a(S'Army Of Anyone'
p17
S'A Better Place'
p18
S'http://www.last.fm/music/Army+Of+Anyone/_/A+Better+Place'
p19
S'1340629556'
p20
tp21
a(S'Audioslave'
p22
S'Somedays'
p23
S'http://www.last.fm/music/Audioslave/_/Somedays'
p24
S'1340629038'
p25
tp26
a(S'The Smiths'
p27
S'Ask'
p28
S'http://www.last.fm/music/The+Smiths/_/Ask'
p29
S'1340628841'
p30
tp31
a(S'Soundgarden'
p32
S'Superunknown'
p33
S'http://www.last.fm/music/Soundgarden/_/Superunknown'
p34
S'1340628535'
p35
tp36
a(S'The Smiths'
p37
S'The Boy With The Thorn In His Side'
p38
S'http://www.last.fm/music/The+Smiths/_/The+Boy+With+The+Thorn+In+His+Side'
p39
S'1340628337'
p40
tp41
a(S'Stone Temple Pilots'
p42
S'Too Cool Queenie'
p43
S'http://www.last.fm/music/Stone+Temple+Pilots/_/Too+Cool+Queenie'
p44
S'1340628169'
p45
tp46
a(S'Beastie Boys'
p47
S'Intergalactic'
p48
S'http://www.last.fm/music/Beastie+Boys/_/Intergalactic'
p49
S'1340627938'
p50
tp51
a(S'Stevie Ray Vaughan and Double Trouble'
p52
S'Change It'
p53
S'http://www.last.fm/music/Stevie+Ray+Vaughan+and+Double+Trouble/_/Change+It'
p54
S'1340627531'
p55
tp56
a(S'ZZ Top'
p57
S'Black Fly'
p58
S'http://www.last.fm/music/ZZ+Top/_/Black+Fly'
p59
S'1340627304'
p60
tp61
a(S'Beastie Boys'
p62
S'No Sleep Till Brooklyn'
p63
S'http://www.last.fm/music/Beastie+Boys/_/No+Sleep+Till+Brooklyn'
p64
S'1340627057'
p65
tp66
a(S'Alice in Chains'
p67
S'Down in a Hole'
p68
S'http://www.last.fm/music/Alice+in+Chains/_/Down+in+a+Hole'
p69
S'1340626713'
p70
tp71
a(S'The Smiths'
p72
S'This Charming Man'
p73
S'http://www.last.fm/music/The+Smiths/_/This+Charming+Man'
p74
S'1340623584'
p75
tp76
a(S'Beastie Boys'
p77
S"So What'cha Want"
p78
S'http://www.last.fm/music/Beastie+Boys/_/So+What%27cha+Want'
p79
S'1340623264'
p80
tp81
a(S'Beastie Boys'
p82
S'Paul Revere'
p83
S'http://www.last.fm/music/Beastie+Boys/_/Paul+Revere'
p84
S'1340395516'
p85
tp86
a(S'Soundgarden'
p87
S'Room a Thousand Years Wide'
p88
S'http://www.last.fm/music/Soundgarden/_/Room+a+Thousand+Years+Wide'
p89
S'1340395209'
p90
tp91
a(S'ZZ Top'
p92
S"She's Just Killing Me"
p93
S'http://www.last.fm/music/ZZ+Top/_/She%27s+Just+Killing+Me'
p94
S'1340394912'
p95
tp96
a(S'Soundgarden'
p97
S'My Wave'
p98
S'http://www.last.fm/music/Soundgarden/_/My+Wave'
p99
S'1340394600'
p100
tp101
a(S'Stone Temple Pilots'
p102
S'Between the Lines'
p103
S'http://www.last.fm/music/Stone+Temple+Pilots/_/Between+the+Lines'
p104
S'1340394430'
p105
tp106
a(S'Soundgarden'
p107
S'Rusty Cage'
p108
S'http://www.last.fm/music/Soundgarden/_/Rusty+Cage'
p109
S'1340394163'
p110
tp111
a(S'Alice in Chains'
p112
S'All Secrets Known'
p113
S'http://www.last.fm/music/Alice+in+Chains/_/All+Secrets+Known'
p114
S'1340393880'
p115
tp116
a(S'Soundgarden'
p117
S'Limo Wreck'
p118
S'http://www.last.fm/music/Soundgarden/_/Limo+Wreck'
p119
S'1340393533'
p120
tp121
a(S'Soundgarden'
p122
S'Fell on Black Days'
p123
S'http://www.last.fm/music/Soundgarden/_/Fell+on+Black+Days'
p124
S'1340393250'
p125
tp126
a(S'Stone Temple Pilots'
p127
S'Bi-Polar Bear'
p128
S'http://www.last.fm/music/Stone+Temple+Pilots/_/Bi-Polar+Bear'
p129
S'1340389066'
p130
tp131
a(S'Soundgarden'
p132
S'Jesus Christ Pose'
p133
S'http://www.last.fm/music/Soundgarden/_/Jesus+Christ+Pose'
p134
S'1340388715'
p135
tp136
a(S'Soundgarden'
p137
S'Let Me Drown'
p138
S'http://www.last.fm/music/Soundgarden/_/Let+Me+Drown'
p139
S'1340388483'
p140
tp141
a(S'Soundgarden'
p142
S'The Day I Tried to Live'
p143
S'http://www.last.fm/music/Soundgarden/_/The+Day+I+Tried+to+Live'
p144
S'1340388164'
p145
tp146
a(S'Them Crooked Vultures'
p147
S'Mind Eraser, No Chaser'
p148
S'http://www.last.fm/music/Them+Crooked+Vultures/_/Mind+Eraser,+No+Chaser'
p149
S'1340387917'
p150
tp151
a(S'Stone Temple Pilots'
p152
S'Sex Type Thing'
p153
S'http://www.last.fm/music/Stone+Temple+Pilots/_/Sex+Type+Thing'
p154
S'1340387607'
p155
tp156
a(S'The Smiths'
p157
S'Ask'
p158
S'http://www.last.fm/music/The+Smiths/_/Ask'
p159
S'1340387410'
p160
tp161
a(S'Soundgarden'
p162
S'Mind Riot'
p163
S'http://www.last.fm/music/Soundgarden/_/Mind+Riot'
p164
S'1340387121'
p165
tp166
a(S'Stone Temple Pilots'
p167
S'Hickory Dichotomy'
p168
S'http://www.last.fm/music/Stone+Temple+Pilots/_/Hickory+Dichotomy'
p169
S'1340386918'
p170
tp171
a(S'Stone Temple Pilots'
p172
S'Silvergun Superman'
p173
S'http://www.last.fm/music/Stone+Temple+Pilots/_/Silvergun+Superman'
p174
S'1340386602'
p175
tp176
a(S'The Smiths'
p177
S'This Charming Man'
p178
S'http://www.last.fm/music/The+Smiths/_/This+Charming+Man'
p179
S'1340386439'
p180
tp181
a(S'Audioslave'
p182
S'Shape Of Things To Come'
p183
S'http://www.last.fm/music/Audioslave/_/Shape+Of+Things+To+Come'
p184
S'1340386165'
p185
tp186
a(S'Skid Row'
p187
S'Into Another'
p188
S'http://www.last.fm/music/Skid+Row/_/Into+Another'
p189
S'1340385922'
p190
tp191
a(S'ZZ Top'
p192
S'Prettyhead'
p193
S'http://www.last.fm/music/ZZ+Top/_/Prettyhead'
p194
S'1340385642'
p195
tp196
a(S'Stevie Ray Vaughan and Double Trouble'
p197
S"I'm Leaving You (Commit a Crime)"
p198
S'http://www.last.fm/music/Stevie+Ray+Vaughan+and+Double+Trouble/_/I%27m+Leaving+You+(Commit+a+Crime)'
p199
S'1340385307'
p200
tp201
a(S'ZZ Top'
p202
S'Pincushion'
p203
S'http://www.last.fm/music/ZZ+Top/_/Pincushion'
p204
S'1340385033'
p205
tp206
a(S'Soundgarden'
p207
S'Drawing Flies'
p208
S'http://www.last.fm/music/Soundgarden/_/Drawing+Flies'
p209
S'1340384887'
p210
tp211
a(S'Audioslave'
p212
S'Somedays'
p213
S'http://www.last.fm/music/Audioslave/_/Somedays'
p214
S'1340384675'
p215
tp216
a(S'Army Of Anyone'
p217
S'Non Stop'
p218
S'http://www.last.fm/music/Army+Of+Anyone/_/Non+Stop'
p219
S'1340384436'
p220
tp221
a(S'Audioslave'
p222
S'Be Yourself'
p223
S'http://www.last.fm/music/Audioslave/_/Be+Yourself'
p224
S'1340384157'
p225
tp226
a(S'Beastie Boys'
p227
S"So What'cha Want"
p228
S'http://www.last.fm/music/Beastie+Boys/_/So+What%27cha+Want'
p229
S'1340383940'
p230
tp231
a(S'Audioslave'
p232
S'Be Yourself'
p233
S'http://www.last.fm/music/Audioslave/_/Be+Yourself'
p234
S'1340383788'
p235
tp236
a(S'Beastie Boys'
p237
S"So What'cha Want"
p238
S'http://www.last.fm/music/Beastie+Boys/_/So+What%27cha+Want'
p239
S'1340383571'
p240
tp241
a(S'Army Of Anyone'
p242
S'Non Stop'
p243
S'http://www.last.fm/music/Army+Of+Anyone/_/Non+Stop'
p244
S'1340383302'
p245
tp246
a(S'Audioslave'
p247
S'Be Yourself'
p248
S'http://www.last.fm/music/Audioslave/_/Be+Yourself'
p249
S'1340383022'
p250
tp251
a(S'Beastie Boys'
p252
S"So What'cha Want"
p253
S'http://www.last.fm/music/Beastie+Boys/_/So+What%27cha+Want'
p254
S'1340370392'
p255
tp256
a(S'Beastie Boys'
p257
S"So What'cha Want"
p258
S'http://www.last.fm/music/Beastie+Boys/_/So+What%27cha+Want'
p259
S'1340370117'
p260
tp261
a(S'Audioslave'
p262
S'Be Yourself'
p263
S'http://www.last.fm/music/Audioslave/_/Be+Yourself'
p264
S'1340369256'
p265
tp266
a(S'Beastie Boys'
p267
S"So What'cha Want"
p268
S'http://www.last.fm/music/Beastie+Boys/_/So+What%27cha+Want'
p269
S'1340368802'
p270
tp271
a(S'Beastie Boys'
p272
S"So What'cha Want"
p273
S'http://www.last.fm/music/Beastie+Boys/_/So+What%27cha+Want'
p274
S'1340305322'
p275
tp276
a(S'Soundgarden'
p277
S'Jesus Christ Pose'
p278
S'http://www.last.fm/music/Soundgarden/_/Jesus+Christ+Pose'
p279
S'1340304954'
p280
tp281
a(S'Beastie Boys'
p282
S"So What'cha Want"
p283
S'http://www.last.fm/music/Beastie+Boys/_/So+What%27cha+Want'
p284
S'1340304737'
p285
tp286
a(S'Beastie Boys'
p287
S"So What'cha Want"
p288
S'http://www.last.fm/music/Beastie+Boys/_/So+What%27cha+Want'
p289
S'1340304498'
p290
tp291
a(S'ZZ Top'
p292
S'Prettyhead'
p293
S'http://www.last.fm/music/ZZ+Top/_/Prettyhead'
p294
S'1340298159'
p295
tp296
a(S'Stone Temple Pilots'
p297
S"Trippin' on a Hole in a Paper Heart"
p298
S'http://www.last.fm/music/Stone+Temple+Pilots/_/Trippin%27+on+a+Hole+in+a+Paper+Heart'
p299
S'1340297983'
p300
tp301
a(S'Stevie Wonder'
p302
S"I Ain't Gonna Stand For It"
p303
S'http://www.last.fm/music/Stevie+Wonder/_/I+Ain%27t+Gonna+Stand+For+It'
p304
S'1340296833'
p305
tp306
a(S'Soundgarden'
p307
S'Rusty Cage'
p308
S'http://www.last.fm/music/Soundgarden/_/Rusty+Cage'
p309
S'1340285430'
p310
tp311
a(S'Stevie Wonder'
p312
S"Signed, Sealed, Delivered, I'm Yours"
p313
S'http://www.last.fm/music/Stevie+Wonder/_/Signed,+Sealed,+Delivered,+I%27m+Yours'
p314
S'1340285272'
p315
tp316
a(S'Them Crooked Vultures'
p317
S'Dead End Friends'
p318
S'http://www.last.fm/music/Them+Crooked+Vultures/_/Dead+End+Friends'
p319
S'1340285077'
p320
tp321
a(S'The Smiths'
p322
S'Ask'
p323
S'http://www.last.fm/music/The+Smiths/_/Ask'
p324
S'1340284879'
p325
tp326
a(S'Soundgarden'
p327
S'Superunknown'
p328
S'http://www.last.fm/music/Soundgarden/_/Superunknown'
p329
S'1340284620'
p330
tp331
a(S'Talk Show'
p332
S'Hello Hello'
p333
S'http://www.last.fm/music/Talk+Show/_/Hello+Hello'
p334
S'1340284443'
p335
tp336
a(S'Alice in Chains'
p337
S'All Secrets Known'
p338
S'http://www.last.fm/music/Alice+in+Chains/_/All+Secrets+Known'
p339
S'1340284160'
p340
tp341
a(S'Skid Row'
p342
S'Into Another'
p343
S'http://www.last.fm/music/Skid+Row/_/Into+Another'
p344
S'1340283917'
p345
tp346
a(S'Stevie Ray Vaughan and Double Trouble'
p347
S"I'm Leaving You (Commit a Crime)"
p348
S'http://www.last.fm/music/Stevie+Ray+Vaughan+and+Double+Trouble/_/I%27m+Leaving+You+(Commit+a+Crime)'
p349
S'1340283582'
p350
tp351
a(S'ZZ Top'
p352
S'Black Fly'
p353
S'http://www.last.fm/music/ZZ+Top/_/Black+Fly'
p354
S'1340283369'
p355
tp356
a(S'Soundgarden'
p357
S'Fresh Tendrils'
p358
S'http://www.last.fm/music/Soundgarden/_/Fresh+Tendrils'
p359
S'1340283102'
p360
tp361
a(S'Beastie Boys'
p362
S'Intergalactic'
p363
S'http://www.last.fm/music/Beastie+Boys/_/Intergalactic'
p364
S'1340282886'
p365
tp366
a(S'Soundgarden'
p367
S'Searching With My Good Eye Closed'
p368
S'http://www.last.fm/music/Soundgarden/_/Searching+With+My+Good+Eye+Closed'
p369
S'1340282485'
p370
tp371
a(S'Stone Temple Pilots'
p372
S'Sex Type Thing'
p373
S'http://www.last.fm/music/Stone+Temple+Pilots/_/Sex+Type+Thing'
p374
S'1340282266'
p375
tp376
a(S'Stevie Wonder'
p377
S'Higher Ground'
p378
S'http://www.last.fm/music/Stevie+Wonder/_/Higher+Ground'
p379
S'1340282079'
p380
tp381
a(S'Stone Temple Pilots'
p382
S'Between the Lines'
p383
S'http://www.last.fm/music/Stone+Temple+Pilots/_/Between+the+Lines'
p384
S'1340281908'
p385
tp386
a(S'Stone Temple Pilots'
p387
S'Too Cool Queenie'
p388
S'http://www.last.fm/music/Stone+Temple+Pilots/_/Too+Cool+Queenie'
p389
S'1340281741'
p390
tp391
a(S'ZZ Top'
p392
S'Vincent Price Blues'
p393
S'http://www.last.fm/music/ZZ+Top/_/Vincent+Price+Blues'
p394
S'1340281377'
p395
tp396
a(S'Stevie Wonder'
p397
S'Superstition'
p398
S'http://www.last.fm/music/Stevie+Wonder/_/Superstition'
p399
S'1340281135'
p400
tp401
a(S'Beastie Boys'
p402
S'Triple Trouble'
p403
S'http://www.last.fm/music/Beastie+Boys/_/Triple+Trouble'
p404
S'1340280604'
p405
tp406
a(S'Soundgarden'
p407
S'Let Me Drown'
p408
S'http://www.last.fm/music/Soundgarden/_/Let+Me+Drown'
p409
S'1340279530'
p410
tp411
a(S'Stevie Wonder'
p412
S'Part Time Lover'
p413
S'http://www.last.fm/music/Stevie+Wonder/_/Part+Time+Lover'
p414
S'1340279272'
p415
tp416
a(S'Beastie Boys'
p417
S'Intergalactic'
p418
S'http://www.last.fm/music/Beastie+Boys/_/Intergalactic'
p419
S'1340278977'
p420
tp421
a(S'Beastie Boys'
p422
S"So What'cha Want"
p423
S'http://www.last.fm/music/Beastie+Boys/_/So+What%27cha+Want'
p424
S'1340278675'
p425
tp426
a(S'Talk Show'
p427
S'Hello Hello'
p428
S'http://www.last.fm/music/Talk+Show/_/Hello+Hello'
p429
S'1340211632'
p430
tp431
a(S'Beastie Boys'
p432
S"So What'cha Want"
p433
S'http://www.last.fm/music/Beastie+Boys/_/So+What%27cha+Want'
p434
S'1340211189'
p435
tp436
a(S'Stone Temple Pilots'
p437
S'Adhesive'
p438
S'http://www.last.fm/music/Stone+Temple+Pilots/_/Adhesive'
p439
S'1340210347'
p440
tp441
a(S'ZZ Top'
p442
S'Vincent Price Blues'
p443
S'http://www.last.fm/music/ZZ+Top/_/Vincent+Price+Blues'
p444
S'1340209983'
p445
tp446
a(S'Soundgarden'
p447
S'Holy Water'
p448
S'http://www.last.fm/music/Soundgarden/_/Holy+Water'
p449
S'1340209675'
p450
tp451
a(S'ZZ Top'
p452
S'Black Fly'
p453
S'http://www.last.fm/music/ZZ+Top/_/Black+Fly'
p454
S'1340209462'
p455
tp456
a(S'Soundgarden'
p457
S'My Wave'
p458
S'http://www.last.fm/music/Soundgarden/_/My+Wave'
p459
S'1340209139'
p460
tp461
a(S'Army Of Anyone'
p462
S'Non Stop'
p463
S'http://www.last.fm/music/Army+Of+Anyone/_/Non+Stop'
p464
S'1340208450'
p465
tp466
a(S'Soundgarden'
p467
S'Let Me Drown'
p468
S'http://www.last.fm/music/Soundgarden/_/Let+Me+Drown'
p469
S'1340208218'
p470
tp471
a(S'Stone Temple Pilots'
p472
S'First Kiss on Mars'
p473
S'http://www.last.fm/music/Stone+Temple+Pilots/_/First+Kiss+on+Mars'
p474
S'1340208035'
p475
tp476
a(S'Beastie Boys'
p477
S"So What'cha Want"
p478
S'http://www.last.fm/music/Beastie+Boys/_/So+What%27cha+Want'
p479
S'1340207817'
p480
tp481
a(S'Beastie Boys'
p482
S"So What'cha Want"
p483
S'http://www.last.fm/music/Beastie+Boys/_/So+What%27cha+Want'
p484
S'1340145465'
p485
tp486
a(S'Audioslave'
p487
S'Somedays'
p488
S'http://www.last.fm/music/Audioslave/_/Somedays'
p489
S'1340138115'
p490
tp491
a(S'The Smiths'
p492
S'Bigmouth Strikes Again'
p493
S'http://www.last.fm/music/The+Smiths/_/Bigmouth+Strikes+Again'
p494
S'1340137921'
p495
tp496
a(S'Soundgarden'
p497
S'Room a Thousand Years Wide'
p498
S'http://www.last.fm/music/Soundgarden/_/Room+a+Thousand+Years+Wide'
p499
S'1340137675'
p500
tp501
a(S'ZZ Top'
p502
S'Cherry Red'
p503
S'http://www.last.fm/music/ZZ+Top/_/Cherry+Red'
p504
S'1340137392'
p505
tp506
a(S'Soundgarden'
p507
S'Drawing Flies'
p508
S'http://www.last.fm/music/Soundgarden/_/Drawing+Flies'
p509
S'1340137246'
p510
tp511
a(S'Alice in Chains'
p512
S'Them Bones'
p513
S'http://www.last.fm/music/Alice+in+Chains/_/Them+Bones'
p514
S'1340137095'
p515
tp516
a(S'Beastie Boys'
p517
S'Paul Revere'
p518
S'http://www.last.fm/music/Beastie+Boys/_/Paul+Revere'
p519
S'1340136864'
p520
tp521
a(S'Beastie Boys'
p522
S'Intergalactic'
p523
S'http://www.last.fm/music/Beastie+Boys/_/Intergalactic'
p524
S'1340136280'
p525
tp526
a(S'Stevie Ray Vaughan and Double Trouble'
p527
S"I'm Leaving You (Commit a Crime)"
p528
S'http://www.last.fm/music/Stevie+Ray+Vaughan+and+Double+Trouble/_/I%27m+Leaving+You+(Commit+a+Crime)'
p529
S'1340135872'
p530
tp531
a(S'Soundgarden'
p532
S'My Wave'
p533
S'http://www.last.fm/music/Soundgarden/_/My+Wave'
p534
S'1340134751'
p535
tp536
a(S'Army Of Anyone'
p537
S'Non Stop'
p538
S'http://www.last.fm/music/Army+Of+Anyone/_/Non+Stop'
p539
S'1340132288'
p540
tp541
a(S'Soundgarden'
p542
S'Let Me Drown'
p543
S'http://www.last.fm/music/Soundgarden/_/Let+Me+Drown'
p544
S'1340132056'
p545
tp546
a(S'Stone Temple Pilots'
p547
S'First Kiss on Mars'
p548
S'http://www.last.fm/music/Stone+Temple+Pilots/_/First+Kiss+on+Mars'
p549
S'1340131872'
p550
tp551
a(S'Beastie Boys'
p552
S"So What'cha Want"
p553
S'http://www.last.fm/music/Beastie+Boys/_/So+What%27cha+Want'
p554
S'1340131655'
p555
tp556
a(S'Them Crooked Vultures'
p557
S'Gunman'
p558
S'http://www.last.fm/music/Them+Crooked+Vultures/_/Gunman'
p559
S'1340131294'
p560
tp561
a(S'Soundgarden'
p562
S'Jesus Christ Pose'
p563
S'http://www.last.fm/music/Soundgarden/_/Jesus+Christ+Pose'
p564
S'1340130943'
p565
tp566
a(S'Stone Temple Pilots'
p567
S'Sex Type Thing'
p568
S'http://www.last.fm/music/Stone+Temple+Pilots/_/Sex+Type+Thing'
p569
S'1340130724'
p570
tp571
a(S'The Smiths'
p572
S'The Boy With The Thorn In His Side'
p573
S'http://www.last.fm/music/The+Smiths/_/The+Boy+With+The+Thorn+In+His+Side'
p574
S'1340130526'
p575
tp576
a(S'Stone Temple Pilots'
p577
S'Silvergun Superman'
p578
S'http://www.last.fm/music/Stone+Temple+Pilots/_/Silvergun+Superman'
p579
S'1340128023'
p580
tp581
a(S'The Smiths'
p582
S'Bigmouth Strikes Again'
p583
S'http://www.last.fm/music/The+Smiths/_/Bigmouth+Strikes+Again'
p584
S'1340127870'
p585
tp586
a(S'Stone Temple Pilots'
p587
S'Lady Picture Show'
p588
S'http://www.last.fm/music/Stone+Temple+Pilots/_/Lady+Picture+Show'
p589
S'1340127579'
p590
tp591
a(S'Soundgarden'
p592
S'Let Me Drown'
p593
S'http://www.last.fm/music/Soundgarden/_/Let+Me+Drown'
p594
S'1340127347'
p595
tp596
a(S'Stone Temple Pilots'
p597
S'Too Cool Queenie'
p598
S'http://www.last.fm/music/Stone+Temple+Pilots/_/Too+Cool+Queenie'
p599
S'1340127180'
p600
tp601
a(S'Army Of Anyone'
p602
S'Generation'
p603
S'http://www.last.fm/music/Army+Of+Anyone/_/Generation'
p604
S'1340124244'
p605
tp606
a(S'Stone Temple Pilots'
p607
S'Adhesive'
p608
S'http://www.last.fm/music/Stone+Temple+Pilots/_/Adhesive'
p609
S'1340123909'
p610
tp611
a(S'Beastie Boys'
p612
S"So What'cha Want"
p613
S'http://www.last.fm/music/Beastie+Boys/_/So+What%27cha+Want'
p614
S'1340123479'
p615
tp616
a(S'Beastie Boys'
p617
S"So What'cha Want"
p618
S'http://www.last.fm/music/Beastie+Boys/_/So+What%27cha+Want'
p619
S'1340123240'
p620
tp621
a(S'Soundgarden'
p622
S'Searching With My Good Eye Closed'
p623
S'http://www.last.fm/music/Soundgarden/_/Searching+With+My+Good+Eye+Closed'
p624
S'1340122849'
p625
tp626
a(S'Beastie Boys'
p627
S'Triple Trouble'
p628
S'http://www.last.fm/music/Beastie+Boys/_/Triple+Trouble'
p629
S'1340122617'
p630
tp631
a(S'ZZ Top'
p632
S'Vincent Price Blues'
p633
S'http://www.last.fm/music/ZZ+Top/_/Vincent+Price+Blues'
p634
S'1340046519'
p635
tp636
a(S'ZZ Top'
p637
S"She's Just Killing Me"
p638
S'http://www.last.fm/music/ZZ+Top/_/She%27s+Just+Killing+Me'
p639
S'1340046221'
p640
tp641
a(S'Stevie Wonder'
p642
S"Signed, Sealed, Delivered, I'm Yours"
p643
S'http://www.last.fm/music/Stevie+Wonder/_/Signed,+Sealed,+Delivered,+I%27m+Yours'
p644
S'1340046063'
p645
tp646
a(S'Stone Temple Pilots'
p647
S'Seven Caged Tigers'
p648
S'http://www.last.fm/music/Stone+Temple+Pilots/_/Seven+Caged+Tigers'
p649
S'1340045806'
p650
tp651
a(S'Stone Temple Pilots'
p652
S"Trippin' on a Hole in a Paper Heart"
p653
S'http://www.last.fm/music/Stone+Temple+Pilots/_/Trippin%27+on+a+Hole+in+a+Paper+Heart'
p654
S'1340027975'
p655
tp656
a(S'ZZ Top'
p657
S"What's Up With That"
p658
S'http://www.last.fm/music/ZZ+Top/_/What%27s+Up+With+That'
p659
S'1340025478'
p660
tp661
a(S'Stevie Ray Vaughan and Double Trouble'
p662
S"I'm Leaving You (Commit a Crime)"
p663
S'http://www.last.fm/music/Stevie+Ray+Vaughan+and+Double+Trouble/_/I%27m+Leaving+You+(Commit+a+Crime)'
p664
S'1340025142'
p665
tp666
a(S'Soundgarden'
p667
S'Holy Water'
p668
S'http://www.last.fm/music/Soundgarden/_/Holy+Water'
p669
S'1340024835'
p670
tp671
a(S'The Smiths'
p672
S'The Boy With The Thorn In His Side'
p673
S'http://www.last.fm/music/The+Smiths/_/The+Boy+With+The+Thorn+In+His+Side'
p674
S'1340024637'
p675
tp676
a(S'Katy Perry'
p677
S'Circle the Drain'
p678
S'http://www.last.fm/music/Katy+Perry/_/Circle+the+Drain'
p679
S'1340024364'
p680
tp681
a(S'Stone Temple Pilots'
p682
S'Peacoat'
p683
S'http://www.last.fm/music/Stone+Temple+Pilots/_/Peacoat'
p684
S'1340024154'
p685
tp686
a(S'ZZ Top'
p687
S'Prettyhead'
p688
S'http://www.last.fm/music/ZZ+Top/_/Prettyhead'
p689
S'1340023874'
p690
tp691
a(S'Soundgarden'
p692
S'Let Me Drown'
p693
S'http://www.last.fm/music/Soundgarden/_/Let+Me+Drown'
p694
S'1340023642'
p695
tp696
a(S'ZZ Top'
p697
S'Pincushion'
p698
S'http://www.last.fm/music/ZZ+Top/_/Pincushion'
p699
S'1340023369'
p700
tp701
a(S'Soundgarden'
p702
S'Outshined'
p703
S'http://www.last.fm/music/Soundgarden/_/Outshined'
p704
S'1340022478'
p705
tp706
a(S'Them Crooked Vultures'
p707
S'Dead End Friends'
p708
S'http://www.last.fm/music/Them+Crooked+Vultures/_/Dead+End+Friends'
p709
S'1340022283'
p710
tp711
a(S'Beastie Boys'
p712
S'Paul Revere'
p713
S'http://www.last.fm/music/Beastie+Boys/_/Paul+Revere'
p714
S'1340022060'
p715
tp716
a(S'Stevie Wonder'
p717
S'Part Time Lover'
p718
S'http://www.last.fm/music/Stevie+Wonder/_/Part+Time+Lover'
p719
S'1339698148'
p720
tp721
a(S'Soundgarden'
p722
S'Jesus Christ Pose'
p723
S'http://www.last.fm/music/Soundgarden/_/Jesus+Christ+Pose'
p724
S'1339697303'
p725
tp726
a(S'Alice in Chains'
p727
S'Down in a Hole'
p728
S'http://www.last.fm/music/Alice+in+Chains/_/Down+in+a+Hole'
p729
S'1339697003'
p730
tp731
a(S'Alice in Chains'
p732
S"Nothin' Song"
p733
S'http://www.last.fm/music/Alice+in+Chains/_/Nothin%27+Song'
p734
S'1336580218'
p735
tp736
a(S'Alice in Chains'
p737
S'Nutshell'
p738
S'http://www.last.fm/music/Alice+in+Chains/_/Nutshell'
p739
S'1336579856'
p740
tp741
a(S'Stone Temple Pilots'
p742
S'Long Way Home'
p743
S'http://www.last.fm/music/Stone+Temple+Pilots/_/Long+Way+Home'
p744
S'1336579558'
p745
tp746
a(S'Soundgarden'
p747
S'Never the Machine Forever'
p748
S'http://www.last.fm/music/Soundgarden/_/Never+the+Machine+Forever'
p749
S'1336579282'
p750
tp751
a(S'Stone Temple Pilots'
p752
S'Down'
p753
S'http://www.last.fm/music/Stone+Temple+Pilots/_/Down'
p754
S'1336578755'
p755
tp756
a(S'Live'
p757
S'Turn My Head'
p758
S'http://www.last.fm/music/Live/_/Turn+My+Head'
p759
S'1336571270'
p760
tp761
a(S'Pearl Jam'
p762
S'Comatose'
p763
S'http://www.last.fm/music/Pearl+Jam/_/Comatose'
p764
S'1336571032'
p765
tp766
a(S'Soundgarden'
p767
S'Searching With My Good Eye Closed'
p768
S'http://www.last.fm/music/Soundgarden/_/Searching+With+My+Good+Eye+Closed'
p769
S'1336570893'
p770
tp771
a(S'Audioslave'
p772
S'Somedays'
p773
S'http://www.last.fm/music/Audioslave/_/Somedays'
p774
S'1336570502'
p775
tp776
a(S'Pearl Jam'
p777
S'Once'
p778
S'http://www.last.fm/music/Pearl+Jam/_/Once'
p779
S'1336570289'
p780
tp781
a(S'Velvet Revolver'
p782
S'The Last Fight'
p783
S'http://www.last.fm/music/Velvet+Revolver/_/The+Last+Fight'
p784
S'1336564392'
p785
tp786
a(S'Live'
p787
S'Graze'
p788
S'http://www.last.fm/music/Live/_/Graze'
p789
S'1336563671'
p790
tp791
a(S'Alice in Chains'
p792
S'Rooster'
p793
S'http://www.last.fm/music/Alice+in+Chains/_/Rooster'
p794
S'1336563330'
p795
tp796
a(S'Beastie Boys'
p797
S'Fight for Your Right'
p798
S'http://www.last.fm/music/Beastie+Boys/_/Fight+for+Your+Right'
p799
S'1336537727'
p800
tp801
a(S'Beastie Boys'
p802
S'Girls'
p803
S'http://www.last.fm/music/Beastie+Boys/_/Girls'
p804
S'1336537453'
p805
tp806
a(S'Beastie Boys'
p807
S'Intergalactic'
p808
S'http://www.last.fm/music/Beastie+Boys/_/Intergalactic'
p809
S'1336536151'
p810
tp811
a(S'The Clash'
p812
S'Lost in the Supermarket'
p813
S'http://www.last.fm/music/The+Clash/_/Lost+in+the+Supermarket'
p814
S'1336519737'
p815
tp816
a(S'Fatboy Slim'
p817
S'Love Island'
p818
S'http://www.last.fm/music/Fatboy+Slim/_/Love+Island'
p819
S'1336519416'
p820
tp821
a(S'Deltron 3030'
p822
S'New Coke'
p823
S'http://www.last.fm/music/Deltron+3030/_/New+Coke'
p824
S'1336519373'
p825
tp826
a(S'Sublime'
p827
S'Santeria'
p828
S'http://www.last.fm/music/Sublime/_/Santeria'
p829
S'1336519187'
p830
tp831
a(S'Run-D.M.C.'
p832
S'Walk This Way'
p833
S'http://www.last.fm/music/Run-D.M.C./_/Walk+This+Way'
p834
S'1336518964'
p835
tp836
a(S'Rage Against the Machine'
p837
S'Renegades of Funk'
p838
S'http://www.last.fm/music/Rage+Against+the+Machine/_/Renegades+of+Funk'
p839
S'1336518678'
p840
tp841
a(S'Cypress Hill'
p842
S'A to the K'
p843
S'http://www.last.fm/music/Cypress+Hill/_/A+to+the+K'
p844
S'1336518469'
p845
tp846
a(S'Beastie Boys'
p847
S'Girls'
p848
S'http://www.last.fm/music/Beastie+Boys/_/Girls'
p849
S'1336518333'
p850
tp851
a(S'Cypress Hill'
p852
S'I Wanna Get High'
p853
S'http://www.last.fm/music/Cypress+Hill/_/I+Wanna+Get+High'
p854
S'1336518147'
p855
tp856
a(S'Beck'
p857
S'Girl'
p858
S'http://www.last.fm/music/Beck/_/Girl'
p859
S'1336517935'
p860
tp861
a(S'Rage Against the Machine'
p862
S'Sleep Now in the Fire'
p863
S'http://www.last.fm/music/Rage+Against+the+Machine/_/Sleep+Now+in+the+Fire'
p864
S'1336517715'
p865
tp866
a(S'Public Enemy'
p867
S'Fight the Power'
p868
S'http://www.last.fm/music/Public+Enemy/_/Fight+the+Power'
p869
S'1336517335'
p870
tp871
a(S'Run-D.M.C.'
p872
S'Mary, Mary'
p873
S'http://www.last.fm/music/Run-D.M.C./_/Mary,+Mary'
p874
S'1336517137'
p875
tp876
a(S'Jurassic 5'
p877
S'Sum Of Us'
p878
S'http://www.last.fm/music/Jurassic+5/_/Sum+Of+Us'
p879
S'1336516925'
p880
tp881
a(S'DJ Shadow'
p882
S'Midnight in a Perfect World'
p883
S'http://www.last.fm/music/DJ+Shadow/_/Midnight+in+a+Perfect+World'
p884
S'1336516624'
p885
tp886
a(S'The Clash'
p887
S'I Fought the Law'
p888
S'http://www.last.fm/music/The+Clash/_/I+Fought+the+Law'
p889
S'1336516462'
p890
tp891
a(S'Run-D.M.C.'
p892
S"It's Like That"
p893
S'http://www.last.fm/music/Run-D.M.C./_/It%27s+Like+That'
p894
S'1336516170'
p895
tp896
a(S'House of Pain'
p897
S'Jump Around'
p898
S'http://www.last.fm/music/House+of+Pain/_/Jump+Around'
p899
S'1336515952'
p900
tp901
a(S'Rage Against the Machine'
p902
S'Bullet in the Head'
p903
S'http://www.last.fm/music/Rage+Against+the+Machine/_/Bullet+in+the+Head'
p904
S'1336515642'
p905
tp906
a(S'Beck'
p907
S'Go It Alone'
p908
S'http://www.last.fm/music/Beck/_/Go+It+Alone'
p909
S'1336515390'
p910
tp911
a(S'Cypress Hill'
p912
S'Hits from the Bong'
p913
S'http://www.last.fm/music/Cypress+Hill/_/Hits+from+the+Bong'
p914
S'1336515227'
p915
tp916
a(S'Beastie Boys'
p917
S'Time to Get Ill'
p918
S'http://www.last.fm/music/Beastie+Boys/_/Time+to+Get+Ill'
p919
S'1336515007'
p920
tp921
a(S'Soundgarden'
p922
S'Room a Thousand Years Wide'
p923
S'http://www.last.fm/music/Soundgarden/_/Room+a+Thousand+Years+Wide'
p924
S'1336419149'
p925
tp926
a(S'Soundgarden'
p927
S'Head Down'
p928
S'http://www.last.fm/music/Soundgarden/_/Head+Down'
p929
S'1336418903'
p930
tp931
a(S'Jerry Cantrell'
p932
S'Dickeye'
p933
S'http://www.last.fm/music/Jerry+Cantrell/_/Dickeye'
p934
S'1336417938'
p935
tp936
a(S'Pearl Jam'
p937
S'Rearviewmirror'
p938
S'http://www.last.fm/music/Pearl+Jam/_/Rearviewmirror'
p939
S'1336417627'
p940
tp941
a(S'Stone Temple Pilots'
p942
S'Lady Picture Show'
p943
S'http://www.last.fm/music/Stone+Temple+Pilots/_/Lady+Picture+Show'
p944
S'1336415211'
p945
tp946
a(S'Nirvana'
p947
S'Lounge Act'
p948
S'http://www.last.fm/music/Nirvana/_/Lounge+Act'
p949
S'1336414962'
p950
tp951
a(S'Audioslave'
p952
S'Sound Of A Gun'
p953
S'http://www.last.fm/music/Audioslave/_/Sound+Of+A+Gun'
p954
S'1336414734'
p955
tp956
a(S'Pearl Jam'
p957
S'Go'
p958
S'http://www.last.fm/music/Pearl+Jam/_/Go'
p959
S'1336411595'
p960
tp961
a(S'Temple of the Dog'
p962
S'Pushin Forward Back'
p963
S'http://www.last.fm/music/Temple+of+the+Dog/_/Pushin+Forward+Back'
p964
S'1336411285'
p965
tp966
a(S'Pearl Jam'
p967
S'Animal'
p968
S'http://www.last.fm/music/Pearl+Jam/_/Animal'
p969
S'1336408394'
p970
tp971
a(S'Audioslave'
p972
S'Broken City'
p973
S'http://www.last.fm/music/Audioslave/_/Broken+City'
p974
S'1336408212'
p975
tp976
a(S'Stone Temple Pilots'
p977
S'Sin'
p978
S'http://www.last.fm/music/Stone+Temple+Pilots/_/Sin'
p979
S'1336407985'
p980
tp981
a(S'Pearl Jam'
p982
S'Alive'
p983
S'http://www.last.fm/music/Pearl+Jam/_/Alive'
p984
S'1336407621'
p985
tp986
a(S'Stone Temple Pilots'
p987
S'Army Ants'
p988
S'http://www.last.fm/music/Stone+Temple+Pilots/_/Army+Ants'
p989
S'1336407255'
p990
tp991
a(S'Nirvana'
p992
S'Stay Away'
p993
S'http://www.last.fm/music/Nirvana/_/Stay+Away'
p994
S'1336406640'
p995
tp996
a(S'Alice in Chains'
p997
S'Iron Gland'
p998
S'http://www.last.fm/music/Alice+in+Chains/_/Iron+Gland'
p999
S'1336406225'
p1000
tp1001
a.