(lp1
(S'Them Crooked Vultures'
p2
S'Bandoliers'
p3
S'http://www.last.fm/music/Them+Crooked+Vultures/_/Bandoliers'
p4
S'1265130280'
p5
tp6
a(S'Alice Cooper'
p7
S'Burning Our Bed'
p8
S'http://www.last.fm/music/Alice+Cooper/_/Burning+Our+Bed'
p9
S'1265130005'
p10
tp11
a(S'ZZ Top'
p12
S'Prettyhead'
p13
S'http://www.last.fm/music/ZZ+Top/_/Prettyhead'
p14
S'1265129725'
p15
tp16
a(S'Iron Maiden'
p17
S'Chains of Misery'
p18
S'http://www.last.fm/music/Iron+Maiden/_/Chains+of+Misery'
p19
S'1265129507'
p20
tp21
a(S'Green Day'
p22
S'She'
p23
S'http://www.last.fm/music/Green+Day/_/She'
p24
S'1265129373'
p25
tp26
a(S'Alice Cooper'
p27
S'Bed of Nails'
p28
S'http://www.last.fm/music/Alice+Cooper/_/Bed+of+Nails'
p29
S'1265129113'
p30
tp31
a(S'Alice Cooper'
p32
S'Poison'
p33
S'http://www.last.fm/music/Alice+Cooper/_/Poison'
p34
S'1265128844'
p35
tp36
a(S'Stone Temple Pilots'
p37
S'Seven Caged Tigers'
p38
S'http://www.last.fm/music/Stone+Temple+Pilots/_/Seven+Caged+Tigers'
p39
S'1265128587'
p40
tp41
a(S'Airbourne'
p42
S'Diamond in the Rough'
p43
S'http://www.last.fm/music/Airbourne/_/Diamond+in+the+Rough'
p44
S'1265128413'
p45
tp46
a(S'Albert King'
p47
S'We All Wanna Boogie'
p48
S'http://www.last.fm/music/Albert+King/_/We+All+Wanna+Boogie'
p49
S'1265128215'
p50
tp51
a(S'Iron Maiden'
p52
S'Weekend Warrior'
p53
S'http://www.last.fm/music/Iron+Maiden/_/Weekend+Warrior'
p54
S'1265127876'
p55
tp56
a(S'Metallica'
p57
S'The Outlaw Torn'
p58
S'http://www.last.fm/music/Metallica/_/The+Outlaw+Torn'
p59
S'1265127288'
p60
tp61
a(S'Faith No More'
p62
S'From Out of Nowhere'
p63
S'http://www.last.fm/music/Faith+No+More/_/From+Out+of+Nowhere'
p64
S'1265127086'
p65
tp66
a(S'Bad Religion'
p67
S'Sorrow'
p68
S'http://www.last.fm/music/Bad+Religion/_/Sorrow'
p69
S'1265126884'
p70
tp71
a(S"Guns N' Roses"
p72
S'Patience'
p73
S'http://www.last.fm/music/Guns+N%27+Roses/_/Patience'
p74
S'1265125183'
p75
tp76
a(S'Dschinghis Khan'
p77
S'Desert Land'
p78
S'http://www.last.fm/music/Dschinghis+Khan/_/Desert+Land'
p79
S'1265124398'
p80
tp81
a(S'Alice Cooper'
p82
S'Might As Well Be on Mars'
p83
S'http://www.last.fm/music/Alice+Cooper/_/Might+As+Well+Be+on+Mars'
p84
S'1265123969'
p85
tp86
a(S'Alice Cooper'
p87
S'Poison'
p88
S'http://www.last.fm/music/Alice+Cooper/_/Poison'
p89
S'1265123699'
p90
tp91
a(S'Velvet Revolver'
p92
S'She Builds Quick Machines'
p93
S'http://www.last.fm/music/Velvet+Revolver/_/She+Builds+Quick+Machines'
p94
S'1265123455'
p95
tp96
a(S'Hi-Standard'
p97
S'California Dreamin'
p98
S'http://www.last.fm/music/Hi-Standard/_/California+Dreamin'
p99
S'1265123318'
p100
tp101
a(S'Them Crooked Vultures'
p102
S'Gunman'
p103
S'http://www.last.fm/music/Them+Crooked+Vultures/_/Gunman'
p104
S'1265123031'
p105
tp106
a(S'Soundgarden'
p107
S'Rusty Cage'
p108
S'http://www.last.fm/music/Soundgarden/_/Rusty+Cage'
p109
S'1265122765'
p110
tp111
a(S'Green Day'
p112
S'She'
p113
S'http://www.last.fm/music/Green+Day/_/She'
p114
S'1265122631'
p115
tp116
a(S'Faith No More'
p117
S'From Out of Nowhere'
p118
S'http://www.last.fm/music/Faith+No+More/_/From+Out+of+Nowhere'
p119
S'1265122428'
p120
tp121
a(S'Metallica'
p122
S'The House Jack Built'
p123
S'http://www.last.fm/music/Metallica/_/The+House+Jack+Built'
p124
S'1265121697'
p125
tp126
a(S'Bad Religion'
p127
S'Sorrow'
p128
S'http://www.last.fm/music/Bad+Religion/_/Sorrow'
p129
S'1265121496'
p130
tp131
a(S'Stone Temple Pilots'
p132
S"Pop's Love Suicide"
p133
S'http://www.last.fm/music/Stone+Temple+Pilots/_/Pop%27s+Love+Suicide'
p134
S'1265115636'
p135
tp136
a(S'Metallica'
p137
S'Blackened'
p138
S'http://www.last.fm/music/Metallica/_/Blackened'
p139
S'1265115233'
p140
tp141
a(S'Judas Priest'
p142
S'Turbo Lover'
p143
S'http://www.last.fm/music/Judas+Priest/_/Turbo+Lover'
p144
S'1265114527'
p145
tp146
a(S'Metallica'
p147
S'Thorn Within'
p148
S'http://www.last.fm/music/Metallica/_/Thorn+Within'
p149
S'1265114028'
p150
tp151
a(S'Dschinghis Khan'
p152
S'Desert Land'
p153
S'http://www.last.fm/music/Dschinghis+Khan/_/Desert+Land'
p154
S'1265113847'
p155
tp156
a(S'Faith No More'
p157
S'Last Cup of Sorrow'
p158
S'http://www.last.fm/music/Faith+No+More/_/Last+Cup+of+Sorrow'
p159
S'1265113597'
p160
tp161
a(S'Alice Cooper'
p162
S'Might As Well Be on Mars'
p163
S'http://www.last.fm/music/Alice+Cooper/_/Might+As+Well+Be+on+Mars'
p164
S'1265113167'
p165
tp166
a(S'Velvet Revolver'
p167
S'Spectacle'
p168
S'http://www.last.fm/music/Velvet+Revolver/_/Spectacle'
p169
S'1265112946'
p170
tp171
a(S'Soul Asylum'
p172
S'Runaway Train'
p173
S'http://www.last.fm/music/Soul+Asylum/_/Runaway+Train'
p174
S'1265112678'
p175
tp176
a(S'ZZ Top'
p177
S'Black Fly'
p178
S'http://www.last.fm/music/ZZ+Top/_/Black+Fly'
p179
S'1265112465'
p180
tp181
a(S'Stone Temple Pilots'
p182
S'Silvergun Superman'
p183
S'http://www.last.fm/music/Stone+Temple+Pilots/_/Silvergun+Superman'
p184
S'1265112149'
p185
tp186
a(S'Atreyu'
p187
S'Becoming the Bull'
p188
S'http://www.last.fm/music/Atreyu/_/Becoming+the+Bull'
p189
S'1265111911'
p190
tp191
a(S'Iron Maiden'
p192
S'Weekend Warrior'
p193
S'http://www.last.fm/music/Iron+Maiden/_/Weekend+Warrior'
p194
S'1265111571'
p195
tp196
a(S'Alice Cooper'
p197
S'Poison'
p198
S'http://www.last.fm/music/Alice+Cooper/_/Poison'
p199
S'1265111301'
p200
tp201
a(S'Metallica'
p202
S'The House Jack Built'
p203
S'http://www.last.fm/music/Metallica/_/The+House+Jack+Built'
p204
S'1265110901'
p205
tp206
a(S'Black Sabbath'
p207
S'Behind the Wall of Sleep'
p208
S'http://www.last.fm/music/Black+Sabbath/_/Behind+the+Wall+of+Sleep'
p209
S'1265110615'
p210
tp211
a(S'Alice Cooper'
p212
S'Snakebite'
p213
S'http://www.last.fm/music/Alice+Cooper/_/Snakebite'
p214
S'1265109117'
p215
tp216
a(S'Soundgarden'
p217
S'Rusty Cage'
p218
S'http://www.last.fm/music/Soundgarden/_/Rusty+Cage'
p219
S'1265108795'
p220
tp221
a(S'Billy Idol'
p222
S'Rebel Yell'
p223
S'http://www.last.fm/music/Billy+Idol/_/Rebel+Yell'
p224
S'1265108510'
p225
tp226
a(S'Them Crooked Vultures'
p227
S'Bandoliers'
p228
S'http://www.last.fm/music/Them+Crooked+Vultures/_/Bandoliers'
p229
S'1265106755'
p230
tp231
a(S'Alice in Chains'
p232
S'Private Hell'
p233
S'http://www.last.fm/music/Alice+in+Chains/_/Private+Hell'
p234
S'1265106417'
p235
tp236
a(S'AC/DC'
p237
S'Soul Stripper'
p238
S'http://www.last.fm/music/AC%2FDC/_/Soul+Stripper'
p239
S'1265106032'
p240
tp241
a(S'Them Crooked Vultures'
p242
S'Gunman'
p243
S'http://www.last.fm/music/Them+Crooked+Vultures/_/Gunman'
p244
S'1265104790'
p245
tp246
a(S'Stone Temple Pilots'
p247
S'Pretty Penny'
p248
S'http://www.last.fm/music/Stone+Temple+Pilots/_/Pretty+Penny'
p249
S'1265056649'
p250
tp251
a(S'Velvet Revolver'
p252
S'She Mine'
p253
S'http://www.last.fm/music/Velvet+Revolver/_/She+Mine'
p254
S'1265056444'
p255
tp256
a(S'Deep Purple'
p257
S'Strange Kind of Woman'
p258
S'http://www.last.fm/music/Deep+Purple/_/Strange+Kind+of+Woman'
p259
S'1265056211'
p260
tp261
a(S'Bad Religion'
p262
S'Sorrow'
p263
S'http://www.last.fm/music/Bad+Religion/_/Sorrow'
p264
S'1265056010'
p265
tp266
a(S'Metallica'
p267
S'Blackened'
p268
S'http://www.last.fm/music/Metallica/_/Blackened'
p269
S'1265055608'
p270
tp271
a(S'Metallica'
p272
S'The House Jack Built'
p273
S'http://www.last.fm/music/Metallica/_/The+House+Jack+Built'
p274
S'1265055208'
p275
tp276
a(S'Metallica'
p277
S'Of Wolf and Man'
p278
S'http://www.last.fm/music/Metallica/_/Of+Wolf+and+Man'
p279
S'1265054951'
p280
tp281
a(S'Alice in Chains'
p282
S'Lesson Learned'
p283
S'http://www.last.fm/music/Alice+in+Chains/_/Lesson+Learned'
p284
S'1265054694'
p285
tp286
a(S'George Michael'
p287
S'Careless Whisper'
p288
S'http://www.last.fm/music/George+Michael/_/Careless+Whisper'
p289
S'1265054391'
p290
tp291
a(S'Fire Inc.'
p292
S'Tonight Is What It Means To Be Young'
p293
S'http://www.last.fm/music/Fire+Inc./_/Tonight+Is+What+It+Means+To+Be+Young'
p294
S'1265053975'
p295
tp296
a(S'ZZ Top'
p297
S"What's Up With That"
p298
S'http://www.last.fm/music/ZZ+Top/_/What%27s+Up+With+That'
p299
S'1265053654'
p300
tp301
a(S'Dschinghis Khan'
p302
S'Genghis Khan'
p303
S'http://www.last.fm/music/Dschinghis+Khan/_/Genghis+Khan'
p304
S'1265053467'
p305
tp306
a(S'AC/DC'
p307
S'Soul Stripper'
p308
S'http://www.last.fm/music/AC%2FDC/_/Soul+Stripper'
p309
S'1265053083'
p310
tp311
a(S'Alice Cooper'
p312
S'House of Fire'
p313
S'http://www.last.fm/music/Alice+Cooper/_/House+of+Fire'
p314
S'1265052855'
p315
tp316
a(S"Guns N' Roses"
p317
S'Patience'
p318
S'http://www.last.fm/music/Guns+N%27+Roses/_/Patience'
p319
S'1265049766'
p320
tp321
a(S'ZZ Top'
p322
S'Prettyhead'
p323
S'http://www.last.fm/music/ZZ+Top/_/Prettyhead'
p324
S'1265049486'
p325
tp326
a(S'Alice Cooper'
p327
S'Snakebite'
p328
S'http://www.last.fm/music/Alice+Cooper/_/Snakebite'
p329
S'1265049213'
p330
tp331
a(S'Dschinghis Khan'
p332
S'Desert Land'
p333
S'http://www.last.fm/music/Dschinghis+Khan/_/Desert+Land'
p334
S'1265048963'
p335
tp336
a(S'Atreyu'
p337
S'Becoming the Bull'
p338
S'http://www.last.fm/music/Atreyu/_/Becoming+the+Bull'
p339
S'1265048743'
p340
tp341
a(S'Jupiter One'
p342
S'Countdown'
p343
S'http://www.last.fm/music/Jupiter+One/_/Countdown'
p344
S'1265048514'
p345
tp346
a(S'Faith No More'
p347
S'From Out of Nowhere'
p348
S'http://www.last.fm/music/Faith+No+More/_/From+Out+of+Nowhere'
p349
S'1265048313'
p350
tp351
a(S'Alice in Chains'
p352
S'Private Hell'
p353
S'http://www.last.fm/music/Alice+in+Chains/_/Private+Hell'
p354
S'1265047982'
p355
tp356
a(S'Stone Temple Pilots'
p357
S'Vasoline'
p358
S'http://www.last.fm/music/Stone+Temple+Pilots/_/Vasoline'
p359
S'1265047805'
p360
tp361
a(S'AC/DC'
p362
S'Big Jack'
p363
S'http://www.last.fm/music/AC%2FDC/_/Big+Jack'
p364
S'1265047568'
p365
tp366
a(S'Them Crooked Vultures'
p367
S'Gunman'
p368
S'http://www.last.fm/music/Them+Crooked+Vultures/_/Gunman'
p369
S'1265047282'
p370
tp371
a(S"Guns N' Roses"
p372
S"Don't Cry (original)"
p373
S'http://www.last.fm/music/Guns+N%27+Roses/_/Don%27t+Cry+(original)'
p374
S'1265046997'
p375
tp376
a(S"Guns N' Roses"
p377
S'Used to Love Her'
p378
S'http://www.last.fm/music/Guns+N%27+Roses/_/Used+to+Love+Her'
p379
S'1265046804'
p380
tp381
a(S'Metallica'
p382
S'All Nightmare Long'
p383
S'http://www.last.fm/music/Metallica/_/All+Nightmare+Long'
p384
S'1265046327'
p385
tp386
a(S'Stone Temple Pilots'
p387
S'Silvergun Superman'
p388
S'http://www.last.fm/music/Stone+Temple+Pilots/_/Silvergun+Superman'
p389
S'1265044983'
p390
tp391
a(S'Iron Maiden'
p392
S'Weekend Warrior'
p393
S'http://www.last.fm/music/Iron+Maiden/_/Weekend+Warrior'
p394
S'1265044644'
p395
tp396
a(S'Rainbow'
p397
S'Kill the King'
p398
S'http://www.last.fm/music/Rainbow/_/Kill+the+King'
p399
S'1265044367'
p400
tp401
a(S'Alice in Chains'
p402
S'Check My Brain'
p403
S'http://www.last.fm/music/Alice+in+Chains/_/Check+My+Brain'
p404
S'1265044083'
p405
tp406
a(S'Airbourne'
p407
S'Diamond in the Rough'
p408
S'http://www.last.fm/music/Airbourne/_/Diamond+in+the+Rough'
p409
S'1265043909'
p410
tp411
a(S'Chickenfoot'
p412
S'Sexy Little Thing'
p413
S'http://www.last.fm/music/Chickenfoot/_/Sexy+Little+Thing'
p414
S'1265043654'
p415
tp416
a(S'Iron Maiden'
p417
S'Chains of Misery'
p418
S'http://www.last.fm/music/Iron+Maiden/_/Chains+of+Misery'
p419
S'1265043387'
p420
tp421
a(S'Alice Cooper'
p422
S'Might As Well Be on Mars'
p423
S'http://www.last.fm/music/Alice+Cooper/_/Might+As+Well+Be+on+Mars'
p424
S'1265042958'
p425
tp426
a(S'Velvet Revolver'
p427
S'Spectacle'
p428
S'http://www.last.fm/music/Velvet+Revolver/_/Spectacle'
p429
S'1265042736'
p430
tp431
a(S'Alice Cooper'
p432
S'Dangerous Tonight'
p433
S'http://www.last.fm/music/Alice+Cooper/_/Dangerous+Tonight'
p434
S'1265042454'
p435
tp436
a(S'Them Crooked Vultures'
p437
S'Bandoliers'
p438
S'http://www.last.fm/music/Them+Crooked+Vultures/_/Bandoliers'
p439
S'1265042112'
p440
tp441
a(S'ZZ Top'
p442
S"What's Up With That"
p443
S'http://www.last.fm/music/ZZ+Top/_/What%27s+Up+With+That'
p444
S'1265041791'
p445
tp446
a(S"Guns N' Roses"
p447
S'Patience'
p448
S'http://www.last.fm/music/Guns+N%27+Roses/_/Patience'
p449
S'1265041440'
p450
tp451
a(S'The Beatles'
p452
S'I Am the Walrus'
p453
S'http://www.last.fm/music/The+Beatles/_/I+Am+the+Walrus'
p454
S'1265041166'
p455
tp456
a(S'Alice Cooper'
p457
S"Nothing's Free"
p458
S'http://www.last.fm/music/Alice+Cooper/_/Nothing%27s+Free'
p459
S'1265040865'
p460
tp461
a(S'Alice in Chains'
p462
S'Private Hell'
p463
S'http://www.last.fm/music/Alice+in+Chains/_/Private+Hell'
p464
S'1265040526'
p465
tp466
a(S'Faith No More'
p467
S'Epic'
p468
S'http://www.last.fm/music/Faith+No+More/_/Epic'
p469
S'1265040232'
p470
tp471
a(S"Guns N' Roses"
p472
S"Don't Cry (original)"
p473
S'http://www.last.fm/music/Guns+N%27+Roses/_/Don%27t+Cry+(original)'
p474
S'1265039947'
p475
tp476
a(S'AC/DC'
p477
S'Big Jack'
p478
S'http://www.last.fm/music/AC%2FDC/_/Big+Jack'
p479
S'1265039710'
p480
tp481
a(S'Jupiter One'
p482
S'Countdown'
p483
S'http://www.last.fm/music/Jupiter+One/_/Countdown'
p484
S'1265039482'
p485
tp486
a(S'Fire Inc.'
p487
S'Tonight Is What It Means To Be Young'
p488
S'http://www.last.fm/music/Fire+Inc./_/Tonight+Is+What+It+Means+To+Be+Young'
p489
S'1265039066'
p490
tp491
a(S'Deep Purple'
p492
S'Burn'
p493
S'http://www.last.fm/music/Deep+Purple/_/Burn'
p494
S'1265038702'
p495
tp496
a(S'Velvet Revolver'
p497
S'Spectacle'
p498
S'http://www.last.fm/music/Velvet+Revolver/_/Spectacle'
p499
S'1265038480'
p500
tp501
a(S'Faith No More'
p502
S'Last Cup of Sorrow'
p503
S'http://www.last.fm/music/Faith+No+More/_/Last+Cup+of+Sorrow'
p504
S'1265038230'
p505
tp506
a(S'Albert King'
p507
S'Get Out Of My Life Woman'
p508
S'http://www.last.fm/music/Albert+King/_/Get+Out+Of+My+Life+Woman'
p509
S'1265038008'
p510
tp511
a(S'Stone Temple Pilots'
p512
S"Trippin' on a Hole in a Paper Heart"
p513
S'http://www.last.fm/music/Stone+Temple+Pilots/_/Trippin%27+on+a+Hole+in+a+Paper+Heart'
p514
S'1265037831'
p515
tp516
a(S'Dschinghis Khan'
p517
S'Desert Land'
p518
S'http://www.last.fm/music/Dschinghis+Khan/_/Desert+Land'
p519
S'1265037650'
p520
tp521
a(S'Men at Work'
p522
S'Who Can It Be Now?'
p523
S'http://www.last.fm/music/Men+at+Work/_/Who+Can+It+Be+Now%3F'
p524
S'1265037450'
p525
tp526
a(S'Iron Maiden'
p527
S'Weekend Warrior'
p528
S'http://www.last.fm/music/Iron+Maiden/_/Weekend+Warrior'
p529
S'1265037110'
p530
tp531
a(S'Velvet Revolver'
p532
S'She Builds Quick Machines'
p533
S'http://www.last.fm/music/Velvet+Revolver/_/She+Builds+Quick+Machines'
p534
S'1265036866'
p535
tp536
a(S'Stone Temple Pilots'
p537
S'Adhesive'
p538
S'http://www.last.fm/music/Stone+Temple+Pilots/_/Adhesive'
p539
S'1265036532'
p540
tp541
a(S'Stone Temple Pilots'
p542
S'Silvergun Superman'
p543
S'http://www.last.fm/music/Stone+Temple+Pilots/_/Silvergun+Superman'
p544
S'1265036216'
p545
tp546
a(S'Soundgarden'
p547
S'Rusty Cage'
p548
S'http://www.last.fm/music/Soundgarden/_/Rusty+Cage'
p549
S'1265035949'
p550
tp551
a(S'George Michael'
p552
S'Careless Whisper'
p553
S'http://www.last.fm/music/George+Michael/_/Careless+Whisper'
p554
S'1265035645'
p555
tp556
a(S'Alice Cooper'
p557
S'Poison'
p558
S'http://www.last.fm/music/Alice+Cooper/_/Poison'
p559
S'1265035375'
p560
tp561
a(S'Albert King'
p562
S'We All Wanna Boogie'
p563
S'http://www.last.fm/music/Albert+King/_/We+All+Wanna+Boogie'
p564
S'1265035178'
p565
tp566
a(S"Guns N' Roses"
p567
S'Used to Love Her'
p568
S'http://www.last.fm/music/Guns+N%27+Roses/_/Used+to+Love+Her'
p569
S'1265034988'
p570
tp571
a(S'Metallica'
p572
S'All Nightmare Long'
p573
S'http://www.last.fm/music/Metallica/_/All+Nightmare+Long'
p574
S'1265034511'
p575
tp576
a(S'Black Sabbath'
p577
S'Behind the Wall of Sleep'
p578
S'http://www.last.fm/music/Black+Sabbath/_/Behind+the+Wall+of+Sleep'
p579
S'1265034294'
p580
tp581
a(S'AC/DC'
p582
S"You Ain't Got a Hold on Me"
p583
S'http://www.last.fm/music/AC%2FDC/_/You+Ain%27t+Got+a+Hold+on+Me'
p584
S'1265034085'
p585
tp586
a(S'Stone Temple Pilots'
p587
S'Pretty Penny'
p588
S'http://www.last.fm/music/Stone+Temple+Pilots/_/Pretty+Penny'
p589
S'1265033863'
p590
tp591
a(S'Green Day'
p592
S'She'
p593
S'http://www.last.fm/music/Green+Day/_/She'
p594
S'1265033729'
p595
tp596
a(S'Dr. Sin'
p597
S'Emotional Catastrophe'
p598
S'http://www.last.fm/music/Dr.+Sin/_/Emotional+Catastrophe'
p599
S'1265033517'
p600
tp601
a(S'Stone Temple Pilots'
p602
S'Seven Caged Tigers'
p603
S'http://www.last.fm/music/Stone+Temple+Pilots/_/Seven+Caged+Tigers'
p604
S'1265033260'
p605
tp606
a(S'Alice Cooper'
p607
S'Snakebite'
p608
S'http://www.last.fm/music/Alice+Cooper/_/Snakebite'
p609
S'1265032987'
p610
tp611
a(S'Deep Purple'
p612
S'Black Night'
p613
S'http://www.last.fm/music/Deep+Purple/_/Black+Night'
p614
S'1265032779'
p615
tp616
a(S'Bad Religion'
p617
S'Sorrow'
p618
S'http://www.last.fm/music/Bad+Religion/_/Sorrow'
p619
S'1265032578'
p620
tp621
a(S'Them Crooked Vultures'
p622
S'Bandoliers'
p623
S'http://www.last.fm/music/Them+Crooked+Vultures/_/Bandoliers'
p624
S'1265032235'
p625
tp626
a(S'Metallica'
p627
S'Blackened'
p628
S'http://www.last.fm/music/Metallica/_/Blackened'
p629
S'1265031832'
p630
tp631
a(S'Dschinghis Khan'
p632
S'Genghis Khan'
p633
S'http://www.last.fm/music/Dschinghis+Khan/_/Genghis+Khan'
p634
S'1265031645'
p635
tp636
a(S'Atreyu'
p637
S'Becoming the Bull'
p638
S'http://www.last.fm/music/Atreyu/_/Becoming+the+Bull'
p639
S'1265031424'
p640
tp641
a(S'ZZ Top'
p642
S'Prettyhead'
p643
S'http://www.last.fm/music/ZZ+Top/_/Prettyhead'
p644
S'1265031144'
p645
tp646
a(S'Hi-Standard'
p647
S'California Dreamin'
p648
S'http://www.last.fm/music/Hi-Standard/_/California+Dreamin'
p649
S'1265031007'
p650
tp651
a(S'Chickenfoot'
p652
S'Sexy Little Thing'
p653
S'http://www.last.fm/music/Chickenfoot/_/Sexy+Little+Thing'
p654
S'1265030751'
p655
tp656
a(S'Stone Temple Pilots'
p657
S"Pop's Love Suicide"
p658
S'http://www.last.fm/music/Stone+Temple+Pilots/_/Pop%27s+Love+Suicide'
p659
S'1265030523'
p660
tp661
a(S'Metallica'
p662
S'The House Jack Built'
p663
S'http://www.last.fm/music/Metallica/_/The+House+Jack+Built'
p664
S'1265030122'
p665
tp666
a(S'Alice Cooper'
p667
S'Dangerous Tonight'
p668
S'http://www.last.fm/music/Alice+Cooper/_/Dangerous+Tonight'
p669
S'1265029840'
p670
tp671
a(S'AC/DC'
p672
S'Soul Stripper'
p673
S'http://www.last.fm/music/AC%2FDC/_/Soul+Stripper'
p674
S'1265029455'
p675
tp676
a(S'Alice Cooper'
p677
S'Might As Well Be on Mars'
p678
S'http://www.last.fm/music/Alice+Cooper/_/Might+As+Well+Be+on+Mars'
p679
S'1265029026'
p680
tp681
a(S'Rainbow'
p682
S'Kill the King'
p683
S'http://www.last.fm/music/Rainbow/_/Kill+the+King'
p684
S'1265028640'
p685
tp686
a(S'Velvet Revolver'
p687
S'She Mine'
p688
S'http://www.last.fm/music/Velvet+Revolver/_/She+Mine'
p689
S'1265028435'
p690
tp691
a(S'Metallica'
p692
S'Of Wolf and Man'
p693
S'http://www.last.fm/music/Metallica/_/Of+Wolf+and+Man'
p694
S'1265028071'
p695
tp696
a(S'Faith No More'
p697
S'From Out of Nowhere'
p698
S'http://www.last.fm/music/Faith+No+More/_/From+Out+of+Nowhere'
p699
S'1265027868'
p700
tp701
a(S'Talk Show'
p702
S'Hello Hello'
p703
S'http://www.last.fm/music/Talk+Show/_/Hello+Hello'
p704
S'1265027675'
p705
tp706
a(S'Faith No More'
p707
S'Falling to Pieces'
p708
S'http://www.last.fm/music/Faith+No+More/_/Falling+to+Pieces'
p709
S'1265027359'
p710
tp711
a(S'Soundgarden'
p712
S'Jesus Christ Pose'
p713
S'http://www.last.fm/music/Soundgarden/_/Jesus+Christ+Pose'
p714
S'1265027008'
p715
tp716
a(S'Alice Cooper'
p717
S'House of Fire'
p718
S'http://www.last.fm/music/Alice+Cooper/_/House+of+Fire'
p719
S'1265026780'
p720
tp721
a(S'Stone Temple Pilots'
p722
S'Vasoline'
p723
S'http://www.last.fm/music/Stone+Temple+Pilots/_/Vasoline'
p724
S'1265026600'
p725
tp726
a(S'Deep Purple'
p727
S'Strange Kind of Woman'
p728
S'http://www.last.fm/music/Deep+Purple/_/Strange+Kind+of+Woman'
p729
S'1265026367'
p730
tp731
a(S'AC/DC'
p732
S"Hell Ain't A Bad Place To Be"
p733
S'http://www.last.fm/music/AC%2FDC/_/Hell+Ain%27t+A+Bad+Place+To+Be'
p734
S'1265026117'
p735
tp736
a(S'Soul Asylum'
p737
S'Misery'
p738
S'http://www.last.fm/music/Soul+Asylum/_/Misery'
p739
S'1265025850'
p740
tp741
a(S'Alice in Chains'
p742
S'Lesson Learned'
p743
S'http://www.last.fm/music/Alice+in+Chains/_/Lesson+Learned'
p744
S'1265025593'
p745
tp746
a(S'Soul Asylum'
p747
S'Runaway Train'
p748
S'http://www.last.fm/music/Soul+Asylum/_/Runaway+Train'
p749
S'1265024727'
p750
tp751
a(S'Alice Cooper'
p752
S'Bed of Nails'
p753
S'http://www.last.fm/music/Alice+Cooper/_/Bed+of+Nails'
p754
S'1265024467'
p755
tp756
a(S'ZZ Top'
p757
S'Black Fly'
p758
S'http://www.last.fm/music/ZZ+Top/_/Black+Fly'
p759
S'1265024058'
p760
tp761
a(S'Iron Maiden'
p762
S'Chains of Misery'
p763
S'http://www.last.fm/music/Iron+Maiden/_/Chains+of+Misery'
p764
S'1265023840'
p765
tp766
a(S'Faith No More'
p767
S'Midlife Crisis'
p768
S'http://www.last.fm/music/Faith+No+More/_/Midlife+Crisis'
p769
S'1265023577'
p770
tp771
a(S'Alice in Chains'
p772
S'Check My Brain'
p773
S'http://www.last.fm/music/Alice+in+Chains/_/Check+My+Brain'
p774
S'1265023339'
p775
tp776
a(S'Airbourne'
p777
S'Diamond in the Rough'
p778
S'http://www.last.fm/music/Airbourne/_/Diamond+in+the+Rough'
p779
S'1265023147'
p780
tp781
a(S'Alice Cooper'
p782
S'Burning Our Bed'
p783
S'http://www.last.fm/music/Alice+Cooper/_/Burning+Our+Bed'
p784
S'1265022872'
p785
tp786
a(S'Them Crooked Vultures'
p787
S'Gunman'
p788
S'http://www.last.fm/music/Them+Crooked+Vultures/_/Gunman'
p789
S'1265021241'
p790
tp791
a(S'Deep Purple'
p792
S'Burn'
p793
S'http://www.last.fm/music/Deep+Purple/_/Burn'
p794
S'1264872783'
p795
tp796
a(S'Iron Maiden'
p797
S'Weekend Warrior'
p798
S'http://www.last.fm/music/Iron+Maiden/_/Weekend+Warrior'
p799
S'1264872443'
p800
tp801
a(S'Men at Work'
p802
S'Who Can It Be Now?'
p803
S'http://www.last.fm/music/Men+at+Work/_/Who+Can+It+Be+Now%3F'
p804
S'1264872243'
p805
tp806
a(S'Mobius Band'
p807
S'The Loving Sounds of Static'
p808
S'http://www.last.fm/music/Mobius+Band/_/The+Loving+Sounds+of+Static'
p809
S'1264871997'
p810
tp811
a(S'Alice Cooper'
p812
S'Poison'
p813
S'http://www.last.fm/music/Alice+Cooper/_/Poison'
p814
S'1264871727'
p815
tp816
a(S'Soundgarden'
p817
S'Jesus Christ Pose'
p818
S'http://www.last.fm/music/Soundgarden/_/Jesus+Christ+Pose'
p819
S'1264871376'
p820
tp821
a(S'Dschinghis Khan'
p822
S'Desert Land'
p823
S'http://www.last.fm/music/Dschinghis+Khan/_/Desert+Land'
p824
S'1264871195'
p825
tp826
a(S'Soul Asylum'
p827
S'Misery'
p828
S'http://www.last.fm/music/Soul+Asylum/_/Misery'
p829
S'1264870909'
p830
tp831
a(S'Jupiter One'
p832
S'Countdown'
p833
S'http://www.last.fm/music/Jupiter+One/_/Countdown'
p834
S'1264870681'
p835
tp836
a(S'Green Day'
p837
S'Basket Case'
p838
S'http://www.last.fm/music/Green+Day/_/Basket+Case'
p839
S'1264870498'
p840
tp841
a(S'ZZ Top'
p842
S"What's Up With That"
p843
S'http://www.last.fm/music/ZZ+Top/_/What%27s+Up+With+That'
p844
S'1264870177'
p845
tp846
a(S'Them Crooked Vultures'
p847
S'Gunman'
p848
S'http://www.last.fm/music/Them+Crooked+Vultures/_/Gunman'
p849
S'1264869891'
p850
tp851
a(S'Alice in Chains'
p852
S'Private Hell'
p853
S'http://www.last.fm/music/Alice+in+Chains/_/Private+Hell'
p854
S'1264796017'
p855
tp856
a(S'Dschinghis Khan'
p857
S'Genghis Khan'
p858
S'http://www.last.fm/music/Dschinghis+Khan/_/Genghis+Khan'
p859
S'1264795819'
p860
tp861
a(S"Guns N' Roses"
p862
S'Used to Love Her'
p863
S'http://www.last.fm/music/Guns+N%27+Roses/_/Used+to+Love+Her'
p864
S'1264795629'
p865
tp866
a(S'Fire Inc.'
p867
S'Tonight Is What It Means To Be Young'
p868
S'http://www.last.fm/music/Fire+Inc./_/Tonight+Is+What+It+Means+To+Be+Young'
p869
S'1264795147'
p870
tp871
a(S'Them Crooked Vultures'
p872
S'Gunman'
p873
S'http://www.last.fm/music/Them+Crooked+Vultures/_/Gunman'
p874
S'1264794861'
p875
tp876
a(S'Chickenfoot'
p877
S'Sexy Little Thing'
p878
S'http://www.last.fm/music/Chickenfoot/_/Sexy+Little+Thing'
p879
S'1264794555'
p880
tp881
a(S'Iron Maiden'
p882
S'Weekend Warrior'
p883
S'http://www.last.fm/music/Iron+Maiden/_/Weekend+Warrior'
p884
S'1264794215'
p885
tp886
a(S'Fire Inc.'
p887
S'Tonight Is What It Means To Be Young'
p888
S'http://www.last.fm/music/Fire+Inc./_/Tonight+Is+What+It+Means+To+Be+Young'
p889
S'1264793799'
p890
tp891
a(S'Mobius Band'
p892
S'The Loving Sounds of Static'
p893
S'http://www.last.fm/music/Mobius+Band/_/The+Loving+Sounds+of+Static'
p894
S'1264793553'
p895
tp896
a(S'Men at Work'
p897
S'Who Can It Be Now?'
p898
S'http://www.last.fm/music/Men+at+Work/_/Who+Can+It+Be+Now%3F'
p899
S'1264793353'
p900
tp901
a(S'Stone Temple Pilots'
p902
S"Pop's Love Suicide"
p903
S'http://www.last.fm/music/Stone+Temple+Pilots/_/Pop%27s+Love+Suicide'
p904
S'1264793011'
p905
tp906
a(S'Rainbow'
p907
S'Kill the King'
p908
S'http://www.last.fm/music/Rainbow/_/Kill+the+King'
p909
S'1264790606'
p910
tp911
a(S'Bad Religion'
p912
S'Sorrow'
p913
S'http://www.last.fm/music/Bad+Religion/_/Sorrow'
p914
S'1264790404'
p915
tp916
a(S'Alice in Chains'
p917
S'Lesson Learned'
p918
S'http://www.last.fm/music/Alice+in+Chains/_/Lesson+Learned'
p919
S'1264790148'
p920
tp921
a(S'Alice Cooper'
p922
S'House of Fire'
p923
S'http://www.last.fm/music/Alice+Cooper/_/House+of+Fire'
p924
S'1264789920'
p925
tp926
a(S'Alice Cooper'
p927
S'Might As Well Be on Mars'
p928
S'http://www.last.fm/music/Alice+Cooper/_/Might+As+Well+Be+on+Mars'
p929
S'1264789491'
p930
tp931
a(S'ZZ Top'
p932
S'Black Fly'
p933
S'http://www.last.fm/music/ZZ+Top/_/Black+Fly'
p934
S'1264789278'
p935
tp936
a(S'Jupiter One'
p937
S'Countdown'
p938
S'http://www.last.fm/music/Jupiter+One/_/Countdown'
p939
S'1264789039'
p940
tp941
a(S'Metallica'
p942
S'All Nightmare Long'
p943
S'http://www.last.fm/music/Metallica/_/All+Nightmare+Long'
p944
S'1264788562'
p945
tp946
a(S'Albert King'
p947
S'We All Wanna Boogie'
p948
S'http://www.last.fm/music/Albert+King/_/We+All+Wanna+Boogie'
p949
S'1264787460'
p950
tp951
a(S"Guns N' Roses"
p952
S'Used to Love Her'
p953
S'http://www.last.fm/music/Guns+N%27+Roses/_/Used+to+Love+Her'
p954
S'1264787269'
p955
tp956
a(S'Faith No More'
p957
S'Last Cup of Sorrow'
p958
S'http://www.last.fm/music/Faith+No+More/_/Last+Cup+of+Sorrow'
p959
S'1264787019'
p960
tp961
a(S'Stone Temple Pilots'
p962
S'Adhesive'
p963
S'http://www.last.fm/music/Stone+Temple+Pilots/_/Adhesive'
p964
S'1264786685'
p965
tp966
a(S'Alice Cooper'
p967
S'Bed of Nails'
p968
S'http://www.last.fm/music/Alice+Cooper/_/Bed+of+Nails'
p969
S'1264786425'
p970
tp971
a(S'Faith No More'
p972
S'From Out of Nowhere'
p973
S'http://www.last.fm/music/Faith+No+More/_/From+Out+of+Nowhere'
p974
S'1264786222'
p975
tp976
a(S'Dschinghis Khan'
p977
S'Desert Land'
p978
S'http://www.last.fm/music/Dschinghis+Khan/_/Desert+Land'
p979
S'1264786041'
p980
tp981
a(S'Airbourne'
p982
S'Diamond in the Rough'
p983
S'http://www.last.fm/music/Airbourne/_/Diamond+in+the+Rough'
p984
S'1264785745'
p985
tp986
a(S'Velvet Revolver'
p987
S'She Builds Quick Machines'
p988
S'http://www.last.fm/music/Velvet+Revolver/_/She+Builds+Quick+Machines'
p989
S'1264785501'
p990
tp991
a(S'George Michael'
p992
S'Careless Whisper'
p993
S'http://www.last.fm/music/George+Michael/_/Careless+Whisper'
p994
S'1264785198'
p995
tp996
a(S'Hi-Standard'
p997
S'California Dreamin'
p998
S'http://www.last.fm/music/Hi-Standard/_/California+Dreamin'
p999
S'1264785061'
p1000
tp1001
a.