(lp1
(S'Mother Love Bone'
p2
S'Gentle Groove'
p3
S'http://www.last.fm/music/Mother+Love+Bone/_/Gentle+Groove'
p4
S'1350927621'
p5
tp6
a(S'Pearl Jam'
p7
S'Animal'
p8
S'http://www.last.fm/music/Pearl+Jam/_/Animal'
p9
S'1350927453'
p10
tp11
a(S'Nirvana'
p12
V\U00010422\U0001042e\U0001043b\U00010444\U0001042e\U00010431\U0001044b
p13
S'http://www.last.fm/music/Nirvana/_/%F0%90%90%A2%F0%90%90%AE%F0%90%90%BB%F0%90%91%84%F0%90%90%AE%F0%90%90%B1%F0%90%91%8B'
p14
S'1350918836'
p15
tp16
a(S'Pearl Jam'
p17
S'Better Man'
p18
S'http://www.last.fm/music/Pearl+Jam/_/Better+Man'
p19
S'1350918567'
p20
tp21
a(S'Alice in Chains'
p22
S'Them Bones'
p23
S'http://www.last.fm/music/Alice+in+Chains/_/Them+Bones'
p24
S'1350918417'
p25
tp26
a(S'Alice in Chains'
p27
S'Brother'
p28
S'http://www.last.fm/music/Alice+in+Chains/_/Brother'
p29
S'1350917504'
p30
tp31
a(S'Mother Love Bone'
p32
S'Mindshaker Meltdown'
p33
S'http://www.last.fm/music/Mother+Love+Bone/_/Mindshaker+Meltdown'
p34
S'1350653283'
p35
tp36
a(S'Alice in Chains'
p37
S'Sludge Factory'
p38
S'http://www.last.fm/music/Alice+in+Chains/_/Sludge+Factory'
p39
S'1350653007'
p40
tp41
a(S'Stone Temple Pilots'
p42
S'Take a Load Off'
p43
S'http://www.last.fm/music/Stone+Temple+Pilots/_/Take+a+Load+Off'
p44
S'1350652815'
p45
tp46
a(S'Stone Temple Pilots'
p47
S'Hollywood Bitch'
p48
S'http://www.last.fm/music/Stone+Temple+Pilots/_/Hollywood+Bitch'
p49
S'1350592378'
p50
tp51
a(S'Temple of the Dog'
p52
S'Pushin Forward Back'
p53
S'http://www.last.fm/music/Temple+of+the+Dog/_/Pushin+Forward+Back'
p54
S'1350592153'
p55
tp56
a(S'Live'
p57
S"Lakini's Juice"
p58
S'http://www.last.fm/music/Live/_/Lakini%27s+Juice'
p59
S'1350590107'
p60
tp61
a(S'Soundgarden'
p62
S'Loud Love'
p63
S'http://www.last.fm/music/Soundgarden/_/Loud+Love'
p64
S'1350589810'
p65
tp66
a(S'Live'
p67
S'Stage'
p68
S'http://www.last.fm/music/Live/_/Stage'
p69
S'1350589622'
p70
tp71
a(S'Live'
p72
S'Meltdown'
p73
S'http://www.last.fm/music/Live/_/Meltdown'
p74
S'1350589387'
p75
tp76
a(S'Alice in Chains'
p77
S'Heaven Beside You'
p78
S'http://www.last.fm/music/Alice+in+Chains/_/Heaven+Beside+You'
p79
S'1350589059'
p80
tp81
a(S'Audioslave'
p82
S'The Worm'
p83
S'http://www.last.fm/music/Audioslave/_/The+Worm'
p84
S'1350588822'
p85
tp86
a(S'Soundgarden'
p87
S'Overfloater'
p88
S'http://www.last.fm/music/Soundgarden/_/Overfloater'
p89
S'1350588513'
p90
tp91
a(S'Alice in Chains'
p92
S'Over Now'
p93
S'http://www.last.fm/music/Alice+in+Chains/_/Over+Now'
p94
S'1350588089'
p95
tp96
a(S'Stone Temple Pilots'
p97
S"Trippin' on a Hole in a Paper Heart"
p98
S'http://www.last.fm/music/Stone+Temple+Pilots/_/Trippin%27+on+a+Hole+in+a+Paper+Heart'
p99
S'1350587912'
p100
tp101
a(S'Stone Temple Pilots'
p102
S'Pruno'
p103
S'http://www.last.fm/music/Stone+Temple+Pilots/_/Pruno'
p104
S'1350587717'
p105
tp106
a(S'Pearl Jam'
p107
S'Rearviewmirror'
p108
S'http://www.last.fm/music/Pearl+Jam/_/Rearviewmirror'
p109
S'1350587433'
p110
tp111
a(S'Talk Show'
p112
S'End of the World'
p113
S'http://www.last.fm/music/Talk+Show/_/End+of+the+World'
p114
S'1350587221'
p115
tp116
a(S'Live'
p117
S'Insomnia And The Hole In The Universe'
p118
S'http://www.last.fm/music/Live/_/Insomnia+And+The+Hole+In+The+Universe'
p119
S'1350586979'
p120
tp121
a(S'Alice in Chains'
p122
S'Brother'
p123
S'http://www.last.fm/music/Alice+in+Chains/_/Brother'
p124
S'1350586652'
p125
tp126
a(S'Soundgarden'
p127
S'Slaves & Bulldozers'
p128
S'http://www.last.fm/music/Soundgarden/_/Slaves+&+Bulldozers'
p129
S'1350586236'
p130
tp131
a(S'Stone Temple Pilots'
p132
S'Crackerman'
p133
S'http://www.last.fm/music/Stone+Temple+Pilots/_/Crackerman'
p134
S'1350586042'
p135
tp136
a(S'Nirvana'
p137
V\U00010409\U0001044c \U00010430 \U00010411\U0001044a\U00010431\U0001044c
p138
S'http://www.last.fm/music/Nirvana/_/%F0%90%90%89%F0%90%91%8C+%F0%90%90%B0+%F0%90%90%91%F0%90%91%8A%F0%90%90%B1%F0%90%91%8C'
p139
S'1350585845'
p140
tp141
a(S'Mother Love Bone'
p142
S'Stardog Champion'
p143
S'http://www.last.fm/music/Mother+Love+Bone/_/Stardog+Champion'
p144
S'1350585547'
p145
tp146
a(S'Soundgarden'
p147
S'Pretty Noose'
p148
S'http://www.last.fm/music/Soundgarden/_/Pretty+Noose'
p149
S'1350585296'
p150
tp151
a(S'Live'
p152
S'Transmit Your Love'
p153
S'http://www.last.fm/music/Live/_/Transmit+Your+Love'
p154
S'1350585020'
p155
tp156
a(S'Nirvana'
p157
S'Heart-Shaped Box'
p158
S'http://www.last.fm/music/Nirvana/_/Heart-Shaped+Box'
p159
S'1350584739'
p160
tp161
a(S'Velvet Revolver'
p162
S'Dirty Little Thing'
p163
S'http://www.last.fm/music/Velvet+Revolver/_/Dirty+Little+Thing'
p164
S'1350584501'
p165
tp166
a(S'Foo Fighters'
p167
S'Headwires'
p168
S'http://www.last.fm/music/Foo+Fighters/_/Headwires'
p169
S'1350584223'
p170
tp171
a(S'Mad Season'
p172
S"I'm Above"
p173
S'http://www.last.fm/music/Mad+Season/_/I%27m+Above'
p174
S'1350583879'
p175
tp176
a(S'Stone Temple Pilots'
p177
S'Seven Caged Tigers'
p178
S'http://www.last.fm/music/Stone+Temple+Pilots/_/Seven+Caged+Tigers'
p179
S'1350583622'
p180
tp181
a(S'Velvet Revolver'
p182
S'She Builds Quick Machines'
p183
S'http://www.last.fm/music/Velvet+Revolver/_/She+Builds+Quick+Machines'
p184
S'1350578054'
p185
tp186
a(S'Live'
p187
S'Deep Enough (Remix)'
p188
S'http://www.last.fm/music/Live/_/Deep+Enough+(Remix)'
p189
S'1350577862'
p190
tp191
a(S'Velvet Revolver'
p192
S'Headspace'
p193
S'http://www.last.fm/music/Velvet+Revolver/_/Headspace'
p194
S'1350569172'
p195
tp196
a(S'Stone Temple Pilots'
p197
S'Unglued'
p198
S'http://www.last.fm/music/Stone+Temple+Pilots/_/Unglued'
p199
S'1350569017'
p200
tp201
a(S'The Gracious Few'
p202
S'Tredecim'
p203
S'http://www.last.fm/music/The+Gracious+Few/_/Tredecim'
p204
S'1350568762'
p205
tp206
a(S'Talk Show'
p207
S'So Long'
p208
S'http://www.last.fm/music/Talk+Show/_/So+Long'
p209
S'1350568544'
p210
tp211
a(S'Stone Temple Pilots'
p212
S'Dumb Love'
p213
S'http://www.last.fm/music/Stone+Temple+Pilots/_/Dumb+Love'
p214
S'1350568308'
p215
tp216
a(S'Live'
p217
S'Like I Do'
p218
S'http://www.last.fm/music/Live/_/Like+I+Do'
p219
S'1350568054'
p220
tp221
a(S'Live'
p222
S'Waitress'
p223
S'http://www.last.fm/music/Live/_/Waitress'
p224
S'1350567885'
p225
tp226
a(S'Talk Show'
p227
S'Hello Hello'
p228
S'http://www.last.fm/music/Talk+Show/_/Hello+Hello'
p229
S'1350567707'
p230
tp231
a(S'Stone Temple Pilots'
p232
S'Big Bang Baby'
p233
S'http://www.last.fm/music/Stone+Temple+Pilots/_/Big+Bang+Baby'
p234
S'1350567289'
p235
tp236
a(S'Mother Love Bone'
p237
S'Gentle Groove'
p238
S'http://www.last.fm/music/Mother+Love+Bone/_/Gentle+Groove'
p239
S'1350566324'
p240
tp241
a(S'Live'
p242
S'Heropsychodreamer'
p243
S'http://www.last.fm/music/Live/_/Heropsychodreamer'
p244
S'1350566155'
p245
tp246
a(S'Nirvana'
p247
V\U00010400\U0001044c \U00010412\U0001044a\U0001042d\U0001044b
p248
S'http://www.last.fm/music/Nirvana/_/%F0%90%90%80%F0%90%91%8C+%F0%90%90%92%F0%90%91%8A%F0%90%90%AD%F0%90%91%8B'
p249
S'1350565900'
p250
tp251
a(S'Stone Temple Pilots'
p252
S'Adhesive'
p253
S'http://www.last.fm/music/Stone+Temple+Pilots/_/Adhesive'
p254
S'1350565566'
p255
tp256
a(S'Alice in Chains'
p257
S'Bleed the Freak'
p258
S'http://www.last.fm/music/Alice+in+Chains/_/Bleed+the+Freak'
p259
S'1350565323'
p260
tp261
a(S'Corrosion of Conformity'
p262
S'Clean My Wounds'
p263
S'http://www.last.fm/music/Corrosion+of+Conformity/_/Clean+My+Wounds'
p264
S'1350505283'
p265
tp266
a(S'Stone Temple Pilots'
p267
S'I Got You'
p268
S'http://www.last.fm/music/Stone+Temple+Pilots/_/I+Got+You'
p269
S'1350505028'
p270
tp271
a(S'Live'
p272
S'Deep Enough (Remix)'
p273
S'http://www.last.fm/music/Live/_/Deep+Enough+(Remix)'
p274
S'1350504836'
p275
tp276
a(S'Stone Temple Pilots'
p277
S'Peacoat'
p278
S'http://www.last.fm/music/Stone+Temple+Pilots/_/Peacoat'
p279
S'1350504628'
p280
tp281
a(S'Stone Temple Pilots'
p282
S'Between the Lines'
p283
S'http://www.last.fm/music/Stone+Temple+Pilots/_/Between+the+Lines'
p284
S'1350422655'
p285
tp286
a(S'Alice in Chains'
p287
S'Sea of Sorrow'
p288
S'http://www.last.fm/music/Alice+in+Chains/_/Sea+of+Sorrow'
p289
S'1350422305'
p290
tp291
a(S'Live'
p292
S'Feel The Quiet River Rage'
p293
S'http://www.last.fm/music/Live/_/Feel+The+Quiet+River+Rage'
p294
S'1350422028'
p295
tp296
a(S'Live'
p297
S'Meltdown'
p298
S'http://www.last.fm/music/Live/_/Meltdown'
p299
S'1350421793'
p300
tp301
a(S'Soundgarden'
p302
S'Holy Water'
p303
S'http://www.last.fm/music/Soundgarden/_/Holy+Water'
p304
S'1350421486'
p305
tp306
a(S'Talk Show'
p307
S'Hello Hello'
p308
S'http://www.last.fm/music/Talk+Show/_/Hello+Hello'
p309
S'1350420331'
p310
tp311
a(S'Soundgarden'
p312
S'Hands All Over'
p313
S'http://www.last.fm/music/Soundgarden/_/Hands+All+Over'
p314
S'1350419970'
p315
tp316
a(S'Soundgarden'
p317
S'Drawing Flies'
p318
S'http://www.last.fm/music/Soundgarden/_/Drawing+Flies'
p319
S'1350419824'
p320
tp321
a(S'Velvet Revolver'
p322
S'Dirty Little Thing'
p323
S'http://www.last.fm/music/Velvet+Revolver/_/Dirty+Little+Thing'
p324
S'1350419587'
p325
tp326
a(S'Temple of the Dog'
p327
S'Wooden Jesus'
p328
S'http://www.last.fm/music/Temple+of+the+Dog/_/Wooden+Jesus'
p329
S'1350418986'
p330
tp331
a(S'Talk Show'
p332
S'Hide'
p333
S'http://www.last.fm/music/Talk+Show/_/Hide'
p334
S'1350418489'
p335
tp336
a(S'Temple of the Dog'
p337
S'Hunger Strike'
p338
S'http://www.last.fm/music/Temple+of+the+Dog/_/Hunger+Strike'
p339
S'1350417935'
p340
tp341
a(S'Alice in Chains'
p342
S'Right Turn'
p343
S'http://www.last.fm/music/Alice+in+Chains/_/Right+Turn'
p344
S'1350416145'
p345
tp346
a(S'Stone Temple Pilots'
p347
S'Atlanta'
p348
S'http://www.last.fm/music/Stone+Temple+Pilots/_/Atlanta'
p349
S'1350415827'
p350
tp351
a(S'Live'
p352
S'Out To Dry'
p353
S'http://www.last.fm/music/Live/_/Out+To+Dry'
p354
S'1350415626'
p355
tp356
a(S'Stone Temple Pilots'
p357
S'Peacoat'
p358
S'http://www.last.fm/music/Stone+Temple+Pilots/_/Peacoat'
p359
S'1350415416'
p360
tp361
a(S'Stone Temple Pilots'
p362
S'Wet My Bed'
p363
S'http://www.last.fm/music/Stone+Temple+Pilots/_/Wet+My+Bed'
p364
S'1350415309'
p365
tp366
a(S'Live'
p367
S'Lighthouse'
p368
S'http://www.last.fm/music/Live/_/Lighthouse'
p369
S'1350415121'
p370
tp371
a(S'Stone Temple Pilots'
p372
S'Sex Type Thing'
p373
S'http://www.last.fm/music/Stone+Temple+Pilots/_/Sex+Type+Thing'
p374
S'1350414903'
p375
tp376
a(S'Stone Temple Pilots'
p377
S'Vasoline'
p378
S'http://www.last.fm/music/Stone+Temple+Pilots/_/Vasoline'
p379
S'1350414726'
p380
tp381
a(S'Live'
p382
S'Top'
p383
S'http://www.last.fm/music/Live/_/Top'
p384
S'1350414105'
p385
tp386
a(S'Velvet Revolver'
p387
S'Superhuman'
p388
S'http://www.last.fm/music/Velvet+Revolver/_/Superhuman'
p389
S'1350413849'
p390
tp391
a(S'Nirvana'
p392
V\U00010422\U0001042e\U0001043b\U00010444\U0001042e\U00010431\U0001044b
p393
S'http://www.last.fm/music/Nirvana/_/%F0%90%90%A2%F0%90%90%AE%F0%90%90%BB%F0%90%91%84%F0%90%90%AE%F0%90%90%B1%F0%90%91%8B'
p394
S'1350413592'
p395
tp396
a(S'Alice in Chains'
p397
S'Sludge Factory'
p398
S'http://www.last.fm/music/Alice+in+Chains/_/Sludge+Factory'
p399
S'1350413315'
p400
tp401
a(S'Mother Love Bone'
p402
S'Gentle Groove'
p403
S'http://www.last.fm/music/Mother+Love+Bone/_/Gentle+Groove'
p404
S'1350413071'
p405
tp406
a(S'Velvet Revolver'
p407
S'Do It For The Kids'
p408
S'http://www.last.fm/music/Velvet+Revolver/_/Do+It+For+The+Kids'
p409
S'1350412835'
p410
tp411
a(S'Stone Temple Pilots'
p412
S'Still Remains'
p413
S'http://www.last.fm/music/Stone+Temple+Pilots/_/Still+Remains'
p414
S'1350412622'
p415
tp416
a(S'Soundgarden'
p417
S'4th of July'
p418
S'http://www.last.fm/music/Soundgarden/_/4th+of+July'
p419
S'1350412261'
p420
tp421
a(S'Soundgarden'
p422
S'Mailman'
p423
S'http://www.last.fm/music/Soundgarden/_/Mailman'
p424
S'1350411995'
p425
tp426
a(S'Velvet Revolver'
p427
S'You Got No Right'
p428
S'http://www.last.fm/music/Velvet+Revolver/_/You+Got+No+Right'
p429
S'1350411502'
p430
tp431
a(S'Alice in Chains'
p432
S'Over Now'
p433
S'http://www.last.fm/music/Alice+in+Chains/_/Over+Now'
p434
S'1350410852'
p435
tp436
a(S'Stone Temple Pilots'
p437
VHello it\u2019s Late
p438
S'http://www.last.fm/music/Stone+Temple+Pilots/_/Hello+it%E2%80%99s+Late'
p439
S'1350410590'
p440
tp441
a(S'Nirvana'
p442
V\U00010409\U0001044c \U00010430 \U00010411\U0001044a\U00010431\U0001044c
p443
S'http://www.last.fm/music/Nirvana/_/%F0%90%90%89%F0%90%91%8C+%F0%90%90%B0+%F0%90%90%91%F0%90%91%8A%F0%90%90%B1%F0%90%91%8C'
p444
S'1350410393'
p445
tp446
a(S'Talk Show'
p447
S'End of the World'
p448
S'http://www.last.fm/music/Talk+Show/_/End+of+the+World'
p449
S'1350410181'
p450
tp451
a(S'Soundgarden'
p452
S'Loud Love'
p453
S'http://www.last.fm/music/Soundgarden/_/Loud+Love'
p454
S'1350409884'
p455
tp456
a(S'Stone Temple Pilots'
p457
S'Hollywood Bitch'
p458
S'http://www.last.fm/music/Stone+Temple+Pilots/_/Hollywood+Bitch'
p459
S'1350409720'
p460
tp461
a(S'Live'
p462
S'Insomnia And The Hole In The Universe'
p463
S'http://www.last.fm/music/Live/_/Insomnia+And+The+Hole+In+The+Universe'
p464
S'1350409478'
p465
tp466
a(S'Live'
p467
S'The Dam At Otter Creek'
p468
S'http://www.last.fm/music/Live/_/The+Dam+At+Otter+Creek'
p469
S'1350409194'
p470
tp471
a(S'Army Of Anyone'
p472
S'Goodbye'
p473
S'http://www.last.fm/music/Army+Of+Anyone/_/Goodbye'
p474
S'1350408923'
p475
tp476
a(S'Live'
p477
S'Like I Do'
p478
S'http://www.last.fm/music/Live/_/Like+I+Do'
p479
S'1350408668'
p480
tp481
a(S'Live'
p482
S"Lakini's Juice"
p483
S'http://www.last.fm/music/Live/_/Lakini%27s+Juice'
p484
S'1350408369'
p485
tp486
a(S'L7'
p487
S'Monster'
p488
S'http://www.last.fm/music/L7/_/Monster'
p489
S'1350408158'
p490
tp491
a(S'Pearl Jam'
p492
S'Even Flow'
p493
S'http://www.last.fm/music/Pearl+Jam/_/Even+Flow'
p494
S'1350407280'
p495
tp496
a(S'Stone Temple Pilots'
p497
S'Seven Caged Tigers'
p498
S'http://www.last.fm/music/Stone+Temple+Pilots/_/Seven+Caged+Tigers'
p499
S'1350407023'
p500
tp501
a(S'Stone Temple Pilots'
p502
S'First Kiss on Mars'
p503
S'http://www.last.fm/music/Stone+Temple+Pilots/_/First+Kiss+on+Mars'
p504
S'1350406840'
p505
tp506
a(S'Pearl Jam'
p507
S'Why Go'
p508
S'http://www.last.fm/music/Pearl+Jam/_/Why+Go'
p509
S'1350398292'
p510
tp511
a(S'Soundgarden'
p512
S'Full On (Reprise)'
p513
S'http://www.last.fm/music/Soundgarden/_/Full+On+(Reprise)'
p514
S'1350398130'
p515
tp516
a(S'Soundgarden'
p517
S'Switch Opens'
p518
S'http://www.last.fm/music/Soundgarden/_/Switch+Opens'
p519
S'1350397274'
p520
tp521
a(S'Nirvana'
p522
S'About a Girl'
p523
S'http://www.last.fm/music/Nirvana/_/About+a+Girl'
p524
S'1350396271'
p525
tp526
a(S'Live'
p527
S'Deep Enough (Remix)'
p528
S'http://www.last.fm/music/Live/_/Deep+Enough+(Remix)'
p529
S'1350396080'
p530
tp531
a(S'Stone Temple Pilots'
p532
S'Wonderful'
p533
S'http://www.last.fm/music/Stone+Temple+Pilots/_/Wonderful'
p534
S'1350395852'
p535
tp536
a(S'Foo Fighters'
p537
S'Resolve'
p538
S'http://www.last.fm/music/Foo+Fighters/_/Resolve'
p539
S'1350395090'
p540
tp541
a(S'Stone Temple Pilots'
p542
S'Dumb Love'
p543
S'http://www.last.fm/music/Stone+Temple+Pilots/_/Dumb+Love'
p544
S'1350394919'
p545
tp546
a(S'Live'
p547
S'Waitress'
p548
S'http://www.last.fm/music/Live/_/Waitress'
p549
S'1350394750'
p550
tp551
a(S'Stone Temple Pilots'
p552
S'Lounge Fly'
p553
S'http://www.last.fm/music/Stone+Temple+Pilots/_/Lounge+Fly'
p554
S'1350394432'
p555
tp556
a(S'Stone Temple Pilots'
p557
S'Hickory Dichotomy'
p558
S'http://www.last.fm/music/Stone+Temple+Pilots/_/Hickory+Dichotomy'
p559
S'1350394229'
p560
tp561
a(S'Live'
p562
S"The Dolphin's Cry"
p563
S'http://www.last.fm/music/Live/_/The+Dolphin%27s+Cry'
p564
S'1350392272'
p565
tp566
a(S'Alice in Chains'
p567
S'Brother'
p568
S'http://www.last.fm/music/Alice+in+Chains/_/Brother'
p569
S'1350391945'
p570
tp571
a(S'Live'
p572
S'River Town'
p573
S'http://www.last.fm/music/Live/_/River+Town'
p574
S'1350391696'
p575
tp576
a(S'Alice in Chains'
p577
S'Rotten Apple'
p578
S'http://www.last.fm/music/Alice+in+Chains/_/Rotten+Apple'
p579
S'1350390600'
p580
tp581
a(S'Mother Love Bone'
p582
S'Stardog Champion'
p583
S'http://www.last.fm/music/Mother+Love+Bone/_/Stardog+Champion'
p584
S'1350390301'
p585
tp586
a(S'Velvet Revolver'
p587
S'Spectacle'
p588
S'http://www.last.fm/music/Velvet+Revolver/_/Spectacle'
p589
S'1350390080'
p590
tp591
a(S'Live'
p592
S'Heropsychodreamer'
p593
S'http://www.last.fm/music/Live/_/Heropsychodreamer'
p594
S'1350389771'
p595
tp596
a(S'Pearl Jam'
p597
S'Rearviewmirror'
p598
S'http://www.last.fm/music/Pearl+Jam/_/Rearviewmirror'
p599
S'1350389487'
p600
tp601
a(S'Nirvana'
p602
S'Heart-Shaped Box'
p603
S'http://www.last.fm/music/Nirvana/_/Heart-Shaped+Box'
p604
S'1350389206'
p605
tp606
a(S'The Gracious Few'
p607
S'Tredecim'
p608
S'http://www.last.fm/music/The+Gracious+Few/_/Tredecim'
p609
S'1350388950'
p610
tp611
a(S'Live'
p612
S'Sweet Release'
p613
S'http://www.last.fm/music/Live/_/Sweet+Release'
p614
S'1350388767'
p615
tp616
a(S'Stone Temple Pilots'
p617
S'Pruno'
p618
S'http://www.last.fm/music/Stone+Temple+Pilots/_/Pruno'
p619
S'1350388573'
p620
tp621
a(S"Jane's Addiction"
p622
S'Just Because'
p623
S'http://www.last.fm/music/Jane%27s+Addiction/_/Just+Because'
p624
S'1350388335'
p625
tp626
a(S'Audioslave'
p627
S'The Worm'
p628
S'http://www.last.fm/music/Audioslave/_/The+Worm'
p629
S'1350388097'
p630
tp631
a(S'Stone Temple Pilots'
p632
S'Unglued'
p633
S'http://www.last.fm/music/Stone+Temple+Pilots/_/Unglued'
p634
S'1350331330'
p635
tp636
a(S'Soundgarden'
p637
S'Rusty Cage'
p638
S'http://www.last.fm/music/Soundgarden/_/Rusty+Cage'
p639
S'1350331063'
p640
tp641
a(S'Corrosion of Conformity'
p642
S'Clean My Wounds'
p643
S'http://www.last.fm/music/Corrosion+of+Conformity/_/Clean+My+Wounds'
p644
S'1350330851'
p645
tp646
a(S'Stone Temple Pilots'
p647
S'Too Cool Queenie'
p648
S'http://www.last.fm/music/Stone+Temple+Pilots/_/Too+Cool+Queenie'
p649
S'1350330683'
p650
tp651
a(S'Jerry Cantrell'
p652
S'Satisfy'
p653
S'http://www.last.fm/music/Jerry+Cantrell/_/Satisfy'
p654
S'1350330469'
p655
tp656
a(S'Alice in Chains'
p657
S'I Stay Away'
p658
S'http://www.last.fm/music/Alice+in+Chains/_/I+Stay+Away'
p659
S'1350330214'
p660
tp661
a(S'Stone Temple Pilots'
p662
S'Crackerman'
p663
S'http://www.last.fm/music/Stone+Temple+Pilots/_/Crackerman'
p664
S'1350330020'
p665
tp666
a(S'Stone Temple Pilots'
p667
S'Plush'
p668
S'http://www.last.fm/music/Stone+Temple+Pilots/_/Plush'
p669
S'1350329706'
p670
tp671
a(S'Soundgarden'
p672
S'Superunknown'
p673
S'http://www.last.fm/music/Soundgarden/_/Superunknown'
p674
S'1350329400'
p675
tp676
a(S'Stone Temple Pilots'
p677
S"Trippin' on a Hole in a Paper Heart"
p678
S'http://www.last.fm/music/Stone+Temple+Pilots/_/Trippin%27+on+a+Hole+in+a+Paper+Heart'
p679
S'1350321430'
p680
tp681
a(S'Army Of Anyone'
p682
S'Father Figure'
p683
S'http://www.last.fm/music/Army+Of+Anyone/_/Father+Figure'
p684
S'1350321185'
p685
tp686
a(S'Nirvana'
p687
S'Frances Farmer Will Have Her Revenge On Seattle'
p688
S'http://www.last.fm/music/Nirvana/_/Frances+Farmer+Will+Have+Her+Revenge+On+Seattle'
p689
S'1350320936'
p690
tp691
a(S'Soundgarden'
p692
S'Limo Wreck'
p693
S'http://www.last.fm/music/Soundgarden/_/Limo+Wreck'
p694
S'1350320589'
p695
tp696
a(S'Nirvana'
p697
V\U00010400\U0001044c \U00010412\U0001044a\U0001042d\U0001044b
p698
S'http://www.last.fm/music/Nirvana/_/%F0%90%90%80%F0%90%91%8C+%F0%90%90%92%F0%90%91%8A%F0%90%90%AD%F0%90%91%8B'
p699
S'1350320334'
p700
tp701
a(S'Nirvana'
p702
S'Dumb'
p703
S'http://www.last.fm/music/Nirvana/_/Dumb'
p704
S'1350320182'
p705
tp706
a(S'Foo Fighters'
p707
S'Low'
p708
S'http://www.last.fm/music/Foo+Fighters/_/Low'
p709
S'1350319914'
p710
tp711
a(S'Soundgarden'
p712
S'Pretty Noose'
p713
S'http://www.last.fm/music/Soundgarden/_/Pretty+Noose'
p714
S'1350319662'
p715
tp716
a(S'Soundgarden'
p717
S'Overfloater'
p718
S'http://www.last.fm/music/Soundgarden/_/Overfloater'
p719
S'1350319353'
p720
tp721
a(S'Stone Temple Pilots'
p722
S'Silvergun Superman'
p723
S'http://www.last.fm/music/Stone+Temple+Pilots/_/Silvergun+Superman'
p724
S'1350319037'
p725
tp726
a(S'Foo Fighters'
p727
S'Times Like These'
p728
S'http://www.last.fm/music/Foo+Fighters/_/Times+Like+These'
p729
S'1350318771'
p730
tp731
a(S'Foo Fighters'
p732
S'Everlong'
p733
S'http://www.last.fm/music/Foo+Fighters/_/Everlong'
p734
S'1350312667'
p735
tp736
a(S'Alice in Chains'
p737
S'Check My Brain'
p738
S'http://www.last.fm/music/Alice+in+Chains/_/Check+My+Brain'
p739
S'1350312429'
p740
tp741
a(S'L7'
p742
S'Andres'
p743
S'http://www.last.fm/music/L7/_/Andres'
p744
S'1350312245'
p745
tp746
a(S'Pearl Jam'
p747
S'Do the Evolution'
p748
S'http://www.last.fm/music/Pearl+Jam/_/Do+the+Evolution'
p749
S'1350312011'
p750
tp751
a(S'Soundgarden'
p752
S'Fell on Black Days'
p753
S'http://www.last.fm/music/Soundgarden/_/Fell+on+Black+Days'
p754
S'1350311720'
p755
tp756
a(S'Alice in Chains'
p757
S'Heaven Beside You'
p758
S'http://www.last.fm/music/Alice+in+Chains/_/Heaven+Beside+You'
p759
S'1350310929'
p760
tp761
a(S'Pearl Jam'
p762
S'Corduroy'
p763
S'http://www.last.fm/music/Pearl+Jam/_/Corduroy'
p764
S'1350310620'
p765
tp766
a(S'Live'
p767
S'Forever May Not Be Long Enough'
p768
S'http://www.last.fm/music/Live/_/Forever+May+Not+Be+Long+Enough'
p769
S'1350310391'
p770
tp771
a(S'Jerry Cantrell'
p772
S'My Song'
p773
S'http://www.last.fm/music/Jerry+Cantrell/_/My+Song'
p774
S'1350310145'
p775
tp776
a(S'Stone Temple Pilots'
p777
S'Big Bang Baby'
p778
S'http://www.last.fm/music/Stone+Temple+Pilots/_/Big+Bang+Baby'
p779
S'1350309942'
p780
tp781
a(S'Jerry Cantrell'
p782
S'Keep The Light On'
p783
S'http://www.last.fm/music/Jerry+Cantrell/_/Keep+The+Light+On'
p784
S'1350309655'
p785
tp786
a(S'Pearl Jam'
p787
S'Animal'
p788
S'http://www.last.fm/music/Pearl+Jam/_/Animal'
p789
S'1350309485'
p790
tp791
a(S'Mother Love Bone'
p792
S'Mindshaker Meltdown'
p793
S'http://www.last.fm/music/Mother+Love+Bone/_/Mindshaker+Meltdown'
p794
S'1350309234'
p795
tp796
a(S'Stone Temple Pilots'
p797
S'Sour Girl'
p798
S'http://www.last.fm/music/Stone+Temple+Pilots/_/Sour+Girl'
p799
S'1350308977'
p800
tp801
a(S'Live'
p802
S'Stage'
p803
S'http://www.last.fm/music/Live/_/Stage'
p804
S'1350308669'
p805
tp806
a(S'Talk Show'
p807
S'So Long'
p808
S'http://www.last.fm/music/Talk+Show/_/So+Long'
p809
S'1350308451'
p810
tp811
a(S'Nirvana'
p812
V\U00010412\U00010449\U00010429\U0001043c
p813
S'http://www.last.fm/music/Nirvana/_/%F0%90%90%92%F0%90%91%89%F0%90%90%A9%F0%90%90%BC'
p814
S'1350308268'
p815
tp816
a(S'Alice in Chains'
p817
S'Lesson Learned'
p818
S'http://www.last.fm/music/Alice+in+Chains/_/Lesson+Learned'
p819
S'1350308011'
p820
tp821
a(S'Stone Temple Pilots'
p822
S'I Got You'
p823
S'http://www.last.fm/music/Stone+Temple+Pilots/_/I+Got+You'
p824
S'1350307030'
p825
tp826
a(S'Alice in Chains'
p827
S'Bleed the Freak'
p828
S'http://www.last.fm/music/Alice+in+Chains/_/Bleed+the+Freak'
p829
S'1350306788'
p830
tp831
a(S'Stone Temple Pilots'
p832
S'Transmissions From a Lonely Room'
p833
S'http://www.last.fm/music/Stone+Temple+Pilots/_/Transmissions+From+a+Lonely+Room'
p834
S'1350306593'
p835
tp836
a(S'L7'
p837
S'Andres'
p838
S'http://www.last.fm/music/L7/_/Andres'
p839
S'1349974366'
p840
tp841
a(S'Live'
p842
S'Insomnia And The Hole In The Universe'
p843
S'http://www.last.fm/music/Live/_/Insomnia+And+The+Hole+In+The+Universe'
p844
S'1349974125'
p845
tp846
a(S'Soundgarden'
p847
S'4th of July'
p848
S'http://www.last.fm/music/Soundgarden/_/4th+of+July'
p849
S'1349973815'
p850
tp851
a(S'Soundgarden'
p852
S'Mailman'
p853
S'http://www.last.fm/music/Soundgarden/_/Mailman'
p854
S'1349973550'
p855
tp856
a(S'Soundgarden'
p857
S'Let Me Drown'
p858
S'http://www.last.fm/music/Soundgarden/_/Let+Me+Drown'
p859
S'1349971596'
p860
tp861
a(S'Foo Fighters'
p862
S'Headwires'
p863
S'http://www.last.fm/music/Foo+Fighters/_/Headwires'
p864
S'1349971319'
p865
tp866
a(S'Stone Temple Pilots'
p867
S'Lounge Fly'
p868
S'http://www.last.fm/music/Stone+Temple+Pilots/_/Lounge+Fly'
p869
S'1349971000'
p870
tp871
a(S'Alice in Chains'
p872
S'Over Now'
p873
S'http://www.last.fm/music/Alice+in+Chains/_/Over+Now'
p874
S'1349970576'
p875
tp876
a(S'Stone Temple Pilots'
p877
S'Between the Lines'
p878
S'http://www.last.fm/music/Stone+Temple+Pilots/_/Between+the+Lines'
p879
S'1349970405'
p880
tp881
a(S'Mother Love Bone'
p882
S'Gentle Groove'
p883
S'http://www.last.fm/music/Mother+Love+Bone/_/Gentle+Groove'
p884
S'1349970161'
p885
tp886
a(S'Live'
p887
S'Mirror Song'
p888
S'http://www.last.fm/music/Live/_/Mirror+Song'
p889
S'1349965727'
p890
tp891
a(S'Nirvana'
p892
S'Plateau'
p893
S'http://www.last.fm/music/Nirvana/_/Plateau'
p894
S'1349965524'
p895
tp896
a(S'Temple of the Dog'
p897
S'Pushin Forward Back'
p898
S'http://www.last.fm/music/Temple+of+the+Dog/_/Pushin+Forward+Back'
p899
S'1349965300'
p900
tp901
a(S'Stone Temple Pilots'
p902
VBi\u2010Polar Bear
p903
S'http://www.last.fm/music/Stone+Temple+Pilots/_/Bi%E2%80%90Polar+Bear'
p904
S'1349964995'
p905
tp906
a(S'Jerry Cantrell'
p907
S'Keep The Light On'
p908
S'http://www.last.fm/music/Jerry+Cantrell/_/Keep+The+Light+On'
p909
S'1349964708'
p910
tp911
a(S'Pearl Jam'
p912
S'Black'
p913
S'http://www.last.fm/music/Pearl+Jam/_/Black'
p914
S'1349964368'
p915
tp916
a(S'Pearl Jam'
p917
S'Do the Evolution'
p918
S'http://www.last.fm/music/Pearl+Jam/_/Do+the+Evolution'
p919
S'1349964134'
p920
tp921
a(S'Live'
p922
S'Waitress'
p923
S'http://www.last.fm/music/Live/_/Waitress'
p924
S'1349963889'
p925
tp926
a(S'Pearl Jam'
p927
S'Even Flow'
p928
S'http://www.last.fm/music/Pearl+Jam/_/Even+Flow'
p929
S'1349963595'
p930
tp931
a(S'Audioslave'
p932
S'The Worm'
p933
S'http://www.last.fm/music/Audioslave/_/The+Worm'
p934
S'1349963357'
p935
tp936
a(S'Talk Show'
p937
S'Hide'
p938
S'http://www.last.fm/music/Talk+Show/_/Hide'
p939
S'1349961911'
p940
tp941
a(S'Live'
p942
S"Lakini's Juice"
p943
S'http://www.last.fm/music/Live/_/Lakini%27s+Juice'
p944
S'1349961612'
p945
tp946
a(S'Temple of the Dog'
p947
S'Reach Down'
p948
S'http://www.last.fm/music/Temple+of+the+Dog/_/Reach+Down'
p949
S'1349960940'
p950
tp951
a(S'Jerry Cantrell'
p952
S'Satisfy'
p953
S'http://www.last.fm/music/Jerry+Cantrell/_/Satisfy'
p954
S'1349960725'
p955
tp956
a(S'Alice in Chains'
p957
S'Sea of Sorrow'
p958
S'http://www.last.fm/music/Alice+in+Chains/_/Sea+of+Sorrow'
p959
S'1349960375'
p960
tp961
a(S'Soundgarden'
p962
S'Limo Wreck'
p963
S'http://www.last.fm/music/Soundgarden/_/Limo+Wreck'
p964
S'1349959611'
p965
tp966
a(S'Alice in Chains'
p967
S'Bleed the Freak'
p968
S'http://www.last.fm/music/Alice+in+Chains/_/Bleed+the+Freak'
p969
S'1349959369'
p970
tp971
a(S'Stone Temple Pilots'
p972
S'Wet My Bed'
p973
S'http://www.last.fm/music/Stone+Temple+Pilots/_/Wet+My+Bed'
p974
S'1349959272'
p975
tp976
a(S'Stone Temple Pilots'
p977
S'Hollywood Bitch'
p978
S'http://www.last.fm/music/Stone+Temple+Pilots/_/Hollywood+Bitch'
p979
S'1349959108'
p980
tp981
a(S'Stone Temple Pilots'
p982
S'Hickory Dichotomy'
p983
S'http://www.last.fm/music/Stone+Temple+Pilots/_/Hickory+Dichotomy'
p984
S'1349958906'
p985
tp986
a(S'Stone Temple Pilots'
p987
S'Dumb Love'
p988
S'http://www.last.fm/music/Stone+Temple+Pilots/_/Dumb+Love'
p989
S'1349958735'
p990
tp991
a(S'Velvet Revolver'
p992
S'Just Sixteen'
p993
S'http://www.last.fm/music/Velvet+Revolver/_/Just+Sixteen'
p994
S'1349958496'
p995
tp996
a(S'Live'
p997
S'Top'
p998
S'http://www.last.fm/music/Live/_/Top'
p999
S'1349958334'
p1000
tp1001
a.