(lp1
(S'Jamiroquai'
p2
S'Virtual Insanity'
p3
S'http://www.last.fm/music/Jamiroquai/_/Virtual+Insanity'
p4
S'1233952065'
p5
tp6
a(S'Jamiroquai'
p7
S'Cosmic Girl'
p8
S'http://www.last.fm/music/Jamiroquai/_/Cosmic+Girl'
p9
S'1233951821'
p10
tp11
a(S'Jamiroquai'
p12
S'Electric Mistress'
p13
S'http://www.last.fm/music/Jamiroquai/_/Electric+Mistress'
p14
S'1233951587'
p15
tp16
a(S'Jamiroquai'
p17
S'Dynamite'
p18
S'http://www.last.fm/music/Jamiroquai/_/Dynamite'
p19
S'1233949759'
p20
tp21
a(S'Jamiroquai'
p22
S'Corner of the Earth'
p23
S'http://www.last.fm/music/Jamiroquai/_/Corner+of+the+Earth'
p24
S'1233921258'
p25
tp26
a(S'Jamiroquai'
p27
S'Little L'
p28
S'http://www.last.fm/music/Jamiroquai/_/Little+L'
p29
S'1233920960'
p30
tp31
a(S'Jamiroquai'
p32
S'Picture of My Life'
p33
S'http://www.last.fm/music/Jamiroquai/_/Picture+of+My+Life'
p34
S'1233920721'
p35
tp36
a(S'Jamiroquai'
p37
S'High Times'
p38
S'http://www.last.fm/music/Jamiroquai/_/High+Times'
p39
S'1233920362'
p40
tp41
a(S'Jamiroquai'
p42
S'Hot Tequila Brown'
p43
S'http://www.last.fm/music/Jamiroquai/_/Hot+Tequila+Brown'
p44
S'1233920087'
p45
tp46
a(S'Jamiroquai'
p47
S'Seven Days in Sunny June'
p48
S'http://www.last.fm/music/Jamiroquai/_/Seven+Days+in+Sunny+June'
p49
S'1233919849'
p50
tp51
a(S'Jamiroquai'
p52
S'Everyday'
p53
S'http://www.last.fm/music/Jamiroquai/_/Everyday'
p54
S'1233919581'
p55
tp56
a(S'Jamiroquai'
p57
S'Alright'
p58
S'http://www.last.fm/music/Jamiroquai/_/Alright'
p59
S'1233919315'
p60
tp61
a(S'Jamiroquai'
p62
S'You Give Me Something'
p63
S'http://www.last.fm/music/Jamiroquai/_/You+Give+Me+Something'
p64
S'1233848884'
p65
tp66
a(S'Jamiroquai'
p67
S'Starchild'
p68
S'http://www.last.fm/music/Jamiroquai/_/Starchild'
p69
S'1233848573'
p70
tp71
a(S'Jamiroquai'
p72
S'Little L'
p73
S'http://www.last.fm/music/Jamiroquai/_/Little+L'
p74
S'1233842570'
p75
tp76
a(S'Jamiroquai'
p77
S'Love Foolosophy'
p78
S'http://www.last.fm/music/Jamiroquai/_/Love+Foolosophy'
p79
S'1233842343'
p80
tp81
a(S'Jamiroquai'
p82
S'High Times'
p83
S'http://www.last.fm/music/Jamiroquai/_/High+Times'
p84
S'1233841984'
p85
tp86
a(S'Jamiroquai'
p87
S'Main Vein'
p88
S'http://www.last.fm/music/Jamiroquai/_/Main+Vein'
p89
S'1233841678'
p90
tp91
a(S'Jamiroquai'
p92
S'Everyday'
p93
S'http://www.last.fm/music/Jamiroquai/_/Everyday'
p94
S'1233834621'
p95
tp96
a(S'Jamiroquai'
p97
S'Black Crow'
p98
S'http://www.last.fm/music/Jamiroquai/_/Black+Crow'
p99
S'1233834376'
p100
tp101
a(S'Jamiroquai'
p102
S'Canned Head (7"Edit)'
p103
S'http://www.last.fm/music/Jamiroquai/_/Canned+Head+(7%22Edit)'
p104
S'1233834151'
p105
tp106
a(S'Jamiroquai'
p107
S'Love Foolosophy'
p108
S'http://www.last.fm/music/Jamiroquai/_/Love+Foolosophy'
p109
S'1233833923'
p110
tp111
a(S'Jamiroquai'
p112
S'Black Crow'
p113
S'http://www.last.fm/music/Jamiroquai/_/Black+Crow'
p114
S'1233833679'
p115
tp116
a(S'Jamiroquai'
p117
S'Canned Head (7"Edit)'
p118
S'http://www.last.fm/music/Jamiroquai/_/Canned+Head+(7%22Edit)'
p119
S'1233833454'
p120
tp121
a(S'Jamiroquai'
p122
S'Main Vein'
p123
S'http://www.last.fm/music/Jamiroquai/_/Main+Vein'
p124
S'1233833148'
p125
tp126
a(S'Jamiroquai'
p127
S'Starchild'
p128
S'http://www.last.fm/music/Jamiroquai/_/Starchild'
p129
S'1233832837'
p130
tp131
a(S'Jamiroquai'
p132
S'Talulah'
p133
S'http://www.last.fm/music/Jamiroquai/_/Talulah'
p134
S'1233832473'
p135
tp136
a(S'Jamiroquai'
p137
S'You Give Me Something'
p138
S'http://www.last.fm/music/Jamiroquai/_/You+Give+Me+Something'
p139
S'1233832268'
p140
tp141
a(S'Jamiroquai'
p142
S'Corner of the Earth'
p143
S'http://www.last.fm/music/Jamiroquai/_/Corner+of+the+Earth'
p144
S'1233831925'
p145
tp146
a(S'Jamiroquai'
p147
S'Alright'
p148
S'http://www.last.fm/music/Jamiroquai/_/Alright'
p149
S'1233831660'
p150
tp151
a(S'Jamiroquai'
p152
S'Everyday'
p153
S'http://www.last.fm/music/Jamiroquai/_/Everyday'
p154
S'1233831391'
p155
tp156
a(S'Jamiroquai'
p157
S'Picture of My Life'
p158
S'http://www.last.fm/music/Jamiroquai/_/Picture+of+My+Life'
p159
S'1233831163'
p160
tp161
a(S'Jamiroquai'
p162
S'High Times'
p163
S'http://www.last.fm/music/Jamiroquai/_/High+Times'
p164
S'1233830804'
p165
tp166
a(S'Jamiroquai'
p167
S'Hot Tequila Brown'
p168
S'http://www.last.fm/music/Jamiroquai/_/Hot+Tequila+Brown'
p169
S'1233830529'
p170
tp171
a(S'Jamiroquai'
p172
S'Electric Mistress'
p173
S'http://www.last.fm/music/Jamiroquai/_/Electric+Mistress'
p174
S'1233830295'
p175
tp176
a(S'Jamiroquai'
p177
S'Virtual Insanity'
p178
S'http://www.last.fm/music/Jamiroquai/_/Virtual+Insanity'
p179
S'1233829954'
p180
tp181
a(S'Jamiroquai'
p182
S'Seven Days in Sunny June'
p183
S'http://www.last.fm/music/Jamiroquai/_/Seven+Days+in+Sunny+June'
p184
S'1233829716'
p185
tp186
a(S'Jamiroquai'
p187
S'Little L'
p188
S'http://www.last.fm/music/Jamiroquai/_/Little+L'
p189
S'1233829419'
p190
tp191
a(S'Jamiroquai'
p192
S'Cosmic Girl'
p193
S'http://www.last.fm/music/Jamiroquai/_/Cosmic+Girl'
p194
S'1233829175'
p195
tp196
a(S'Jamiroquai'
p197
S'Dynamite'
p198
S'http://www.last.fm/music/Jamiroquai/_/Dynamite'
p199
S'1233828317'
p200
tp201
a(S'Jamiroquai'
p202
S'Little L'
p203
S'http://www.last.fm/music/Jamiroquai/_/Little+L'
p204
S'1233780212'
p205
tp206
a(S'Jamiroquai'
p207
S'Picture of My Life'
p208
S'http://www.last.fm/music/Jamiroquai/_/Picture+of+My+Life'
p209
S'1233778495'
p210
tp211
a(S'Jamiroquai'
p212
S'Electric Mistress'
p213
S'http://www.last.fm/music/Jamiroquai/_/Electric+Mistress'
p214
S'1233778220'
p215
tp216
a(S'Jamiroquai'
p217
S'Starchild'
p218
S'http://www.last.fm/music/Jamiroquai/_/Starchild'
p219
S'1233777909'
p220
tp221
a(S'Jamiroquai'
p222
S'Seven Days in Sunny June'
p223
S'http://www.last.fm/music/Jamiroquai/_/Seven+Days+in+Sunny+June'
p224
S'1233777589'
p225
tp226
a(S'Jamiroquai'
p227
S'Everyday'
p228
S'http://www.last.fm/music/Jamiroquai/_/Everyday'
p229
S'1233777320'
p230
tp231
a(S'Jamiroquai'
p232
S'Cosmic Girl'
p233
S'http://www.last.fm/music/Jamiroquai/_/Cosmic+Girl'
p234
S'1233777077'
p235
tp236
a(S'Jamiroquai'
p237
S'You Give Me Something'
p238
S'http://www.last.fm/music/Jamiroquai/_/You+Give+Me+Something'
p239
S'1233776871'
p240
tp241
a(S'Jamiroquai'
p242
S'Main Vein'
p243
S'http://www.last.fm/music/Jamiroquai/_/Main+Vein'
p244
S'1233776566'
p245
tp246
a(S'Jamiroquai'
p247
S'Dynamite'
p248
S'http://www.last.fm/music/Jamiroquai/_/Dynamite'
p249
S'1233776271'
p250
tp251
a(S'Megadeth'
p252
S'Addicted to Chaos'
p253
S'http://www.last.fm/music/Megadeth/_/Addicted+to+Chaos'
p254
S'1233775898'
p255
tp256
a(S'Megadeth'
p257
S"Crush 'em"
p258
S'http://www.last.fm/music/Megadeth/_/Crush+%27em'
p259
S'1233765305'
p260
tp261
a(S'Pantera'
p262
S'Shattered'
p263
S'http://www.last.fm/music/Pantera/_/Shattered'
p264
S'1233765103'
p265
tp266
a(S'Metallica'
p267
S'The House Jack Built'
p268
S'http://www.last.fm/music/Metallica/_/The+House+Jack+Built'
p269
S'1233764243'
p270
tp271
a(S'Megadeth'
p272
S'Symphony of Destruction'
p273
S'http://www.last.fm/music/Megadeth/_/Symphony+of+Destruction'
p274
S'1233761256'
p275
tp276
a(S'Diamond Head'
p277
S'Nothing to Lose'
p278
S'http://www.last.fm/music/Diamond+Head/_/Nothing+to+Lose'
p279
S'1233760984'
p280
tp281
a(S'Megadeth'
p282
S'Wanderlust'
p283
S'http://www.last.fm/music/Megadeth/_/Wanderlust'
p284
S'1233760635'
p285
tp286
a(S'Megadeth'
p287
S'Killing Is My Business... and Business Is Good!'
p288
S'http://www.last.fm/music/Megadeth/_/Killing+Is+My+Business...+and+Business+Is+Good!'
p289
S'1233759992'
p290
tp291
a(S'Jerry Cantrell'
p292
S'Keep The Light On'
p293
S'http://www.last.fm/music/Jerry+Cantrell/_/Keep+The+Light+On'
p294
S'1233759705'
p295
tp296
a(S'Metallica'
p297
S'2 X 4'
p298
S'http://www.last.fm/music/Metallica/_/2+X+4'
p299
S'1233758849'
p300
tp301
a(S'Megadeth'
p302
S'Breadline'
p303
S'http://www.last.fm/music/Megadeth/_/Breadline'
p304
S'1233758577'
p305
tp306
a(S'AC/DC'
p307
S'Decibel'
p308
S'http://www.last.fm/music/AC%2FDC/_/Decibel'
p309
S'1233758363'
p310
tp311
a(S'Metallica'
p312
S"Ain't My Bitch"
p313
S'http://www.last.fm/music/Metallica/_/Ain%27t+My+Bitch'
p314
S'1233758057'
p315
tp316
a(S'Pantera'
p317
S'Fucking Hostile'
p318
S'http://www.last.fm/music/Pantera/_/Fucking+Hostile'
p319
S'1233755940'
p320
tp321
a(S'Megadeth'
p322
S'Elysian Fields'
p323
S'http://www.last.fm/music/Megadeth/_/Elysian+Fields'
p324
S'1233755696'
p325
tp326
a(S'Judas Priest'
p327
S'Out in the Cold'
p328
S'http://www.last.fm/music/Judas+Priest/_/Out+in+the+Cold'
p329
S'1233755283'
p330
tp331
a(S'AC/DC'
p332
S'Rock N Roll Train'
p333
S'http://www.last.fm/music/AC%2FDC/_/Rock+N+Roll+Train'
p334
S'1233755022'
p335
tp336
a(S'Pantera'
p337
S'Mouth for War'
p338
S'http://www.last.fm/music/Pantera/_/Mouth+for+War'
p339
S'1233754662'
p340
tp341
a(S'Jerry Cantrell'
p342
S'Between'
p343
S'http://www.last.fm/music/Jerry+Cantrell/_/Between'
p344
S'1233754445'
p345
tp346
a(S'Megadeth'
p347
S'Sleepwalker'
p348
S'http://www.last.fm/music/Megadeth/_/Sleepwalker'
p349
S'1233754091'
p350
tp351
a(S'Metallica'
p352
S'Cure'
p353
S'http://www.last.fm/music/Metallica/_/Cure'
p354
S'1233753794'
p355
tp356
a(S'Pantera'
p357
S'Cemetery Gates'
p358
S'http://www.last.fm/music/Pantera/_/Cemetery+Gates'
p359
S'1233753371'
p360
tp361
a(S'Jerry Cantrell'
p362
S'Dickeye'
p363
S'http://www.last.fm/music/Jerry+Cantrell/_/Dickeye'
p364
S'1233753068'
p365
tp366
a(S'Megadeth'
p367
S'Diadems'
p368
S'http://www.last.fm/music/Megadeth/_/Diadems'
p369
S'1233752833'
p370
tp371
a(S'Megadeth'
p372
S'The Disintegrators'
p373
S'http://www.last.fm/music/Megadeth/_/The+Disintegrators'
p374
S'1233752648'
p375
tp376
a(S'Metallica'
p377
S'The Outlaw Torn'
p378
S'http://www.last.fm/music/Metallica/_/The+Outlaw+Torn'
p379
S'1233751923'
p380
tp381
a(S'AC/DC'
p382
S'War Machine'
p383
S'http://www.last.fm/music/AC%2FDC/_/War+Machine'
p384
S'1233751734'
p385
tp386
a(S'AC/DC'
p387
S'Stormy May Day'
p388
S'http://www.last.fm/music/AC%2FDC/_/Stormy+May+Day'
p389
S'1233751543'
p390
tp391
a(S'Megadeth'
p392
S"Crush 'em"
p393
S'http://www.last.fm/music/Megadeth/_/Crush+%27em'
p394
S'1233751249'
p395
tp396
a(S'Pantera'
p397
S'Shattered'
p398
S'http://www.last.fm/music/Pantera/_/Shattered'
p399
S'1233751047'
p400
tp401
a(S'AC/DC'
p402
S"Spoilin' For A Fight"
p403
S'http://www.last.fm/music/AC%2FDC/_/Spoilin%27+For+A+Fight'
p404
S'1233750850'
p405
tp406
a(S'Corrosion of Conformity'
p407
S'Clean My Wounds'
p408
S'http://www.last.fm/music/Corrosion+of+Conformity/_/Clean+My+Wounds'
p409
S'1233748738'
p410
tp411
a(S'Jerry Cantrell'
p412
S'Hurt A Long Time'
p413
S'http://www.last.fm/music/Jerry+Cantrell/_/Hurt+A+Long+Time'
p414
S'1233748398'
p415
tp416
a(S'Diamond Head'
p417
S'Calling Out'
p418
S'http://www.last.fm/music/Diamond+Head/_/Calling+Out'
p419
S'1233748170'
p420
tp421
a(S'AC/DC'
p422
S'Money Made'
p423
S'http://www.last.fm/music/AC%2FDC/_/Money+Made'
p424
S'1233747914'
p425
tp426
a(S'Alice Cooper'
p427
S'Poison'
p428
S'http://www.last.fm/music/Alice+Cooper/_/Poison'
p429
S'1233747645'
p430
tp431
a(S'Rage Against the Machine'
p432
S'Bullet In The Head (Live)'
p433
S'http://www.last.fm/music/Rage+Against+the+Machine/_/Bullet+In+The+Head+(Live)'
p434
S'1233747315'
p435
tp436
a(S'Alice Cooper'
p437
S'Bed of Nails'
p438
S'http://www.last.fm/music/Alice+Cooper/_/Bed+of+Nails'
p439
S'1233747055'
p440
tp441
a(S'Jerry Cantrell'
p442
S'Settling Down'
p443
S'http://www.last.fm/music/Jerry+Cantrell/_/Settling+Down'
p444
S'1233746685'
p445
tp446
a(S'Metallica'
p447
S'King Nothing'
p448
S'http://www.last.fm/music/Metallica/_/King+Nothing'
p449
S'1233746355'
p450
tp451
a(S'Megadeth'
p452
S'A Secret Place'
p453
S'http://www.last.fm/music/Megadeth/_/A+Secret+Place'
p454
S'1233746030'
p455
tp456
a(S'Alice Cooper'
p457
S"I'm Your Gun"
p458
S'http://www.last.fm/music/Alice+Cooper/_/I%27m+Your+Gun'
p459
S'1233745707'
p460
tp461
a(S'Megadeth'
p462
S'Addicted to Chaos'
p463
S'http://www.last.fm/music/Megadeth/_/Addicted+to+Chaos'
p464
S'1233745381'
p465
tp466
a(S'Judas Priest'
p467
S'Out in the Cold'
p468
S'http://www.last.fm/music/Judas+Priest/_/Out+in+the+Cold'
p469
S'1233691841'
p470
tp471
a(S'Jerry Cantrell'
p472
S'Hurt A Long Time'
p473
S'http://www.last.fm/music/Jerry+Cantrell/_/Hurt+A+Long+Time'
p474
S'1233691500'
p475
tp476
a(S'Alice Cooper'
p477
S'Bed of Nails'
p478
S'http://www.last.fm/music/Alice+Cooper/_/Bed+of+Nails'
p479
S'1233691240'
p480
tp481
a(S'AC/DC'
p482
S"Spoilin' For A Fight"
p483
S'http://www.last.fm/music/AC%2FDC/_/Spoilin%27+For+A+Fight'
p484
S'1233691043'
p485
tp486
a(S'Megadeth'
p487
S"Crush 'em"
p488
S'http://www.last.fm/music/Megadeth/_/Crush+%27em'
p489
S'1233690749'
p490
tp491
a(S'Alice Cooper'
p492
S'Poison'
p493
S'http://www.last.fm/music/Alice+Cooper/_/Poison'
p494
S'1233690479'
p495
tp496
a(S'Megadeth'
p497
S'Diadems'
p498
S'http://www.last.fm/music/Megadeth/_/Diadems'
p499
S'1233690243'
p500
tp501
a(S'Metallica'
p502
S'2 X 4'
p503
S'http://www.last.fm/music/Metallica/_/2+X+4'
p504
S'1233681319'
p505
tp506
a(S'Rage Against the Machine'
p507
S'Bullet In The Head (Live)'
p508
S'http://www.last.fm/music/Rage+Against+the+Machine/_/Bullet+In+The+Head+(Live)'
p509
S'1233679678'
p510
tp511
a(S'Diamond Head'
p512
S'Nothing to Lose'
p513
S'http://www.last.fm/music/Diamond+Head/_/Nothing+to+Lose'
p514
S'1233679407'
p515
tp516
a(S'AC/DC'
p517
S'War Machine'
p518
S'http://www.last.fm/music/AC%2FDC/_/War+Machine'
p519
S'1233679217'
p520
tp521
a(S'Metallica'
p522
S'The House Jack Built'
p523
S'http://www.last.fm/music/Metallica/_/The+House+Jack+Built'
p524
S'1233678816'
p525
tp526
a(S'Megadeth'
p527
S'Addicted to Chaos'
p528
S'http://www.last.fm/music/Megadeth/_/Addicted+to+Chaos'
p529
S'1233678261'
p530
tp531
a(S'Jamiroquai'
p532
S'Starchild'
p533
S'http://www.last.fm/music/Jamiroquai/_/Starchild'
p534
S'1233662051'
p535
tp536
a(S'Jamiroquai'
p537
S'Corner of the Earth'
p538
S'http://www.last.fm/music/Jamiroquai/_/Corner+of+the+Earth'
p539
S'1233661708'
p540
tp541
a(S'Jamiroquai'
p542
S'Virtual Insanity'
p543
S'http://www.last.fm/music/Jamiroquai/_/Virtual+Insanity'
p544
S'1233661367'
p545
tp546
a(S'Jamiroquai'
p547
S'Little L'
p548
S'http://www.last.fm/music/Jamiroquai/_/Little+L'
p549
S'1233661070'
p550
tp551
a(S'Jamiroquai'
p552
S'Electric Mistress'
p553
S'http://www.last.fm/music/Jamiroquai/_/Electric+Mistress'
p554
S'1233660836'
p555
tp556
a(S'Jamiroquai'
p557
S'Love Foolosophy'
p558
S'http://www.last.fm/music/Jamiroquai/_/Love+Foolosophy'
p559
S'1233660608'
p560
tp561
a(S'Jamiroquai'
p562
S'Everyday'
p563
S'http://www.last.fm/music/Jamiroquai/_/Everyday'
p564
S'1233660340'
p565
tp566
a(S'Jamiroquai'
p567
S'Black Crow'
p568
S'http://www.last.fm/music/Jamiroquai/_/Black+Crow'
p569
S'1233660095'
p570
tp571
a(S'Jamiroquai'
p572
S'High Times'
p573
S'http://www.last.fm/music/Jamiroquai/_/High+Times'
p574
S'1233612478'
p575
tp576
a(S'Jamiroquai'
p577
S'Cosmic Girl'
p578
S'http://www.last.fm/music/Jamiroquai/_/Cosmic+Girl'
p579
S'1233612234'
p580
tp581
a(S'Jamiroquai'
p582
S'You Give Me Something'
p583
S'http://www.last.fm/music/Jamiroquai/_/You+Give+Me+Something'
p584
S'1233612029'
p585
tp586
a(S'Jamiroquai'
p587
S'Picture of My Life'
p588
S'http://www.last.fm/music/Jamiroquai/_/Picture+of+My+Life'
p589
S'1233611783'
p590
tp591
a(S'Jamiroquai'
p592
S'Main Vein'
p593
S'http://www.last.fm/music/Jamiroquai/_/Main+Vein'
p594
S'1233611478'
p595
tp596
a(S'Jamiroquai'
p597
S'Starchild'
p598
S'http://www.last.fm/music/Jamiroquai/_/Starchild'
p599
S'1233611167'
p600
tp601
a(S'Jamiroquai'
p602
S'Love Foolosophy'
p603
S'http://www.last.fm/music/Jamiroquai/_/Love+Foolosophy'
p604
S'1233610939'
p605
tp606
a(S'Jamiroquai'
p607
S'Everyday'
p608
S'http://www.last.fm/music/Jamiroquai/_/Everyday'
p609
S'1233610671'
p610
tp611
a(S'Jamiroquai'
p612
S'Electric Mistress'
p613
S'http://www.last.fm/music/Jamiroquai/_/Electric+Mistress'
p614
S'1233610437'
p615
tp616
a(S'Jamiroquai'
p617
S'Alright'
p618
S'http://www.last.fm/music/Jamiroquai/_/Alright'
p619
S'1233610171'
p620
tp621
a(S'Jamiroquai'
p622
S'Hot Tequila Brown'
p623
S'http://www.last.fm/music/Jamiroquai/_/Hot+Tequila+Brown'
p624
S'1233609896'
p625
tp626
a(S'Jamiroquai'
p627
S'Little L'
p628
S'http://www.last.fm/music/Jamiroquai/_/Little+L'
p629
S'1233609599'
p630
tp631
a(S'Jamiroquai'
p632
S'Dynamite'
p633
S'http://www.last.fm/music/Jamiroquai/_/Dynamite'
p634
S'1233609304'
p635
tp636
a(S'Jamiroquai'
p637
S'Starchild'
p638
S'http://www.last.fm/music/Jamiroquai/_/Starchild'
p639
S'1233607455'
p640
tp641
a(S'Jamiroquai'
p642
S'Love Foolosophy'
p643
S'http://www.last.fm/music/Jamiroquai/_/Love+Foolosophy'
p644
S'1233607227'
p645
tp646
a(S'Jamiroquai'
p647
S'Everyday'
p648
S'http://www.last.fm/music/Jamiroquai/_/Everyday'
p649
S'1233606958'
p650
tp651
a(S'Jamiroquai'
p652
S'Electric Mistress'
p653
S'http://www.last.fm/music/Jamiroquai/_/Electric+Mistress'
p654
S'1233606725'
p655
tp656
a(S'Jamiroquai'
p657
S'Alright'
p658
S'http://www.last.fm/music/Jamiroquai/_/Alright'
p659
S'1233606459'
p660
tp661
a(S'Jamiroquai'
p662
S'Hot Tequila Brown'
p663
S'http://www.last.fm/music/Jamiroquai/_/Hot+Tequila+Brown'
p664
S'1233606184'
p665
tp666
a(S'Jamiroquai'
p667
S'Little L'
p668
S'http://www.last.fm/music/Jamiroquai/_/Little+L'
p669
S'1233605887'
p670
tp671
a(S'Jamiroquai'
p672
S'Dynamite'
p673
S'http://www.last.fm/music/Jamiroquai/_/Dynamite'
p674
S'1233605592'
p675
tp676
a(S'Jamiroquai'
p677
S'Virtual Insanity'
p678
S'http://www.last.fm/music/Jamiroquai/_/Virtual+Insanity'
p679
S'1233605251'
p680
tp681
a(S'Jamiroquai'
p682
S'Starchild'
p683
S'http://www.last.fm/music/Jamiroquai/_/Starchild'
p684
S'1233604940'
p685
tp686
a(S'Jamiroquai'
p687
S'Seven Days in Sunny June'
p688
S'http://www.last.fm/music/Jamiroquai/_/Seven+Days+in+Sunny+June'
p689
S'1233604702'
p690
tp691
a(S'Jamiroquai'
p692
S'Picture of My Life'
p693
S'http://www.last.fm/music/Jamiroquai/_/Picture+of+My+Life'
p694
S'1233604322'
p695
tp696
a(S'Jamiroquai'
p697
S'Everyday'
p698
S'http://www.last.fm/music/Jamiroquai/_/Everyday'
p699
S'1233604054'
p700
tp701
a(S'Jamiroquai'
p702
S'Love Foolosophy'
p703
S'http://www.last.fm/music/Jamiroquai/_/Love+Foolosophy'
p704
S'1233603826'
p705
tp706
a(S'Jamiroquai'
p707
S'Little L'
p708
S'http://www.last.fm/music/Jamiroquai/_/Little+L'
p709
S'1233603528'
p710
tp711
a(S'Jamiroquai'
p712
S'Main Vein'
p713
S'http://www.last.fm/music/Jamiroquai/_/Main+Vein'
p714
S'1233603223'
p715
tp716
a(S'Jamiroquai'
p717
S'Alright'
p718
S'http://www.last.fm/music/Jamiroquai/_/Alright'
p719
S'1233602958'
p720
tp721
a(S'Jamiroquai'
p722
S'High Times'
p723
S'http://www.last.fm/music/Jamiroquai/_/High+Times'
p724
S'1233602599'
p725
tp726
a(S'Jamiroquai'
p727
S'Electric Mistress'
p728
S'http://www.last.fm/music/Jamiroquai/_/Electric+Mistress'
p729
S'1233602365'
p730
tp731
a(S'Jamiroquai'
p732
S'Canned Head (7"Edit)'
p733
S'http://www.last.fm/music/Jamiroquai/_/Canned+Head+(7%22Edit)'
p734
S'1233602140'
p735
tp736
a(S'Jamiroquai'
p737
S'Corner of the Earth'
p738
S'http://www.last.fm/music/Jamiroquai/_/Corner+of+the+Earth'
p739
S'1233601798'
p740
tp741
a(S'Jamiroquai'
p742
S'Cosmic Girl'
p743
S'http://www.last.fm/music/Jamiroquai/_/Cosmic+Girl'
p744
S'1233601554'
p745
tp746
a(S'Jamiroquai'
p747
S'Dynamite'
p748
S'http://www.last.fm/music/Jamiroquai/_/Dynamite'
p749
S'1233601259'
p750
tp751
a(S'Jamiroquai'
p752
S'Hot Tequila Brown'
p753
S'http://www.last.fm/music/Jamiroquai/_/Hot+Tequila+Brown'
p754
S'1233600984'
p755
tp756
a(S'Jamiroquai'
p757
S'Talulah'
p758
S'http://www.last.fm/music/Jamiroquai/_/Talulah'
p759
S'1233600620'
p760
tp761
a(S'Jamiroquai'
p762
S'You Give Me Something'
p763
S'http://www.last.fm/music/Jamiroquai/_/You+Give+Me+Something'
p764
S'1233600414'
p765
tp766
a(S'Jamiroquai'
p767
S'Black Crow'
p768
S'http://www.last.fm/music/Jamiroquai/_/Black+Crow'
p769
S'1233600170'
p770
tp771
a(S'Jamiroquai'
p772
S'Virtual Insanity'
p773
S'http://www.last.fm/music/Jamiroquai/_/Virtual+Insanity'
p774
S'1233599829'
p775
tp776
a(S'Jamiroquai'
p777
S'Canned Head (7"Edit)'
p778
S'http://www.last.fm/music/Jamiroquai/_/Canned+Head+(7%22Edit)'
p779
S'1233599604'
p780
tp781
a(S'Jamiroquai'
p782
S'You Give Me Something'
p783
S'http://www.last.fm/music/Jamiroquai/_/You+Give+Me+Something'
p784
S'1233599398'
p785
tp786
a(S'Jamiroquai'
p787
S'Love Foolosophy'
p788
S'http://www.last.fm/music/Jamiroquai/_/Love+Foolosophy'
p789
S'1233599170'
p790
tp791
a(S'Jamiroquai'
p792
S'Main Vein'
p793
S'http://www.last.fm/music/Jamiroquai/_/Main+Vein'
p794
S'1233598865'
p795
tp796
a(S'Jamiroquai'
p797
S'Seven Days in Sunny June'
p798
S'http://www.last.fm/music/Jamiroquai/_/Seven+Days+in+Sunny+June'
p799
S'1233598627'
p800
tp801
a(S'Jamiroquai'
p802
S'Picture of My Life'
p803
S'http://www.last.fm/music/Jamiroquai/_/Picture+of+My+Life'
p804
S'1233598365'
p805
tp806
a(S'Jamiroquai'
p807
S'Cosmic Girl'
p808
S'http://www.last.fm/music/Jamiroquai/_/Cosmic+Girl'
p809
S'1233598121'
p810
tp811
a(S'Jamiroquai'
p812
S'Dynamite'
p813
S'http://www.last.fm/music/Jamiroquai/_/Dynamite'
p814
S'1233597827'
p815
tp816
a(S'Jamiroquai'
p817
S'Hot Tequila Brown'
p818
S'http://www.last.fm/music/Jamiroquai/_/Hot+Tequila+Brown'
p819
S'1233597552'
p820
tp821
a(S'Jamiroquai'
p822
S'High Times'
p823
S'http://www.last.fm/music/Jamiroquai/_/High+Times'
p824
S'1233597193'
p825
tp826
a(S'Jamiroquai'
p827
S'Little L'
p828
S'http://www.last.fm/music/Jamiroquai/_/Little+L'
p829
S'1233596895'
p830
tp831
a(S'Jamiroquai'
p832
S'Black Crow'
p833
S'http://www.last.fm/music/Jamiroquai/_/Black+Crow'
p834
S'1233596651'
p835
tp836
a(S'Jamiroquai'
p837
S'Alright'
p838
S'http://www.last.fm/music/Jamiroquai/_/Alright'
p839
S'1233596386'
p840
tp841
a(S'Jamiroquai'
p842
S'Starchild'
p843
S'http://www.last.fm/music/Jamiroquai/_/Starchild'
p844
S'1233596075'
p845
tp846
a(S'Jamiroquai'
p847
S'Virtual Insanity'
p848
S'http://www.last.fm/music/Jamiroquai/_/Virtual+Insanity'
p849
S'1233595734'
p850
tp851
a(S'Jamiroquai'
p852
S'Everyday'
p853
S'http://www.last.fm/music/Jamiroquai/_/Everyday'
p854
S'1233595465'
p855
tp856
a(S'Jamiroquai'
p857
S'Talulah'
p858
S'http://www.last.fm/music/Jamiroquai/_/Talulah'
p859
S'1233595101'
p860
tp861
a(S'Jamiroquai'
p862
S'Corner of the Earth'
p863
S'http://www.last.fm/music/Jamiroquai/_/Corner+of+the+Earth'
p864
S'1233594759'
p865
tp866
a(S'Jamiroquai'
p867
S'Electric Mistress'
p868
S'http://www.last.fm/music/Jamiroquai/_/Electric+Mistress'
p869
S'1233594525'
p870
tp871
a(S'Jamiroquai'
p872
S'World That He Wants'
p873
S'http://www.last.fm/music/Jamiroquai/_/World+That+He+Wants'
p874
S'1233594415'
p875
tp876
a(S'Jamiroquai'
p877
S'Starchild'
p878
S'http://www.last.fm/music/Jamiroquai/_/Starchild'
p879
S'1233594104'
p880
tp881
a(S'Jamiroquai'
p882
S'Seven Days in Sunny June'
p883
S'http://www.last.fm/music/Jamiroquai/_/Seven+Days+in+Sunny+June'
p884
S'1233593866'
p885
tp886
a(S'Jamiroquai'
p887
S'Black Devil Car'
p888
S'http://www.last.fm/music/Jamiroquai/_/Black+Devil+Car'
p889
S'1233593584'
p890
tp891
a(S'Jamiroquai'
p892
S'Feels Just Like It Should'
p893
S'http://www.last.fm/music/Jamiroquai/_/Feels+Just+Like+It+Should'
p894
S'1233593366'
p895
tp896
a(S'Jamiroquai'
p897
S'Dynamite'
p898
S'http://www.last.fm/music/Jamiroquai/_/Dynamite'
p899
S'1233592748'
p900
tp901
a(S'AC/DC'
p902
S'Decibel'
p903
S'http://www.last.fm/music/AC%2FDC/_/Decibel'
p904
S'1233413300'
p905
tp906
a(S'Metallica'
p907
S'All Nightmare Long'
p908
S'http://www.last.fm/music/Metallica/_/All+Nightmare+Long'
p909
S'1233412823'
p910
tp911
a(S'Metallica'
p912
S'Suicide And Redemption'
p913
S'http://www.last.fm/music/Metallica/_/Suicide+And+Redemption'
p914
S'1233412225'
p915
tp916
a(S'Metallica'
p917
S'Cure'
p918
S'http://www.last.fm/music/Metallica/_/Cure'
p919
S'1233411928'
p920
tp921
a(S'Megadeth'
p922
S'A Secret Place'
p923
S'http://www.last.fm/music/Megadeth/_/A+Secret+Place'
p924
S'1233411604'
p925
tp926
a(S'Metallica'
p927
S"Ain't My Bitch"
p928
S'http://www.last.fm/music/Metallica/_/Ain%27t+My+Bitch'
p929
S'1233411297'
p930
tp931
a(S'Metallica'
p932
S'Until It Sleeps'
p933
S'http://www.last.fm/music/Metallica/_/Until+It+Sleeps'
p934
S'1233411025'
p935
tp936
a(S'Metallica'
p937
S'...and Justice for All'
p938
S'http://www.last.fm/music/Metallica/_/...and+Justice+for+All'
p939
S'1233410439'
p940
tp941
a(S'Metallica'
p942
S'2 X 4'
p943
S'http://www.last.fm/music/Metallica/_/2+X+4'
p944
S'1233410109'
p945
tp946
a(S'Megadeth'
p947
S'Reckoning Day'
p948
S'http://www.last.fm/music/Megadeth/_/Reckoning+Day'
p949
S'1233409834'
p950
tp951
a(S'Metallica'
p952
S'The House Jack Built'
p953
S'http://www.last.fm/music/Metallica/_/The+House+Jack+Built'
p954
S'1233409433'
p955
tp956
a(S'Metallica'
p957
S'All Nightmare Long'
p958
S'http://www.last.fm/music/Metallica/_/All+Nightmare+Long'
p959
S'1233408956'
p960
tp961
a(S'Metallica'
p962
S'The Outlaw Torn'
p963
S'http://www.last.fm/music/Metallica/_/The+Outlaw+Torn'
p964
S'1233408368'
p965
tp966
a(S'Metallica'
p967
S'The God That Failed'
p968
S'http://www.last.fm/music/Metallica/_/The+God+That+Failed'
p969
S'1233408060'
p970
tp971
a(S'Metallica'
p972
S'King Nothing'
p973
S'http://www.last.fm/music/Metallica/_/King+Nothing'
p974
S'1233407730'
p975
tp976
a(S'Megadeth'
p977
S'Diadems'
p978
S'http://www.last.fm/music/Megadeth/_/Diadems'
p979
S'1233407494'
p980
tp981
a(S'Metallica'
p982
S'Blackened'
p983
S'http://www.last.fm/music/Metallica/_/Blackened'
p984
S'1233407096'
p985
tp986
a(S'Megadeth'
p987
S'Addicted to Chaos'
p988
S'http://www.last.fm/music/Megadeth/_/Addicted+to+Chaos'
p989
S'1233406478'
p990
tp991
a(S'Jamiroquai'
p992
S'Where Do We Go from Here?'
p993
S'http://www.last.fm/music/Jamiroquai/_/Where+Do+We+Go+from+Here%3F'
p994
S'1233406118'
p995
tp996
a(S'Jamiroquai'
p997
S'Manifest Destiny'
p998
S'http://www.last.fm/music/Jamiroquai/_/Manifest+Destiny'
p999
S'1233405735'
p1000
tp1001
a.