(lp1
(S'Army Of Anyone'
p2
S'Non Stop'
p3
S'http://www.last.fm/music/Army+Of+Anyone/_/Non+Stop'
p4
S'1398433507'
p5
tp6
a(S'Stone Temple Pilots'
p7
S'Bi-Polar Bear'
p8
S'http://www.last.fm/music/Stone+Temple+Pilots/_/Bi-Polar+Bear'
p9
S'1398433268'
p10
tp11
a(S'Army Of Anyone'
p12
S'Father Figure'
p13
S'http://www.last.fm/music/Army+Of+Anyone/_/Father+Figure'
p14
S'1398432839'
p15
tp16
a(S'Stone Temple Pilots'
p17
S'Seven Caged Tigers'
p18
S'http://www.last.fm/music/Stone+Temple+Pilots/_/Seven+Caged+Tigers'
p19
S'1398432594'
p20
tp21
a(S'Stone Temple Pilots'
p22
S'First Kiss on Mars'
p23
S'http://www.last.fm/music/Stone+Temple+Pilots/_/First+Kiss+on+Mars'
p24
S'1398432337'
p25
tp26
a(S'Stone Temple Pilots'
p27
S'Dumb Love'
p28
S'http://www.last.fm/music/Stone+Temple+Pilots/_/Dumb+Love'
p29
S'1398432154'
p30
tp31
a(S'Stone Temple Pilots'
p32
S'Big Bang Baby'
p33
S'http://www.last.fm/music/Stone+Temple+Pilots/_/Big+Bang+Baby'
p34
S'1398431983'
p35
tp36
a(S'Stone Temple Pilots'
p37
S'Black Again'
p38
S'http://www.last.fm/music/Stone+Temple+Pilots/_/Black+Again'
p39
S'1398431779'
p40
tp41
a(S'Stone Temple Pilots'
p42
S'Too Cool Queenie'
p43
S'http://www.last.fm/music/Stone+Temple+Pilots/_/Too+Cool+Queenie'
p44
S'1398431572'
p45
tp46
a(S'Stone Temple Pilots'
p47
S'Too Cool Queenie'
p48
S'http://www.last.fm/music/Stone+Temple+Pilots/_/Too+Cool+Queenie'
p49
S'1398288622'
p50
tp51
a(S'Stone Temple Pilots'
p52
S'Take a Load Off'
p53
S'http://www.last.fm/music/Stone+Temple+Pilots/_/Take+a+Load+Off'
p54
S'1398288454'
p55
tp56
a(S'Talk Show'
p57
S'Peeling an Orange'
p58
S'http://www.last.fm/music/Talk+Show/_/Peeling+an+Orange'
p59
S'1398288263'
p60
tp61
a(S'Stone Temple Pilots'
p62
S'Army Ants'
p63
S'http://www.last.fm/music/Stone+Temple+Pilots/_/Army+Ants'
p64
S'1398257748'
p65
tp66
a(S'Stone Temple Pilots'
p67
S'Still Remains'
p68
S'http://www.last.fm/music/Stone+Temple+Pilots/_/Still+Remains'
p69
S'1398257521'
p70
tp71
a(S'Army Of Anyone'
p72
S'A Better Place'
p73
S'http://www.last.fm/music/Army+Of+Anyone/_/A+Better+Place'
p74
S'1398257308'
p75
tp76
a(S'Stone Temple Pilots'
p77
S'Regeneration'
p78
S'http://www.last.fm/music/Stone+Temple+Pilots/_/Regeneration'
p79
S'1398257009'
p80
tp81
a(S'Stone Temple Pilots'
p82
S'Lounge Fly'
p83
S'http://www.last.fm/music/Stone+Temple+Pilots/_/Lounge+Fly'
p84
S'1398256774'
p85
tp86
a(S'Stone Temple Pilots'
p87
S'Dumb Love'
p88
S'http://www.last.fm/music/Stone+Temple+Pilots/_/Dumb+Love'
p89
S'1398256455'
p90
tp91
a(S'Stone Temple Pilots'
p92
S'Between the Lines'
p93
S'http://www.last.fm/music/Stone+Temple+Pilots/_/Between+the+Lines'
p94
S'1398256284'
p95
tp96
a(S'Stone Temple Pilots'
p97
S'Hickory Dichotomy'
p98
S'http://www.last.fm/music/Stone+Temple+Pilots/_/Hickory+Dichotomy'
p99
S'1398256113'
p100
tp101
a(S'Stone Temple Pilots'
p102
S'Transmissions From a Lonely Room'
p103
S'http://www.last.fm/music/Stone+Temple+Pilots/_/Transmissions+From+a+Lonely+Room'
p104
S'1398255910'
p105
tp106
a(S'Army Of Anyone'
p107
S'Father Figure'
p108
S'http://www.last.fm/music/Army+Of+Anyone/_/Father+Figure'
p109
S'1398255715'
p110
tp111
a(S'Talk Show'
p112
S'John'
p113
S'http://www.last.fm/music/Talk+Show/_/John'
p114
S'1398255470'
p115
tp116
a(S'Stone Temple Pilots'
p117
S"Trippin' on a Hole in a Paper Heart"
p118
S'http://www.last.fm/music/Stone+Temple+Pilots/_/Trippin%27+on+a+Hole+in+a+Paper+Heart'
p119
S'1398255288'
p120
tp121
a(S'Stone Temple Pilots'
p122
S'Too Cool Queenie'
p123
S'http://www.last.fm/music/Stone+Temple+Pilots/_/Too+Cool+Queenie'
p124
S'1398255013'
p125
tp126
a(S'Stone Temple Pilots'
p127
S'Dumb Love'
p128
S'http://www.last.fm/music/Stone+Temple+Pilots/_/Dumb+Love'
p129
S'1398254846'
p130
tp131
a(S'Stone Temple Pilots'
p132
S'Between the Lines'
p133
S'http://www.last.fm/music/Stone+Temple+Pilots/_/Between+the+Lines'
p134
S'1398254675'
p135
tp136
a(S'Army Of Anyone'
p137
S'Non Stop'
p138
S'http://www.last.fm/music/Army+Of+Anyone/_/Non+Stop'
p139
S'1398254504'
p140
tp141
a(S'Army Of Anyone'
p142
S'A Better Place'
p143
S'http://www.last.fm/music/Army+Of+Anyone/_/A+Better+Place'
p144
S'1398254265'
p145
tp146
a(S'Stone Temple Pilots'
p147
S'Peacoat'
p148
S'http://www.last.fm/music/Stone+Temple+Pilots/_/Peacoat'
p149
S'1398253966'
p150
tp151
a(S'Talk Show'
p152
S'Wash Me Down'
p153
S'http://www.last.fm/music/Talk+Show/_/Wash+Me+Down'
p154
S'1398253756'
p155
tp156
a(S'Stone Temple Pilots'
p157
S'Black Again'
p158
S'http://www.last.fm/music/Stone+Temple+Pilots/_/Black+Again'
p159
S'1398253529'
p160
tp161
a(S'Talk Show'
p162
S'Peeling an Orange'
p163
S'http://www.last.fm/music/Talk+Show/_/Peeling+an+Orange'
p164
S'1398253323'
p165
tp166
a(S'Stone Temple Pilots'
p167
S'Vasoline'
p168
S'http://www.last.fm/music/Stone+Temple+Pilots/_/Vasoline'
p169
S'1398197080'
p170
tp171
a(S'Stone Temple Pilots'
p172
S'Lounge Fly'
p173
S'http://www.last.fm/music/Stone+Temple+Pilots/_/Lounge+Fly'
p174
S'1398196902'
p175
tp176
a(S'Stone Temple Pilots'
p177
S'Transmissions From a Lonely Room'
p178
S'http://www.last.fm/music/Stone+Temple+Pilots/_/Transmissions+From+a+Lonely+Room'
p179
S'1398196584'
p180
tp181
a(S'Stone Temple Pilots'
p182
S'First Kiss on Mars'
p183
S'http://www.last.fm/music/Stone+Temple+Pilots/_/First+Kiss+on+Mars'
p184
S'1398196388'
p185
tp186
a(S'Talk Show'
p187
S'Hello Hello'
p188
S'http://www.last.fm/music/Talk+Show/_/Hello+Hello'
p189
S'1398196204'
p190
tp191
a(S'Army Of Anyone'
p192
S'Father Figure'
p193
S'http://www.last.fm/music/Army+Of+Anyone/_/Father+Figure'
p194
S'1398196027'
p195
tp196
a(S'Stone Temple Pilots'
p197
S'Silvergun Superman'
p198
S'http://www.last.fm/music/Stone+Temple+Pilots/_/Silvergun+Superman'
p199
S'1398195597'
p200
tp201
a(S'Stone Temple Pilots'
p202
S'Too Cool Queenie'
p203
S'http://www.last.fm/music/Stone+Temple+Pilots/_/Too+Cool+Queenie'
p204
S'1398195280'
p205
tp206
a(S'Talk Show'
p207
S'Peeling an Orange'
p208
S'http://www.last.fm/music/Talk+Show/_/Peeling+an+Orange'
p209
S'1398195113'
p210
tp211
a(S'Stone Temple Pilots'
p212
S'Dumb Love'
p213
S'http://www.last.fm/music/Stone+Temple+Pilots/_/Dumb+Love'
p214
S'1398194898'
p215
tp216
a(S'Stone Temple Pilots'
p217
S'Interstate Love Song'
p218
S'http://www.last.fm/music/Stone+Temple+Pilots/_/Interstate+Love+Song'
p219
S'1398194726'
p220
tp221
a(S'Stone Temple Pilots'
p222
S'Army Ants'
p223
S'http://www.last.fm/music/Stone+Temple+Pilots/_/Army+Ants'
p224
S'1398194532'
p225
tp226
a(S'Stone Temple Pilots'
p227
S'Lounge Fly'
p228
S'http://www.last.fm/music/Stone+Temple+Pilots/_/Lounge+Fly'
p229
S'1398173001'
p230
tp231
a(S'Stone Temple Pilots'
p232
S'First Kiss on Mars'
p233
S'http://www.last.fm/music/Stone+Temple+Pilots/_/First+Kiss+on+Mars'
p234
S'1398172682'
p235
tp236
a(S'Stone Temple Pilots'
p237
S'Regeneration'
p238
S'http://www.last.fm/music/Stone+Temple+Pilots/_/Regeneration'
p239
S'1398172499'
p240
tp241
a(S'Talk Show'
p242
S'Peeling an Orange'
p243
S'http://www.last.fm/music/Talk+Show/_/Peeling+an+Orange'
p244
S'1398172263'
p245
tp246
a(S'Army Of Anyone'
p247
S'A Better Place'
p248
S'http://www.last.fm/music/Army+Of+Anyone/_/A+Better+Place'
p249
S'1398172048'
p250
tp251
a(S'Eric Clapton'
p252
S'Next Time You See Her'
p253
S'http://www.last.fm/music/Eric+Clapton/_/Next+Time+You+See+Her'
p254
S'1398170935'
p255
tp256
a(S'Stevie Wonder'
p257
S"I Ain't Gonna Stand For It"
p258
S'http://www.last.fm/music/Stevie+Wonder/_/I+Ain%27t+Gonna+Stand+For+It'
p259
S'1398170693'
p260
tp261
a(S'Albert King'
p262
S"I'll Play The Blues For You (Parts 1 & 2)"
p263
S'http://www.last.fm/music/Albert+King/_/I%27ll+Play+The+Blues+For+You+(Parts+1+&+2)'
p264
S'1398170417'
p265
tp266
a(S'Blues Traveler'
p267
S'Canadian Rose'
p268
S'http://www.last.fm/music/Blues+Traveler/_/Canadian+Rose'
p269
S'1397763842'
p270
tp271
a(S'Blues Traveler'
p272
S'Most Precarious'
p273
S'http://www.last.fm/music/Blues+Traveler/_/Most+Precarious'
p274
S'1397763410'
p275
tp276
a(S'Eric Clapton'
p277
S'Reptile'
p278
S'http://www.last.fm/music/Eric+Clapton/_/Reptile'
p279
S'1397763202'
p280
tp281
a(S'Eric Clapton'
p282
S'The Core'
p283
S'http://www.last.fm/music/Eric+Clapton/_/The+Core'
p284
S'1397762995'
p285
tp286
a(S'John Lee Hooker'
p287
S'The Healer'
p288
S'http://www.last.fm/music/John+Lee+Hooker/_/The+Healer'
p289
S'1397762470'
p290
tp291
a(S'Eric Clapton'
p292
S'Lonely Stranger'
p293
S'http://www.last.fm/music/Eric+Clapton/_/Lonely+Stranger'
p294
S'1397761871'
p295
tp296
a(S'Eric Clapton'
p297
S"My Father's Eyes"
p298
S'http://www.last.fm/music/Eric+Clapton/_/My+Father%27s+Eyes'
p299
S'1397761543'
p300
tp301
a(S'Blues Traveler'
p302
S'Make My Way'
p303
S'http://www.last.fm/music/Blues+Traveler/_/Make+My+Way'
p304
S'1397761230'
p305
tp306
a(S'Buddy Guy'
p307
S'Where Is the Next One Coming From?'
p308
S'http://www.last.fm/music/Buddy+Guy/_/Where+Is+the+Next+One+Coming+From%3F'
p309
S'1397760481'
p310
tp311
a(S'Joe Satriani'
p312
S'The Souls of Distortion'
p313
S'http://www.last.fm/music/Joe+Satriani/_/The+Souls+of+Distortion'
p314
S'1397760204'
p315
tp316
a(S'Stevie Ray Vaughan and Double Trouble'
p317
S"I'm Leaving You (Commit a Crime)"
p318
S'http://www.last.fm/music/Stevie+Ray+Vaughan+and+Double+Trouble/_/I%27m+Leaving+You+(Commit+a+Crime)'
p319
S'1397759905'
p320
tp321
a(S'Stevie Wonder'
p322
S"I Ain't Gonna Stand For It"
p323
S'http://www.last.fm/music/Stevie+Wonder/_/I+Ain%27t+Gonna+Stand+For+It'
p324
S'1397759570'
p325
tp326
a(S'B.B. King & Eric Clapton'
p327
S'Riding With the King'
p328
S'http://www.last.fm/music/B.B.+King+&+Eric+Clapton/_/Riding+With+the+King'
p329
S'1397759158'
p330
tp331
a(S'J.J. Cale & Eric Clapton'
p332
S"Don't Cry Sister"
p333
S'http://www.last.fm/music/J.J.+Cale+&+Eric+Clapton/_/Don%27t+Cry+Sister'
p334
S'1397758894'
p335
tp336
a(S'Blues Traveler'
p337
S"Maybe I'm Wrong"
p338
S'http://www.last.fm/music/Blues+Traveler/_/Maybe+I%27m+Wrong'
p339
S'1397757495'
p340
tp341
a(S'Dr. John'
p342
S'Soulful Warrior'
p343
S'http://www.last.fm/music/Dr.+John/_/Soulful+Warrior'
p344
S'1397757149'
p345
tp346
a(S'Blues Traveler'
p347
S'The Mountains Win Again'
p348
S'http://www.last.fm/music/Blues+Traveler/_/The+Mountains+Win+Again'
p349
S'1397756899'
p350
tp351
a(S'Joe Satriani'
p352
S'Rubina'
p353
S'http://www.last.fm/music/Joe+Satriani/_/Rubina'
p354
S'1397756593'
p355
tp356
a(S'Aerosmith'
p357
S'One Way Street'
p358
S'http://www.last.fm/music/Aerosmith/_/One+Way+Street'
p359
S'1397756158'
p360
tp361
a(S'Joe Cocker'
p362
S'Civilized Man'
p363
S'http://www.last.fm/music/Joe+Cocker/_/Civilized+Man'
p364
S'1397755736'
p365
tp366
a(S'Blues Traveler'
p367
S'Look Around'
p368
S'http://www.last.fm/music/Blues+Traveler/_/Look+Around'
p369
S'1397754785'
p370
tp371
a(S'John Lee Hooker'
p372
S'Catfish'
p373
S'http://www.last.fm/music/John+Lee+Hooker/_/Catfish'
p374
S'1397754443'
p375
tp376
a(S'Stevie Wonder'
p377
S"I Ain't Gonna Stand For It"
p378
S'http://www.last.fm/music/Stevie+Wonder/_/I+Ain%27t+Gonna+Stand+For+It'
p379
S'1397594858'
p380
tp381
a(S'John Lee Hooker'
p382
S'Chill Out (Things Gonna Change)'
p383
S'http://www.last.fm/music/John+Lee+Hooker/_/Chill+Out+(Things+Gonna+Change)'
p384
S'1397594581'
p385
tp386
a(S'Blues Traveler'
p387
S'Yours'
p388
S'http://www.last.fm/music/Blues+Traveler/_/Yours'
p389
S'1397594291'
p390
tp391
a(S'Cream'
p392
S'Badge'
p393
S'http://www.last.fm/music/Cream/_/Badge'
p394
S'1397593896'
p395
tp396
a(S'Eric Clapton'
p397
S'Mean Old Frisco'
p398
S'http://www.last.fm/music/Eric+Clapton/_/Mean+Old+Frisco'
p399
S'1397590579'
p400
tp401
a(S'Jimi Hendrix'
p402
S'All Along the Watchtower'
p403
S'http://www.last.fm/music/Jimi+Hendrix/_/All+Along+the+Watchtower'
p404
S'1397590296'
p405
tp406
a(S'Stevie Wonder'
p407
S'Part Time Lover'
p408
S'http://www.last.fm/music/Stevie+Wonder/_/Part+Time+Lover'
p409
S'1397590057'
p410
tp411
a(S'Chuck Berry'
p412
S'School Days'
p413
S'http://www.last.fm/music/Chuck+Berry/_/School+Days'
p414
S'1397589834'
p415
tp416
a(S'Eric Clapton'
p417
S'Modern Girl'
p418
S'http://www.last.fm/music/Eric+Clapton/_/Modern+Girl'
p419
S'1397589670'
p420
tp421
a(S'Eric Clapton'
p422
S"Nobody Knows You When You're Down & Out"
p423
S'http://www.last.fm/music/Eric+Clapton/_/Nobody+Knows+You+When+You%27re+Down+&+Out'
p424
S'1397588838'
p425
tp426
a(S'Joe Cocker'
p427
S'Now That The Magic Has Gone'
p428
S'http://www.last.fm/music/Joe+Cocker/_/Now+That+The+Magic+Has+Gone'
p429
S'1397588608'
p430
tp431
a(S'Blues Traveler'
p432
S'Look Around'
p433
S'http://www.last.fm/music/Blues+Traveler/_/Look+Around'
p434
S'1397588328'
p435
tp436
a(S'Jimi Hendrix'
p437
S'Dolly Dagger'
p438
S'http://www.last.fm/music/Jimi+Hendrix/_/Dolly+Dagger'
p439
S'1397587986'
p440
tp441
a(S'Derek and the Dominos'
p442
S'Layla'
p443
S'http://www.last.fm/music/Derek+and+the+Dominos/_/Layla'
p444
S'1397587701'
p445
tp446
a(S'Stevie Ray Vaughan and Double Trouble'
p447
S'Cold Shot'
p448
S'http://www.last.fm/music/Stevie+Ray+Vaughan+and+Double+Trouble/_/Cold+Shot'
p449
S'1397587270'
p450
tp451
a(S'Eric Clapton'
p452
S'Pretending'
p453
S'http://www.last.fm/music/Eric+Clapton/_/Pretending'
p454
S'1397586929'
p455
tp456
a(S'Stevie Wonder'
p457
S"Signed, Sealed, Delivered, I'm Yours"
p458
S'http://www.last.fm/music/Stevie+Wonder/_/Signed,+Sealed,+Delivered,+I%27m+Yours'
p459
S'1397586644'
p460
tp461
a(S'Blues Traveler'
p462
S"Maybe I'm Wrong"
p463
S'http://www.last.fm/music/Blues+Traveler/_/Maybe+I%27m+Wrong'
p464
S'1397586485'
p465
tp466
a(S'John Lee Hooker'
p467
S'The Healer'
p468
S'http://www.last.fm/music/John+Lee+Hooker/_/The+Healer'
p469
S'1397586047'
p470
tp471
a(S'Eric Clapton'
p472
S'Motherless Child'
p473
S'http://www.last.fm/music/Eric+Clapton/_/Motherless+Child'
p474
S'1397584282'
p475
tp476
a(S'Chuck Berry'
p477
S'Brown Eyed Handsome Man'
p478
S'http://www.last.fm/music/Chuck+Berry/_/Brown+Eyed+Handsome+Man'
p479
S'1397584168'
p480
tp481
a(S'Albert King'
p482
S"I'll Play The Blues For You (Parts 1 & 2)"
p483
S'http://www.last.fm/music/Albert+King/_/I%27ll+Play+The+Blues+For+You+(Parts+1+&+2)'
p484
S'1397584029'
p485
tp486
a(S'Eric Clapton'
p487
S'Bad Love'
p488
S'http://www.last.fm/music/Eric+Clapton/_/Bad+Love'
p489
S'1397583563'
p490
tp491
a(S'Eric Clapton'
p492
S'Lay Down Sally'
p493
S'http://www.last.fm/music/Eric+Clapton/_/Lay+Down+Sally'
p494
S'1397583248'
p495
tp496
a(S'Eric Clapton'
p497
S"My Father's Eyes"
p498
S'http://www.last.fm/music/Eric+Clapton/_/My+Father%27s+Eyes'
p499
S'1397583012'
p500
tp501
a(S'Joe Satriani'
p502
S'Lords of Karma'
p503
S'http://www.last.fm/music/Joe+Satriani/_/Lords+of+Karma'
p504
S'1397582458'
p505
tp506
a(S'Bo Diddley'
p507
S"He's Got A Key"
p508
S'http://www.last.fm/music/Bo+Diddley/_/He%27s+Got+A+Key'
p509
S'1397582115'
p510
tp511
a(S'Joe Cocker'
p512
S'Civilized Man'
p513
S'http://www.last.fm/music/Joe+Cocker/_/Civilized+Man'
p514
S'1397581875'
p515
tp516
a(S'Jimi Hendrix'
p517
S'Crosstown Traffic'
p518
S'http://www.last.fm/music/Jimi+Hendrix/_/Crosstown+Traffic'
p519
S'1397581640'
p520
tp521
a(S'Dr. John'
p522
S'Soulful Warrior'
p523
S'http://www.last.fm/music/Dr.+John/_/Soulful+Warrior'
p524
S'1397581501'
p525
tp526
a(S'J.J. Cale & Eric Clapton'
p527
S"Don't Cry Sister"
p528
S'http://www.last.fm/music/J.J.+Cale+&+Eric+Clapton/_/Don%27t+Cry+Sister'
p529
S'1397581251'
p530
tp531
a(S'Joe Satriani'
p532
S'The Souls of Distortion'
p533
S'http://www.last.fm/music/Joe+Satriani/_/The+Souls+of+Distortion'
p534
S'1397581011'
p535
tp536
a(S'Albert King'
p537
S'The Feeling'
p538
S'http://www.last.fm/music/Albert+King/_/The+Feeling'
p539
S'1397571332'
p540
tp541
a(S'Albert King'
p542
S"That's What The Blues Is All About"
p543
S'http://www.last.fm/music/Albert+King/_/That%27s+What+The+Blues+Is+All+About'
p544
S'1397570330'
p545
tp546
a(S'Albert King'
p547
S'We All Wanna Boogie'
p548
S'http://www.last.fm/music/Albert+King/_/We+All+Wanna+Boogie'
p549
S'1397568623'
p550
tp551
a(S'Joe Satriani'
p552
S'The Crush of Love'
p553
S'http://www.last.fm/music/Joe+Satriani/_/The+Crush+of+Love'
p554
S'1397568425'
p555
tp556
a(S'Blues Traveler'
p557
S'Carolina Blues'
p558
S'http://www.last.fm/music/Blues+Traveler/_/Carolina+Blues'
p559
S'1397567854'
p560
tp561
a(S'Dr. John'
p562
S'Party Hellfire'
p563
S'http://www.last.fm/music/Dr.+John/_/Party+Hellfire'
p564
S'1397567569'
p565
tp566
a(S'John Lee Hooker'
p567
S'Dimples'
p568
S'http://www.last.fm/music/John+Lee+Hooker/_/Dimples'
p569
S'1397567288'
p570
tp571
a(S'Dr. John'
p572
S"I Don't Wanna Know"
p573
S'http://www.last.fm/music/Dr.+John/_/I+Don%27t+Wanna+Know'
p574
S'1397566914'
p575
tp576
a(S'B.B. King & Eric Clapton'
p577
S'Riding With the King'
p578
S'http://www.last.fm/music/B.B.+King+&+Eric+Clapton/_/Riding+With+the+King'
p579
S'1397566317'
p580
tp581
a(S'Eric Clapton'
p582
S"I Ain't Gonna Stand For It"
p583
S'http://www.last.fm/music/Eric+Clapton/_/I+Ain%27t+Gonna+Stand+For+It'
p584
S'1397566054'
p585
tp586
a(S'John Hiatt'
p587
S'Crossing Muddy Waters'
p588
S'http://www.last.fm/music/John+Hiatt/_/Crossing+Muddy+Waters'
p589
S'1397565764'
p590
tp591
a(S'Joe Satriani'
p592
S"Cryin'"
p593
S'http://www.last.fm/music/Joe+Satriani/_/Cryin%27'
p594
S'1397565519'
p595
tp596
a(S'Buddy Guy'
p597
S'Mustang Sally'
p598
S'http://www.last.fm/music/Buddy+Guy/_/Mustang+Sally'
p599
S'1397565131'
p600
tp601
a(S'John Hiatt'
p602
S'Lift Up Every Stone'
p603
S'http://www.last.fm/music/John+Hiatt/_/Lift+Up+Every+Stone'
p604
S'1397564854'
p605
tp606
a(S'Stevie Wonder'
p607
S'Superstition'
p608
S'http://www.last.fm/music/Stevie+Wonder/_/Superstition'
p609
S'1397564658'
p610
tp611
a(S'John Lee Hooker'
p612
S'This Is Hip'
p613
S'http://www.last.fm/music/John+Lee+Hooker/_/This+Is+Hip'
p614
S'1397564416'
p615
tp616
a(S'John Hiatt'
p617
S"God's Golden Eyes"
p618
S'http://www.last.fm/music/John+Hiatt/_/God%27s+Golden+Eyes'
p619
S'1397564210'
p620
tp621
a(S'John Lee Hooker'
p622
S'Dimples'
p623
S'http://www.last.fm/music/John+Lee+Hooker/_/Dimples'
p624
S'1397496913'
p625
tp626
a(S'Joe Satriani'
p627
S'Lords of Karma'
p628
S'http://www.last.fm/music/Joe+Satriani/_/Lords+of+Karma'
p629
S'1397496671'
p630
tp631
a(S'Eric Clapton'
p632
S'Traveling Riverside Blues'
p633
S'http://www.last.fm/music/Eric+Clapton/_/Traveling+Riverside+Blues'
p634
S'1397496327'
p635
tp636
a(S'Stevie Wonder'
p637
S'Superstition'
p638
S'http://www.last.fm/music/Stevie+Wonder/_/Superstition'
p639
S'1397496056'
p640
tp641
a(S'Eric Clapton'
p642
S'Reptile'
p643
S'http://www.last.fm/music/Eric+Clapton/_/Reptile'
p644
S'1397485634'
p645
tp646
a(S'Stevie Wonder'
p647
S"Signed, Sealed, Delivered, I'm Yours"
p648
S'http://www.last.fm/music/Stevie+Wonder/_/Signed,+Sealed,+Delivered,+I%27m+Yours'
p649
S'1397483741'
p650
tp651
a(S'Bo Diddley'
p652
S'Coatimundi'
p653
S'http://www.last.fm/music/Bo+Diddley/_/Coatimundi'
p654
S'1397483582'
p655
tp656
a(S'John Lee Hooker'
p657
S'Dimples'
p658
S'http://www.last.fm/music/John+Lee+Hooker/_/Dimples'
p659
S'1397483263'
p660
tp661
a(S'Cream'
p662
S'Badge'
p663
S'http://www.last.fm/music/Cream/_/Badge'
p664
S'1397483021'
p665
tp666
a(S'Stevie Wonder'
p667
S"I Ain't Gonna Stand For It"
p668
S'http://www.last.fm/music/Stevie+Wonder/_/I+Ain%27t+Gonna+Stand+For+It'
p669
S'1397482857'
p670
tp671
a(S'Eric Clapton'
p672
S'Pretending'
p673
S'http://www.last.fm/music/Eric+Clapton/_/Pretending'
p674
S'1397482512'
p675
tp676
a(S'John Hiatt'
p677
S"God's Golden Eyes"
p678
S'http://www.last.fm/music/John+Hiatt/_/God%27s+Golden+Eyes'
p679
S'1397482227'
p680
tp681
a(S'Jimi Hendrix'
p682
S'Dolly Dagger'
p683
S'http://www.last.fm/music/Jimi+Hendrix/_/Dolly+Dagger'
p684
S'1397482004'
p685
tp686
a(S'Joe Satriani'
p687
S'Baroque'
p688
S'http://www.last.fm/music/Joe+Satriani/_/Baroque'
p689
S'1397481768'
p690
tp691
a(S'Albert King'
p692
S"Breaking Up Somebody's Home"
p693
S'http://www.last.fm/music/Albert+King/_/Breaking+Up+Somebody%27s+Home'
p694
S'1397481631'
p695
tp696
a(S'Eric Clapton'
p697
S"My Father's Eyes"
p698
S'http://www.last.fm/music/Eric+Clapton/_/My+Father%27s+Eyes'
p699
S'1397481423'
p700
tp701
a(S'Albert King'
p702
S'We All Wanna Boogie'
p703
S'http://www.last.fm/music/Albert+King/_/We+All+Wanna+Boogie'
p704
S'1397478614'
p705
tp706
a(S'Cream'
p707
S'Badge'
p708
S'http://www.last.fm/music/Cream/_/Badge'
p709
S'1396986271'
p710
tp711
a(S'Jimi Hendrix'
p712
S'Dolly Dagger'
p713
S'http://www.last.fm/music/Jimi+Hendrix/_/Dolly+Dagger'
p714
S'1396902296'
p715
tp716
a(S'Eric Clapton'
p717
S'Promises'
p718
S'http://www.last.fm/music/Eric+Clapton/_/Promises'
p719
S'1396902010'
p720
tp721
a(S'The Doobie Brothers'
p722
S'Listen to the Music'
p723
S'http://www.last.fm/music/The+Doobie+Brothers/_/Listen+to+the+Music'
p724
S'1396901830'
p725
tp726
a(S'Dr. John'
p727
S'Party Hellfire'
p728
S'http://www.last.fm/music/Dr.+John/_/Party+Hellfire'
p729
S'1396901599'
p730
tp731
a(S'John Lee Hooker'
p732
S'Dimples'
p733
S'http://www.last.fm/music/John+Lee+Hooker/_/Dimples'
p734
S'1396901318'
p735
tp736
a(S'Jimi Hendrix'
p737
S'Little Wing'
p738
S'http://www.last.fm/music/Jimi+Hendrix/_/Little+Wing'
p739
S'1396881486'
p740
tp741
a(S'Stevie Wonder'
p742
S'Part Time Lover'
p743
S'http://www.last.fm/music/Stevie+Wonder/_/Part+Time+Lover'
p744
S'1396881337'
p745
tp746
a(S'Stevie Wonder'
p747
S"Isn't She Lovely"
p748
S'http://www.last.fm/music/Stevie+Wonder/_/Isn%27t+She+Lovely'
p749
S'1396881113'
p750
tp751
a(S'Blues Traveler'
p752
S"Maybe I'm Wrong"
p753
S'http://www.last.fm/music/Blues+Traveler/_/Maybe+I%27m+Wrong'
p754
S'1396880911'
p755
tp756
a(S'The Doobie Brothers'
p757
S'Listen to the Music'
p758
S'http://www.last.fm/music/The+Doobie+Brothers/_/Listen+to+the+Music'
p759
S'1396880423'
p760
tp761
a(S'J.J. Cale & Eric Clapton'
p762
S"Don't Cry Sister"
p763
S'http://www.last.fm/music/J.J.+Cale+&+Eric+Clapton/_/Don%27t+Cry+Sister'
p764
S'1396880193'
p765
tp766
a(S'Joe Satriani'
p767
S'The Souls of Distortion'
p768
S'http://www.last.fm/music/Joe+Satriani/_/The+Souls+of+Distortion'
p769
S'1396879903'
p770
tp771
a(S'Jimi Hendrix'
p772
S'All Along the Watchtower'
p773
S'http://www.last.fm/music/Jimi+Hendrix/_/All+Along+the+Watchtower'
p774
S'1396879605'
p775
tp776
a(S'John Lee Hooker'
p777
S'This Is Hip'
p778
S'http://www.last.fm/music/John+Lee+Hooker/_/This+Is+Hip'
p779
S'1396879366'
p780
tp781
a(S'The Doobie Brothers'
p782
S"Long Train Runnin'"
p783
S'http://www.last.fm/music/The+Doobie+Brothers/_/Long+Train+Runnin%27'
p784
S'1396879160'
p785
tp786
a(S'Eric Clapton'
p787
S'No Alibis'
p788
S'http://www.last.fm/music/Eric+Clapton/_/No+Alibis'
p789
S'1396878952'
p790
tp791
a(S'Eric Clapton'
p792
S"I Can't Stand It"
p793
S'http://www.last.fm/music/Eric+Clapton/_/I+Can%27t+Stand+It'
p794
S'1396878587'
p795
tp796
a(S'Stevie Wonder'
p797
S"I Ain't Gonna Stand For It"
p798
S'http://www.last.fm/music/Stevie+Wonder/_/I+Ain%27t+Gonna+Stand+For+It'
p799
S'1396558523'
p800
tp801
a(S'Albert King'
p802
S'Laundromat Blues'
p803
S'http://www.last.fm/music/Albert+King/_/Laundromat+Blues'
p804
S'1396557995'
p805
tp806
a(S'John Lee Hooker'
p807
S'Catfish'
p808
S'http://www.last.fm/music/John+Lee+Hooker/_/Catfish'
p809
S'1396554123'
p810
tp811
a(S'B.B. King & Eric Clapton'
p812
S'Help the Poor'
p813
S'http://www.last.fm/music/B.B.+King+&+Eric+Clapton/_/Help+the+Poor'
p814
S'1396553675'
p815
tp816
a(S'Eric Clapton'
p817
S"Travelin' Light"
p818
S'http://www.last.fm/music/Eric+Clapton/_/Travelin%27+Light'
p819
S'1396553369'
p820
tp821
a(S'John Lee Hooker'
p822
S'This Is Hip'
p823
S'http://www.last.fm/music/John+Lee+Hooker/_/This+Is+Hip'
p824
S'1396553112'
p825
tp826
a(S'Jeff Beck'
p827
S'People Get Ready (feat. Rod Stewart)'
p828
S'http://www.last.fm/music/Jeff+Beck/_/People+Get+Ready+(feat.+Rod+Stewart)'
p829
S'1396552950'
p830
tp831
a(S'Jimi Hendrix'
p832
S'Dolly Dagger'
p833
S'http://www.last.fm/music/Jimi+Hendrix/_/Dolly+Dagger'
p834
S'1396536589'
p835
tp836
a(S'B.B. King & Eric Clapton'
p837
S'Key to the Highway'
p838
S'http://www.last.fm/music/B.B.+King+&+Eric+Clapton/_/Key+to+the+Highway'
p839
S'1396536353'
p840
tp841
a(S'Eric Clapton'
p842
S"I'm Tore Down"
p843
S'http://www.last.fm/music/Eric+Clapton/_/I%27m+Tore+Down'
p844
S'1396536133'
p845
tp846
a(S'John Hiatt'
p847
S'Crossing Muddy Waters'
p848
S'http://www.last.fm/music/John+Hiatt/_/Crossing+Muddy+Waters'
p849
S'1396535950'
p850
tp851
a(S'Albert King'
p852
S'Oh, Pretty Woman'
p853
S'http://www.last.fm/music/Albert+King/_/Oh,+Pretty+Woman'
p854
S'1396535705'
p855
tp856
a(S'Dr. John'
p857
S'Party Hellfire'
p858
S'http://www.last.fm/music/Dr.+John/_/Party+Hellfire'
p859
S'1396535535'
p860
tp861
a(S'Jimi Hendrix'
p862
S'Red House'
p863
S'http://www.last.fm/music/Jimi+Hendrix/_/Red+House'
p864
S'1396534736'
p865
tp866
a(S'Dr. John'
p867
S"I Don't Wanna Know"
p868
S'http://www.last.fm/music/Dr.+John/_/I+Don%27t+Wanna+Know'
p869
S'1396533984'
p870
tp871
a(S'John Hiatt'
p872
S'Crossing Muddy Waters'
p873
S'http://www.last.fm/music/John+Hiatt/_/Crossing+Muddy+Waters'
p874
S'1396292126'
p875
tp876
a(S'Chuck Berry'
p877
S'Johnny B. Goode'
p878
S'http://www.last.fm/music/Chuck+Berry/_/Johnny+B.+Goode'
p879
S'1396291881'
p880
tp881
a(S'Eric Clapton'
p882
S"I'm Tore Down"
p883
S'http://www.last.fm/music/Eric+Clapton/_/I%27m+Tore+Down'
p884
S'1396291720'
p885
tp886
a(S'Eric Clapton'
p887
S'Signe'
p888
S'http://www.last.fm/music/Eric+Clapton/_/Signe'
p889
S'1396291538'
p890
tp891
a(S'Joe Satriani'
p892
S'Lords of Karma'
p893
S'http://www.last.fm/music/Joe+Satriani/_/Lords+of+Karma'
p894
S'1396291343'
p895
tp896
a(S'John Lee Hooker'
p897
S'Dimples'
p898
S'http://www.last.fm/music/John+Lee+Hooker/_/Dimples'
p899
S'1396291000'
p900
tp901
a(S'Eric Clapton'
p902
S"My Father's Eyes"
p903
S'http://www.last.fm/music/Eric+Clapton/_/My+Father%27s+Eyes'
p904
S'1396290758'
p905
tp906
a(S'Buddy Guy'
p907
S'Mustang Sally'
p908
S'http://www.last.fm/music/Buddy+Guy/_/Mustang+Sally'
p909
S'1396290444'
p910
tp911
a(S'Albert King'
p912
S"I'll Play The Blues For You (Parts 1 & 2)"
p913
S'http://www.last.fm/music/Albert+King/_/I%27ll+Play+The+Blues+For+You+(Parts+1+&+2)'
p914
S'1396290160'
p915
tp916
a(S'Eric Clapton'
p917
S"Nobody Knows You When You're Down & Out"
p918
S'http://www.last.fm/music/Eric+Clapton/_/Nobody+Knows+You+When+You%27re+Down+&+Out'
p919
S'1396289723'
p920
tp921
a(S'Blues Traveler'
p922
S'Yours'
p923
S'http://www.last.fm/music/Blues+Traveler/_/Yours'
p924
S'1396289448'
p925
tp926
a(S'Blues Traveler'
p927
S"Maybe I'm Wrong"
p928
S'http://www.last.fm/music/Blues+Traveler/_/Maybe+I%27m+Wrong'
p929
S'1396289053'
p930
tp931
a(S'John Hiatt'
p932
S"God's Golden Eyes"
p933
S'http://www.last.fm/music/John+Hiatt/_/God%27s+Golden+Eyes'
p934
S'1396288707'
p935
tp936
a(S'Eric Clapton'
p937
S'No Alibis'
p938
S'http://www.last.fm/music/Eric+Clapton/_/No+Alibis'
p939
S'1396288558'
p940
tp941
a(S'Stevie Wonder'
p942
S"Isn't She Lovely"
p943
S'http://www.last.fm/music/Stevie+Wonder/_/Isn%27t+She+Lovely'
p944
S'1396288219'
p945
tp946
a(S'Chuck Berry'
p947
S'Maybellene'
p948
S'http://www.last.fm/music/Chuck+Berry/_/Maybellene'
p949
S'1396288017'
p950
tp951
a(S'Stevie Wonder'
p952
S"Signed, Sealed, Delivered, I'm Yours"
p953
S'http://www.last.fm/music/Stevie+Wonder/_/Signed,+Sealed,+Delivered,+I%27m+Yours'
p954
S'1396287875'
p955
tp956
a(S'Joe Satriani'
p957
S'Baroque'
p958
S'http://www.last.fm/music/Joe+Satriani/_/Baroque'
p959
S'1396287716'
p960
tp961
a(S'Stevie Ray Vaughan and Double Trouble'
p962
S'Superstition'
p963
S'http://www.last.fm/music/Stevie+Ray+Vaughan+and+Double+Trouble/_/Superstition'
p964
S'1396287579'
p965
tp966
a(S'Eric Clapton'
p967
S'Mean Old Frisco'
p968
S'http://www.last.fm/music/Eric+Clapton/_/Mean+Old+Frisco'
p969
S'1396030004'
p970
tp971
a(S'Joe Satriani'
p972
S'Baroque'
p973
S'http://www.last.fm/music/Joe+Satriani/_/Baroque'
p974
S'1396029722'
p975
tp976
a(S'Blues Traveler'
p977
S'Make My Way'
p978
S'http://www.last.fm/music/Blues+Traveler/_/Make+My+Way'
p979
S'1396029585'
p980
tp981
a(S'John Hiatt'
p982
S'Lift Up Every Stone'
p983
S'http://www.last.fm/music/John+Hiatt/_/Lift+Up+Every+Stone'
p984
S'1396029140'
p985
tp986
a(S'Eric Clapton'
p987
S'Blues Before Sunrise'
p988
S'http://www.last.fm/music/Eric+Clapton/_/Blues+Before+Sunrise'
p989
S'1396028945'
p990
tp991
a(S'John Hiatt'
p992
S'Crossing Muddy Waters'
p993
S'http://www.last.fm/music/John+Hiatt/_/Crossing+Muddy+Waters'
p994
S'1396028767'
p995
tp996
a(S'Blues Traveler'
p997
S'Justify The Thrill'
p998
S'http://www.last.fm/music/Blues+Traveler/_/Justify+The+Thrill'
p999
S'1396028522'
p1000
tp1001
a.