(lp1
(S'Stone Temple Pilots'
p2
S"Trippin' on a Hole in a Paper Heart"
p3
S'http://www.last.fm/music/Stone+Temple+Pilots/_/Trippin%27+on+a+Hole+in+a+Paper+Heart'
p4
S'1269619740'
p5
tp6
a(S'Soundgarden'
p7
S'Outshined'
p8
S'http://www.last.fm/music/Soundgarden/_/Outshined'
p9
S'1269619429'
p10
tp11
a(S'Stone Temple Pilots'
p12
S'"Unglued"'
p13
S'http://www.last.fm/music/Stone+Temple+Pilots/_/%22Unglued%22'
p14
S'1269614390'
p15
tp16
a(S'Soundgarden'
p17
S'Fresh Tendrils'
p18
S'http://www.last.fm/music/Soundgarden/_/Fresh+Tendrils'
p19
S'1269614133'
p20
tp21
a(S'Pearl Jam'
p22
S'Black'
p23
S'http://www.last.fm/music/Pearl+Jam/_/Black'
p24
S'1269613788'
p25
tp26
a(S'Them Crooked Vultures'
p27
S'Gunman'
p28
S'http://www.last.fm/music/Them+Crooked+Vultures/_/Gunman'
p29
S'1269613502'
p30
tp31
a(S'Velvet Revolver'
p32
S'Headspace'
p33
S'http://www.last.fm/music/Velvet+Revolver/_/Headspace'
p34
S'1269554478'
p35
tp36
a(S'Live'
p37
S"Face And Ghost (The Children's Song)"
p38
S'http://www.last.fm/music/Live/_/Face+And+Ghost+(The+Children%27s+Song)'
p39
S'1269554207'
p40
tp41
a(S'Soundgarden'
p42
S'Mind Riot'
p43
S'http://www.last.fm/music/Soundgarden/_/Mind+Riot'
p44
S'1269553762'
p45
tp46
a(S'Them Crooked Vultures'
p47
S'No One Loves Me & Neither Do I'
p48
S'http://www.last.fm/music/Them+Crooked+Vultures/_/No+One+Loves+Me+&+Neither+Do+I'
p49
S'1269553452'
p50
tp51
a(S'Stone Temple Pilots'
p52
S'Silvergun Superman'
p53
S'http://www.last.fm/music/Stone+Temple+Pilots/_/Silvergun+Superman'
p54
S'1269551238'
p55
tp56
a(S'Alice in Chains'
p57
S'Nutshell'
p58
S'http://www.last.fm/music/Alice+in+Chains/_/Nutshell'
p59
S'1269550712'
p60
tp61
a(S'Stone Temple Pilots'
p62
S'Army Ants'
p63
S'http://www.last.fm/music/Stone+Temple+Pilots/_/Army+Ants'
p64
S'1269550485'
p65
tp66
a(S'Them Crooked Vultures'
p67
S'Gunman'
p68
S'http://www.last.fm/music/Them+Crooked+Vultures/_/Gunman'
p69
S'1269550199'
p70
tp71
a(S'Live'
p72
S'Mirror Song'
p73
S'http://www.last.fm/music/Live/_/Mirror+Song'
p74
S'1269520625'
p75
tp76
a(S'Temple of the Dog'
p77
S'Pushin Forward Back'
p78
S'http://www.last.fm/music/Temple+of+the+Dog/_/Pushin+Forward+Back'
p79
S'1269520401'
p80
tp81
a(S'Bad Religion'
p82
S'Stranger Than Fiction'
p83
S'http://www.last.fm/music/Bad+Religion/_/Stranger+Than+Fiction'
p84
S'1269520261'
p85
tp86
a(S'Stone Temple Pilots'
p87
S'Vasoline'
p88
S'http://www.last.fm/music/Stone+Temple+Pilots/_/Vasoline'
p89
S'1269520083'
p90
tp91
a(S'Jerry Cantrell'
p92
S'Between'
p93
S'http://www.last.fm/music/Jerry+Cantrell/_/Between'
p94
S'1269519867'
p95
tp96
a(S'Them Crooked Vultures'
p97
S'New Fang'
p98
S'http://www.last.fm/music/Them+Crooked+Vultures/_/New+Fang'
p99
S'1269519638'
p100
tp101
a(S'Them Crooked Vultures'
p102
S'Gunman'
p103
S'http://www.last.fm/music/Them+Crooked+Vultures/_/Gunman'
p104
S'1269519352'
p105
tp106
a(S'Velvet Revolver'
p107
S'Headspace'
p108
S'http://www.last.fm/music/Velvet+Revolver/_/Headspace'
p109
S'1269468838'
p110
tp111
a(S'Stone Temple Pilots'
p112
S'Seven Caged Tigers'
p113
S'http://www.last.fm/music/Stone+Temple+Pilots/_/Seven+Caged+Tigers'
p114
S'1269468581'
p115
tp116
a(S'Bad Religion'
p117
S'Better Off Dead'
p118
S'http://www.last.fm/music/Bad+Religion/_/Better+Off+Dead'
p119
S'1269468422'
p120
tp121
a(S'Live'
p122
S'Operation Spirit (The Tyranny Of Tradition)'
p123
S'http://www.last.fm/music/Live/_/Operation+Spirit+(The+Tyranny+Of+Tradition)'
p124
S'1269468223'
p125
tp126
a(S'Army Of Anyone'
p127
S'Generation'
p128
S'http://www.last.fm/music/Army+Of+Anyone/_/Generation'
p129
S'1269468012'
p130
tp131
a(S'Temple of the Dog'
p132
S'Reach Down'
p133
S'http://www.last.fm/music/Temple+of+the+Dog/_/Reach+Down'
p134
S'1269466712'
p135
tp136
a(S'Soundgarden'
p137
S'Let Me Drown'
p138
S'http://www.last.fm/music/Soundgarden/_/Let+Me+Drown'
p139
S'1269466480'
p140
tp141
a(S'Alice in Chains'
p142
S'All Secrets Known'
p143
S'http://www.last.fm/music/Alice+in+Chains/_/All+Secrets+Known'
p144
S'1269466198'
p145
tp146
a(S'Temple of the Dog'
p147
S'Four Walled World'
p148
S'http://www.last.fm/music/Temple+of+the+Dog/_/Four+Walled+World'
p149
S'1269462717'
p150
tp151
a(S'Live'
p152
S'Waterboy'
p153
S'http://www.last.fm/music/Live/_/Waterboy'
p154
S'1269462529'
p155
tp156
a(S'Velvet Revolver'
p157
S'Superhuman'
p158
S'http://www.last.fm/music/Velvet+Revolver/_/Superhuman'
p159
S'1269462115'
p160
tp161
a(S'Velvet Revolver'
p162
S'Get Out The Door'
p163
S'http://www.last.fm/music/Velvet+Revolver/_/Get+Out+The+Door'
p164
S'1269461920'
p165
tp166
a(S'Jerry Cantrell'
p167
S'Satisfy'
p168
S'http://www.last.fm/music/Jerry+Cantrell/_/Satisfy'
p169
S'1269461706'
p170
tp171
a(S'Velvet Revolver'
p172
S'Spectacle'
p173
S'http://www.last.fm/music/Velvet+Revolver/_/Spectacle'
p174
S'1269461484'
p175
tp176
a(S'Stone Temple Pilots'
p177
S'Vasoline'
p178
S'http://www.last.fm/music/Stone+Temple+Pilots/_/Vasoline'
p179
S'1269461307'
p180
tp181
a(S'Audioslave'
p182
S'Your Time Has Come'
p183
S'http://www.last.fm/music/Audioslave/_/Your+Time+Has+Come'
p184
S'1269461172'
p185
tp186
a(S'Them Crooked Vultures'
p187
S'Dead End Friends'
p188
S'http://www.last.fm/music/Them+Crooked+Vultures/_/Dead+End+Friends'
p189
S'1269460976'
p190
tp191
a(S'Alice in Chains'
p192
S'Over Now'
p193
S'http://www.last.fm/music/Alice+in+Chains/_/Over+Now'
p194
S'1269460552'
p195
tp196
a(S'Audioslave'
p197
S'Show Me How To Live'
p198
S'http://www.last.fm/music/Audioslave/_/Show+Me+How+To+Live'
p199
S'1269460275'
p200
tp201
a(S'Stone Temple Pilots'
p202
S'Still Remains'
p203
S'http://www.last.fm/music/Stone+Temple+Pilots/_/Still+Remains'
p204
S'1269460062'
p205
tp206
a(S'Army Of Anyone'
p207
S'Goodbye'
p208
S'http://www.last.fm/music/Army+Of+Anyone/_/Goodbye'
p209
S'1269459790'
p210
tp211
a(S'Temple of the Dog'
p212
S'Wooden Jesus'
p213
S'http://www.last.fm/music/Temple+of+the+Dog/_/Wooden+Jesus'
p214
S'1269459540'
p215
tp216
a(S'Soundgarden'
p217
S'The Day I Tried to Live'
p218
S'http://www.last.fm/music/Soundgarden/_/The+Day+I+Tried+to+Live'
p219
S'1269459221'
p220
tp221
a(S'Soundgarden'
p222
S'Mind Riot'
p223
S'http://www.last.fm/music/Soundgarden/_/Mind+Riot'
p224
S'1269458931'
p225
tp226
a(S'Jerry Cantrell'
p227
S'Settling Down'
p228
S'http://www.last.fm/music/Jerry+Cantrell/_/Settling+Down'
p229
S'1269458561'
p230
tp231
a(S'Soundgarden'
p232
S'Room a Thousand Years Wide'
p233
S'http://www.last.fm/music/Soundgarden/_/Room+a+Thousand+Years+Wide'
p234
S'1269458315'
p235
tp236
a(S'Soundgarden'
p237
S'Fell on Black Days'
p238
S'http://www.last.fm/music/Soundgarden/_/Fell+on+Black+Days'
p239
S'1269458033'
p240
tp241
a(S'Mother Love Bone'
p242
S'This Is Shangrila'
p243
S'http://www.last.fm/music/Mother+Love+Bone/_/This+Is+Shangrila'
p244
S'1269457811'
p245
tp246
a(S'Alice in Chains'
p247
S'Got Me Wrong'
p248
S'http://www.last.fm/music/Alice+in+Chains/_/Got+Me+Wrong'
p249
S'1269457559'
p250
tp251
a(S'Army Of Anyone'
p252
S'A Better Place'
p253
S'http://www.last.fm/music/Army+Of+Anyone/_/A+Better+Place'
p254
S'1269456526'
p255
tp256
a(S'Alice in Chains'
p257
S'Private Hell'
p258
S'http://www.last.fm/music/Alice+in+Chains/_/Private+Hell'
p259
S'1269456173'
p260
tp261
a(S'Soundgarden'
p262
S'Drawing Flies'
p263
S'http://www.last.fm/music/Soundgarden/_/Drawing+Flies'
p264
S'1269456027'
p265
tp266
a(S'Queens of the Stone Age'
p267
S'Make It Wit Chu'
p268
S'http://www.last.fm/music/Queens+of+the+Stone+Age/_/Make+It+Wit+Chu'
p269
S'1269455736'
p270
tp271
a(S'Pearl Jam'
p272
S'Do the Evolution'
p273
S'http://www.last.fm/music/Pearl+Jam/_/Do+the+Evolution'
p274
S'1269454090'
p275
tp276
a(S'Stone Temple Pilots'
p277
S'Meat Plow'
p278
S'http://www.last.fm/music/Stone+Temple+Pilots/_/Meat+Plow'
p279
S'1269453873'
p280
tp281
a(S'Stone Temple Pilots'
p282
S'Lounge Fly'
p283
S'http://www.last.fm/music/Stone+Temple+Pilots/_/Lounge+Fly'
p284
S'1269449621'
p285
tp286
a(S'Audioslave'
p287
S'Shadow On The Sun'
p288
S'http://www.last.fm/music/Audioslave/_/Shadow+On+The+Sun'
p289
S'1269449278'
p290
tp291
a(S'Alice in Chains'
p292
S'I Stay Away'
p293
S'http://www.last.fm/music/Alice+in+Chains/_/I+Stay+Away'
p294
S'1269449023'
p295
tp296
a(S'Live'
p297
S'Where Fishes Go'
p298
S'http://www.last.fm/music/Live/_/Where+Fishes+Go'
p299
S'1269448761'
p300
tp301
a(S'Stone Temple Pilots'
p302
S'Silvergun Superman'
p303
S'http://www.last.fm/music/Stone+Temple+Pilots/_/Silvergun+Superman'
p304
S'1269448445'
p305
tp306
a(S'Soundgarden'
p307
S'Fresh Tendrils'
p308
S'http://www.last.fm/music/Soundgarden/_/Fresh+Tendrils'
p309
S'1269448189'
p310
tp311
a(S'Temple of the Dog'
p312
S'Pushin Forward Back'
p313
S'http://www.last.fm/music/Temple+of+the+Dog/_/Pushin+Forward+Back'
p314
S'1269447964'
p315
tp316
a(S'Nirvana'
p317
S'Lithium'
p318
S'http://www.last.fm/music/Nirvana/_/Lithium'
p319
S'1269447640'
p320
tp321
a(S'Jerry Cantrell'
p322
S'Between'
p323
S'http://www.last.fm/music/Jerry+Cantrell/_/Between'
p324
S'1269447423'
p325
tp326
a(S'Velvet Revolver'
p327
S'Slither'
p328
S'http://www.last.fm/music/Velvet+Revolver/_/Slither'
p329
S'1269447175'
p330
tp331
a(S'Pearl Jam'
p332
S'Leash'
p333
S'http://www.last.fm/music/Pearl+Jam/_/Leash'
p334
S'1269446985'
p335
tp336
a(S'Live'
p337
S"Face And Ghost (The Children's Song)"
p338
S'http://www.last.fm/music/Live/_/Face+And+Ghost+(The+Children%27s+Song)'
p339
S'1269438593'
p340
tp341
a(S'Live'
p342
S'Brothers Unaware'
p343
S'http://www.last.fm/music/Live/_/Brothers+Unaware'
p344
S'1269438307'
p345
tp346
a(S'Them Crooked Vultures'
p347
S'Gunman'
p348
S'http://www.last.fm/music/Them+Crooked+Vultures/_/Gunman'
p349
S'1269437864'
p350
tp351
a(S'Alice in Chains'
p352
S'Nutshell'
p353
S'http://www.last.fm/music/Alice+in+Chains/_/Nutshell'
p354
S'1269437605'
p355
tp356
a(S'Airbourne'
p357
S"Runnin' Wild"
p358
S'http://www.last.fm/music/Airbourne/_/Runnin%27+Wild'
p359
S'1269437383'
p360
tp361
a(S'Alice Cooper'
p362
S"You're My Temptation"
p363
S'http://www.last.fm/music/Alice+Cooper/_/You%27re+My+Temptation'
p364
S'1269437074'
p365
tp366
a(S'Soundgarden'
p367
S"Full On Kevin's Mom"
p368
S'http://www.last.fm/music/Soundgarden/_/Full+On+Kevin%27s+Mom'
p369
S'1269436856'
p370
tp371
a(S'Bad Religion'
p372
S'Leave Mine to Me'
p373
S'http://www.last.fm/music/Bad+Religion/_/Leave+Mine+to+Me'
p374
S'1269436729'
p375
tp376
a(S'Them Crooked Vultures'
p377
S'Gunman'
p378
S'http://www.last.fm/music/Them+Crooked+Vultures/_/Gunman'
p379
S'1269436443'
p380
tp381
a(S'Audioslave'
p382
S'Be Yourself'
p383
S'http://www.last.fm/music/Audioslave/_/Be+Yourself'
p384
S'1269435304'
p385
tp386
a(S'Audioslave'
p387
S'Gasoline'
p388
S'http://www.last.fm/music/Audioslave/_/Gasoline'
p389
S'1269435158'
p390
tp391
a(S'Audioslave'
p392
S'Cochise'
p393
S'http://www.last.fm/music/Audioslave/_/Cochise'
p394
S'1269434897'
p395
tp396
a(S'Soundgarden'
p397
S'Big Dumb Sex'
p398
S'http://www.last.fm/music/Soundgarden/_/Big+Dumb+Sex'
p399
S'1269434621'
p400
tp401
a(S'Jerry Cantrell'
p402
S'Hurt A Long Time'
p403
S'http://www.last.fm/music/Jerry+Cantrell/_/Hurt+A+Long+Time'
p404
S'1269434271'
p405
tp406
a(S'Alice in Chains'
p407
S'Bleed the Freak'
p408
S'http://www.last.fm/music/Alice+in+Chains/_/Bleed+the+Freak'
p409
S'1269433917'
p410
tp411
a(S'Chickenfoot'
p412
S'Sexy Little Thing'
p413
S'http://www.last.fm/music/Chickenfoot/_/Sexy+Little+Thing'
p414
S'1269433662'
p415
tp416
a(S'Iron Maiden'
p417
S'Innocent Exile'
p418
S'http://www.last.fm/music/Iron+Maiden/_/Innocent+Exile'
p419
S'1269433430'
p420
tp421
a(S'Queens of the Stone Age'
p422
S'Misfit Love'
p423
S'http://www.last.fm/music/Queens+of+the+Stone+Age/_/Misfit+Love'
p424
S'1269433090'
p425
tp426
a(S'Bad Religion'
p427
S'Marked'
p428
S'http://www.last.fm/music/Bad+Religion/_/Marked'
p429
S'1269432981'
p430
tp431
a(S'Megadeth'
p432
S'A Secret Place'
p433
S'http://www.last.fm/music/Megadeth/_/A+Secret+Place'
p434
S'1269432657'
p435
tp436
a(S'Placebo'
p437
S'Every You Every Me'
p438
S'http://www.last.fm/music/Placebo/_/Every+You+Every+Me'
p439
S'1269432443'
p440
tp441
a(S'Alice in Chains'
p442
S'Brother'
p443
S'http://www.last.fm/music/Alice+in+Chains/_/Brother'
p444
S'1269432175'
p445
tp446
a(S'Audioslave'
p447
S'I Am The Highway'
p448
S'http://www.last.fm/music/Audioslave/_/I+Am+The+Highway'
p449
S'1269431840'
p450
tp451
a(S'Mother Love Bone'
p452
S'Gentle Groove'
p453
S'http://www.last.fm/music/Mother+Love+Bone/_/Gentle+Groove'
p454
S'1269431596'
p455
tp456
a(S'The Toy Dolls'
p457
S'Bare Faced Cheek'
p458
S'http://www.last.fm/music/The+Toy+Dolls/_/Bare+Faced+Cheek'
p459
S'1269431545'
p460
tp461
a(S'ZZ Top'
p462
S'Pincushion'
p463
S'http://www.last.fm/music/ZZ+Top/_/Pincushion'
p464
S'1269431271'
p465
tp466
a(S'Iron Maiden'
p467
S'Drifter'
p468
S'http://www.last.fm/music/Iron+Maiden/_/Drifter'
p469
S'1269384923'
p470
tp471
a(S'Audioslave'
p472
S'Be Yourself'
p473
S'http://www.last.fm/music/Audioslave/_/Be+Yourself'
p474
S'1269384644'
p475
tp476
a(S'Soundgarden'
p477
S'Loud Love'
p478
S'http://www.last.fm/music/Soundgarden/_/Loud+Love'
p479
S'1269384347'
p480
tp481
a(S'Soundgarden'
p482
S'Hands All Over'
p483
S'http://www.last.fm/music/Soundgarden/_/Hands+All+Over'
p484
S'1269383986'
p485
tp486
a(S'Alice in Chains'
p487
S'Bleed the Freak'
p488
S'http://www.last.fm/music/Alice+in+Chains/_/Bleed+the+Freak'
p489
S'1269383744'
p490
tp491
a(S'Airbourne'
p492
S'Diamond in the Rough'
p493
S'http://www.last.fm/music/Airbourne/_/Diamond+in+the+Rough'
p494
S'1269383570'
p495
tp496
a(S'Metallica'
p497
S'2 X 4'
p498
S'http://www.last.fm/music/Metallica/_/2+X+4'
p499
S'1269383328'
p500
tp501
a(S'The Toy Dolls'
p502
S'Howza Bouta Kiss Babe??!'
p503
S'http://www.last.fm/music/The+Toy+Dolls/_/Howza+Bouta+Kiss+Babe%3F%3F!'
p504
S'1269383158'
p505
tp506
a(S'Mother Love Bone'
p507
S'Gentle Groove'
p508
S'http://www.last.fm/music/Mother+Love+Bone/_/Gentle+Groove'
p509
S'1269382864'
p510
tp511
a(S'The Toy Dolls'
p512
S"The Ashbrooke Launderette (You'll Stink... Your Clothes Shrink, Your White'll Be As Black As Ink)"
p513
S'http://www.last.fm/music/The+Toy+Dolls/_/The+Ashbrooke+Launderette+(You%27ll+Stink...+Your+Clothes+Shrink,+Your+White%27ll+Be+As+Black+As+Ink)'
p514
S'1269382654'
p515
tp516
a(S'Iron Maiden'
p517
S'Innocent Exile'
p518
S'http://www.last.fm/music/Iron+Maiden/_/Innocent+Exile'
p519
S'1269382422'
p520
tp521
a(S'Soundgarden'
p522
S'Full On (Reprise)'
p523
S'http://www.last.fm/music/Soundgarden/_/Full+On+(Reprise)'
p524
S'1269382259'
p525
tp526
a(S'Soundgarden'
p527
S"Full On Kevin's Mom"
p528
S'http://www.last.fm/music/Soundgarden/_/Full+On+Kevin%27s+Mom'
p529
S'1269382042'
p530
tp531
a(S'The Toy Dolls'
p532
S'Quick to Quit the Quentin'
p533
S'http://www.last.fm/music/The+Toy+Dolls/_/Quick+to+Quit+the+Quentin'
p534
S'1269381873'
p535
tp536
a(S'Queens of the Stone Age'
p537
S'Misfit Love'
p538
S'http://www.last.fm/music/Queens+of+the+Stone+Age/_/Misfit+Love'
p539
S'1269381533'
p540
tp541
a(S'Bad Religion'
p542
S'Better Off Dead'
p543
S'http://www.last.fm/music/Bad+Religion/_/Better+Off+Dead'
p544
S'1269377040'
p545
tp546
a(S'Soundgarden'
p547
S'Superunknown'
p548
S'http://www.last.fm/music/Soundgarden/_/Superunknown'
p549
S'1269376818'
p550
tp551
a(S'ZZ Top'
p552
S'Cherry Red'
p553
S'http://www.last.fm/music/ZZ+Top/_/Cherry+Red'
p554
S'1269376536'
p555
tp556
a(S'Them Crooked Vultures'
p557
S'Gunman'
p558
S'http://www.last.fm/music/Them+Crooked+Vultures/_/Gunman'
p559
S'1269372458'
p560
tp561
a(S'Diamond Head'
p562
S'This Planet and Me'
p563
S'http://www.last.fm/music/Diamond+Head/_/This+Planet+and+Me'
p564
S'1269372162'
p565
tp566
a(S'Misfits'
p567
S'Bullet'
p568
S'http://www.last.fm/music/Misfits/_/Bullet'
p569
S'1269372064'
p570
tp571
a(S'Army Of Anyone'
p572
S'Generation'
p573
S'http://www.last.fm/music/Army+Of+Anyone/_/Generation'
p574
S'1269371853'
p575
tp576
a(S'Alice in Chains'
p577
S'Check My Brain'
p578
S'http://www.last.fm/music/Alice+in+Chains/_/Check+My+Brain'
p579
S'1269371615'
p580
tp581
a(S'Diamond Head'
p582
S'Muddy Waters'
p583
S'http://www.last.fm/music/Diamond+Head/_/Muddy+Waters'
p584
S'1269371340'
p585
tp586
a(S'Bad Religion'
p587
S'The Handshake'
p588
S'http://www.last.fm/music/Bad+Religion/_/The+Handshake'
p589
S'1269371170'
p590
tp591
a(S'Bad Religion'
p592
S'Leave Mine to Me'
p593
S'http://www.last.fm/music/Bad+Religion/_/Leave+Mine+to+Me'
p594
S'1269371043'
p595
tp596
a(S'Bad Religion'
p597
S'Along The Way'
p598
S'http://www.last.fm/music/Bad+Religion/_/Along+The+Way'
p599
S'1269370944'
p600
tp601
a(S'Mother Love Bone'
p602
S'Come Bite The Apple'
p603
S'http://www.last.fm/music/Mother+Love+Bone/_/Come+Bite+The+Apple'
p604
S'1269370617'
p605
tp606
a(S'Chickenfoot'
p607
S'Sexy Little Thing'
p608
S'http://www.last.fm/music/Chickenfoot/_/Sexy+Little+Thing'
p609
S'1269370362'
p610
tp611
a(S'Audioslave'
p612
S'Yesterday To Tomorrow'
p613
S'http://www.last.fm/music/Audioslave/_/Yesterday+To+Tomorrow'
p614
S'1269370088'
p615
tp616
a(S'Them Crooked Vultures'
p617
S'New Fang'
p618
S'http://www.last.fm/music/Them+Crooked+Vultures/_/New+Fang'
p619
S'1269369860'
p620
tp621
a(S'Audioslave'
p622
S'Like A Stone'
p623
S'http://www.last.fm/music/Audioslave/_/Like+A+Stone'
p624
S'1269369566'
p625
tp626
a(S'Megadeth'
p627
S'A Secret Place'
p628
S'http://www.last.fm/music/Megadeth/_/A+Secret+Place'
p629
S'1269369226'
p630
tp631
a(S'Misfits'
p632
S'Hybrid Moments'
p633
S'http://www.last.fm/music/Misfits/_/Hybrid+Moments'
p634
S'1269369156'
p635
tp636
a(S'Audioslave'
p637
S'Cochise'
p638
S'http://www.last.fm/music/Audioslave/_/Cochise'
p639
S'1269368935'
p640
tp641
a(S'Soundgarden'
p642
S'Superunknown'
p643
S'http://www.last.fm/music/Soundgarden/_/Superunknown'
p644
S'1269347711'
p645
tp646
a(S'Soundgarden'
p647
S"Full On Kevin's Mom"
p648
S'http://www.last.fm/music/Soundgarden/_/Full+On+Kevin%27s+Mom'
p649
S'1269347494'
p650
tp651
a(S'Bad Religion'
p652
S'Better Off Dead'
p653
S'http://www.last.fm/music/Bad+Religion/_/Better+Off+Dead'
p654
S'1269347335'
p655
tp656
a(S'Soundgarden'
p657
S'Big Dumb Sex'
p658
S'http://www.last.fm/music/Soundgarden/_/Big+Dumb+Sex'
p659
S'1269347084'
p660
tp661
a(S'ZZ Top'
p662
S'Fuzzbox Voodoo'
p663
S'http://www.last.fm/music/ZZ+Top/_/Fuzzbox+Voodoo'
p664
S'1269346801'
p665
tp666
a(S'ZZ Top'
p667
S'Pincushion'
p668
S'http://www.last.fm/music/ZZ+Top/_/Pincushion'
p669
S'1269346528'
p670
tp671
a(S'Metallica'
p672
S'Until It Sleeps'
p673
S'http://www.last.fm/music/Metallica/_/Until+It+Sleeps'
p674
S'1269342453'
p675
tp676
a(S'Bad Religion'
p677
S'Stranger Than Fiction'
p678
S'http://www.last.fm/music/Bad+Religion/_/Stranger+Than+Fiction'
p679
S'1269342312'
p680
tp681
a(S'Soundgarden'
p682
S'Full On (Reprise)'
p683
S'http://www.last.fm/music/Soundgarden/_/Full+On+(Reprise)'
p684
S'1269342150'
p685
tp686
a(S'Bad Religion'
p687
S'Marked'
p688
S'http://www.last.fm/music/Bad+Religion/_/Marked'
p689
S'1269342042'
p690
tp691
a(S'Misfits'
p692
S'Bullet'
p693
S'http://www.last.fm/music/Misfits/_/Bullet'
p694
S'1269341944'
p695
tp696
a(S'Iron Maiden'
p697
S'Purgatory'
p698
S'http://www.last.fm/music/Iron+Maiden/_/Purgatory'
p699
S'1269341744'
p700
tp701
a(S'Soundgarden'
p702
S'Loud Love'
p703
S'http://www.last.fm/music/Soundgarden/_/Loud+Love'
p704
S'1269341447'
p705
tp706
a(S'Audioslave'
p707
S'I Am The Highway'
p708
S'http://www.last.fm/music/Audioslave/_/I+Am+The+Highway'
p709
S'1269341281'
p710
tp711
a(S'Jupiter One'
p712
S'Countdown'
p713
S'http://www.last.fm/music/Jupiter+One/_/Countdown'
p714
S'1269341053'
p715
tp716
a(S'Audioslave'
p717
S'Cochise'
p718
S'http://www.last.fm/music/Audioslave/_/Cochise'
p719
S'1269340791'
p720
tp721
a(S'Bad Religion'
p722
S'Stranger Than Fiction'
p723
S'http://www.last.fm/music/Bad+Religion/_/Stranger+Than+Fiction'
p724
S'1269276485'
p725
tp726
a(S'Iron Maiden'
p727
S'Innocent Exile'
p728
S'http://www.last.fm/music/Iron+Maiden/_/Innocent+Exile'
p729
S'1269276222'
p730
tp731
a(S'Alice in Chains'
p732
S'Brother'
p733
S'http://www.last.fm/music/Alice+in+Chains/_/Brother'
p734
S'1269275954'
p735
tp736
a(S'Soundgarden'
p737
S'Big Dumb Sex'
p738
S'http://www.last.fm/music/Soundgarden/_/Big+Dumb+Sex'
p739
S'1269275604'
p740
tp741
a(S'Yes'
p742
S'Changes'
p743
S'http://www.last.fm/music/Yes/_/Changes'
p744
S'1269275224'
p745
tp746
a(S'The Toy Dolls'
p747
S'Quick to Quit the Quentin'
p748
S'http://www.last.fm/music/The+Toy+Dolls/_/Quick+to+Quit+the+Quentin'
p749
S'1269275055'
p750
tp751
a(S'Audioslave'
p752
S"Heaven's Dead"
p753
S'http://www.last.fm/music/Audioslave/_/Heaven%27s+Dead'
p754
S'1269274779'
p755
tp756
a(S'Army Of Anyone'
p757
S'Generation'
p758
S'http://www.last.fm/music/Army+Of+Anyone/_/Generation'
p759
S'1269274568'
p760
tp761
a(S'Bad Religion'
p762
S'Marked'
p763
S'http://www.last.fm/music/Bad+Religion/_/Marked'
p764
S'1269274459'
p765
tp766
a(S'Bad Religion'
p767
S'Better Off Dead'
p768
S'http://www.last.fm/music/Bad+Religion/_/Better+Off+Dead'
p769
S'1269274300'
p770
tp771
a(S'Queens of the Stone Age'
p772
S'Misfit Love'
p773
S'http://www.last.fm/music/Queens+of+the+Stone+Age/_/Misfit+Love'
p774
S'1269273853'
p775
tp776
a(S'Them Crooked Vultures'
p777
S'New Fang'
p778
S'http://www.last.fm/music/Them+Crooked+Vultures/_/New+Fang'
p779
S'1269263011'
p780
tp781
a(S'Audioslave'
p782
S'Like A Stone'
p783
S'http://www.last.fm/music/Audioslave/_/Like+A+Stone'
p784
S'1269262717'
p785
tp786
a(S'Alice in Chains'
p787
S'Bleed the Freak'
p788
S'http://www.last.fm/music/Alice+in+Chains/_/Bleed+the+Freak'
p789
S'1269262475'
p790
tp791
a(S'Airbourne'
p792
S"Runnin' Wild"
p793
S'http://www.last.fm/music/Airbourne/_/Runnin%27+Wild'
p794
S'1269262257'
p795
tp796
a(S'Megadeth'
p797
S'A Secret Place'
p798
S'http://www.last.fm/music/Megadeth/_/A+Secret+Place'
p799
S'1269261932'
p800
tp801
a(S'Iron Maiden'
p802
S'Drifter'
p803
S'http://www.last.fm/music/Iron+Maiden/_/Drifter'
p804
S'1269261644'
p805
tp806
a(S'Audioslave'
p807
S'Moth'
p808
S'http://www.last.fm/music/Audioslave/_/Moth'
p809
S'1269261349'
p810
tp811
a(S'Soundgarden'
p812
S'Hands All Over'
p813
S'http://www.last.fm/music/Soundgarden/_/Hands+All+Over'
p814
S'1269260988'
p815
tp816
a(S'Alice in Chains'
p817
S'Check My Brain'
p818
S'http://www.last.fm/music/Alice+in+Chains/_/Check+My+Brain'
p819
S'1269260716'
p820
tp821
a(S'Soundgarden'
p822
S'Loud Love'
p823
S'http://www.last.fm/music/Soundgarden/_/Loud+Love'
p824
S'1269260419'
p825
tp826
a(S'Bad Religion'
p827
S'Along The Way'
p828
S'http://www.last.fm/music/Bad+Religion/_/Along+The+Way'
p829
S'1269260341'
p830
tp831
a(S'The Toy Dolls'
p832
S'Howza Bouta Kiss Babe??!'
p833
S'http://www.last.fm/music/The+Toy+Dolls/_/Howza+Bouta+Kiss+Babe%3F%3F!'
p834
S'1269260170'
p835
tp836
a(S'Audioslave'
p837
S'Yesterday To Tomorrow'
p838
S'http://www.last.fm/music/Audioslave/_/Yesterday+To+Tomorrow'
p839
S'1269259897'
p840
tp841
a(S'Misfits'
p842
S'Descending Angel'
p843
S'http://www.last.fm/music/Misfits/_/Descending+Angel'
p844
S'1269259671'
p845
tp846
a(S'Diamond Head'
p847
S'This Planet and Me'
p848
S'http://www.last.fm/music/Diamond+Head/_/This+Planet+and+Me'
p849
S'1269259374'
p850
tp851
a(S'Them Crooked Vultures'
p852
S'Gunman'
p853
S'http://www.last.fm/music/Them+Crooked+Vultures/_/Gunman'
p854
S'1269031973'
p855
tp856
a(S'Misfits'
p857
S'Bullet'
p858
S'http://www.last.fm/music/Misfits/_/Bullet'
p859
S'1269031875'
p860
tp861
a(S'Soundgarden'
p862
S'Full On (Reprise)'
p863
S'http://www.last.fm/music/Soundgarden/_/Full+On+(Reprise)'
p864
S'1269031713'
p865
tp866
a(S'Placebo'
p867
S'Every You Every Me'
p868
S'http://www.last.fm/music/Placebo/_/Every+You+Every+Me'
p869
S'1269031499'
p870
tp871
a(S'Jerry Cantrell'
p872
S'Hurt A Long Time'
p873
S'http://www.last.fm/music/Jerry+Cantrell/_/Hurt+A+Long+Time'
p874
S'1269031158'
p875
tp876
a(S'Audioslave'
p877
S'Be Yourself'
p878
S'http://www.last.fm/music/Audioslave/_/Be+Yourself'
p879
S'1269030879'
p880
tp881
a(S'Bad Religion'
p882
S'Stranger Than Fiction'
p883
S'http://www.last.fm/music/Bad+Religion/_/Stranger+Than+Fiction'
p884
S'1269030739'
p885
tp886
a(S'Soundgarden'
p887
S'Big Dumb Sex'
p888
S'http://www.last.fm/music/Soundgarden/_/Big+Dumb+Sex'
p889
S'1269024668'
p890
tp891
a(S'Jerry Cantrell'
p892
S'Keep The Light On'
p893
S'http://www.last.fm/music/Jerry+Cantrell/_/Keep+The+Light+On'
p894
S'1269024381'
p895
tp896
a(S'Metallica'
p897
S'2 X 4'
p898
S'http://www.last.fm/music/Metallica/_/2+X+4'
p899
S'1269024051'
p900
tp901
a(S'Misfits'
p902
S'The Hunger'
p903
S'http://www.last.fm/music/Misfits/_/The+Hunger'
p904
S'1269023973'
p905
tp906
a(S'Audioslave'
p907
S'Gasoline'
p908
S'http://www.last.fm/music/Audioslave/_/Gasoline'
p909
S'1269023693'
p910
tp911
a(S'Bad Religion'
p912
S'The Handshake'
p913
S'http://www.last.fm/music/Bad+Religion/_/The+Handshake'
p914
S'1269023523'
p915
tp916
a(S'Audioslave'
p917
S"Heaven's Dead"
p918
S'http://www.last.fm/music/Audioslave/_/Heaven%27s+Dead'
p919
S'1269023213'
p920
tp921
a(S'Airbourne'
p922
S"Runnin' Wild"
p923
S'http://www.last.fm/music/Airbourne/_/Runnin%27+Wild'
p924
S'1269022994'
p925
tp926
a(S'ZZ Top'
p927
S'Cherry Red'
p928
S'http://www.last.fm/music/ZZ+Top/_/Cherry+Red'
p929
S'1269022715'
p930
tp931
a(S'Alice in Chains'
p932
S'Check My Brain'
p933
S'http://www.last.fm/music/Alice+in+Chains/_/Check+My+Brain'
p934
S'1269020232'
p935
tp936
a(S'Airbourne'
p937
S'Diamond in the Rough'
p938
S'http://www.last.fm/music/Airbourne/_/Diamond+in+the+Rough'
p939
S'1269020058'
p940
tp941
a(S'The Toy Dolls'
p942
S"The Ashbrooke Launderette (You'll Stink... Your Clothes Shrink, Your White'll Be As Black As Ink)"
p943
S'http://www.last.fm/music/The+Toy+Dolls/_/The+Ashbrooke+Launderette+(You%27ll+Stink...+Your+Clothes+Shrink,+Your+White%27ll+Be+As+Black+As+Ink)'
p944
S'1269019848'
p945
tp946
a(S'Diamond Head'
p947
S'Muddy Waters'
p948
S'http://www.last.fm/music/Diamond+Head/_/Muddy+Waters'
p949
S'1269019573'
p950
tp951
a(S'Army Of Anyone'
p952
S'Generation'
p953
S'http://www.last.fm/music/Army+Of+Anyone/_/Generation'
p954
S'1269019362'
p955
tp956
a(S'The Toy Dolls'
p957
S'Bare Faced Cheek'
p958
S'http://www.last.fm/music/The+Toy+Dolls/_/Bare+Faced+Cheek'
p959
S'1269019310'
p960
tp961
a(S'Misfits'
p962
S'Hollywood Babylon'
p963
S'http://www.last.fm/music/Misfits/_/Hollywood+Babylon'
p964
S'1269019170'
p965
tp966
a(S'Diamond Head'
p967
S'This Planet and Me'
p968
S'http://www.last.fm/music/Diamond+Head/_/This+Planet+and+Me'
p969
S'1269018698'
p970
tp971
a(S'Jerry Cantrell'
p972
S'Keep The Light On'
p973
S'http://www.last.fm/music/Jerry+Cantrell/_/Keep+The+Light+On'
p974
S'1269002291'
p975
tp976
a(S'Airbourne'
p977
S'Diamond in the Rough'
p978
S'http://www.last.fm/music/Airbourne/_/Diamond+in+the+Rough'
p979
S'1269002117'
p980
tp981
a(S'ZZ Top'
p982
S'Cherry Red'
p983
S'http://www.last.fm/music/ZZ+Top/_/Cherry+Red'
p984
S'1269001728'
p985
tp986
a(S'Soundgarden'
p987
S'The Day I Tried to Live'
p988
S'http://www.last.fm/music/Soundgarden/_/The+Day+I+Tried+to+Live'
p989
S'1268952428'
p990
tp991
a(S'ZZ Top'
p992
S'Fuzzbox Voodoo'
p993
S'http://www.last.fm/music/ZZ+Top/_/Fuzzbox+Voodoo'
p994
S'1268952145'
p995
tp996
a(S'Megadeth'
p997
S'A Secret Place'
p998
S'http://www.last.fm/music/Megadeth/_/A+Secret+Place'
p999
S'1268951820'
p1000
tp1001
a.