(lp1
(S'Stone Temple Pilots'
p2
S'Piece of Pie'
p3
S'http://www.last.fm/music/Stone+Temple+Pilots/_/Piece+of+Pie'
p4
S'1275946955'
p5
tp6
a(S'Ozzy Osbourne'
p7
S'The Ultimate Sin'
p8
S'http://www.last.fm/music/Ozzy+Osbourne/_/The+Ultimate+Sin'
p9
S'1275946631'
p10
tp11
a(S'Queens of the Stone Age'
p12
S'Gonna Leave You'
p13
S'http://www.last.fm/music/Queens+of+the+Stone+Age/_/Gonna+Leave+You'
p14
S'1275946395'
p15
tp16
a(S'Ozzy Osbourne'
p17
S'Shot in the Dark'
p18
S'http://www.last.fm/music/Ozzy+Osbourne/_/Shot+in+the+Dark'
p19
S'1275946222'
p20
tp21
a(S'Soundgarden'
p22
S'Black Hole Sun'
p23
S'http://www.last.fm/music/Soundgarden/_/Black+Hole+Sun'
p24
S'1275945957'
p25
tp26
a(S'Live'
p27
S'Like A Soldier'
p28
S'http://www.last.fm/music/Live/_/Like+A+Soldier'
p29
S'1275945639'
p30
tp31
a(S'Daft Punk'
p32
S'One More Time'
p33
S'http://www.last.fm/music/Daft+Punk/_/One+More+Time'
p34
S'1275945447'
p35
tp36
a(S'Ozzy Osbourne'
p37
S'Denial'
p38
S'http://www.last.fm/music/Ozzy+Osbourne/_/Denial'
p39
S'1275945078'
p40
tp41
a(S'Ozzy Osbourne'
p42
S'Ghost Behind My Eyes'
p43
S'http://www.last.fm/music/Ozzy+Osbourne/_/Ghost+Behind+My+Eyes'
p44
S'1275944748'
p45
tp46
a(S'Alice in Chains'
p47
S'Sea of Sorrow'
p48
S'http://www.last.fm/music/Alice+in+Chains/_/Sea+of+Sorrow'
p49
S'1275944313'
p50
tp51
a(S'Stone Temple Pilots'
p52
S'Hickory Dichotomy'
p53
S'http://www.last.fm/music/Stone+Temple+Pilots/_/Hickory+Dichotomy'
p54
S'1275942105'
p55
tp56
a(S'Ozzy Osbourne'
p57
S'Perry Mason'
p58
S'http://www.last.fm/music/Ozzy+Osbourne/_/Perry+Mason'
p59
S'1275941889'
p60
tp61
a(S'Iron Maiden'
p62
S'Murders In the Rue Morgue'
p63
S'http://www.last.fm/music/Iron+Maiden/_/Murders+In+the+Rue+Morgue'
p64
S'1275941529'
p65
tp66
a(S'Stone Temple Pilots'
p67
S'Peacoat'
p68
S'http://www.last.fm/music/Stone+Temple+Pilots/_/Peacoat'
p69
S'1275941270'
p70
tp71
a(S'Stone Temple Pilots'
p72
S'Vasoline (Live from Chicago)'
p73
S'http://www.last.fm/music/Stone+Temple+Pilots/_/Vasoline+(Live+from+Chicago)'
p74
S'1275940925'
p75
tp76
a(S'Yes'
p77
S'Hold On'
p78
S'http://www.last.fm/music/Yes/_/Hold+On'
p79
S'1275940729'
p80
tp81
a(S'Audioslave'
p82
S'Jewel Of The Summertime'
p83
S'http://www.last.fm/music/Audioslave/_/Jewel+Of+The+Summertime'
p84
S'1275940303'
p85
tp86
a(S'AC/DC'
p87
S"You Ain't Got a Hold on Me"
p88
S'http://www.last.fm/music/AC%2FDC/_/You+Ain%27t+Got+a+Hold+on+Me'
p89
S'1275940071'
p90
tp91
a(S'Ozzy Osbourne'
p92
S'Thank God for the Bomb'
p93
S'http://www.last.fm/music/Ozzy+Osbourne/_/Thank+God+for+the+Bomb'
p94
S'1275939863'
p95
tp96
a(S'Diamond Head'
p97
S"What's in Your Head?"
p98
S'http://www.last.fm/music/Diamond+Head/_/What%27s+in+Your+Head%3F'
p99
S'1275939629'
p100
tp101
a(S'Live'
p102
S'Heaven'
p103
S'http://www.last.fm/music/Live/_/Heaven'
p104
S'1275939377'
p105
tp106
a(S'The Cult'
p107
S"Lil' Devil"
p108
S'http://www.last.fm/music/The+Cult/_/Lil%27+Devil'
p109
S'1275938737'
p110
tp111
a(S'Iron Maiden'
p112
S'Another Life'
p113
S'http://www.last.fm/music/Iron+Maiden/_/Another+Life'
p114
S'1275938461'
p115
tp116
a(S'Iron Maiden'
p117
S'Sea of Madness'
p118
S'http://www.last.fm/music/Iron+Maiden/_/Sea+of+Madness'
p119
S'1275938258'
p120
tp121
a(S'Lynyrd Skynyrd'
p122
S'Preacher Man'
p123
S'http://www.last.fm/music/Lynyrd+Skynyrd/_/Preacher+Man'
p124
S'1275937916'
p125
tp126
a(S'Stone Temple Pilots'
p127
S'Take a Load Off'
p128
S'http://www.last.fm/music/Stone+Temple+Pilots/_/Take+a+Load+Off'
p129
S'1275937633'
p130
tp131
a(S'Bee Gees'
p132
S'E.S.P.'
p133
S'http://www.last.fm/music/Bee+Gees/_/E.S.P.'
p134
S'1275937441'
p135
tp136
a(S'Live'
p137
S'Home'
p138
S'http://www.last.fm/music/Live/_/Home'
p139
S'1275937239'
p140
tp141
a(S'Alice in Chains'
p142
S'Black Gives Way to Blue'
p143
S'http://www.last.fm/music/Alice+in+Chains/_/Black+Gives+Way+to+Blue'
p144
S'1275937035'
p145
tp146
a(S'Velvet Revolver'
p147
S'Spectacle'
p148
S'http://www.last.fm/music/Velvet+Revolver/_/Spectacle'
p149
S'1275936852'
p150
tp151
a(S'Alice in Chains'
p152
S'Head Creeps'
p153
S'http://www.last.fm/music/Alice+in+Chains/_/Head+Creeps'
p154
S'1275936630'
p155
tp156
a(S'ZZ Top'
p157
S'Loaded'
p158
S'http://www.last.fm/music/ZZ+Top/_/Loaded'
p159
S'1275936140'
p160
tp161
a(S'Velvet Revolver'
p162
S'Superhuman'
p163
S'http://www.last.fm/music/Velvet+Revolver/_/Superhuman'
p164
S'1275935904'
p165
tp166
a(S'Soundgarden'
p167
S'Fell on Black Days'
p168
S'http://www.last.fm/music/Soundgarden/_/Fell+on+Black+Days'
p169
S'1275935649'
p170
tp171
a(S'ZZ Top'
p172
S'Vincent Price Blues'
p173
S'http://www.last.fm/music/ZZ+Top/_/Vincent+Price+Blues'
p174
S'1275935366'
p175
tp176
a(S'Daft Punk'
p177
S'Digital Love'
p178
S'http://www.last.fm/music/Daft+Punk/_/Digital+Love'
p179
S'1275935043'
p180
tp181
a(S'Soundgarden'
p182
S'Face Pollution'
p183
S'http://www.last.fm/music/Soundgarden/_/Face+Pollution'
p184
S'1275934627'
p185
tp186
a(S'AC/DC'
p187
S'Whole Lotta Rosie'
p188
S'http://www.last.fm/music/AC%2FDC/_/Whole+Lotta+Rosie'
p189
S'1275934481'
p190
tp191
a(S'Live'
p192
S'Iris'
p193
S'http://www.last.fm/music/Live/_/Iris'
p194
S'1275934233'
p195
tp196
a(S'Stone Temple Pilots'
p197
S'Bagman'
p198
S'http://www.last.fm/music/Stone+Temple+Pilots/_/Bagman'
p199
S'1275933938'
p200
tp201
a(S'Ozzy Osbourne'
p202
S'Perry Mason'
p203
S'http://www.last.fm/music/Ozzy+Osbourne/_/Perry+Mason'
p204
S'1275933728'
p205
tp206
a(S'Live'
p207
S'Life Marches On'
p208
S'http://www.last.fm/music/Live/_/Life+Marches+On'
p209
S'1275933375'
p210
tp211
a(S'Live'
p212
S'Bring The People Together'
p213
S'http://www.last.fm/music/Live/_/Bring+The+People+Together'
p214
S'1275933202'
p215
tp216
a(S'Iron Maiden'
p217
S'Murders In the Rue Morgue'
p218
S'http://www.last.fm/music/Iron+Maiden/_/Murders+In+the+Rue+Morgue'
p219
S'1275933019'
p220
tp221
a(S'Stone Temple Pilots'
p222
S'Peacoat'
p223
S'http://www.last.fm/music/Stone+Temple+Pilots/_/Peacoat'
p224
S'1275932760'
p225
tp226
a(S'Ozzy Osbourne'
p227
S'Fool Like You'
p228
S'http://www.last.fm/music/Ozzy+Osbourne/_/Fool+Like+You'
p229
S'1275932533'
p230
tp231
a(S'Stone Temple Pilots'
p232
S'Hickory Dichotomy (Live from Chicago)'
p233
S'http://www.last.fm/music/Stone+Temple+Pilots/_/Hickory+Dichotomy+(Live+from+Chicago)'
p234
S'1275926758'
p235
tp236
a(S'Stone Temple Pilots'
p237
S'Take a Load Off'
p238
S'http://www.last.fm/music/Stone+Temple+Pilots/_/Take+a+Load+Off'
p239
S'1275926546'
p240
tp241
a(S'Stone Temple Pilots'
p242
S'Between the Lines'
p243
S'http://www.last.fm/music/Stone+Temple+Pilots/_/Between+the+Lines'
p244
S'1275926344'
p245
tp246
a(S'Audioslave'
p247
S'Be Yourself'
p248
S'http://www.last.fm/music/Audioslave/_/Be+Yourself'
p249
S'1275926156'
p250
tp251
a(S'Stone Temple Pilots'
p252
S'Adhesive'
p253
S'http://www.last.fm/music/Stone+Temple+Pilots/_/Adhesive'
p254
S'1275925877'
p255
tp256
a(S'Black Sabbath'
p257
S'Heaven and Hell'
p258
S'http://www.last.fm/music/Black+Sabbath/_/Heaven+and+Hell'
p259
S'1275925543'
p260
tp261
a(S'Soundgarden'
p262
S'Somewhere'
p263
S'http://www.last.fm/music/Soundgarden/_/Somewhere'
p264
S'1275925127'
p265
tp266
a(S'Them Crooked Vultures'
p267
S'Gunman'
p268
S'http://www.last.fm/music/Them+Crooked+Vultures/_/Gunman'
p269
S'1275924866'
p270
tp271
a(S'Soundgarden'
p272
S'4th of July'
p273
S'http://www.last.fm/music/Soundgarden/_/4th+of+July'
p274
S'1275924580'
p275
tp276
a(S'Stone Temple Pilots'
p277
S'Huckleberry Crumble'
p278
S'http://www.last.fm/music/Stone+Temple+Pilots/_/Huckleberry+Crumble'
p279
S'1275924271'
p280
tp281
a(S'Stone Temple Pilots'
p282
S'Piece of Pie'
p283
S'http://www.last.fm/music/Stone+Temple+Pilots/_/Piece+of+Pie'
p284
S'1275924063'
p285
tp286
a(S'Ozzy Osbourne'
p287
S'The Ultimate Sin'
p288
S'http://www.last.fm/music/Ozzy+Osbourne/_/The+Ultimate+Sin'
p289
S'1275923703'
p290
tp291
a(S'Alice in Chains'
p292
S'Get Born Again'
p293
S'http://www.last.fm/music/Alice+in+Chains/_/Get+Born+Again'
p294
S'1275923469'
p295
tp296
a(S'Diamond Head'
p297
S'Helpless'
p298
S'http://www.last.fm/music/Diamond+Head/_/Helpless'
p299
S'1275921923'
p300
tp301
a(S'The Cult'
p302
S'Earth Mofo'
p303
S'http://www.last.fm/music/The+Cult/_/Earth+Mofo'
p304
S'1275921509'
p305
tp306
a(S'Nirvana'
p307
S'Breed'
p308
S'http://www.last.fm/music/Nirvana/_/Breed'
p309
S'1275921221'
p310
tp311
a(S'The Cult'
p312
S'Sweet Soul Sister'
p313
S'http://www.last.fm/music/The+Cult/_/Sweet+Soul+Sister'
p314
S'1275921033'
p315
tp316
a(S'Rainbow'
p317
S"Long Live Rock 'N' Roll"
p318
S'http://www.last.fm/music/Rainbow/_/Long+Live+Rock+%27N%27+Roll'
p319
S'1275920821'
p320
tp321
a(S'Queen'
p322
S'Radio Ga Ga'
p323
S'http://www.last.fm/music/Queen/_/Radio+Ga+Ga'
p324
S'1275920559'
p325
tp326
a(S'Queen'
p327
S"If You Can't Beat Them"
p328
S'http://www.last.fm/music/Queen/_/If+You+Can%27t+Beat+Them'
p329
S'1275920210'
p330
tp331
a(S'Black Sabbath'
p332
S'Supertzar'
p333
S'http://www.last.fm/music/Black+Sabbath/_/Supertzar'
p334
S'1275919872'
p335
tp336
a(S'Audioslave'
p337
S'Be Yourself'
p338
S'http://www.last.fm/music/Audioslave/_/Be+Yourself'
p339
S'1275919731'
p340
tp341
a(S'Stone Temple Pilots'
p342
S'Adhesive'
p343
S'http://www.last.fm/music/Stone+Temple+Pilots/_/Adhesive'
p344
S'1275919448'
p345
tp346
a(S'Soundgarden'
p347
S'Somewhere'
p348
S'http://www.last.fm/music/Soundgarden/_/Somewhere'
p349
S'1275919110'
p350
tp351
a(S'Them Crooked Vultures'
p352
S'Gunman'
p353
S'http://www.last.fm/music/Them+Crooked+Vultures/_/Gunman'
p354
S'1275918850'
p355
tp356
a(S'Soundgarden'
p357
S'4th of July'
p358
S'http://www.last.fm/music/Soundgarden/_/4th+of+July'
p359
S'1275918563'
p360
tp361
a(S'Stone Temple Pilots'
p362
S'Huckleberry Crumble'
p363
S'http://www.last.fm/music/Stone+Temple+Pilots/_/Huckleberry+Crumble'
p364
S'1275918254'
p365
tp366
a(S'Ozzy Osbourne'
p367
S'Perry Mason'
p368
S'http://www.last.fm/music/Ozzy+Osbourne/_/Perry+Mason'
p369
S'1275917997'
p370
tp371
a(S'Live'
p372
S'Life Marches On'
p373
S'http://www.last.fm/music/Live/_/Life+Marches+On'
p374
S'1275917644'
p375
tp376
a(S'Live'
p377
S'Bring The People Together'
p378
S'http://www.last.fm/music/Live/_/Bring+The+People+Together'
p379
S'1275917471'
p380
tp381
a(S'Iron Maiden'
p382
S'Murders In the Rue Morgue'
p383
S'http://www.last.fm/music/Iron+Maiden/_/Murders+In+the+Rue+Morgue'
p384
S'1275917288'
p385
tp386
a(S'Stone Temple Pilots'
p387
S'Peacoat'
p388
S'http://www.last.fm/music/Stone+Temple+Pilots/_/Peacoat'
p389
S'1275917029'
p390
tp391
a(S'Bon Jovi'
p392
S'Blaze Of Glory'
p393
S'http://www.last.fm/music/Bon+Jovi/_/Blaze+Of+Glory'
p394
S'1275873582'
p395
tp396
a(S'Army Of Anyone'
p397
S'Leave It'
p398
S'http://www.last.fm/music/Army+Of+Anyone/_/Leave+It'
p399
S'1275873357'
p400
tp401
a(S'Diamond Head'
p402
S'Broken Pieces'
p403
S'http://www.last.fm/music/Diamond+Head/_/Broken+Pieces'
p404
S'1275872345'
p405
tp406
a(S'Soundgarden'
p407
S'Fell on Black Days'
p408
S'http://www.last.fm/music/Soundgarden/_/Fell+on+Black+Days'
p409
S'1275872048'
p410
tp411
a(S'Velvet Revolver'
p412
S'You Got No Right'
p413
S'http://www.last.fm/music/Velvet+Revolver/_/You+Got+No+Right'
p414
S'1275871765'
p415
tp416
a(S'Velvet Revolver'
p417
S'Dirty Little Thing'
p418
S'http://www.last.fm/music/Velvet+Revolver/_/Dirty+Little+Thing'
p419
S'1275871415'
p420
tp421
a(S'Diamond Head'
p422
S'Alimony'
p423
S'http://www.last.fm/music/Diamond+Head/_/Alimony'
p424
S'1275871169'
p425
tp426
a(S'Stone Temple Pilots'
p427
S'Bagman'
p428
S'http://www.last.fm/music/Stone+Temple+Pilots/_/Bagman'
p429
S'1275871051'
p430
tp431
a(S'Velvet Revolver'
p432
S'The Last Fight'
p433
S'http://www.last.fm/music/Velvet+Revolver/_/The+Last+Fight'
p434
S'1275870886'
p435
tp436
a(S'Jamiroquai'
p437
S'Black Crow'
p438
S'http://www.last.fm/music/Jamiroquai/_/Black+Crow'
p439
S'1275870441'
p440
tp441
a(S'Judas Priest'
p442
S'Wild Nights, Hot & Crazy Days'
p443
S'http://www.last.fm/music/Judas+Priest/_/Wild+Nights,+Hot+&+Crazy+Days'
p444
S'1275870202'
p445
tp446
a(S'Nirvana'
p447
S'Smells Like Teen Spirit'
p448
S'http://www.last.fm/music/Nirvana/_/Smells+Like+Teen+Spirit'
p449
S'1275869922'
p450
tp451
a(S'Alice Cooper'
p452
S"It's Me"
p453
S'http://www.last.fm/music/Alice+Cooper/_/It%27s+Me'
p454
S'1275869620'
p455
tp456
a(S'Live'
p457
S'The Dam At Otter Creek'
p458
S'http://www.last.fm/music/Live/_/The+Dam+At+Otter+Creek'
p459
S'1275869337'
p460
tp461
a(S'Ozzy Osbourne'
p462
S"Rock 'n' Roll Rebel"
p463
S'http://www.last.fm/music/Ozzy+Osbourne/_/Rock+%27n%27+Roll+Rebel'
p464
S'1275869048'
p465
tp466
a(S'Alice Cooper'
p467
S"The Song That Didn't Rhyme"
p468
S'http://www.last.fm/music/Alice+Cooper/_/The+Song+That+Didn%27t+Rhyme'
p469
S'1275868724'
p470
tp471
a(S'ZZ Top'
p472
S'Breakaway'
p473
S'http://www.last.fm/music/ZZ+Top/_/Breakaway'
p474
S'1275868527'
p475
tp476
a(S'Audioslave'
p477
S'Light My Way'
p478
S'http://www.last.fm/music/Audioslave/_/Light+My+Way'
p479
S'1275868229'
p480
tp481
a(S'Stone Temple Pilots'
p482
S'Transmissions From a Lonely Room'
p483
S'http://www.last.fm/music/Stone+Temple+Pilots/_/Transmissions+From+a+Lonely+Room'
p484
S'1275867923'
p485
tp486
a(S'Nirvana'
p487
S'(New Wave) Polly'
p488
S'http://www.last.fm/music/Nirvana/_/(New+Wave)+Polly'
p489
S'1275867727'
p490
tp491
a(S'Metallica'
p492
S'Pulling Teeth'
p493
S'http://www.last.fm/music/Metallica/_/Pulling+Teeth'
p494
S'1275867619'
p495
tp496
a(S'Lynyrd Skynyrd'
p497
S'You Got That Right'
p498
S'http://www.last.fm/music/Lynyrd+Skynyrd/_/You+Got+That+Right'
p499
S'1275867365'
p500
tp501
a(S'Stone Temple Pilots'
p502
S'Vasoline (Live from Chicago)'
p503
S'http://www.last.fm/music/Stone+Temple+Pilots/_/Vasoline+(Live+from+Chicago)'
p504
S'1275867137'
p505
tp506
a(S'Black Sabbath'
p507
S'Heaven and Hell'
p508
S'http://www.last.fm/music/Black+Sabbath/_/Heaven+and+Hell'
p509
S'1275866944'
p510
tp511
a(S'Garbage'
p512
S'Only Happy When It Rains'
p513
S'http://www.last.fm/music/Garbage/_/Only+Happy+When+It+Rains'
p514
S'1275866529'
p515
tp516
a(S'Yes'
p517
S'Changes'
p518
S'http://www.last.fm/music/Yes/_/Changes'
p519
S'1275866293'
p520
tp521
a(S'Stone Temple Pilots'
p522
S'Huckleberry Crumble'
p523
S'http://www.last.fm/music/Stone+Temple+Pilots/_/Huckleberry+Crumble'
p524
S'1275865904'
p525
tp526
a(S'Nirvana'
p527
S'Drain You'
p528
S'http://www.last.fm/music/Nirvana/_/Drain+You'
p529
S'1275865710'
p530
tp531
a(S'Stone Temple Pilots'
p532
S'Peacoat'
p533
S'http://www.last.fm/music/Stone+Temple+Pilots/_/Peacoat'
p534
S'1275865581'
p535
tp536
a(S'Alice in Chains'
p537
S'Right Turn'
p538
S'http://www.last.fm/music/Alice+in+Chains/_/Right+Turn'
p539
S'1275865300'
p540
tp541
a(S'Nirvana'
p542
S'In Bloom'
p543
S'http://www.last.fm/music/Nirvana/_/In+Bloom'
p544
S'1275865091'
p545
tp546
a(S'Jerry Cantrell'
p547
S'Devil By His Side'
p548
S'http://www.last.fm/music/Jerry+Cantrell/_/Devil+By+His+Side'
p549
S'1275864836'
p550
tp551
a(S'Stone Temple Pilots'
p552
S'Between the Lines'
p553
S'http://www.last.fm/music/Stone+Temple+Pilots/_/Between+the+Lines'
p554
S'1275864547'
p555
tp556
a(S'Stone Temple Pilots'
p557
S'Between The Lines (Live from Chicago)'
p558
S'http://www.last.fm/music/Stone+Temple+Pilots/_/Between+The+Lines+(Live+from+Chicago)'
p559
S'1275864210'
p560
tp561
a(S'Rainbow'
p562
S'Snake Charmer'
p563
S'http://www.last.fm/music/Rainbow/_/Snake+Charmer'
p564
S'1275864022'
p565
tp566
a(S'Alice in Chains'
p567
S'Grind'
p568
S'http://www.last.fm/music/Alice+in+Chains/_/Grind'
p569
S'1275863749'
p570
tp571
a(S'Alice in Chains'
p572
S'Junkhead'
p573
S'http://www.last.fm/music/Alice+in+Chains/_/Junkhead'
p574
S'1275863463'
p575
tp576
a(S'Led Zeppelin'
p577
S'Ramble On'
p578
S'http://www.last.fm/music/Led+Zeppelin/_/Ramble+On'
p579
S'1275863154'
p580
tp581
a(S'Blues Traveler'
p582
S'Price To Pay'
p583
S'http://www.last.fm/music/Blues+Traveler/_/Price+To+Pay'
p584
S'1275862890'
p585
tp586
a(S'Bee Gees'
p587
S'Live or Die (Hold Me Like a Child)'
p588
S'http://www.last.fm/music/Bee+Gees/_/Live+or+Die+(Hold+Me+Like+a+Child)'
p589
S'1275862573'
p590
tp591
a(S'Black Sabbath'
p592
S'Paranoid'
p593
S'http://www.last.fm/music/Black+Sabbath/_/Paranoid'
p594
S'1275862291'
p595
tp596
a(S'Nirvana'
p597
S'Paper Cuts'
p598
S'http://www.last.fm/music/Nirvana/_/Paper+Cuts'
p599
S'1275862117'
p600
tp601
a(S'Daft Punk'
p602
S'Digital Love'
p603
S'http://www.last.fm/music/Daft+Punk/_/Digital+Love'
p604
S'1275861869'
p605
tp606
a(S'Jerry Cantrell'
p607
S'Satisfy'
p608
S'http://www.last.fm/music/Jerry+Cantrell/_/Satisfy'
p609
S'1275861570'
p610
tp611
a(S'Lynyrd Skynyrd'
p612
S'Money Back Guarantee'
p613
S'http://www.last.fm/music/Lynyrd+Skynyrd/_/Money+Back+Guarantee'
p614
S'1275861357'
p615
tp616
a(S'Queens of the Stone Age'
p617
S'Tension Head'
p618
S'http://www.last.fm/music/Queens+of+the+Stone+Age/_/Tension+Head'
p619
S'1275861114'
p620
tp621
a(S'Soundgarden'
p622
S'Fresh Tendrils'
p623
S'http://www.last.fm/music/Soundgarden/_/Fresh+Tendrils'
p624
S'1275860941'
p625
tp626
a(S'Live'
p627
S'T.B.D.'
p628
S'http://www.last.fm/music/Live/_/T.B.D.'
p629
S'1275860685'
p630
tp631
a(S'Iron Maiden'
p632
S'Heaven Can Wait'
p633
S'http://www.last.fm/music/Iron+Maiden/_/Heaven+Can+Wait'
p634
S'1275860417'
p635
tp636
a(S'Led Zeppelin'
p637
S"Living Loving Maid (She's Just a Woman)"
p638
S'http://www.last.fm/music/Led+Zeppelin/_/Living+Loving+Maid+(She%27s+Just+a+Woman)'
p639
S'1275859973'
p640
tp641
a(S'Stone Temple Pilots'
p642
S'Coma'
p643
S'http://www.last.fm/music/Stone+Temple+Pilots/_/Coma'
p644
S'1275859813'
p645
tp646
a(S'Stone Temple Pilots'
p647
S'Sex Type Thing'
p648
S'http://www.last.fm/music/Stone+Temple+Pilots/_/Sex+Type+Thing'
p649
S'1275859592'
p650
tp651
a(S'Ozzy Osbourne'
p652
S'My Little Man'
p653
S'http://www.last.fm/music/Ozzy+Osbourne/_/My+Little+Man'
p654
S'1275859373'
p655
tp656
a(S'Alice in Chains'
p657
S'Got Me Wrong'
p658
S'http://www.last.fm/music/Alice+in+Chains/_/Got+Me+Wrong'
p659
S'1275859085'
p660
tp661
a(S'Blues Traveler'
p662
S'Stand'
p663
S'http://www.last.fm/music/Blues+Traveler/_/Stand'
p664
S'1275858833'
p665
tp666
a(S'Queens of the Stone Age'
p667
S"Hangin' Tree"
p668
S'http://www.last.fm/music/Queens+of+the+Stone+Age/_/Hangin%27+Tree'
p669
S'1275858514'
p670
tp671
a(S'Jamiroquai'
p672
S'Starchild'
p673
S'http://www.last.fm/music/Jamiroquai/_/Starchild'
p674
S'1275858328'
p675
tp676
a(S'Daft Punk'
p677
S'Funk Ad'
p678
S'http://www.last.fm/music/Daft+Punk/_/Funk+Ad'
p679
S'1275858010'
p680
tp681
a(S'Blues Traveler'
p682
S'The Good, the Bad, and the Ugly'
p683
S'http://www.last.fm/music/Blues+Traveler/_/The+Good,+the+Bad,+and+the+Ugly'
p684
S'1275857958'
p685
tp686
a(S'Judas Priest'
p687
S'Private Property'
p688
S'http://www.last.fm/music/Judas+Priest/_/Private+Property'
p689
S'1275857839'
p690
tp691
a(S'Rainbow'
p692
S'Gates of Babylon'
p693
S'http://www.last.fm/music/Rainbow/_/Gates+of+Babylon'
p694
S'1275857569'
p695
tp696
a(S'Ozzy Osbourne'
p697
S'Denial'
p698
S'http://www.last.fm/music/Ozzy+Osbourne/_/Denial'
p699
S'1275857013'
p700
tp701
a(S'Stone Temple Pilots'
p702
S'Huckleberry Crumble'
p703
S'http://www.last.fm/music/Stone+Temple+Pilots/_/Huckleberry+Crumble'
p704
S'1275856690'
p705
tp706
a(S'Audioslave'
p707
S'Be Yourself'
p708
S'http://www.last.fm/music/Audioslave/_/Be+Yourself'
p709
S'1275856499'
p710
tp711
a(S'Jerry Cantrell'
p712
S'Between'
p713
S'http://www.last.fm/music/Jerry+Cantrell/_/Between'
p714
S'1275856124'
p715
tp716
a(S'The Rolling Stones'
p717
S'Slipping Away'
p718
S'http://www.last.fm/music/The+Rolling+Stones/_/Slipping+Away'
p719
S'1275855907'
p720
tp721
a(S'Stone Temple Pilots'
p722
S'Huckleberry Crumble'
p723
S'http://www.last.fm/music/Stone+Temple+Pilots/_/Huckleberry+Crumble'
p724
S'1275855638'
p725
tp726
a(S'Nirvana'
p727
S'The Man Who Sold the World'
p728
S'http://www.last.fm/music/Nirvana/_/The+Man+Who+Sold+the+World'
p729
S'1275855448'
p730
tp731
a(S'Stone Temple Pilots'
p732
S'Peacoat'
p733
S'http://www.last.fm/music/Stone+Temple+Pilots/_/Peacoat'
p734
S'1275855175'
p735
tp736
a(S'AC/DC'
p737
S'Let There Be Rock'
p738
S'http://www.last.fm/music/AC%2FDC/_/Let+There+Be+Rock'
p739
S'1275854966'
p740
tp741
a(S'Ozzy Osbourne'
p742
S'Perry Mason'
p743
S'http://www.last.fm/music/Ozzy+Osbourne/_/Perry+Mason'
p744
S'1275854696'
p745
tp746
a(S'Ozzy Osbourne'
p747
S'The Almighty Dollar'
p748
S'http://www.last.fm/music/Ozzy+Osbourne/_/The+Almighty+Dollar'
p749
S'1275854343'
p750
tp751
a(S'Bee Gees'
p752
S'E.S.P.'
p753
S'http://www.last.fm/music/Bee+Gees/_/E.S.P.'
p754
S'1275853925'
p755
tp756
a(S'Daft Punk'
p757
S'Digital Love'
p758
S'http://www.last.fm/music/Daft+Punk/_/Digital+Love'
p759
S'1275853590'
p760
tp761
a(S'Nirvana'
p762
S'In Bloom'
p763
S'http://www.last.fm/music/Nirvana/_/In+Bloom'
p764
S'1275853334'
p765
tp766
a(S'Jerry Cantrell'
p767
S'Devil By His Side'
p768
S'http://www.last.fm/music/Jerry+Cantrell/_/Devil+By+His+Side'
p769
S'1275853079'
p770
tp771
a(S'Stone Temple Pilots'
p772
S'Between the Lines'
p773
S'http://www.last.fm/music/Stone+Temple+Pilots/_/Between+the+Lines'
p774
S'1275852790'
p775
tp776
a(S'Velvet Revolver'
p777
S"Can't Get It Out Of My Head"
p778
S'http://www.last.fm/music/Velvet+Revolver/_/Can%27t+Get+It+Out+Of+My+Head'
p779
S'1275852579'
p780
tp781
a(S'Velvet Revolver'
p782
S'Superhuman'
p783
S'http://www.last.fm/music/Velvet+Revolver/_/Superhuman'
p784
S'1275852339'
p785
tp786
a(S'Ozzy Osbourne'
p787
S'The Ultimate Sin'
p788
S'http://www.last.fm/music/Ozzy+Osbourne/_/The+Ultimate+Sin'
p789
S'1275852084'
p790
tp791
a(S'Ozzy Osbourne'
p792
S'Fool Like You'
p793
S'http://www.last.fm/music/Ozzy+Osbourne/_/Fool+Like+You'
p794
S'1275851787'
p795
tp796
a(S'Alice in Chains'
p797
S'Heaven Beside You'
p798
S'http://www.last.fm/music/Alice+in+Chains/_/Heaven+Beside+You'
p799
S'1275851462'
p800
tp801
a(S'ZZ Top'
p802
S'PCH'
p803
S'http://www.last.fm/music/ZZ+Top/_/PCH'
p804
S'1275851135'
p805
tp806
a(S'Alice Cooper'
p807
S'Poison'
p808
S'http://www.last.fm/music/Alice+Cooper/_/Poison'
p809
S'1275850860'
p810
tp811
a(S'Stone Temple Pilots'
p812
S'Hazy Daze'
p813
S'http://www.last.fm/music/Stone+Temple+Pilots/_/Hazy+Daze'
p814
S'1275850591'
p815
tp816
a(S'Lynyrd Skynyrd'
p817
S'Preacher Man'
p818
S'http://www.last.fm/music/Lynyrd+Skynyrd/_/Preacher+Man'
p819
S'1275850403'
p820
tp821
a(S'Live'
p822
S'Deep Enough (Hip Hop Mix)'
p823
S'http://www.last.fm/music/Live/_/Deep+Enough+(Hip+Hop+Mix)'
p824
S'1275850129'
p825
tp826
a(S'Chris Cornell'
p827
S'Other Side Of Town'
p828
S'http://www.last.fm/music/Chris+Cornell/_/Other+Side+Of+Town'
p829
S'1275850009'
p830
tp831
a(S'Live'
p832
S'Home'
p833
S'http://www.last.fm/music/Live/_/Home'
p834
S'1275849716'
p835
tp836
a(S'Metallica'
p837
S'Through the Never'
p838
S'http://www.last.fm/music/Metallica/_/Through+the+Never'
p839
S'1275849513'
p840
tp841
a(S'Them Crooked Vultures'
p842
S'Elephants'
p843
S'http://www.last.fm/music/Them+Crooked+Vultures/_/Elephants'
p844
S'1275849255'
p845
tp846
a(S'Velvet Revolver'
p847
S'Gas and a Dollar Laugh'
p848
S'http://www.last.fm/music/Velvet+Revolver/_/Gas+and+a+Dollar+Laugh'
p849
S'1275848823'
p850
tp851
a(S'Alice in Chains'
p852
S'Man in the Box'
p853
S'http://www.last.fm/music/Alice+in+Chains/_/Man+in+the+Box'
p854
S'1275848625'
p855
tp856
a(S'Queen'
p857
S'Cool Cat'
p858
S'http://www.last.fm/music/Queen/_/Cool+Cat'
p859
S'1275848338'
p860
tp861
a(S'The Cult'
p862
S'Sweet Soul Sister'
p863
S'http://www.last.fm/music/The+Cult/_/Sweet+Soul+Sister'
p864
S'1275848231'
p865
tp866
a(S'Iron Maiden'
p867
S'Stranger In a Strange Land'
p868
S'http://www.last.fm/music/Iron+Maiden/_/Stranger+In+a+Strange+Land'
p869
S'1275847979'
p870
tp871
a(S'Stone Temple Pilots'
p872
S'Peacoat'
p873
S'http://www.last.fm/music/Stone+Temple+Pilots/_/Peacoat'
p874
S'1275847043'
p875
tp876
a(S'Stone Temple Pilots'
p877
S'Naked Sunday'
p878
S'http://www.last.fm/music/Stone+Temple+Pilots/_/Naked+Sunday'
p879
S'1275846793'
p880
tp881
a(S'Stone Temple Pilots'
p882
S'Hickory Dichotomy'
p883
S'http://www.last.fm/music/Stone+Temple+Pilots/_/Hickory+Dichotomy'
p884
S'1275846563'
p885
tp886
a(S'Black Sabbath'
p887
S'Fluff'
p888
S'http://www.last.fm/music/Black+Sabbath/_/Fluff'
p889
S'1275846252'
p890
tp891
a(S'Alice in Chains'
p892
S'Right Turn'
p893
S'http://www.last.fm/music/Alice+in+Chains/_/Right+Turn'
p894
S'1275845999'
p895
tp896
a(S'Nirvana'
p897
S'In Bloom'
p898
S'http://www.last.fm/music/Nirvana/_/In+Bloom'
p899
S'1275845795'
p900
tp901
a(S'Jerry Cantrell'
p902
S'Devil By His Side'
p903
S'http://www.last.fm/music/Jerry+Cantrell/_/Devil+By+His+Side'
p904
S'1275845540'
p905
tp906
a(S'Stone Temple Pilots'
p907
S'Between the Lines'
p908
S'http://www.last.fm/music/Stone+Temple+Pilots/_/Between+the+Lines'
p909
S'1275845250'
p910
tp911
a(S'Stone Temple Pilots'
p912
S'Huckleberry Crumble'
p913
S'http://www.last.fm/music/Stone+Temple+Pilots/_/Huckleberry+Crumble'
p914
S'1275845071'
p915
tp916
a(S'Stone Temple Pilots'
p917
S'Peacoat'
p918
S'http://www.last.fm/music/Stone+Temple+Pilots/_/Peacoat'
p919
S'1275844874'
p920
tp921
a(S'Ozzy Osbourne'
p922
S"Whole World's Fallin' Down"
p923
S'http://www.last.fm/music/Ozzy+Osbourne/_/Whole+World%27s+Fallin%27+Down'
p924
S'1275839959'
p925
tp926
a(S'Metallica'
p927
S'Of Wolf and Man'
p928
S'http://www.last.fm/music/Metallica/_/Of+Wolf+and+Man'
p929
S'1275839653'
p930
tp931
a(S'Ozzy Osbourne'
p932
S'Thank God for the Bomb'
p933
S'http://www.last.fm/music/Ozzy+Osbourne/_/Thank+God+for+the+Bomb'
p934
S'1275839397'
p935
tp936
a(S'Alice in Chains'
p937
S'I Stay Away'
p938
S'http://www.last.fm/music/Alice+in+Chains/_/I+Stay+Away'
p939
S'1275839086'
p940
tp941
a(S'Alice Cooper'
p942
S'Spark In The Dark'
p943
S'http://www.last.fm/music/Alice+Cooper/_/Spark+In+The+Dark'
p944
S'1275838829'
p945
tp946
a(S'Metallica'
p947
S'Hit the Lights'
p948
S'http://www.last.fm/music/Metallica/_/Hit+the+Lights'
p949
S'1275838597'
p950
tp951
a(S'Alice in Chains'
p952
S'Acid Bubble'
p953
S'http://www.last.fm/music/Alice+in+Chains/_/Acid+Bubble'
p954
S'1275838339'
p955
tp956
a(S'Stone Temple Pilots'
p957
S'Take a Load Off'
p958
S'http://www.last.fm/music/Stone+Temple+Pilots/_/Take+a+Load+Off'
p959
S'1275837923'
p960
tp961
a(S'Stone Temple Pilots'
p962
S'Huckleberry Crumble'
p963
S'http://www.last.fm/music/Stone+Temple+Pilots/_/Huckleberry+Crumble'
p964
S'1275837684'
p965
tp966
a(S'The Rolling Stones'
p967
S'Sweet Virginia'
p968
S'http://www.last.fm/music/The+Rolling+Stones/_/Sweet+Virginia'
p969
S'1275837493'
p970
tp971
a(S'Alice in Chains'
p972
S'Grind'
p973
S'http://www.last.fm/music/Alice+in+Chains/_/Grind'
p974
S'1275837306'
p975
tp976
a(S'Alice in Chains'
p977
S'Junkhead'
p978
S'http://www.last.fm/music/Alice+in+Chains/_/Junkhead'
p979
S'1275837020'
p980
tp981
a(S'Nirvana'
p982
S'Paper Cuts'
p983
S'http://www.last.fm/music/Nirvana/_/Paper+Cuts'
p984
S'1275836705'
p985
tp986
a(S'Daft Punk'
p987
S'Digital Love'
p988
S'http://www.last.fm/music/Daft+Punk/_/Digital+Love'
p989
S'1275836538'
p990
tp991
a(S'Jerry Cantrell'
p992
S'Devil By His Side'
p993
S'http://www.last.fm/music/Jerry+Cantrell/_/Devil+By+His+Side'
p994
S'1275836192'
p995
tp996
a(S'Stone Temple Pilots'
p997
S'Between the Lines'
p998
S'http://www.last.fm/music/Stone+Temple+Pilots/_/Between+the+Lines'
p999
S'1275835902'
p1000
tp1001
a.