(lp1
(S'Megadeth'
p2
S'Diadems'
p3
S'http://www.last.fm/music/Megadeth/_/Diadems'
p4
S'1258114714'
p5
tp6
a(S'Alice in Chains'
p7
S'Lesson Learned'
p8
S'http://www.last.fm/music/Alice+in+Chains/_/Lesson+Learned'
p9
S'1258114458'
p10
tp11
a(S'Stone Temple Pilots'
p12
S'Lounge Fly'
p13
S'http://www.last.fm/music/Stone+Temple+Pilots/_/Lounge+Fly'
p14
S'1258114139'
p15
tp16
a(S'Mother Love Bone'
p17
S'Come Bite The Apple'
p18
S'http://www.last.fm/music/Mother+Love+Bone/_/Come+Bite+The+Apple'
p19
S'1258113812'
p20
tp21
a(S'Atreyu'
p22
S'Becoming the Bull'
p23
S'http://www.last.fm/music/Atreyu/_/Becoming+the+Bull'
p24
S'1258113591'
p25
tp26
a(S'From Autumn To Ashes'
p27
S'Daylight Slaving'
p28
S'http://www.last.fm/music/From+Autumn+To+Ashes/_/Daylight+Slaving'
p29
S'1258113358'
p30
tp31
a(S'Liz Phair'
p32
S'Rock Me'
p33
S'http://www.last.fm/music/Liz+Phair/_/Rock+Me'
p34
S'1258113157'
p35
tp36
a(S'Alice in Chains'
p37
S'Man in the Box'
p38
S'http://www.last.fm/music/Alice+in+Chains/_/Man+in+the+Box'
p39
S'1258112871'
p40
tp41
a(S'Army Of Anyone'
p42
S'Generation'
p43
S'http://www.last.fm/music/Army+Of+Anyone/_/Generation'
p44
S'1258112660'
p45
tp46
a(S'Stone Temple Pilots'
p47
S"Trippin' on a Hole in a Paper Heart"
p48
S'http://www.last.fm/music/Stone+Temple+Pilots/_/Trippin%27+on+a+Hole+in+a+Paper+Heart'
p49
S'1258112483'
p50
tp51
a(S'Yes'
p52
S'Changes'
p53
S'http://www.last.fm/music/Yes/_/Changes'
p54
S'1258112092'
p55
tp56
a(S'The Bar-Kays'
p57
S'Too Hot To Stop'
p58
S'http://www.last.fm/music/The+Bar-Kays/_/Too+Hot+To+Stop'
p59
S'1258111408'
p60
tp61
a(S'Alice Cooper'
p62
S'Bed of Nails'
p63
S'http://www.last.fm/music/Alice+Cooper/_/Bed+of+Nails'
p64
S'1258111149'
p65
tp66
a(S'Talk Show'
p67
S'Hello Hello'
p68
S'http://www.last.fm/music/Talk+Show/_/Hello+Hello'
p69
S'1258110971'
p70
tp71
a(S'Metallica'
p72
S'Of Wolf and Man'
p73
S'http://www.last.fm/music/Metallica/_/Of+Wolf+and+Man'
p74
S'1258110715'
p75
tp76
a(S'Kyuss'
p77
S'Green Machine'
p78
S'http://www.last.fm/music/Kyuss/_/Green+Machine'
p79
S'1258110497'
p80
tp81
a(S'Kaiser Chiefs'
p82
S'Everything Is Average Nowadays'
p83
S'http://www.last.fm/music/Kaiser+Chiefs/_/Everything+Is+Average+Nowadays'
p84
S'1258110335'
p85
tp86
a(S'Megadeth'
p87
S'Diadems'
p88
S'http://www.last.fm/music/Megadeth/_/Diadems'
p89
S'1258110099'
p90
tp91
a(S'Alice in Chains'
p92
S'Lesson Learned'
p93
S'http://www.last.fm/music/Alice+in+Chains/_/Lesson+Learned'
p94
S'1258109842'
p95
tp96
a(S'Stone Temple Pilots'
p97
S'Lounge Fly'
p98
S'http://www.last.fm/music/Stone+Temple+Pilots/_/Lounge+Fly'
p99
S'1258109523'
p100
tp101
a(S'Mother Love Bone'
p102
S'Come Bite The Apple'
p103
S'http://www.last.fm/music/Mother+Love+Bone/_/Come+Bite+The+Apple'
p104
S'1258109197'
p105
tp106
a(S'Atreyu'
p107
S'Becoming the Bull'
p108
S'http://www.last.fm/music/Atreyu/_/Becoming+the+Bull'
p109
S'1258108641'
p110
tp111
a(S'Jamiroquai'
p112
S'Dynamite'
p113
S'http://www.last.fm/music/Jamiroquai/_/Dynamite'
p114
S'1258060758'
p115
tp116
a(S'Jamiroquai'
p117
S'Little L'
p118
S'http://www.last.fm/music/Jamiroquai/_/Little+L'
p119
S'1258060460'
p120
tp121
a(S'Jamiroquai'
p122
S'Love Foolosophy'
p123
S'http://www.last.fm/music/Jamiroquai/_/Love+Foolosophy'
p124
S'1258060232'
p125
tp126
a(S'Jamiroquai'
p127
S'Little L'
p128
S'http://www.last.fm/music/Jamiroquai/_/Little+L'
p129
S'1258059935'
p130
tp131
a(S'Jamiroquai'
p132
S'Seven Days in Sunny June'
p133
S'http://www.last.fm/music/Jamiroquai/_/Seven+Days+in+Sunny+June'
p134
S'1258059697'
p135
tp136
a(S'Jamiroquai'
p137
S'You Give Me Something'
p138
S'http://www.last.fm/music/Jamiroquai/_/You+Give+Me+Something'
p139
S'1258059491'
p140
tp141
a(S'Jamiroquai'
p142
S'Electric Mistress'
p143
S'http://www.last.fm/music/Jamiroquai/_/Electric+Mistress'
p144
S'1258059258'
p145
tp146
a(S'Jamiroquai'
p147
S'Dynamite'
p148
S'http://www.last.fm/music/Jamiroquai/_/Dynamite'
p149
S'1258058963'
p150
tp151
a(S'Jamiroquai'
p152
S'Love Foolosophy'
p153
S'http://www.last.fm/music/Jamiroquai/_/Love+Foolosophy'
p154
S'1258058735'
p155
tp156
a(S'Jamiroquai'
p157
S'Electric Mistress'
p158
S'http://www.last.fm/music/Jamiroquai/_/Electric+Mistress'
p159
S'1258058501'
p160
tp161
a(S'Jamiroquai'
p162
S'You Give Me Something'
p163
S'http://www.last.fm/music/Jamiroquai/_/You+Give+Me+Something'
p164
S'1258058295'
p165
tp166
a(S'Jamiroquai'
p167
S'Love Foolosophy'
p168
S'http://www.last.fm/music/Jamiroquai/_/Love+Foolosophy'
p169
S'1258041899'
p170
tp171
a(S'Jamiroquai'
p172
S'Seven Days in Sunny June'
p173
S'http://www.last.fm/music/Jamiroquai/_/Seven+Days+in+Sunny+June'
p174
S'1258041661'
p175
tp176
a(S'Jamiroquai'
p177
S'Dynamite'
p178
S'http://www.last.fm/music/Jamiroquai/_/Dynamite'
p179
S'1258041366'
p180
tp181
a(S'Jamiroquai'
p182
S'Little L'
p183
S'http://www.last.fm/music/Jamiroquai/_/Little+L'
p184
S'1258041069'
p185
tp186
a(S'Alice in Chains'
p187
S'All Secrets Known'
p188
S'http://www.last.fm/music/Alice+in+Chains/_/All+Secrets+Known'
p189
S'1258040792'
p190
tp191
a(S'Jupiter One'
p192
S'Countdown'
p193
S'http://www.last.fm/music/Jupiter+One/_/Countdown'
p194
S'1258040564'
p195
tp196
a(S'Atreyu'
p197
S'Becoming the Bull'
p198
S'http://www.last.fm/music/Atreyu/_/Becoming+the+Bull'
p199
S'1258040330'
p200
tp201
a(S'Soundgarden'
p202
S'Drawing Flies'
p203
S'http://www.last.fm/music/Soundgarden/_/Drawing+Flies'
p204
S'1258040184'
p205
tp206
a(S'Metallica'
p207
S'Of Wolf and Man'
p208
S'http://www.last.fm/music/Metallica/_/Of+Wolf+and+Man'
p209
S'1258039927'
p210
tp211
a(S'Alice in Chains'
p212
S'Lesson Learned'
p213
S'http://www.last.fm/music/Alice+in+Chains/_/Lesson+Learned'
p214
S'1258039670'
p215
tp216
a(S'Mother Love Bone'
p217
S'Come Bite The Apple'
p218
S'http://www.last.fm/music/Mother+Love+Bone/_/Come+Bite+The+Apple'
p219
S'1258039344'
p220
tp221
a(S'From Autumn To Ashes'
p222
S'Daylight Slaving'
p223
S'http://www.last.fm/music/From+Autumn+To+Ashes/_/Daylight+Slaving'
p224
S'1258039123'
p225
tp226
a(S'Stone Temple Pilots'
p227
S'Still Remains'
p228
S'http://www.last.fm/music/Stone+Temple+Pilots/_/Still+Remains'
p229
S'1258038910'
p230
tp231
a(S'Alice in Chains'
p232
S'Rotten Apple'
p233
S'http://www.last.fm/music/Alice+in+Chains/_/Rotten+Apple'
p234
S'1258038491'
p235
tp236
a(S'Liz Phair'
p237
S'Rock Me'
p238
S'http://www.last.fm/music/Liz+Phair/_/Rock+Me'
p239
S'1258038291'
p240
tp241
a(S'Army Of Anyone'
p242
S'Generation'
p243
S'http://www.last.fm/music/Army+Of+Anyone/_/Generation'
p244
S'1258038080'
p245
tp246
a(S'Jerry Cantrell'
p247
S'Devil By His Side'
p248
S'http://www.last.fm/music/Jerry+Cantrell/_/Devil+By+His+Side'
p249
S'1258037791'
p250
tp251
a(S'Metallica'
p252
S'Of Wolf and Man'
p253
S'http://www.last.fm/music/Metallica/_/Of+Wolf+and+Man'
p254
S'1258037534'
p255
tp256
a(S'Atreyu'
p257
S'Becoming the Bull'
p258
S'http://www.last.fm/music/Atreyu/_/Becoming+the+Bull'
p259
S'1258037314'
p260
tp261
a(S'Alice in Chains'
p262
S'Check My Brain'
p263
S'http://www.last.fm/music/Alice+in+Chains/_/Check+My+Brain'
p264
S'1258037076'
p265
tp266
a(S'Alice in Chains'
p267
S'Private Hell'
p268
S'http://www.last.fm/music/Alice+in+Chains/_/Private+Hell'
p269
S'1258036737'
p270
tp271
a(S'Alice in Chains'
p272
S'All Secrets Known'
p273
S'http://www.last.fm/music/Alice+in+Chains/_/All+Secrets+Known'
p274
S'1258036455'
p275
tp276
a(S'Skid Row'
p277
S'Into Another'
p278
S'http://www.last.fm/music/Skid+Row/_/Into+Another'
p279
S'1258036212'
p280
tp281
a(S'Stone Temple Pilots'
p282
S'Still Remains'
p283
S'http://www.last.fm/music/Stone+Temple+Pilots/_/Still+Remains'
p284
S'1258035999'
p285
tp286
a(S'From Autumn To Ashes'
p287
S'Daylight Slaving'
p288
S'http://www.last.fm/music/From+Autumn+To+Ashes/_/Daylight+Slaving'
p289
S'1258035779'
p290
tp291
a(S'Alice Cooper'
p292
S'Bed of Nails'
p293
S'http://www.last.fm/music/Alice+Cooper/_/Bed+of+Nails'
p294
S'1258035519'
p295
tp296
a(S'Talk Show'
p297
S'Hello Hello'
p298
S'http://www.last.fm/music/Talk+Show/_/Hello+Hello'
p299
S'1258035341'
p300
tp301
a(S'Stone Temple Pilots'
p302
S"Trippin' on a Hole in a Paper Heart"
p303
S'http://www.last.fm/music/Stone+Temple+Pilots/_/Trippin%27+on+a+Hole+in+a+Paper+Heart'
p304
S'1258035165'
p305
tp306
a(S'Kyuss'
p307
S'Green Machine'
p308
S'http://www.last.fm/music/Kyuss/_/Green+Machine'
p309
S'1258034947'
p310
tp311
a(S'Alice in Chains'
p312
S'Lesson Learned'
p313
S'http://www.last.fm/music/Alice+in+Chains/_/Lesson+Learned'
p314
S'1258034690'
p315
tp316
a(S'Army Of Anyone'
p317
S'Generation'
p318
S'http://www.last.fm/music/Army+Of+Anyone/_/Generation'
p319
S'1258034479'
p320
tp321
a(S'Yes'
p322
S'Changes'
p323
S'http://www.last.fm/music/Yes/_/Changes'
p324
S'1258034099'
p325
tp326
a(S'Jerry Cantrell'
p327
S'Devil By His Side'
p328
S'http://www.last.fm/music/Jerry+Cantrell/_/Devil+By+His+Side'
p329
S'1258033810'
p330
tp331
a(S'Iron Maiden'
p332
S'The Clansman'
p333
S'http://www.last.fm/music/Iron+Maiden/_/The+Clansman'
p334
S'1258033237'
p335
tp336
a(S'Jupiter One'
p337
S'Countdown'
p338
S'http://www.last.fm/music/Jupiter+One/_/Countdown'
p339
S'1258033009'
p340
tp341
a(S'Airbourne'
p342
S"Runnin' Wild"
p343
S'http://www.last.fm/music/Airbourne/_/Runnin%27+Wild'
p344
S'1258032790'
p345
tp346
a(S'Anthrax'
p347
S'Room For One More'
p348
S'http://www.last.fm/music/Anthrax/_/Room+For+One+More'
p349
S'1258032494'
p350
tp351
a(S'Alice in Chains'
p352
S'Man in the Box'
p353
S'http://www.last.fm/music/Alice+in+Chains/_/Man+in+the+Box'
p354
S'1258032208'
p355
tp356
a(S'Stone Temple Pilots'
p357
S'Lounge Fly'
p358
S'http://www.last.fm/music/Stone+Temple+Pilots/_/Lounge+Fly'
p359
S'1258031889'
p360
tp361
a(S'Kaiser Chiefs'
p362
S'Everything Is Average Nowadays'
p363
S'http://www.last.fm/music/Kaiser+Chiefs/_/Everything+Is+Average+Nowadays'
p364
S'1258031727'
p365
tp366
a(S'Megadeth'
p367
S'Diadems'
p368
S'http://www.last.fm/music/Megadeth/_/Diadems'
p369
S'1258031492'
p370
tp371
a(S'Soundgarden'
p372
S'Drawing Flies'
p373
S'http://www.last.fm/music/Soundgarden/_/Drawing+Flies'
p374
S'1258031345'
p375
tp376
a(S'Mother Love Bone'
p377
S'Come Bite The Apple'
p378
S'http://www.last.fm/music/Mother+Love+Bone/_/Come+Bite+The+Apple'
p379
S'1258031019'
p380
tp381
a(S'Alice in Chains'
p382
S'Rotten Apple'
p383
S'http://www.last.fm/music/Alice+in+Chains/_/Rotten+Apple'
p384
S'1258030600'
p385
tp386
a(S'Liz Phair'
p387
S'Rock Me'
p388
S'http://www.last.fm/music/Liz+Phair/_/Rock+Me'
p389
S'1258030399'
p390
tp391
a(S'The Bar-Kays'
p392
S'Too Hot To Stop'
p393
S'http://www.last.fm/music/The+Bar-Kays/_/Too+Hot+To+Stop'
p394
S'1258030012'
p395
tp396
a(S'Corrosion of Conformity'
p397
S'Clean My Wounds'
p398
S'http://www.last.fm/music/Corrosion+of+Conformity/_/Clean+My+Wounds'
p399
S'1258029800'
p400
tp401
a(S'Alice in Chains'
p402
S'Man in the Box'
p403
S'http://www.last.fm/music/Alice+in+Chains/_/Man+in+the+Box'
p404
S'1258029301'
p405
tp406
a(S'The Bar-Kays'
p407
S'Too Hot To Stop'
p408
S'http://www.last.fm/music/The+Bar-Kays/_/Too+Hot+To+Stop'
p409
S'1258028914'
p410
tp411
a(S'Stone Temple Pilots'
p412
S'Still Remains'
p413
S'http://www.last.fm/music/Stone+Temple+Pilots/_/Still+Remains'
p414
S'1258028701'
p415
tp416
a(S'Soundgarden'
p417
S'Drawing Flies'
p418
S'http://www.last.fm/music/Soundgarden/_/Drawing+Flies'
p419
S'1258028554'
p420
tp421
a(S'Army Of Anyone'
p422
S'Generation'
p423
S'http://www.last.fm/music/Army+Of+Anyone/_/Generation'
p424
S'1258028343'
p425
tp426
a(S'Atreyu'
p427
S'Becoming the Bull'
p428
S'http://www.last.fm/music/Atreyu/_/Becoming+the+Bull'
p429
S'1258028123'
p430
tp431
a(S'Alice in Chains'
p432
S'All Secrets Known'
p433
S'http://www.last.fm/music/Alice+in+Chains/_/All+Secrets+Known'
p434
S'1258027823'
p435
tp436
a(S'Skid Row'
p437
S'Into Another'
p438
S'http://www.last.fm/music/Skid+Row/_/Into+Another'
p439
S'1258027581'
p440
tp441
a(S'Anthrax'
p442
S'Room For One More'
p443
S'http://www.last.fm/music/Anthrax/_/Room+For+One+More'
p444
S'1258027285'
p445
tp446
a(S'Mother Love Bone'
p447
S'Come Bite The Apple'
p448
S'http://www.last.fm/music/Mother+Love+Bone/_/Come+Bite+The+Apple'
p449
S'1258026957'
p450
tp451
a(S'Alice in Chains'
p452
S'Check My Brain'
p453
S'http://www.last.fm/music/Alice+in+Chains/_/Check+My+Brain'
p454
S'1258026719'
p455
tp456
a(S'Talk Show'
p457
S'Hello Hello'
p458
S'http://www.last.fm/music/Talk+Show/_/Hello+Hello'
p459
S'1258025732'
p460
tp461
a(S'Iron Maiden'
p462
S'The Clansman'
p463
S'http://www.last.fm/music/Iron+Maiden/_/The+Clansman'
p464
S'1258025159'
p465
tp466
a(S'Jupiter One'
p467
S'Countdown'
p468
S'http://www.last.fm/music/Jupiter+One/_/Countdown'
p469
S'1258024930'
p470
tp471
a(S'Liz Phair'
p472
S'Rock Me'
p473
S'http://www.last.fm/music/Liz+Phair/_/Rock+Me'
p474
S'1257512115'
p475
tp476
a(S'Alice in Chains'
p477
S'Lesson Learned'
p478
S'http://www.last.fm/music/Alice+in+Chains/_/Lesson+Learned'
p479
S'1257511635'
p480
tp481
a(S'Atreyu'
p482
S'Becoming the Bull'
p483
S'http://www.last.fm/music/Atreyu/_/Becoming+the+Bull'
p484
S'1257511414'
p485
tp486
a(S'Stone Temple Pilots'
p487
S'Lounge Fly'
p488
S'http://www.last.fm/music/Stone+Temple+Pilots/_/Lounge+Fly'
p489
S'1257510988'
p490
tp491
a(S'Alice in Chains'
p492
S'Man in the Box'
p493
S'http://www.last.fm/music/Alice+in+Chains/_/Man+in+the+Box'
p494
S'1257510701'
p495
tp496
a(S'Stone Temple Pilots'
p497
S'Still Remains'
p498
S'http://www.last.fm/music/Stone+Temple+Pilots/_/Still+Remains'
p499
S'1257509980'
p500
tp501
a(S'Megadeth'
p502
S'Diadems'
p503
S'http://www.last.fm/music/Megadeth/_/Diadems'
p504
S'1257509745'
p505
tp506
a(S'Talk Show'
p507
S'Hello Hello'
p508
S'http://www.last.fm/music/Talk+Show/_/Hello+Hello'
p509
S'1257509567'
p510
tp511
a(S'Corrosion of Conformity'
p512
S'Clean My Wounds'
p513
S'http://www.last.fm/music/Corrosion+of+Conformity/_/Clean+My+Wounds'
p514
S'1257509355'
p515
tp516
a(S'Jupiter One'
p517
S'Countdown'
p518
S'http://www.last.fm/music/Jupiter+One/_/Countdown'
p519
S'1257509126'
p520
tp521
a(S'Stone Temple Pilots'
p522
S"Trippin' on a Hole in a Paper Heart"
p523
S'http://www.last.fm/music/Stone+Temple+Pilots/_/Trippin%27+on+a+Hole+in+a+Paper+Heart'
p524
S'1257508950'
p525
tp526
a(S'Alice Cooper'
p527
S'Bed of Nails'
p528
S'http://www.last.fm/music/Alice+Cooper/_/Bed+of+Nails'
p529
S'1257508690'
p530
tp531
a(S'Soundgarden'
p532
S'Drawing Flies'
p533
S'http://www.last.fm/music/Soundgarden/_/Drawing+Flies'
p534
S'1257508543'
p535
tp536
a(S'Alice in Chains'
p537
S'All Secrets Known'
p538
S'http://www.last.fm/music/Alice+in+Chains/_/All+Secrets+Known'
p539
S'1257508261'
p540
tp541
a(S'Airbourne'
p542
S"Runnin' Wild"
p543
S'http://www.last.fm/music/Airbourne/_/Runnin%27+Wild'
p544
S'1257508043'
p545
tp546
a(S'Alice in Chains'
p547
S'Private Hell'
p548
S'http://www.last.fm/music/Alice+in+Chains/_/Private+Hell'
p549
S'1257507704'
p550
tp551
a(S'Alice in Chains'
p552
S'Check My Brain'
p553
S'http://www.last.fm/music/Alice+in+Chains/_/Check+My+Brain'
p554
S'1257507466'
p555
tp556
a(S'Mother Love Bone'
p557
S'Come Bite The Apple'
p558
S'http://www.last.fm/music/Mother+Love+Bone/_/Come+Bite+The+Apple'
p559
S'1257507140'
p560
tp561
a(S'The Bar-Kays'
p562
S'Too Hot To Stop'
p563
S'http://www.last.fm/music/The+Bar-Kays/_/Too+Hot+To+Stop'
p564
S'1257506753'
p565
tp566
a(S'Metallica'
p567
S'Of Wolf and Man'
p568
S'http://www.last.fm/music/Metallica/_/Of+Wolf+and+Man'
p569
S'1257506496'
p570
tp571
a(S'Alice in Chains'
p572
S'Rotten Apple'
p573
S'http://www.last.fm/music/Alice+in+Chains/_/Rotten+Apple'
p574
S'1257505502'
p575
tp576
a(S'Alice in Chains'
p577
S'Check My Brain'
p578
S'http://www.last.fm/music/Alice+in+Chains/_/Check+My+Brain'
p579
S'1257505264'
p580
tp581
a(S'Alice in Chains'
p582
S'Man in the Box'
p583
S'http://www.last.fm/music/Alice+in+Chains/_/Man+in+the+Box'
p584
S'1257504978'
p585
tp586
a(S'Jerry Cantrell'
p587
S'Devil By His Side'
p588
S'http://www.last.fm/music/Jerry+Cantrell/_/Devil+By+His+Side'
p589
S'1257504688'
p590
tp591
a(S'Atreyu'
p592
S'Becoming the Bull'
p593
S'http://www.last.fm/music/Atreyu/_/Becoming+the+Bull'
p594
S'1257504467'
p595
tp596
a(S'Army Of Anyone'
p597
S'Generation'
p598
S'http://www.last.fm/music/Army+Of+Anyone/_/Generation'
p599
S'1257423258'
p600
tp601
a(S'Alice in Chains'
p602
S'Rotten Apple'
p603
S'http://www.last.fm/music/Alice+in+Chains/_/Rotten+Apple'
p604
S'1257422840'
p605
tp606
a(S'Jupiter One'
p607
S'Countdown'
p608
S'http://www.last.fm/music/Jupiter+One/_/Countdown'
p609
S'1257422611'
p610
tp611
a(S'Iron Maiden'
p612
S'The Clansman'
p613
S'http://www.last.fm/music/Iron+Maiden/_/The+Clansman'
p614
S'1257422039'
p615
tp616
a(S'Jerry Cantrell'
p617
S'Devil By His Side'
p618
S'http://www.last.fm/music/Jerry+Cantrell/_/Devil+By+His+Side'
p619
S'1257421749'
p620
tp621
a(S'Metallica'
p622
S'Of Wolf and Man'
p623
S'http://www.last.fm/music/Metallica/_/Of+Wolf+and+Man'
p624
S'1257421492'
p625
tp626
a(S'Mother Love Bone'
p627
S'Come Bite The Apple'
p628
S'http://www.last.fm/music/Mother+Love+Bone/_/Come+Bite+The+Apple'
p629
S'1257421181'
p630
tp631
a(S'Skid Row'
p632
S'Into Another'
p633
S'http://www.last.fm/music/Skid+Row/_/Into+Another'
p634
S'1257420086'
p635
tp636
a(S'Stone Temple Pilots'
p637
S"Trippin' on a Hole in a Paper Heart"
p638
S'http://www.last.fm/music/Stone+Temple+Pilots/_/Trippin%27+on+a+Hole+in+a+Paper+Heart'
p639
S'1257419909'
p640
tp641
a(S'Atreyu'
p642
S'Becoming the Bull'
p643
S'http://www.last.fm/music/Atreyu/_/Becoming+the+Bull'
p644
S'1257419689'
p645
tp646
a(S'Metallica'
p647
S'Of Wolf and Man'
p648
S'http://www.last.fm/music/Metallica/_/Of+Wolf+and+Man'
p649
S'1257366294'
p650
tp651
a(S'Alice in Chains'
p652
S'All Secrets Known'
p653
S'http://www.last.fm/music/Alice+in+Chains/_/All+Secrets+Known'
p654
S'1257366012'
p655
tp656
a(S'Liz Phair'
p657
S'Rock Me'
p658
S'http://www.last.fm/music/Liz+Phair/_/Rock+Me'
p659
S'1257365812'
p660
tp661
a(S'Corrosion of Conformity'
p662
S'Clean My Wounds'
p663
S'http://www.last.fm/music/Corrosion+of+Conformity/_/Clean+My+Wounds'
p664
S'1257365599'
p665
tp666
a(S'Army Of Anyone'
p667
S'Generation'
p668
S'http://www.last.fm/music/Army+Of+Anyone/_/Generation'
p669
S'1257365388'
p670
tp671
a(S'Iron Maiden'
p672
S'The Clansman'
p673
S'http://www.last.fm/music/Iron+Maiden/_/The+Clansman'
p674
S'1257364188'
p675
tp676
a(S'Megadeth'
p677
S'Diadems'
p678
S'http://www.last.fm/music/Megadeth/_/Diadems'
p679
S'1257363952'
p680
tp681
a(S'Jerry Cantrell'
p682
S'Devil By His Side'
p683
S'http://www.last.fm/music/Jerry+Cantrell/_/Devil+By+His+Side'
p684
S'1257363663'
p685
tp686
a(S'Talk Show'
p687
S'Hello Hello'
p688
S'http://www.last.fm/music/Talk+Show/_/Hello+Hello'
p689
S'1257363486'
p690
tp691
a(S'Stone Temple Pilots'
p692
S'Lounge Fly'
p693
S'http://www.last.fm/music/Stone+Temple+Pilots/_/Lounge+Fly'
p694
S'1257363167'
p695
tp696
a(S'Yes'
p697
S'Changes'
p698
S'http://www.last.fm/music/Yes/_/Changes'
p699
S'1257362787'
p700
tp701
a(S'Skid Row'
p702
S'Into Another'
p703
S'http://www.last.fm/music/Skid+Row/_/Into+Another'
p704
S'1257362545'
p705
tp706
a(S'Alice in Chains'
p707
S'Private Hell'
p708
S'http://www.last.fm/music/Alice+in+Chains/_/Private+Hell'
p709
S'1257362206'
p710
tp711
a(S'Atreyu'
p712
S'Becoming the Bull'
p713
S'http://www.last.fm/music/Atreyu/_/Becoming+the+Bull'
p714
S'1257361985'
p715
tp716
a(S'Jamiroquai'
p717
S'Little L'
p718
S'http://www.last.fm/music/Jamiroquai/_/Little+L'
p719
S'1257266976'
p720
tp721
a(S'Jamiroquai'
p722
S'Love Foolosophy'
p723
S'http://www.last.fm/music/Jamiroquai/_/Love+Foolosophy'
p724
S'1257266748'
p725
tp726
a(S'Jamiroquai'
p727
S'Seven Days in Sunny June'
p728
S'http://www.last.fm/music/Jamiroquai/_/Seven+Days+in+Sunny+June'
p729
S'1257266510'
p730
tp731
a(S'Jamiroquai'
p732
S'You Give Me Something'
p733
S'http://www.last.fm/music/Jamiroquai/_/You+Give+Me+Something'
p734
S'1257266304'
p735
tp736
a(S'Jamiroquai'
p737
S'Dynamite'
p738
S'http://www.last.fm/music/Jamiroquai/_/Dynamite'
p739
S'1257266010'
p740
tp741
a(S'Jamiroquai'
p742
S'Electric Mistress'
p743
S'http://www.last.fm/music/Jamiroquai/_/Electric+Mistress'
p744
S'1257265775'
p745
tp746
a(S'Jamiroquai'
p747
S'Little L'
p748
S'http://www.last.fm/music/Jamiroquai/_/Little+L'
p749
S'1257265478'
p750
tp751
a(S'Stone Temple Pilots'
p752
S'Lounge Fly'
p753
S'http://www.last.fm/music/Stone+Temple+Pilots/_/Lounge+Fly'
p754
S'1257265141'
p755
tp756
a(S'Liz Phair'
p757
S'Rock Me'
p758
S'http://www.last.fm/music/Liz+Phair/_/Rock+Me'
p759
S'1257264940'
p760
tp761
a(S'Alice in Chains'
p762
S'Private Hell'
p763
S'http://www.last.fm/music/Alice+in+Chains/_/Private+Hell'
p764
S'1257264602'
p765
tp766
a(S'Alice in Chains'
p767
S'Man in the Box'
p768
S'http://www.last.fm/music/Alice+in+Chains/_/Man+in+the+Box'
p769
S'1257264316'
p770
tp771
a(S'Metallica'
p772
S'Of Wolf and Man'
p773
S'http://www.last.fm/music/Metallica/_/Of+Wolf+and+Man'
p774
S'1257264059'
p775
tp776
a(S'Jerry Cantrell'
p777
S'Devil By His Side'
p778
S'http://www.last.fm/music/Jerry+Cantrell/_/Devil+By+His+Side'
p779
S'1257263769'
p780
tp781
a(S'Skid Row'
p782
S'Into Another'
p783
S'http://www.last.fm/music/Skid+Row/_/Into+Another'
p784
S'1257263527'
p785
tp786
a(S'Alice in Chains'
p787
S'Check My Brain'
p788
S'http://www.last.fm/music/Alice+in+Chains/_/Check+My+Brain'
p789
S'1257263289'
p790
tp791
a(S'From Autumn To Ashes'
p792
S'Daylight Slaving'
p793
S'http://www.last.fm/music/From+Autumn+To+Ashes/_/Daylight+Slaving'
p794
S'1257262389'
p795
tp796
a(S'Atreyu'
p797
S'Becoming the Bull'
p798
S'http://www.last.fm/music/Atreyu/_/Becoming+the+Bull'
p799
S'1257262168'
p800
tp801
a(S'Atreyu'
p802
S'Becoming the Bull'
p803
S'http://www.last.fm/music/Atreyu/_/Becoming+the+Bull'
p804
S'1257261911'
p805
tp806
a(S'Atreyu'
p807
S'Becoming the Bull'
p808
S'http://www.last.fm/music/Atreyu/_/Becoming+the+Bull'
p809
S'1256909252'
p810
tp811
a(S'Iron Maiden'
p812
S'The Clansman'
p813
S'http://www.last.fm/music/Iron+Maiden/_/The+Clansman'
p814
S'1256908496'
p815
tp816
a(S'Anthrax'
p817
S'Room For One More'
p818
S'http://www.last.fm/music/Anthrax/_/Room+For+One+More'
p819
S'1256908200'
p820
tp821
a(S'Kaiser Chiefs'
p822
S'Everything Is Average Nowadays'
p823
S'http://www.last.fm/music/Kaiser+Chiefs/_/Everything+Is+Average+Nowadays'
p824
S'1256908038'
p825
tp826
a(S'Mother Love Bone'
p827
S'Come Bite The Apple'
p828
S'http://www.last.fm/music/Mother+Love+Bone/_/Come+Bite+The+Apple'
p829
S'1256907498'
p830
tp831
a(S'Jupiter One'
p832
S'Countdown'
p833
S'http://www.last.fm/music/Jupiter+One/_/Countdown'
p834
S'1256907168'
p835
tp836
a(S'From Autumn To Ashes'
p837
S'Daylight Slaving'
p838
S'http://www.last.fm/music/From+Autumn+To+Ashes/_/Daylight+Slaving'
p839
S'1256906947'
p840
tp841
a(S'Yes'
p842
S'Changes'
p843
S'http://www.last.fm/music/Yes/_/Changes'
p844
S'1256906568'
p845
tp846
a(S'Stone Temple Pilots'
p847
S'Lounge Fly'
p848
S'http://www.last.fm/music/Stone+Temple+Pilots/_/Lounge+Fly'
p849
S'1256906249'
p850
tp851
a(S'Skid Row'
p852
S'Into Another'
p853
S'http://www.last.fm/music/Skid+Row/_/Into+Another'
p854
S'1256906006'
p855
tp856
a(S'Alice in Chains'
p857
S'Private Hell'
p858
S'http://www.last.fm/music/Alice+in+Chains/_/Private+Hell'
p859
S'1256905608'
p860
tp861
a(S'Yes'
p862
S'Changes'
p863
S'http://www.last.fm/music/Yes/_/Changes'
p864
S'1256905229'
p865
tp866
a(S'Megadeth'
p867
S'Diadems'
p868
S'http://www.last.fm/music/Megadeth/_/Diadems'
p869
S'1256904993'
p870
tp871
a(S'Alice in Chains'
p872
S'Lesson Learned'
p873
S'http://www.last.fm/music/Alice+in+Chains/_/Lesson+Learned'
p874
S'1256904736'
p875
tp876
a(S'Stone Temple Pilots'
p877
S'Still Remains'
p878
S'http://www.last.fm/music/Stone+Temple+Pilots/_/Still+Remains'
p879
S'1256904523'
p880
tp881
a(S'Alice Cooper'
p882
S'Bed of Nails'
p883
S'http://www.last.fm/music/Alice+Cooper/_/Bed+of+Nails'
p884
S'1256904072'
p885
tp886
a(S'Alice in Chains'
p887
S'All Secrets Known'
p888
S'http://www.last.fm/music/Alice+in+Chains/_/All+Secrets+Known'
p889
S'1256903789'
p890
tp891
a(S'Stone Temple Pilots'
p892
S"Trippin' on a Hole in a Paper Heart"
p893
S'http://www.last.fm/music/Stone+Temple+Pilots/_/Trippin%27+on+a+Hole+in+a+Paper+Heart'
p894
S'1256903613'
p895
tp896
a(S'Stone Temple Pilots'
p897
S'Lounge Fly'
p898
S'http://www.last.fm/music/Stone+Temple+Pilots/_/Lounge+Fly'
p899
S'1256903294'
p900
tp901
a(S'From Autumn To Ashes'
p902
S'Daylight Slaving'
p903
S'http://www.last.fm/music/From+Autumn+To+Ashes/_/Daylight+Slaving'
p904
S'1256903074'
p905
tp906
a(S'Alice in Chains'
p907
S'Rotten Apple'
p908
S'http://www.last.fm/music/Alice+in+Chains/_/Rotten+Apple'
p909
S'1256902655'
p910
tp911
a(S'Anthrax'
p912
S'Room For One More'
p913
S'http://www.last.fm/music/Anthrax/_/Room+For+One+More'
p914
S'1256902359'
p915
tp916
a(S'Corrosion of Conformity'
p917
S'Clean My Wounds'
p918
S'http://www.last.fm/music/Corrosion+of+Conformity/_/Clean+My+Wounds'
p919
S'1256902146'
p920
tp921
a(S'Jupiter One'
p922
S'Countdown'
p923
S'http://www.last.fm/music/Jupiter+One/_/Countdown'
p924
S'1256901705'
p925
tp926
a(S'Kyuss'
p927
S'Green Machine'
p928
S'http://www.last.fm/music/Kyuss/_/Green+Machine'
p929
S'1256901487'
p930
tp931
a(S'Metallica'
p932
S'Of Wolf and Man'
p933
S'http://www.last.fm/music/Metallica/_/Of+Wolf+and+Man'
p934
S'1256901230'
p935
tp936
a(S'Alice in Chains'
p937
S'Man in the Box'
p938
S'http://www.last.fm/music/Alice+in+Chains/_/Man+in+the+Box'
p939
S'1256900944'
p940
tp941
a(S'Atreyu'
p942
S'Becoming the Bull'
p943
S'http://www.last.fm/music/Atreyu/_/Becoming+the+Bull'
p944
S'1256900453'
p945
tp946
a(S'Alice in Chains'
p947
S'Private Hell'
p948
S'http://www.last.fm/music/Alice+in+Chains/_/Private+Hell'
p949
S'1256744268'
p950
tp951
a(S'Alice in Chains'
p952
S'When the Sun Rose Again'
p953
S'http://www.last.fm/music/Alice+in+Chains/_/When+the+Sun+Rose+Again'
p954
S'1256744028'
p955
tp956
a(S'Jamiroquai'
p957
S'Love Foolosophy'
p958
S'http://www.last.fm/music/Jamiroquai/_/Love+Foolosophy'
p959
S'1256743800'
p960
tp961
a(S'Jamiroquai'
p962
S'Little L'
p963
S'http://www.last.fm/music/Jamiroquai/_/Little+L'
p964
S'1256733047'
p965
tp966
a(S'Alice in Chains'
p967
S'Lesson Learned'
p968
S'http://www.last.fm/music/Alice+in+Chains/_/Lesson+Learned'
p969
S'1256732790'
p970
tp971
a(S'Alice in Chains'
p972
S'All Secrets Known'
p973
S'http://www.last.fm/music/Alice+in+Chains/_/All+Secrets+Known'
p974
S'1256732508'
p975
tp976
a(S'Airbourne'
p977
S"Runnin' Wild"
p978
S'http://www.last.fm/music/Airbourne/_/Runnin%27+Wild'
p979
S'1256732290'
p980
tp981
a(S'Jamiroquai'
p982
S'Electric Mistress'
p983
S'http://www.last.fm/music/Jamiroquai/_/Electric+Mistress'
p984
S'1256732056'
p985
tp986
a(S'Jamiroquai'
p987
S'Dynamite'
p988
S'http://www.last.fm/music/Jamiroquai/_/Dynamite'
p989
S'1256731761'
p990
tp991
a(S'Jamiroquai'
p992
S'You Give Me Something'
p993
S'http://www.last.fm/music/Jamiroquai/_/You+Give+Me+Something'
p994
S'1256730651'
p995
tp996
a(S'Alice in Chains'
p997
S'Your Decision'
p998
S'http://www.last.fm/music/Alice+in+Chains/_/Your+Decision'
p999
S'1256730368'
p1000
tp1001
a.