(lp1
(S'Velvet Revolver'
p2
S'Just Sixteen'
p3
S'http://www.last.fm/music/Velvet+Revolver/_/Just+Sixteen'
p4
S'1185576062'
p5
tp6
a(S'Stone Temple Pilots'
p7
S'Piece of Pie'
p8
S'http://www.last.fm/music/Stone+Temple+Pilots/_/Piece+of+Pie'
p9
S'1185575737'
p10
tp11
a(S'Velvet Revolver'
p12
S'Do It For The Kids'
p13
S'http://www.last.fm/music/Velvet+Revolver/_/Do+It+For+The+Kids'
p14
S'1185575349'
p15
tp16
a(S'Velvet Revolver'
p17
S'Do It For The Kids'
p18
S'http://www.last.fm/music/Velvet+Revolver/_/Do+It+For+The+Kids'
p19
S'1185505358'
p20
tp21
a(S'Velvet Revolver'
p22
S'She Builds Quick Machines'
p23
S'http://www.last.fm/music/Velvet+Revolver/_/She+Builds+Quick+Machines'
p24
S'1185505115'
p25
tp26
a(S'Velvet Revolver'
p27
S'She Builds Quick Machines'
p28
S'http://www.last.fm/music/Velvet+Revolver/_/She+Builds+Quick+Machines'
p29
S'1185504405'
p30
tp31
a(S'Soundgarden'
p32
S'Mind Riot'
p33
S'http://www.last.fm/music/Soundgarden/_/Mind+Riot'
p34
S'1185504116'
p35
tp36
a(S'Queens of the Stone Age'
p37
S'Make It Wit Chu'
p38
S'http://www.last.fm/music/Queens+of+the+Stone+Age/_/Make+It+Wit+Chu'
p39
S'1185503826'
p40
tp41
a(S'Queens of the Stone Age'
p42
S'Make It Wit Chu'
p43
S'http://www.last.fm/music/Queens+of+the+Stone+Age/_/Make+It+Wit+Chu'
p44
S'1185503566'
p45
tp46
a(S'Alice in Chains'
p47
S'Again'
p48
S'http://www.last.fm/music/Alice+in+Chains/_/Again'
p49
S'1185503321'
p50
tp51
a(S'Mother Love Bone'
p52
S'Stargazer'
p53
S'http://www.last.fm/music/Mother+Love+Bone/_/Stargazer'
p54
S'1185503028'
p55
tp56
a(S'Live'
p57
S'Hero Of Love'
p58
S'http://www.last.fm/music/Live/_/Hero+Of+Love'
p59
S'1185502716'
p60
tp61
a(S'Black Sabbath'
p62
S'The Wizard'
p63
S'http://www.last.fm/music/Black+Sabbath/_/The+Wizard'
p64
S'1185502451'
p65
tp66
a(S'Velvet Revolver'
p67
S'She Mine'
p68
S'http://www.last.fm/music/Velvet+Revolver/_/She+Mine'
p69
S'1185502246'
p70
tp71
a(S'Alice in Chains'
p72
S'God Am'
p73
S'http://www.last.fm/music/Alice+in+Chains/_/God+Am'
p74
S'1185501998'
p75
tp76
a(S'Velvet Revolver'
p77
S'She Builds Quick Machines'
p78
S'http://www.last.fm/music/Velvet+Revolver/_/She+Builds+Quick+Machines'
p79
S'1185501755'
p80
tp81
a(S'L7'
p82
S'Monster'
p83
S'http://www.last.fm/music/L7/_/Monster'
p84
S'1185501578'
p85
tp86
a(S'Audioslave'
p87
S'Somedays'
p88
S'http://www.last.fm/music/Audioslave/_/Somedays'
p89
S'1185501366'
p90
tp91
a(S'Velvet Revolver'
p92
S'Get Out The Door'
p93
S'http://www.last.fm/music/Velvet+Revolver/_/Get+Out+The+Door'
p94
S'1185501171'
p95
tp96
a(S'Live'
p97
S'She'
p98
S'http://www.last.fm/music/Live/_/She'
p99
S'1185501011'
p100
tp101
a(S'Audioslave'
p102
S'Yesterday To Tomorrow'
p103
S'http://www.last.fm/music/Audioslave/_/Yesterday+To+Tomorrow'
p104
S'1185500737'
p105
tp106
a(S'Velvet Revolver'
p107
S'Mary Mary'
p108
S'http://www.last.fm/music/Velvet+Revolver/_/Mary+Mary'
p109
S'1185500464'
p110
tp111
a(S'Audioslave'
p112
S'Set It Off'
p113
S'http://www.last.fm/music/Audioslave/_/Set+It+Off'
p114
S'1185500200'
p115
tp116
a(S'Army Of Anyone'
p117
S'Generation'
p118
S'http://www.last.fm/music/Army+Of+Anyone/_/Generation'
p119
S'1185499989'
p120
tp121
a(S'Velvet Revolver'
p122
S'Gas and a Dollar Laugh'
p123
S'http://www.last.fm/music/Velvet+Revolver/_/Gas+and+a+Dollar+Laugh'
p124
S'1185499791'
p125
tp126
a(S'Arctic Monkeys'
p127
S'I Bet You Look Good on the Dancefloor'
p128
S'http://www.last.fm/music/Arctic+Monkeys/_/I+Bet+You+Look+Good+on+the+Dancefloor'
p129
S'1185499618'
p130
tp131
a(S'Alice in Chains'
p132
S'Sludge Factory'
p133
S'http://www.last.fm/music/Alice+in+Chains/_/Sludge+Factory'
p134
S'1185499341'
p135
tp136
a(S'Velvet Revolver'
p137
S'Headspace'
p138
S'http://www.last.fm/music/Velvet+Revolver/_/Headspace'
p139
S'1185499118'
p140
tp141
a(S'Live'
p142
S'Lighthouse'
p143
S'http://www.last.fm/music/Live/_/Lighthouse'
p144
S'1185498930'
p145
tp146
a(S'Alice in Chains'
p147
S'Shame in You'
p148
S'http://www.last.fm/music/Alice+in+Chains/_/Shame+in+You'
p149
S'1185498594'
p150
tp151
a(S'Queens of the Stone Age'
p152
S'Into the Hollow'
p153
S'http://www.last.fm/music/Queens+of+the+Stone+Age/_/Into+the+Hollow'
p154
S'1185498371'
p155
tp156
a(S'Alice in Chains'
p157
S'Junkhead'
p158
S'http://www.last.fm/music/Alice+in+Chains/_/Junkhead'
p159
S'1185498062'
p160
tp161
a(S'Velvet Revolver'
p162
S'Spectacle'
p163
S'http://www.last.fm/music/Velvet+Revolver/_/Spectacle'
p164
S'1185497840'
p165
tp166
a(S'Aerosmith'
p167
S'Combination'
p168
S'http://www.last.fm/music/Aerosmith/_/Combination'
p169
S'1185497622'
p170
tp171
a(S'Soundgarden'
p172
S'Let Me Drown'
p173
S'http://www.last.fm/music/Soundgarden/_/Let+Me+Drown'
p174
S'1185497390'
p175
tp176
a(S'AC/DC'
p177
S'The Razors Edge'
p178
S'http://www.last.fm/music/AC%2FDC/_/The+Razors+Edge'
p179
S'1185497128'
p180
tp181
a(S'Live'
p182
S'River Town'
p183
S'http://www.last.fm/music/Live/_/River+Town'
p184
S'1185496878'
p185
tp186
a(S'Arctic Monkeys'
p187
S'Fake Tales of San Francisco'
p188
S'http://www.last.fm/music/Arctic+Monkeys/_/Fake+Tales+of+San+Francisco'
p189
S'1185496700'
p190
tp191
a(S'Alice in Chains'
p192
S'Brush Away'
p193
S'http://www.last.fm/music/Alice+in+Chains/_/Brush+Away'
p194
S'1185493084'
p195
tp196
a(S'Velvet Revolver'
p197
S'Just Sixteen'
p198
S'http://www.last.fm/music/Velvet+Revolver/_/Just+Sixteen'
p199
S'1185492846'
p200
tp201
a(S'Stone Temple Pilots'
p202
S'Piece of Pie'
p203
S'http://www.last.fm/music/Stone+Temple+Pilots/_/Piece+of+Pie'
p204
S'1185492521'
p205
tp206
a(S'Audioslave'
p207
S'Moth'
p208
S'http://www.last.fm/music/Audioslave/_/Moth'
p209
S'1185492227'
p210
tp211
a(S'Live'
p212
S'Sweet Release'
p213
S'http://www.last.fm/music/Live/_/Sweet+Release'
p214
S'1185409774'
p215
tp216
a(S'Velvet Revolver'
p217
S'For A Brother'
p218
S'http://www.last.fm/music/Velvet+Revolver/_/For+A+Brother'
p219
S'1185409567'
p220
tp221
a(S'Soundgarden'
p222
S'Drawing Flies'
p223
S'http://www.last.fm/music/Soundgarden/_/Drawing+Flies'
p224
S'1185409421'
p225
tp226
a(S'Stone Temple Pilots'
p227
S'Hollywood Bitch'
p228
S'http://www.last.fm/music/Stone+Temple+Pilots/_/Hollywood+Bitch'
p229
S'1185409257'
p230
tp231
a(S'Alice in Chains'
p232
S'Rooster'
p233
S'http://www.last.fm/music/Alice+in+Chains/_/Rooster'
p234
S'1185408882'
p235
tp236
a(S'Arctic Monkeys'
p237
S'Florescent Adolescent'
p238
S'http://www.last.fm/music/Arctic+Monkeys/_/Florescent+Adolescent'
p239
S'1185408668'
p240
tp241
a(S'Velvet Revolver'
p242
S'Just Sixteen'
p243
S'http://www.last.fm/music/Velvet+Revolver/_/Just+Sixteen'
p244
S'1185408429'
p245
tp246
a(S'Velvet Revolver'
p247
S'Gas and a Dollar Laugh'
p248
S'http://www.last.fm/music/Velvet+Revolver/_/Gas+and+a+Dollar+Laugh'
p249
S'1185339572'
p250
tp251
a(S'Velvet Revolver'
p252
S'Mary Mary'
p253
S'http://www.last.fm/music/Velvet+Revolver/_/Mary+Mary'
p254
S'1185339298'
p255
tp256
a(S'Velvet Revolver'
p257
S'Just Sixteen'
p258
S'http://www.last.fm/music/Velvet+Revolver/_/Just+Sixteen'
p259
S'1185339059'
p260
tp261
a(S'Stone Temple Pilots'
p262
S"Trippin' on a Hole in a Paper Heart"
p263
S'http://www.last.fm/music/Stone+Temple+Pilots/_/Trippin%27+on+a+Hole+in+a+Paper+Heart'
p264
S'1185338883'
p265
tp266
a(S'Stone Temple Pilots'
p267
S'Piece of Pie'
p268
S'http://www.last.fm/music/Stone+Temple+Pilots/_/Piece+of+Pie'
p269
S'1185338558'
p270
tp271
a(S'Audioslave'
p272
S'Set It Off'
p273
S'http://www.last.fm/music/Audioslave/_/Set+It+Off'
p274
S'1185338295'
p275
tp276
a(S'Velvet Revolver'
p277
S'Spectacle'
p278
S'http://www.last.fm/music/Velvet+Revolver/_/Spectacle'
p279
S'1185338073'
p280
tp281
a(S'Velvet Revolver'
p282
S'Gas and a Dollar Laugh'
p283
S'http://www.last.fm/music/Velvet+Revolver/_/Gas+and+a+Dollar+Laugh'
p284
S'1185337569'
p285
tp286
a(S'Alice in Chains'
p287
S'Head Creeps'
p288
S'http://www.last.fm/music/Alice+in+Chains/_/Head+Creeps'
p289
S'1185337181'
p290
tp291
a(S'Velvet Revolver'
p292
S'Mary Mary'
p293
S'http://www.last.fm/music/Velvet+Revolver/_/Mary+Mary'
p294
S'1185336907'
p295
tp296
a(S'Stone Temple Pilots'
p297
S'Silvergun Superman'
p298
S'http://www.last.fm/music/Stone+Temple+Pilots/_/Silvergun+Superman'
p299
S'1185336591'
p300
tp301
a(S'Velvet Revolver'
p302
S'She Builds Quick Machines'
p303
S'http://www.last.fm/music/Velvet+Revolver/_/She+Builds+Quick+Machines'
p304
S'1185336108'
p305
tp306
a(S'Alice in Chains'
p307
S'Right Turn'
p308
S'http://www.last.fm/music/Alice+in+Chains/_/Right+Turn'
p309
S'1185335910'
p310
tp311
a(S'Velvet Revolver'
p312
S'Headspace'
p313
S'http://www.last.fm/music/Velvet+Revolver/_/Headspace'
p314
S'1185335687'
p315
tp316
a(S'Stone Temple Pilots'
p317
S'Regeneration'
p318
S'http://www.last.fm/music/Stone+Temple+Pilots/_/Regeneration'
p319
S'1185335452'
p320
tp321
a(S'Velvet Revolver'
p322
S'Spectacle'
p323
S'http://www.last.fm/music/Velvet+Revolver/_/Spectacle'
p324
S'1185335230'
p325
tp326
a(S'Velvet Revolver'
p327
S'Gas and a Dollar Laugh'
p328
S'http://www.last.fm/music/Velvet+Revolver/_/Gas+and+a+Dollar+Laugh'
p329
S'1185335032'
p330
tp331
a(S'Velvet Revolver'
p332
S'Just Sixteen'
p333
S'http://www.last.fm/music/Velvet+Revolver/_/Just+Sixteen'
p334
S'1185334793'
p335
tp336
a(S'Velvet Revolver'
p337
S'Mary Mary'
p338
S'http://www.last.fm/music/Velvet+Revolver/_/Mary+Mary'
p339
S'1185334519'
p340
tp341
a(S'Velvet Revolver'
p342
S'She Builds Quick Machines'
p343
S'http://www.last.fm/music/Velvet+Revolver/_/She+Builds+Quick+Machines'
p344
S'1185334277'
p345
tp346
a(S'Velvet Revolver'
p347
S'She Builds Quick Machines'
p348
S'http://www.last.fm/music/Velvet+Revolver/_/She+Builds+Quick+Machines'
p349
S'1185333862'
p350
tp351
a(S'Morphine'
p352
S'Potion'
p353
S'http://www.last.fm/music/Morphine/_/Potion'
p354
S'1185246621'
p355
tp356
a(S'Queen'
p357
S'A Kind of Magic'
p358
S'http://www.last.fm/music/Queen/_/A+Kind+of+Magic'
p359
S'1185246356'
p360
tp361
a(S'Wesley Willis'
p362
S'Northwest Airlines'
p363
S'http://www.last.fm/music/Wesley+Willis/_/Northwest+Airlines'
p364
S'1185246189'
p365
tp366
a(S'Velvet Revolver'
p367
S'Big Machine'
p368
S'http://www.last.fm/music/Velvet+Revolver/_/Big+Machine'
p369
S'1185245923'
p370
tp371
a(S'Velvet Revolver'
p372
S'Fall To Pieces'
p373
S'http://www.last.fm/music/Velvet+Revolver/_/Fall+To+Pieces'
p374
S'1185245653'
p375
tp376
a(S'Velvet Revolver'
p377
S'Gas and a Dollar Laugh'
p378
S'http://www.last.fm/music/Velvet+Revolver/_/Gas+and+a+Dollar+Laugh'
p379
S'1185245455'
p380
tp381
a(S'Velvet Revolver'
p382
S'Just Sixteen'
p383
S'http://www.last.fm/music/Velvet+Revolver/_/Just+Sixteen'
p384
S'1185245216'
p385
tp386
a(S'Velvet Revolver'
p387
S'Mary Mary'
p388
S'http://www.last.fm/music/Velvet+Revolver/_/Mary+Mary'
p389
S'1185244942'
p390
tp391
a(S'Velvet Revolver'
p392
S'Get Out The Door'
p393
S'http://www.last.fm/music/Velvet+Revolver/_/Get+Out+The+Door'
p394
S'1185244749'
p395
tp396
a(S'Audioslave'
p397
S'Yesterday To Tomorrow'
p398
S'http://www.last.fm/music/Audioslave/_/Yesterday+To+Tomorrow'
p399
S'1185244464'
p400
tp401
a(S'Audioslave'
p402
S'Somedays'
p403
S'http://www.last.fm/music/Audioslave/_/Somedays'
p404
S'1185243331'
p405
tp406
a(S'Audioslave'
p407
S'Set It Off'
p408
S'http://www.last.fm/music/Audioslave/_/Set+It+Off'
p409
S'1185243068'
p410
tp411
a(S'Ramones'
p412
S'Scattergun'
p413
S'http://www.last.fm/music/Ramones/_/Scattergun'
p414
S'1185242918'
p415
tp416
a(S'Buddy Guy'
p417
S'First Time I Met The Blues'
p418
S'http://www.last.fm/music/Buddy+Guy/_/First+Time+I+Met+The+Blues'
p419
S'1185242779'
p420
tp421
a(S'Talk Show'
p422
S'Everybody Loves My Car'
p423
S'http://www.last.fm/music/Talk+Show/_/Everybody+Loves+My+Car'
p424
S'1185242582'
p425
tp426
a(S'Velvet Revolver'
p427
S'Messages'
p428
S'http://www.last.fm/music/Velvet+Revolver/_/Messages'
p429
S'1185242295'
p430
tp431
a(S'Velvet Revolver'
p432
S"Don't Drop That Dime"
p433
S'http://www.last.fm/music/Velvet+Revolver/_/Don%27t+Drop+That+Dime'
p434
S'1185242055'
p435
tp436
a(S'Velvet Revolver'
p437
S'Gravedancer'
p438
S'http://www.last.fm/music/Velvet+Revolver/_/Gravedancer'
p439
S'1185241777'
p440
tp441
a(S'Velvet Revolver'
p442
S'Spay'
p443
S'http://www.last.fm/music/Velvet+Revolver/_/Spay'
p444
S'1185241591'
p445
tp446
a(S'Velvet Revolver'
p447
S'For A Brother'
p448
S'http://www.last.fm/music/Velvet+Revolver/_/For+A+Brother'
p449
S'1185241384'
p450
tp451
a(S'Velvet Revolver'
p452
S"Can't Get It Out Of My Head"
p453
S'http://www.last.fm/music/Velvet+Revolver/_/Can%27t+Get+It+Out+Of+My+Head'
p454
S'1185241147'
p455
tp456
a(S'Velvet Revolver'
p457
S'American Man'
p458
S'http://www.last.fm/music/Velvet+Revolver/_/American+Man'
p459
S'1185240910'
p460
tp461
a(S'Velvet Revolver'
p462
S'Pills, Demons & Etc'
p463
S'http://www.last.fm/music/Velvet+Revolver/_/Pills,+Demons+&+Etc'
p464
S'1185240736'
p465
tp466
a(S'Velvet Revolver'
p467
S'The Last Fight'
p468
S'http://www.last.fm/music/Velvet+Revolver/_/The+Last+Fight'
p469
S'1185240493'
p470
tp471
a(S'Velvet Revolver'
p472
S'Let It Roll'
p473
S'http://www.last.fm/music/Velvet+Revolver/_/Let+It+Roll'
p474
S'1185240340'
p475
tp476
a(S'Velvet Revolver'
p477
S'Get Out The Door'
p478
S'http://www.last.fm/music/Velvet+Revolver/_/Get+Out+The+Door'
p479
S'1185233815'
p480
tp481
a(S'Velvet Revolver'
p482
S'She Mine'
p483
S'http://www.last.fm/music/Velvet+Revolver/_/She+Mine'
p484
S'1185233611'
p485
tp486
a(S'Velvet Revolver'
p487
S'Gas and a Dollar Laugh'
p488
S'http://www.last.fm/music/Velvet+Revolver/_/Gas+and+a+Dollar+Laugh'
p489
S'1185233413'
p490
tp491
a(S'Velvet Revolver'
p492
S'Just Sixteen'
p493
S'http://www.last.fm/music/Velvet+Revolver/_/Just+Sixteen'
p494
S'1185233175'
p495
tp496
a(S'Velvet Revolver'
p497
S'Mary Mary'
p498
S'http://www.last.fm/music/Velvet+Revolver/_/Mary+Mary'
p499
S'1185232900'
p500
tp501
a(S'Velvet Revolver'
p502
S'She Builds Quick Machines'
p503
S'http://www.last.fm/music/Velvet+Revolver/_/She+Builds+Quick+Machines'
p504
S'1185232658'
p505
tp506
a(S'Velvet Revolver'
p507
S'Gas and a Dollar Laugh'
p508
S'http://www.last.fm/music/Velvet+Revolver/_/Gas+and+a+Dollar+Laugh'
p509
S'1185131351'
p510
tp511
a(S'Velvet Revolver'
p512
S'Mary Mary'
p513
S'http://www.last.fm/music/Velvet+Revolver/_/Mary+Mary'
p514
S'1185131078'
p515
tp516
a(S'Velvet Revolver'
p517
S'She Builds Quick Machines'
p518
S'http://www.last.fm/music/Velvet+Revolver/_/She+Builds+Quick+Machines'
p519
S'1185130835'
p520
tp521
a(S'Velvet Revolver'
p522
S'Just Sixteen'
p523
S'http://www.last.fm/music/Velvet+Revolver/_/Just+Sixteen'
p524
S'1185130571'
p525
tp526
a(S'Live'
p527
S'She'
p528
S'http://www.last.fm/music/Live/_/She'
p529
S'1185130410'
p530
tp531
a(S'Velvet Revolver'
p532
S'Gas and a Dollar Laugh'
p533
S'http://www.last.fm/music/Velvet+Revolver/_/Gas+and+a+Dollar+Laugh'
p534
S'1185130212'
p535
tp536
a(S'Audioslave'
p537
S'Yesterday To Tomorrow'
p538
S'http://www.last.fm/music/Audioslave/_/Yesterday+To+Tomorrow'
p539
S'1185129939'
p540
tp541
a(S'Velvet Revolver'
p542
S'Mary Mary'
p543
S'http://www.last.fm/music/Velvet+Revolver/_/Mary+Mary'
p544
S'1185129665'
p545
tp546
a(S'Army Of Anyone'
p547
S'A Better Place'
p548
S'http://www.last.fm/music/Army+Of+Anyone/_/A+Better+Place'
p549
S'1185129366'
p550
tp551
a(S'Audioslave'
p552
S'Somedays'
p553
S'http://www.last.fm/music/Audioslave/_/Somedays'
p554
S'1185129154'
p555
tp556
a(S'Velvet Revolver'
p557
S'She Builds Quick Machines'
p558
S'http://www.last.fm/music/Velvet+Revolver/_/She+Builds+Quick+Machines'
p559
S'1185128910'
p560
tp561
a(S'Maroon 5'
p562
S'This Love'
p563
S'http://www.last.fm/music/Maroon+5/_/This+Love'
p564
S'1185128704'
p565
tp566
a(S'The Rolling Stones'
p567
S'Start Me Up'
p568
S'http://www.last.fm/music/The+Rolling+Stones/_/Start+Me+Up'
p569
S'1185128473'
p570
tp571
a(S'Velvet Revolver'
p572
S'Just Sixteen'
p573
S'http://www.last.fm/music/Velvet+Revolver/_/Just+Sixteen'
p574
S'1185128234'
p575
tp576
a(S'Velvet Revolver'
p577
S'Gas and a Dollar Laugh'
p578
S'http://www.last.fm/music/Velvet+Revolver/_/Gas+and+a+Dollar+Laugh'
p579
S'1185128036'
p580
tp581
a(S'Velvet Revolver'
p582
S'Mary Mary'
p583
S'http://www.last.fm/music/Velvet+Revolver/_/Mary+Mary'
p584
S'1185127762'
p585
tp586
a(S'Velvet Revolver'
p587
S'She Builds Quick Machines'
p588
S'http://www.last.fm/music/Velvet+Revolver/_/She+Builds+Quick+Machines'
p589
S'1185127520'
p590
tp591
a(S'Velvet Revolver'
p592
S'Gas and a Dollar Laugh'
p593
S'http://www.last.fm/music/Velvet+Revolver/_/Gas+and+a+Dollar+Laugh'
p594
S'1185113764'
p595
tp596
a(S'Velvet Revolver'
p597
S'She Builds Quick Machines'
p598
S'http://www.last.fm/music/Velvet+Revolver/_/She+Builds+Quick+Machines'
p599
S'1185113522'
p600
tp601
a(S'Army Of Anyone'
p602
S'Stop Look and Listen'
p603
S'http://www.last.fm/music/Army+Of+Anyone/_/Stop+Look+and+Listen'
p604
S'1185042045'
p605
tp606
a(S'Arctic Monkeys'
p607
S'I Bet You Look Good on the Dancefloor'
p608
S'http://www.last.fm/music/Arctic+Monkeys/_/I+Bet+You+Look+Good+on+the+Dancefloor'
p609
S'1185041872'
p610
tp611
a(S'Velvet Revolver'
p612
S'Superhuman'
p613
S'http://www.last.fm/music/Velvet+Revolver/_/Superhuman'
p614
S'1185041616'
p615
tp616
a(S'Soundgarden'
p617
S'Drawing Flies'
p618
S'http://www.last.fm/music/Soundgarden/_/Drawing+Flies'
p619
S'1185041469'
p620
tp621
a(S'Live'
p622
S'The Sanctity Of Dreams'
p623
S'http://www.last.fm/music/Live/_/The+Sanctity+Of+Dreams'
p624
S'1185041256'
p625
tp626
a(S'Foo Fighters'
p627
S'Headwires'
p628
S'http://www.last.fm/music/Foo+Fighters/_/Headwires'
p629
S'1185040541'
p630
tp631
a(S'Alice in Chains'
p632
S'Bleed the Freak'
p633
S'http://www.last.fm/music/Alice+in+Chains/_/Bleed+the+Freak'
p634
S'1185040300'
p635
tp636
a(S'Velvet Revolver'
p637
S'Headspace'
p638
S'http://www.last.fm/music/Velvet+Revolver/_/Headspace'
p639
S'1185040076'
p640
tp641
a(S'Velvet Revolver'
p642
S'Mary Mary'
p643
S'http://www.last.fm/music/Velvet+Revolver/_/Mary+Mary'
p644
S'1185039803'
p645
tp646
a(S'Audioslave'
p647
S'Set It Off'
p648
S'http://www.last.fm/music/Audioslave/_/Set+It+Off'
p649
S'1185039540'
p650
tp651
a(S'Velvet Revolver'
p652
S'Spectacle'
p653
S'http://www.last.fm/music/Velvet+Revolver/_/Spectacle'
p654
S'1185039318'
p655
tp656
a(S'Army Of Anyone'
p657
S'Non Stop'
p658
S'http://www.last.fm/music/Army+Of+Anyone/_/Non+Stop'
p659
S'1185039079'
p660
tp661
a(S'Live'
p662
S'Sweet Release'
p663
S'http://www.last.fm/music/Live/_/Sweet+Release'
p664
S'1185038897'
p665
tp666
a(S'Audioslave'
p667
S'Yesterday To Tomorrow'
p668
S'http://www.last.fm/music/Audioslave/_/Yesterday+To+Tomorrow'
p669
S'1185038623'
p670
tp671
a(S'Stone Temple Pilots'
p672
S'Piece of Pie'
p673
S'http://www.last.fm/music/Stone+Temple+Pilots/_/Piece+of+Pie'
p674
S'1185036548'
p675
tp676
a(S'Audioslave'
p677
S'I Am The Highway'
p678
S'http://www.last.fm/music/Audioslave/_/I+Am+The+Highway'
p679
S'1185036213'
p680
tp681
a(S'Velvet Revolver'
p682
S'You Got No Right'
p683
S'http://www.last.fm/music/Velvet+Revolver/_/You+Got+No+Right'
p684
S'1185035877'
p685
tp686
a(S'Arctic Monkeys'
p687
S'Fake Tales of San Francisco'
p688
S'http://www.last.fm/music/Arctic+Monkeys/_/Fake+Tales+of+San+Francisco'
p689
S'1185035699'
p690
tp691
a(S'Velvet Revolver'
p692
S'She Builds Quick Machines'
p693
S'http://www.last.fm/music/Velvet+Revolver/_/She+Builds+Quick+Machines'
p694
S'1185035456'
p695
tp696
a(S'Velvet Revolver'
p697
S'She Mine'
p698
S'http://www.last.fm/music/Velvet+Revolver/_/She+Mine'
p699
S'1185035251'
p700
tp701
a(S'Velvet Revolver'
p702
S'Big Machine'
p703
S'http://www.last.fm/music/Velvet+Revolver/_/Big+Machine'
p704
S'1185034985'
p705
tp706
a(S'Velvet Revolver'
p707
S'Headspace'
p708
S'http://www.last.fm/music/Velvet+Revolver/_/Headspace'
p709
S'1185034591'
p710
tp711
a(S'Velvet Revolver'
p712
S'Just Sixteen'
p713
S'http://www.last.fm/music/Velvet+Revolver/_/Just+Sixteen'
p714
S'1185034353'
p715
tp716
a(S'Velvet Revolver'
p717
S'Mary Mary'
p718
S'http://www.last.fm/music/Velvet+Revolver/_/Mary+Mary'
p719
S'1185034080'
p720
tp721
a(S'Velvet Revolver'
p722
S'She Builds Quick Machines'
p723
S'http://www.last.fm/music/Velvet+Revolver/_/She+Builds+Quick+Machines'
p724
S'1185030958'
p725
tp726
a(S'Velvet Revolver'
p727
S'She Builds Quick Machines'
p728
S'http://www.last.fm/music/Velvet+Revolver/_/She+Builds+Quick+Machines'
p729
S'1185030715'
p730
tp731
a(S'Audioslave'
p732
S'Cochise'
p733
S'http://www.last.fm/music/Audioslave/_/Cochise'
p734
S'1184988236'
p735
tp736
a(S'Velvet Revolver'
p737
S'Just Sixteen'
p738
S'http://www.last.fm/music/Velvet+Revolver/_/Just+Sixteen'
p739
S'1184987997'
p740
tp741
a(S'Velvet Revolver'
p742
S'Gravedancer'
p743
S'http://www.last.fm/music/Velvet+Revolver/_/Gravedancer'
p744
S'1184987720'
p745
tp746
a(S'Velvet Revolver'
p747
S'For A Brother'
p748
S'http://www.last.fm/music/Velvet+Revolver/_/For+A+Brother'
p749
S'1184987513'
p750
tp751
a(S'Velvet Revolver'
p752
S'She Builds Quick Machines'
p753
S'http://www.last.fm/music/Velvet+Revolver/_/She+Builds+Quick+Machines'
p754
S'1184987269'
p755
tp756
a(S'Velvet Revolver'
p757
S'Spay'
p758
S'http://www.last.fm/music/Velvet+Revolver/_/Spay'
p759
S'1184987047'
p760
tp761
a(S'Velvet Revolver'
p762
S'Mary Mary'
p763
S'http://www.last.fm/music/Velvet+Revolver/_/Mary+Mary'
p764
S'1184986773'
p765
tp766
a(S'Velvet Revolver'
p767
S'Messages'
p768
S'http://www.last.fm/music/Velvet+Revolver/_/Messages'
p769
S'1184986486'
p770
tp771
a(S'Velvet Revolver'
p772
S'Get Out The Door'
p773
S'http://www.last.fm/music/Velvet+Revolver/_/Get+Out+The+Door'
p774
S'1184986292'
p775
tp776
a(S'Velvet Revolver'
p777
S'Gas and a Dollar Laugh'
p778
S'http://www.last.fm/music/Velvet+Revolver/_/Gas+and+a+Dollar+Laugh'
p779
S'1184986094'
p780
tp781
a(S'Velvet Revolver'
p782
S'The Last Fight'
p783
S'http://www.last.fm/music/Velvet+Revolver/_/The+Last+Fight'
p784
S'1184985851'
p785
tp786
a(S'Velvet Revolver'
p787
S'She Mine'
p788
S'http://www.last.fm/music/Velvet+Revolver/_/She+Mine'
p789
S'1184985646'
p790
tp791
a(S'Velvet Revolver'
p792
S'She Builds Quick Machines'
p793
S'http://www.last.fm/music/Velvet+Revolver/_/She+Builds+Quick+Machines'
p794
S'1184985404'
p795
tp796
a(S'Velvet Revolver'
p797
S'She Builds Quick Machines'
p798
S'http://www.last.fm/music/Velvet+Revolver/_/She+Builds+Quick+Machines'
p799
S'1184898037'
p800
tp801
a(S'Velvet Revolver'
p802
S'Spectacle'
p803
S'http://www.last.fm/music/Velvet+Revolver/_/Spectacle'
p804
S'1184897815'
p805
tp806
a(S'Velvet Revolver'
p807
S'Gas and a Dollar Laugh'
p808
S'http://www.last.fm/music/Velvet+Revolver/_/Gas+and+a+Dollar+Laugh'
p809
S'1184897617'
p810
tp811
a(S'Velvet Revolver'
p812
S'Superhuman'
p813
S'http://www.last.fm/music/Velvet+Revolver/_/Superhuman'
p814
S'1184897361'
p815
tp816
a(S'Velvet Revolver'
p817
S'Gravedancer'
p818
S'http://www.last.fm/music/Velvet+Revolver/_/Gravedancer'
p819
S'1184897083'
p820
tp821
a(S'Velvet Revolver'
p822
S'Sucker Train Blues'
p823
S'http://www.last.fm/music/Velvet+Revolver/_/Sucker+Train+Blues'
p824
S'1184896573'
p825
tp826
a(S'Velvet Revolver'
p827
S'Get Out The Door'
p828
S'http://www.last.fm/music/Velvet+Revolver/_/Get+Out+The+Door'
p829
S'1184896379'
p830
tp831
a(S'Velvet Revolver'
p832
S'Do It For The Kids'
p833
S'http://www.last.fm/music/Velvet+Revolver/_/Do+It+For+The+Kids'
p834
S'1184896143'
p835
tp836
a(S'Velvet Revolver'
p837
S'You Got No Right'
p838
S'http://www.last.fm/music/Velvet+Revolver/_/You+Got+No+Right'
p839
S'1184895539'
p840
tp841
a(S'Velvet Revolver'
p842
S'Mary Mary'
p843
S'http://www.last.fm/music/Velvet+Revolver/_/Mary+Mary'
p844
S'1184895265'
p845
tp846
a(S'Velvet Revolver'
p847
S'Fall To Pieces'
p848
S'http://www.last.fm/music/Velvet+Revolver/_/Fall+To+Pieces'
p849
S'1184894995'
p850
tp851
a(S'Velvet Revolver'
p852
S'American Man'
p853
S'http://www.last.fm/music/Velvet+Revolver/_/American+Man'
p854
S'1184894758'
p855
tp856
a(S'Velvet Revolver'
p857
S'Big Machine'
p858
S'http://www.last.fm/music/Velvet+Revolver/_/Big+Machine'
p859
S'1184894492'
p860
tp861
a(S'Velvet Revolver'
p862
S'For A Brother'
p863
S'http://www.last.fm/music/Velvet+Revolver/_/For+A+Brother'
p864
S'1184894286'
p865
tp866
a(S'Velvet Revolver'
p867
S'Headspace'
p868
S'http://www.last.fm/music/Velvet+Revolver/_/Headspace'
p869
S'1184894063'
p870
tp871
a(S'Velvet Revolver'
p872
S'Let It Roll'
p873
S'http://www.last.fm/music/Velvet+Revolver/_/Let+It+Roll'
p874
S'1184893910'
p875
tp876
a(S'Velvet Revolver'
p877
S'The Last Fight'
p878
S'http://www.last.fm/music/Velvet+Revolver/_/The+Last+Fight'
p879
S'1184893667'
p880
tp881
a(S'Velvet Revolver'
p882
S'She Builds Quick Machines'
p883
S'http://www.last.fm/music/Velvet+Revolver/_/She+Builds+Quick+Machines'
p884
S'1184893425'
p885
tp886
a(S'Velvet Revolver'
p887
S'She Builds Quick Machines'
p888
S'http://www.last.fm/music/Velvet+Revolver/_/She+Builds+Quick+Machines'
p889
S'1184893167'
p890
tp891
a(S'Velvet Revolver'
p892
S'She Builds Quick Machines'
p893
S'http://www.last.fm/music/Velvet+Revolver/_/She+Builds+Quick+Machines'
p894
S'1184858003'
p895
tp896
a(S'Velvet Revolver'
p897
S'Mary Mary'
p898
S'http://www.last.fm/music/Velvet+Revolver/_/Mary+Mary'
p899
S'1184857730'
p900
tp901
a(S'Velvet Revolver'
p902
S'She Builds Quick Machines'
p903
S'http://www.last.fm/music/Velvet+Revolver/_/She+Builds+Quick+Machines'
p904
S'1184822239'
p905
tp906
a(S'Velvet Revolver'
p907
S'Gas and a Dollar Laugh'
p908
S'http://www.last.fm/music/Velvet+Revolver/_/Gas+and+a+Dollar+Laugh'
p909
S'1184822022'
p910
tp911
a(S'Velvet Revolver'
p912
S'Just Sixteen'
p913
S'http://www.last.fm/music/Velvet+Revolver/_/Just+Sixteen'
p914
S'1184821783'
p915
tp916
a(S'Velvet Revolver'
p917
S'Big Machine'
p918
S'http://www.last.fm/music/Velvet+Revolver/_/Big+Machine'
p919
S'1184821518'
p920
tp921
a(S'Velvet Revolver'
p922
S'Spectacle'
p923
S'http://www.last.fm/music/Velvet+Revolver/_/Spectacle'
p924
S'1184821296'
p925
tp926
a(S'Velvet Revolver'
p927
S'Headspace'
p928
S'http://www.last.fm/music/Velvet+Revolver/_/Headspace'
p929
S'1184821073'
p930
tp931
a(S'Velvet Revolver'
p932
S'Dirty Little Thing'
p933
S'http://www.last.fm/music/Velvet+Revolver/_/Dirty+Little+Thing'
p934
S'1184820835'
p935
tp936
a(S'Velvet Revolver'
p937
S'She Builds Quick Machines'
p938
S'http://www.last.fm/music/Velvet+Revolver/_/She+Builds+Quick+Machines'
p939
S'1184820591'
p940
tp941
a(S'Velvet Revolver'
p942
S'Just Sixteen'
p943
S'http://www.last.fm/music/Velvet+Revolver/_/Just+Sixteen'
p944
S'1184820352'
p945
tp946
a(S'Velvet Revolver'
p947
S'Mary Mary'
p948
S'http://www.last.fm/music/Velvet+Revolver/_/Mary+Mary'
p949
S'1184820079'
p950
tp951
a(S'Velvet Revolver'
p952
S'Get Out The Door'
p953
S'http://www.last.fm/music/Velvet+Revolver/_/Get+Out+The+Door'
p954
S'1184819884'
p955
tp956
a(S'Velvet Revolver'
p957
S'She Builds Quick Machines'
p958
S'http://www.last.fm/music/Velvet+Revolver/_/She+Builds+Quick+Machines'
p959
S'1184819641'
p960
tp961
a(S'Velvet Revolver'
p962
S'Spectacle'
p963
S'http://www.last.fm/music/Velvet+Revolver/_/Spectacle'
p964
S'1184819419'
p965
tp966
a(S'Audioslave'
p967
S'Yesterday To Tomorrow'
p968
S'http://www.last.fm/music/Audioslave/_/Yesterday+To+Tomorrow'
p969
S'1184819145'
p970
tp971
a(S'Audioslave'
p972
S'I Am The Highway'
p973
S'http://www.last.fm/music/Audioslave/_/I+Am+The+Highway'
p974
S'1184818810'
p975
tp976
a(S'Queen'
p977
S'Bijou'
p978
S'http://www.last.fm/music/Queen/_/Bijou'
p979
S'1184818593'
p980
tp981
a(S'Velvet Revolver'
p982
S'The Last Fight'
p983
S'http://www.last.fm/music/Velvet+Revolver/_/The+Last+Fight'
p984
S'1184818350'
p985
tp986
a(S'Velvet Revolver'
p987
S'Get Out The Door'
p988
S'http://www.last.fm/music/Velvet+Revolver/_/Get+Out+The+Door'
p989
S'1184818156'
p990
tp991
a(S'Velvet Revolver'
p992
S'Just Sixteen'
p993
S'http://www.last.fm/music/Velvet+Revolver/_/Just+Sixteen'
p994
S'1184817917'
p995
tp996
a(S'Velvet Revolver'
p997
S'She Builds Quick Machines'
p998
S'http://www.last.fm/music/Velvet+Revolver/_/She+Builds+Quick+Machines'
p999
S'1184817089'
p1000
tp1001
a.