(lp1
(S'Journey'
p2
S'Separate Ways'
p3
S'http://www.last.fm/music/Journey/_/Separate+Ways'
p4
S'1360170002'
p5
tp6
a(S'Weezer'
p7
S'Buddy Holly'
p8
S'http://www.last.fm/music/Weezer/_/Buddy+Holly'
p9
S'1360169736'
p10
tp11
a(S'R.E.M.'
p12
S'Losing My Religion'
p13
S'http://www.last.fm/music/R.E.M./_/Losing+My+Religion'
p14
S'1360169467'
p15
tp16
a(S'Robbie Williams'
p17
S'Rock DJ'
p18
S'http://www.last.fm/music/Robbie+Williams/_/Rock+DJ'
p19
S'1360169403'
p20
tp21
a(S'R.E.M.'
p22
S'Orange Crush'
p23
S'http://www.last.fm/music/R.E.M./_/Orange+Crush'
p24
S'1360169172'
p25
tp26
a(S'Tracy Chapman'
p27
S"Talkin' Bout a Revolution"
p28
S'http://www.last.fm/music/Tracy+Chapman/_/Talkin%27+Bout+a+Revolution'
p29
S'1360169011'
p30
tp31
a(S'R.E.M.'
p32
S'The One I Love'
p33
S'http://www.last.fm/music/R.E.M./_/The+One+I+Love'
p34
S'1360168834'
p35
tp36
a(S'Mother Love Bone'
p37
S'Stardog Champion'
p38
S'http://www.last.fm/music/Mother+Love+Bone/_/Stardog+Champion'
p39
S'1360168536'
p40
tp41
a(S'U2'
p42
S'Hold Me, Thrill Me, Kiss Me, Kill Me'
p43
S'http://www.last.fm/music/U2/_/Hold+Me,+Thrill+Me,+Kiss+Me,+Kill+Me'
p44
S'1360168249'
p45
tp46
a(S'R.E.M.'
p47
S"What's the Frequency, Kenneth?"
p48
S'http://www.last.fm/music/R.E.M./_/What%27s+the+Frequency,+Kenneth%3F'
p49
S'1360167992'
p50
tp51
a(S'Jefferson Starship'
p52
S"Nothing's Gonna Stop Us Now"
p53
S'http://www.last.fm/music/Jefferson+Starship/_/Nothing%27s+Gonna+Stop+Us+Now'
p54
S'1360166667'
p55
tp56
a(S'Pearl Jam'
p57
S'Nothing As It Seems'
p58
S'http://www.last.fm/music/Pearl+Jam/_/Nothing+As+It+Seems'
p59
S'1360166343'
p60
tp61
a(S'George Michael'
p62
S'Shoot The Dog (Explicit Album Version)'
p63
S'http://www.last.fm/music/George+Michael/_/Shoot+The+Dog+(Explicit+Album+Version)'
p64
S'1360165352'
p65
tp66
a(S'The Temptations'
p67
S'Papa Was a Rolling Stone'
p68
S'http://www.last.fm/music/The+Temptations/_/Papa+Was+a+Rolling+Stone'
p69
S'1360151807'
p70
tp71
a(S'Steve Miller Band'
p72
S'Abracadabra'
p73
S'http://www.last.fm/music/Steve+Miller+Band/_/Abracadabra'
p74
S'1360151585'
p75
tp76
a(S'Jefferson Starship'
p77
S"Nothing's Gonna Stop Us Now"
p78
S'http://www.last.fm/music/Jefferson+Starship/_/Nothing%27s+Gonna+Stop+Us+Now'
p79
S'1360097419'
p80
tp81
a(S'Pearl Jam'
p82
S'Nothing As It Seems'
p83
S'http://www.last.fm/music/Pearl+Jam/_/Nothing+As+It+Seems'
p84
S'1360097095'
p85
tp86
a(S'Seether'
p87
S'Careless Whispers'
p88
S'http://www.last.fm/music/Seether/_/Careless+Whispers'
p89
S'1360097064'
p90
tp91
a(S'Robbie Williams'
p92
S'Rock DJ'
p93
S'http://www.last.fm/music/Robbie+Williams/_/Rock+DJ'
p94
S'1360096774'
p95
tp96
a(S'George Michael'
p97
S'Shoot The Dog (Explicit Album Version)'
p98
S'http://www.last.fm/music/George+Michael/_/Shoot+The+Dog+(Explicit+Album+Version)'
p99
S'1360096459'
p100
tp101
a(S'Air Supply'
p102
S'Making Love Out of Nothing'
p103
S'http://www.last.fm/music/Air+Supply/_/Making+Love+Out+of+Nothing'
p104
S'1360096147'
p105
tp106
a(S'REO Speedwagon'
p107
S"Can't Fight This Feeling"
p108
S'http://www.last.fm/music/REO+Speedwagon/_/Can%27t+Fight+This+Feeling'
p109
S'1360095859'
p110
tp111
a(S'R.E.M.'
p112
S'Orange Crush'
p113
S'http://www.last.fm/music/R.E.M./_/Orange+Crush'
p114
S'1360095520'
p115
tp116
a(S'Tracy Chapman'
p117
S"Talkin' Bout a Revolution"
p118
S'http://www.last.fm/music/Tracy+Chapman/_/Talkin%27+Bout+a+Revolution'
p119
S'1360095360'
p120
tp121
a(S'The Temptations'
p122
S'Papa Was a Rolling Stone'
p123
S'http://www.last.fm/music/The+Temptations/_/Papa+Was+a+Rolling+Stone'
p124
S'1360094940'
p125
tp126
a(S'R.E.M.'
p127
S'The One I Love'
p128
S'http://www.last.fm/music/R.E.M./_/The+One+I+Love'
p129
S'1360094745'
p130
tp131
a(S'Aretha Franklin'
p132
S'Rock Steady'
p133
S'http://www.last.fm/music/Aretha+Franklin/_/Rock+Steady'
p134
S'1360094417'
p135
tp136
a(S'R.E.M.'
p137
S"What's the Frequency, Kenneth?"
p138
S'http://www.last.fm/music/R.E.M./_/What%27s+the+Frequency,+Kenneth%3F'
p139
S'1360094175'
p140
tp141
a(S'The Stone Roses'
p142
S'Love Spreads'
p143
S'http://www.last.fm/music/The+Stone+Roses/_/Love+Spreads'
p144
S'1360093354'
p145
tp146
a(S'Soundgarden'
p147
S'Attrition'
p148
S'http://www.last.fm/music/Soundgarden/_/Attrition'
p149
S'1360093187'
p150
tp151
a(S'Beastie Boys'
p152
S'Triple Trouble (Album Version)'
p153
S'http://www.last.fm/music/Beastie+Boys/_/Triple+Trouble+(Album+Version)'
p154
S'1360093022'
p155
tp156
a(S'R.E.M.'
p157
S'Orange Crush'
p158
S'http://www.last.fm/music/R.E.M./_/Orange+Crush'
p159
S'1360092587'
p160
tp161
a(S'Tracy Chapman'
p162
S"Talkin' Bout a Revolution"
p163
S'http://www.last.fm/music/Tracy+Chapman/_/Talkin%27+Bout+a+Revolution'
p164
S'1360092417'
p165
tp166
a(S'The Temptations'
p167
S'Papa Was a Rolling Stone'
p168
S'http://www.last.fm/music/The+Temptations/_/Papa+Was+a+Rolling+Stone'
p169
S'1360092000'
p170
tp171
a(S'R.E.M.'
p172
S'The One I Love'
p173
S'http://www.last.fm/music/R.E.M./_/The+One+I+Love'
p174
S'1360091803'
p175
tp176
a(S'Aretha Franklin'
p177
S'Rock Steady'
p178
S'http://www.last.fm/music/Aretha+Franklin/_/Rock+Steady'
p179
S'1360091610'
p180
tp181
a(S'R.E.M.'
p182
S"What's the Frequency, Kenneth?"
p183
S'http://www.last.fm/music/R.E.M./_/What%27s+the+Frequency,+Kenneth%3F'
p184
S'1360091332'
p185
tp186
a(S'R.E.M.'
p187
S'Stand'
p188
S'http://www.last.fm/music/R.E.M./_/Stand'
p189
S'1360091257'
p190
tp191
a(S'Journey'
p192
S'Separate Ways'
p193
S'http://www.last.fm/music/Journey/_/Separate+Ways'
p194
S'1360090929'
p195
tp196
a(S'Maroon 5'
p197
S'Goodnight Goodnight'
p198
S'http://www.last.fm/music/Maroon+5/_/Goodnight+Goodnight'
p199
S'1360090623'
p200
tp201
a(S'The Stone Roses'
p202
S'Love Spreads'
p203
S'http://www.last.fm/music/The+Stone+Roses/_/Love+Spreads'
p204
S'1360090271'
p205
tp206
a(S'Soundgarden'
p207
S'Attrition'
p208
S'http://www.last.fm/music/Soundgarden/_/Attrition'
p209
S'1360090104'
p210
tp211
a(S'Beastie Boys'
p212
S'Triple Trouble (Album Version)'
p213
S'http://www.last.fm/music/Beastie+Boys/_/Triple+Trouble+(Album+Version)'
p214
S'1360089885'
p215
tp216
a(S'R.E.M.'
p217
S'Losing My Religion'
p218
S'http://www.last.fm/music/R.E.M./_/Losing+My+Religion'
p219
S'1360089462'
p220
tp221
a(S'R.E.M.'
p222
S'Losing My Religion'
p223
S'http://www.last.fm/music/R.E.M./_/Losing+My+Religion'
p224
S'1360089399'
p225
tp226
a(S'Maroon 5'
p227
S'Goodnight Goodnight'
p228
S'http://www.last.fm/music/Maroon+5/_/Goodnight+Goodnight'
p229
S'1360087446'
p230
tp231
a(S'Albert King'
p232
S"I'll Play The Blues For You"
p233
S'http://www.last.fm/music/Albert+King/_/I%27ll+Play+The+Blues+For+You'
p234
S'1360087006'
p235
tp236
a(S'U2'
p237
S'Hold Me, Thrill Me, Kiss Me, Kill Me'
p238
S'http://www.last.fm/music/U2/_/Hold+Me,+Thrill+Me,+Kiss+Me,+Kill+Me'
p239
S'1360086719'
p240
tp241
a(S'The Police'
p242
S'Roxanne'
p243
S'http://www.last.fm/music/The+Police/_/Roxanne'
p244
S'1360086528'
p245
tp246
a(S'The Stone Roses'
p247
S'Love Spreads'
p248
S'http://www.last.fm/music/The+Stone+Roses/_/Love+Spreads'
p249
S'1360086165'
p250
tp251
a(S'R.E.M.'
p252
S'Losing My Religion'
p253
S'http://www.last.fm/music/R.E.M./_/Losing+My+Religion'
p254
S'1360085895'
p255
tp256
a(S'The Temptations'
p257
S'Papa Was a Rolling Stone'
p258
S'http://www.last.fm/music/The+Temptations/_/Papa+Was+a+Rolling+Stone'
p259
S'1360085475'
p260
tp261
a(S'Soundgarden'
p262
S'Rusty Cage'
p263
S'http://www.last.fm/music/Soundgarden/_/Rusty+Cage'
p264
S'1360079180'
p265
tp266
a(S'Soundgarden'
p267
S"Eyelid's Mouth"
p268
S'http://www.last.fm/music/Soundgarden/_/Eyelid%27s+Mouth'
p269
S'1360078912'
p270
tp271
a(S'Jamiroquai'
p272
S"Time Won't Wait"
p273
S'http://www.last.fm/music/Jamiroquai/_/Time+Won%27t+Wait'
p274
S'1360078611'
p275
tp276
a(S'The Nixons'
p277
S'Sister'
p278
S'http://www.last.fm/music/The+Nixons/_/Sister'
p279
S'1360078558'
p280
tp281
a(S'Al Green'
p282
S'Lets Stay Together'
p283
S'http://www.last.fm/music/Al+Green/_/Lets+Stay+Together'
p284
S'1360078360'
p285
tp286
a(S'Aretha Franklin'
p287
S'Rock Steady'
p288
S'http://www.last.fm/music/Aretha+Franklin/_/Rock+Steady'
p289
S'1360078167'
p290
tp291
a(S'Mother Love Bone'
p292
S'Stardog Champion'
p293
S'http://www.last.fm/music/Mother+Love+Bone/_/Stardog+Champion'
p294
S'1360077869'
p295
tp296
a(S'Journey'
p297
S'Separate Ways'
p298
S'http://www.last.fm/music/Journey/_/Separate+Ways'
p299
S'1360071212'
p300
tp301
a(S'Sonic Youth'
p302
S'100%'
p303
S'http://www.last.fm/music/Sonic+Youth/_/100%25'
p304
S'1360071063'
p305
tp306
a(S'Mother Love Bone'
p307
S'This Is Shangrila'
p308
S'http://www.last.fm/music/Mother+Love+Bone/_/This+Is+Shangrila'
p309
S'1360070841'
p310
tp311
a(S'Beastie Boys'
p312
S'Triple Trouble (Album Version)'
p313
S'http://www.last.fm/music/Beastie+Boys/_/Triple+Trouble+(Album+Version)'
p314
S'1360070012'
p315
tp316
a(S'Stone Temple Pilots'
p317
S'Plush'
p318
S'http://www.last.fm/music/Stone+Temple+Pilots/_/Plush'
p319
S'1360069698'
p320
tp321
a(S'Marvin Gaye'
p322
S'I Heard It Through the Grapevine'
p323
S'http://www.last.fm/music/Marvin+Gaye/_/I+Heard+It+Through+the+Grapevine'
p324
S'1360069501'
p325
tp326
a(S'R.E.M.'
p327
S'The One I Love'
p328
S'http://www.last.fm/music/R.E.M./_/The+One+I+Love'
p329
S'1360069028'
p330
tp331
a(S'Oasis'
p332
S'Wonderwall'
p333
S'http://www.last.fm/music/Oasis/_/Wonderwall'
p334
S'1360004113'
p335
tp336
a(S'Beastie Boys'
p337
S'Triple Trouble (Album Version)'
p338
S'http://www.last.fm/music/Beastie+Boys/_/Triple+Trouble+(Album+Version)'
p339
S'1360003948'
p340
tp341
a(S'R.E.M.'
p342
S'The One I Love'
p343
S'http://www.last.fm/music/R.E.M./_/The+One+I+Love'
p344
S'1360003755'
p345
tp346
a(S'Third Eye Blind'
p347
S'Semi-Charmed Life'
p348
S'http://www.last.fm/music/Third+Eye+Blind/_/Semi-Charmed+Life'
p349
S'1359741747'
p350
tp351
a(S'Oasis'
p352
S'Wonderwall'
p353
S'http://www.last.fm/music/Oasis/_/Wonderwall'
p354
S'1359741069'
p355
tp356
a(S'Reel Big Fish'
p357
S'Take On Me'
p358
S'http://www.last.fm/music/Reel+Big+Fish/_/Take+On+Me'
p359
S'1359740855'
p360
tp361
a(S'The Nixons'
p362
S'Sister'
p363
S'http://www.last.fm/music/The+Nixons/_/Sister'
p364
S'1359740467'
p365
tp366
a(S'Corrosion of Conformity'
p367
S'Drowning in a Daydream'
p368
S'http://www.last.fm/music/Corrosion+of+Conformity/_/Drowning+in+a+Daydream'
p369
S'1359740403'
p370
tp371
a(S'Garbage'
p372
S'Push It'
p373
S'http://www.last.fm/music/Garbage/_/Push+It'
p374
S'1359740159'
p375
tp376
a(S'Maroon 5'
p377
S'Goodnight Goodnight'
p378
S'http://www.last.fm/music/Maroon+5/_/Goodnight+Goodnight'
p379
S'1359739916'
p380
tp381
a(S'Al Green'
p382
S'Lets Stay Together'
p383
S'http://www.last.fm/music/Al+Green/_/Lets+Stay+Together'
p384
S'1359739717'
p385
tp386
a(S'Soundgarden'
p387
S'A Thousand Days Before'
p388
S'http://www.last.fm/music/Soundgarden/_/A+Thousand+Days+Before'
p389
S'1359739309'
p390
tp391
a(S'R.E.M.'
p392
S'The One I Love'
p393
S'http://www.last.fm/music/R.E.M./_/The+One+I+Love'
p394
S'1359739110'
p395
tp396
a(S'The Temptations'
p397
S'Papa Was a Rolling Stone'
p398
S'http://www.last.fm/music/The+Temptations/_/Papa+Was+a+Rolling+Stone'
p399
S'1359738959'
p400
tp401
a(S'Beastie Boys'
p402
S"So What'cha Want"
p403
S'http://www.last.fm/music/Beastie+Boys/_/So+What%27cha+Want'
p404
S'1359738742'
p405
tp406
a(S'Beastie Boys'
p407
S'Triple Trouble (Album Version)'
p408
S'http://www.last.fm/music/Beastie+Boys/_/Triple+Trouble+(Album+Version)'
p409
S'1359738577'
p410
tp411
a(S'R.E.M.'
p412
S'Losing My Religion'
p413
S'http://www.last.fm/music/R.E.M./_/Losing+My+Religion'
p414
S'1359738307'
p415
tp416
a(S'The Stone Roses'
p417
S'Love Spreads'
p418
S'http://www.last.fm/music/The+Stone+Roses/_/Love+Spreads'
p419
S'1359733975'
p420
tp421
a(S'Phil Collins'
p422
S'Another Day in Paradise'
p423
S'http://www.last.fm/music/Phil+Collins/_/Another+Day+in+Paradise'
p424
S'1359733832'
p425
tp426
a(S'Sonic Youth'
p427
S'100%'
p428
S'http://www.last.fm/music/Sonic+Youth/_/100%25'
p429
S'1359733684'
p430
tp431
a(S'Jamiroquai'
p432
S"Time Won't Wait"
p433
S'http://www.last.fm/music/Jamiroquai/_/Time+Won%27t+Wait'
p434
S'1359733500'
p435
tp436
a(S'Aerosmith'
p437
S'Get A Grip'
p438
S'http://www.last.fm/music/Aerosmith/_/Get+A+Grip'
p439
S'1359733263'
p440
tp441
a(S'Aretha Franklin'
p442
S'Rock Steady'
p443
S'http://www.last.fm/music/Aretha+Franklin/_/Rock+Steady'
p444
S'1359732952'
p445
tp446
a(S'Beastie Boys'
p447
S'Triple Trouble (Album Version)'
p448
S'http://www.last.fm/music/Beastie+Boys/_/Triple+Trouble+(Album+Version)'
p449
S'1359656955'
p450
tp451
a(S'Marvin Gaye'
p452
S'I Heard It Through the Grapevine'
p453
S'http://www.last.fm/music/Marvin+Gaye/_/I+Heard+It+Through+the+Grapevine'
p454
S'1359656758'
p455
tp456
a(S'Aretha Franklin'
p457
S'Rock Steady'
p458
S'http://www.last.fm/music/Aretha+Franklin/_/Rock+Steady'
p459
S'1359656531'
p460
tp461
a(S'Melvins'
p462
S'Honey Bucket'
p463
S'http://www.last.fm/music/Melvins/_/Honey+Bucket'
p464
S'1359654373'
p465
tp466
a(S'Nirvana'
p467
S'Breed'
p468
S'http://www.last.fm/music/Nirvana/_/Breed'
p469
S'1359654161'
p470
tp471
a(S'L7'
p472
S"Pretend We're Dead"
p473
S'http://www.last.fm/music/L7/_/Pretend+We%27re+Dead'
p474
S'1359653926'
p475
tp476
a(S'Green River'
p477
S'Ride of Your Life'
p478
S'http://www.last.fm/music/Green+River/_/Ride+of+Your+Life'
p479
S'1359653670'
p480
tp481
a(S'Al Green'
p482
S'Lets Stay Together'
p483
S'http://www.last.fm/music/Al+Green/_/Lets+Stay+Together'
p484
S'1359653472'
p485
tp486
a(S'U2'
p487
S'Discoteque'
p488
S'http://www.last.fm/music/U2/_/Discoteque'
p489
S'1359653158'
p490
tp491
a(S'The Temptations'
p492
S'Papa Was a Rolling Stone'
p493
S'http://www.last.fm/music/The+Temptations/_/Papa+Was+a+Rolling+Stone'
p494
S'1359652740'
p495
tp496
a(S'The Temptations'
p497
S'Papa Was a Rolling Stone'
p498
S'http://www.last.fm/music/The+Temptations/_/Papa+Was+a+Rolling+Stone'
p499
S'1359632505'
p500
tp501
a(S'Beastie Boys'
p502
S'Triple Trouble (Album Version)'
p503
S'http://www.last.fm/music/Beastie+Boys/_/Triple+Trouble+(Album+Version)'
p504
S'1359574349'
p505
tp506
a(S'The Temptations'
p507
S'Papa Was a Rolling Stone'
p508
S'http://www.last.fm/music/The+Temptations/_/Papa+Was+a+Rolling+Stone'
p509
S'1359573929'
p510
tp511
a(S'Soundgarden'
p512
S'Black Hole Sun'
p513
S'http://www.last.fm/music/Soundgarden/_/Black+Hole+Sun'
p514
S'1359573611'
p515
tp516
a(S'Soundgarden'
p517
S'Taree'
p518
S'http://www.last.fm/music/Soundgarden/_/Taree'
p519
S'1359573392'
p520
tp521
a(S'Tracy Chapman'
p522
S"Talkin' Bout a Revolution"
p523
S'http://www.last.fm/music/Tracy+Chapman/_/Talkin%27+Bout+a+Revolution'
p524
S'1359573232'
p525
tp526
a(S'Aretha Franklin'
p527
S'Rock Steady'
p528
S'http://www.last.fm/music/Aretha+Franklin/_/Rock+Steady'
p529
S'1359573040'
p530
tp531
a(S'Tracy Chapman'
p532
S"Talkin' Bout a Revolution"
p533
S'http://www.last.fm/music/Tracy+Chapman/_/Talkin%27+Bout+a+Revolution'
p534
S'1359572988'
p535
tp536
a(S'Aretha Franklin'
p537
S'Rock Steady'
p538
S'http://www.last.fm/music/Aretha+Franklin/_/Rock+Steady'
p539
S'1359572794'
p540
tp541
a(S'U2'
p542
S'Discoteque'
p543
S'http://www.last.fm/music/U2/_/Discoteque'
p544
S'1359572480'
p545
tp546
a(S'Soundgarden'
p547
S'Rowing'
p548
S'http://www.last.fm/music/Soundgarden/_/Rowing'
p549
S'1359572175'
p550
tp551
a(S'Soundgarden'
p552
S"Eyelid's Mouth"
p553
S'http://www.last.fm/music/Soundgarden/_/Eyelid%27s+Mouth'
p554
S'1359571886'
p555
tp556
a(S'Soundgarden'
p557
S'A Thousand Days Before'
p558
S'http://www.last.fm/music/Soundgarden/_/A+Thousand+Days+Before'
p559
S'1359571622'
p560
tp561
a(S'Soundgarden'
p562
S'Attrition'
p563
S'http://www.last.fm/music/Soundgarden/_/Attrition'
p564
S'1359571455'
p565
tp566
a(S'Jamiroquai'
p567
S"Time Won't Wait"
p568
S'http://www.last.fm/music/Jamiroquai/_/Time+Won%27t+Wait'
p569
S'1359571153'
p570
tp571
a(S'Beastie Boys'
p572
S'Triple Trouble (Album Version)'
p573
S'http://www.last.fm/music/Beastie+Boys/_/Triple+Trouble+(Album+Version)'
p574
S'1359570989'
p575
tp576
a(S'The Temptations'
p577
S'Papa Was a Rolling Stone'
p578
S'http://www.last.fm/music/The+Temptations/_/Papa+Was+a+Rolling+Stone'
p579
S'1359570568'
p580
tp581
a(S'Soundgarden'
p582
S'Black Hole Sun'
p583
S'http://www.last.fm/music/Soundgarden/_/Black+Hole+Sun'
p584
S'1359570250'
p585
tp586
a(S'Soundgarden'
p587
S'Taree'
p588
S'http://www.last.fm/music/Soundgarden/_/Taree'
p589
S'1359570031'
p590
tp591
a(S'Tracy Chapman'
p592
S"Talkin' Bout a Revolution"
p593
S'http://www.last.fm/music/Tracy+Chapman/_/Talkin%27+Bout+a+Revolution'
p594
S'1359569872'
p595
tp596
a(S'Aretha Franklin'
p597
S'Rock Steady'
p598
S'http://www.last.fm/music/Aretha+Franklin/_/Rock+Steady'
p599
S'1359569627'
p600
tp601
a(S'Soundgarden'
p602
S'Rowing'
p603
S'http://www.last.fm/music/Soundgarden/_/Rowing'
p604
S'1359569055'
p605
tp606
a(S'Soundgarden'
p607
S"Eyelid's Mouth"
p608
S'http://www.last.fm/music/Soundgarden/_/Eyelid%27s+Mouth'
p609
S'1359568787'
p610
tp611
a(S'Soundgarden'
p612
S'A Thousand Days Before'
p613
S'http://www.last.fm/music/Soundgarden/_/A+Thousand+Days+Before'
p614
S'1359568523'
p615
tp616
a(S'Soundgarden'
p617
S'Attrition'
p618
S'http://www.last.fm/music/Soundgarden/_/Attrition'
p619
S'1359568356'
p620
tp621
a(S'Jamiroquai'
p622
S"Time Won't Wait"
p623
S'http://www.last.fm/music/Jamiroquai/_/Time+Won%27t+Wait'
p624
S'1359568055'
p625
tp626
a(S'Beastie Boys'
p627
S'Triple Trouble (Album Version)'
p628
S'http://www.last.fm/music/Beastie+Boys/_/Triple+Trouble+(Album+Version)'
p629
S'1359567890'
p630
tp631
a(S'Jamiroquai'
p632
S"Time Won't Wait"
p633
S'http://www.last.fm/music/Jamiroquai/_/Time+Won%27t+Wait'
p634
S'1359559389'
p635
tp636
a(S'Beastie Boys'
p637
S'Triple Trouble (Album Version)'
p638
S'http://www.last.fm/music/Beastie+Boys/_/Triple+Trouble+(Album+Version)'
p639
S'1359559224'
p640
tp641
a(S'The Temptations'
p642
S'Papa Was a Rolling Stone'
p643
S'http://www.last.fm/music/The+Temptations/_/Papa+Was+a+Rolling+Stone'
p644
S'1359558804'
p645
tp646
a(S'Soundgarden'
p647
S'Black Hole Sun'
p648
S'http://www.last.fm/music/Soundgarden/_/Black+Hole+Sun'
p649
S'1359558486'
p650
tp651
a(S'Soundgarden'
p652
S'Taree'
p653
S'http://www.last.fm/music/Soundgarden/_/Taree'
p654
S'1359558269'
p655
tp656
a(S'Tracy Chapman'
p657
S"Talkin' Bout a Revolution"
p658
S'http://www.last.fm/music/Tracy+Chapman/_/Talkin%27+Bout+a+Revolution'
p659
S'1359547158'
p660
tp661
a(S'Aretha Franklin'
p662
S'Rock Steady'
p663
S'http://www.last.fm/music/Aretha+Franklin/_/Rock+Steady'
p664
S'1359546965'
p665
tp666
a(S'U2'
p667
S'Discoteque'
p668
S'http://www.last.fm/music/U2/_/Discoteque'
p669
S'1359546652'
p670
tp671
a(S'Soundgarden'
p672
S'Rowing'
p673
S'http://www.last.fm/music/Soundgarden/_/Rowing'
p674
S'1359546347'
p675
tp676
a(S'Soundgarden'
p677
S"Eyelid's Mouth"
p678
S'http://www.last.fm/music/Soundgarden/_/Eyelid%27s+Mouth'
p679
S'1359546076'
p680
tp681
a(S'Soundgarden'
p682
S'A Thousand Days Before'
p683
S'http://www.last.fm/music/Soundgarden/_/A+Thousand+Days+Before'
p684
S'1359545813'
p685
tp686
a(S'Soundgarden'
p687
S'Attrition'
p688
S'http://www.last.fm/music/Soundgarden/_/Attrition'
p689
S'1359545647'
p690
tp691
a(S'Ryan Adams'
p692
S'Wonderwall (Oasis Cover)'
p693
S'http://www.last.fm/music/Ryan+Adams/_/Wonderwall+(Oasis+Cover)'
p694
S'1359545099'
p695
tp696
a(S'MISUN'
p697
S'The Sea'
p698
S'http://www.last.fm/music/MISUN/_/The+Sea'
p699
S'1359544880'
p700
tp701
a(S'Marvin Gaye'
p702
S'I Heard It Through the Grapevine'
p703
S'http://www.last.fm/music/Marvin+Gaye/_/I+Heard+It+Through+the+Grapevine'
p704
S'1359486441'
p705
tp706
a(S'Bill Withers'
p707
S"Ain't No Sunshine (Single Version)"
p708
S'http://www.last.fm/music/Bill+Withers/_/Ain%27t+No+Sunshine+(Single+Version)'
p709
S'1359486316'
p710
tp711
a(S'Soundgarden'
p712
S'Mood for Trouble'
p713
S'http://www.last.fm/music/Soundgarden/_/Mood+for+Trouble'
p714
S'1359486051'
p715
tp716
a(S'Tracy Chapman'
p717
S"Talkin' Bout a Revolution"
p718
S'http://www.last.fm/music/Tracy+Chapman/_/Talkin%27+Bout+a+Revolution'
p719
S'1359485891'
p720
tp721
a(S'Soundgarden'
p722
S"Eyelid's Mouth"
p723
S'http://www.last.fm/music/Soundgarden/_/Eyelid%27s+Mouth'
p724
S'1359485623'
p725
tp726
a(S'Soundgarden'
p727
S'Attrition'
p728
S'http://www.last.fm/music/Soundgarden/_/Attrition'
p729
S'1359485456'
p730
tp731
a(S'Tracy Chapman'
p732
S'Fast Car'
p733
S'http://www.last.fm/music/Tracy+Chapman/_/Fast+Car'
p734
S'1359485159'
p735
tp736
a(S'Soundgarden'
p737
S'Black Saturday'
p738
S'http://www.last.fm/music/Soundgarden/_/Black+Saturday'
p739
S'1359484772'
p740
tp741
a(S'Soundgarden'
p742
S'A Thousand Days Before'
p743
S'http://www.last.fm/music/Soundgarden/_/A+Thousand+Days+Before'
p744
S'1359484414'
p745
tp746
a(S'Chris Cornell'
p747
S'You Know My Name'
p748
S'http://www.last.fm/music/Chris+Cornell/_/You+Know+My+Name'
p749
S'1359484171'
p750
tp751
a(S'U2'
p752
S'Hold Me, Thrill Me, Kiss Me, Kill Me'
p753
S'http://www.last.fm/music/U2/_/Hold+Me,+Thrill+Me,+Kiss+Me,+Kill+Me'
p754
S'1359483885'
p755
tp756
a(S'Al Green'
p757
S'Lets Stay Together'
p758
S'http://www.last.fm/music/Al+Green/_/Lets+Stay+Together'
p759
S'1359483679'
p760
tp761
a(S'Aretha Franklin'
p762
S'Rock Steady'
p763
S'http://www.last.fm/music/Aretha+Franklin/_/Rock+Steady'
p764
S'1359483486'
p765
tp766
a(S'Soundgarden'
p767
S'Black Hole Sun'
p768
S'http://www.last.fm/music/Soundgarden/_/Black+Hole+Sun'
p769
S'1359483168'
p770
tp771
a(S'Jamiroquai'
p772
S"Time Won't Wait"
p773
S'http://www.last.fm/music/Jamiroquai/_/Time+Won%27t+Wait'
p774
S'1359482866'
p775
tp776
a(S'Soundgarden'
p777
S'Taree'
p778
S'http://www.last.fm/music/Soundgarden/_/Taree'
p779
S'1359482645'
p780
tp781
a(S'Beastie Boys'
p782
S'Triple Trouble (Album Version)'
p783
S'http://www.last.fm/music/Beastie+Boys/_/Triple+Trouble+(Album+Version)'
p784
S'1359478865'
p785
tp786
a(S'The Temptations'
p787
S'Papa Was a Rolling Stone'
p788
S'http://www.last.fm/music/The+Temptations/_/Papa+Was+a+Rolling+Stone'
p789
S'1359478445'
p790
tp791
a(S'Albert King'
p792
S"I'll Play The Blues For You"
p793
S'http://www.last.fm/music/Albert+King/_/I%27ll+Play+The+Blues+For+You'
p794
S'1359478276'
p795
tp796
a(S'Marvin Gaye'
p797
S"Let's Get It On"
p798
S'http://www.last.fm/music/Marvin+Gaye/_/Let%27s+Get+It+On'
p799
S'1359477984'
p800
tp801
a(S'Marvin Gaye'
p802
S'I Heard It Through the Grapevine'
p803
S'http://www.last.fm/music/Marvin+Gaye/_/I+Heard+It+Through+the+Grapevine'
p804
S'1359477783'
p805
tp806
a(S'Soundgarden'
p807
S'Mood for Trouble'
p808
S'http://www.last.fm/music/Soundgarden/_/Mood+for+Trouble'
p809
S'1359473788'
p810
tp811
a(S'Tracy Chapman'
p812
S"Talkin' Bout a Revolution"
p813
S'http://www.last.fm/music/Tracy+Chapman/_/Talkin%27+Bout+a+Revolution'
p814
S'1359473628'
p815
tp816
a(S'Soundgarden'
p817
S"Eyelid's Mouth"
p818
S'http://www.last.fm/music/Soundgarden/_/Eyelid%27s+Mouth'
p819
S'1359473360'
p820
tp821
a(S'Soundgarden'
p822
S'Attrition'
p823
S'http://www.last.fm/music/Soundgarden/_/Attrition'
p824
S'1359473193'
p825
tp826
a(S'Tracy Chapman'
p827
S'Fast Car'
p828
S'http://www.last.fm/music/Tracy+Chapman/_/Fast+Car'
p829
S'1359466559'
p830
tp831
a(S'Soundgarden'
p832
S'Black Saturday'
p833
S'http://www.last.fm/music/Soundgarden/_/Black+Saturday'
p834
S'1359466349'
p835
tp836
a(S'Soundgarden'
p837
S'A Thousand Days Before'
p838
S'http://www.last.fm/music/Soundgarden/_/A+Thousand+Days+Before'
p839
S'1359466085'
p840
tp841
a(S'Chris Cornell'
p842
S'You Know My Name'
p843
S'http://www.last.fm/music/Chris+Cornell/_/You+Know+My+Name'
p844
S'1359465842'
p845
tp846
a(S'U2'
p847
S'Hold Me, Thrill Me, Kiss Me, Kill Me'
p848
S'http://www.last.fm/music/U2/_/Hold+Me,+Thrill+Me,+Kiss+Me,+Kill+Me'
p849
S'1359465555'
p850
tp851
a(S'Soundgarden'
p852
S'Attrition'
p853
S'http://www.last.fm/music/Soundgarden/_/Attrition'
p854
S'1359465388'
p855
tp856
a(S'Al Green'
p857
S'Lets Stay Together'
p858
S'http://www.last.fm/music/Al+Green/_/Lets+Stay+Together'
p859
S'1359465190'
p860
tp861
a(S'Aretha Franklin'
p862
S'Rock Steady'
p863
S'http://www.last.fm/music/Aretha+Franklin/_/Rock+Steady'
p864
S'1359464997'
p865
tp866
a(S'Soundgarden'
p867
S'Black Hole Sun'
p868
S'http://www.last.fm/music/Soundgarden/_/Black+Hole+Sun'
p869
S'1359464679'
p870
tp871
a(S'Jamiroquai'
p872
S"Time Won't Wait"
p873
S'http://www.last.fm/music/Jamiroquai/_/Time+Won%27t+Wait'
p874
S'1359464377'
p875
tp876
a(S'Soundgarden'
p877
S'Taree'
p878
S'http://www.last.fm/music/Soundgarden/_/Taree'
p879
S'1359464159'
p880
tp881
a(S'Beastie Boys'
p882
S'Triple Trouble (Album Version)'
p883
S'http://www.last.fm/music/Beastie+Boys/_/Triple+Trouble+(Album+Version)'
p884
S'1359463994'
p885
tp886
a(S'The Temptations'
p887
S'Papa Was a Rolling Stone'
p888
S'http://www.last.fm/music/The+Temptations/_/Papa+Was+a+Rolling+Stone'
p889
S'1359463574'
p890
tp891
a(S'Tracy Chapman'
p892
S"Talkin' Bout a Revolution"
p893
S'http://www.last.fm/music/Tracy+Chapman/_/Talkin%27+Bout+a+Revolution'
p894
S'1359461915'
p895
tp896
a(S'Soundgarden'
p897
S"Eyelid's Mouth"
p898
S'http://www.last.fm/music/Soundgarden/_/Eyelid%27s+Mouth'
p899
S'1359461647'
p900
tp901
a(S'Beastie Boys'
p902
S'Triple Trouble (Album Version)'
p903
S'http://www.last.fm/music/Beastie+Boys/_/Triple+Trouble+(Album+Version)'
p904
S'1359400649'
p905
tp906
a(S'U2'
p907
S'Discoteque'
p908
S'http://www.last.fm/music/U2/_/Discoteque'
p909
S'1359400336'
p910
tp911
a(S'Al Green'
p912
S'Lets Stay Together'
p913
S'http://www.last.fm/music/Al+Green/_/Lets+Stay+Together'
p914
S'1359400137'
p915
tp916
a(S'Soundgarden'
p917
S'Attrition'
p918
S'http://www.last.fm/music/Soundgarden/_/Attrition'
p919
S'1359399970'
p920
tp921
a(S'Tracy Chapman'
p922
S"Talkin' Bout a Revolution"
p923
S'http://www.last.fm/music/Tracy+Chapman/_/Talkin%27+Bout+a+Revolution'
p924
S'1359399810'
p925
tp926
a(S'Aretha Franklin'
p927
S'Rock Steady'
p928
S'http://www.last.fm/music/Aretha+Franklin/_/Rock+Steady'
p929
S'1359399561'
p930
tp931
a(S'Marvin Gaye'
p932
S"Let's Get It On"
p933
S'http://www.last.fm/music/Marvin+Gaye/_/Let%27s+Get+It+On'
p934
S'1359399318'
p935
tp936
a(S'Jamiroquai'
p937
S"Time Won't Wait"
p938
S'http://www.last.fm/music/Jamiroquai/_/Time+Won%27t+Wait'
p939
S'1359399017'
p940
tp941
a(S'The Temptations'
p942
S'Papa Was a Rolling Stone'
p943
S'http://www.last.fm/music/The+Temptations/_/Papa+Was+a+Rolling+Stone'
p944
S'1359398595'
p945
tp946
a(S'Tracy Chapman'
p947
S"Talkin' Bout a Revolution"
p948
S'http://www.last.fm/music/Tracy+Chapman/_/Talkin%27+Bout+a+Revolution'
p949
S'1359397376'
p950
tp951
a(S'Marvin Gaye'
p952
S"Let's Get It On"
p953
S'http://www.last.fm/music/Marvin+Gaye/_/Let%27s+Get+It+On'
p954
S'1359397135'
p955
tp956
a(S'Soundgarden'
p957
S'Attrition'
p958
S'http://www.last.fm/music/Soundgarden/_/Attrition'
p959
S'1359396966'
p960
tp961
a(S'U2'
p962
S'Discoteque'
p963
S'http://www.last.fm/music/U2/_/Discoteque'
p964
S'1359396653'
p965
tp966
a(S'The Temptations'
p967
S'Papa Was a Rolling Stone'
p968
S'http://www.last.fm/music/The+Temptations/_/Papa+Was+a+Rolling+Stone'
p969
S'1359396233'
p970
tp971
a(S'Beastie Boys'
p972
S'Triple Trouble (Album Version)'
p973
S'http://www.last.fm/music/Beastie+Boys/_/Triple+Trouble+(Album+Version)'
p974
S'1359396068'
p975
tp976
a(S'Jamiroquai'
p977
S"Time Won't Wait"
p978
S'http://www.last.fm/music/Jamiroquai/_/Time+Won%27t+Wait'
p979
S'1359395766'
p980
tp981
a(S'Al Green'
p982
S'Lets Stay Together'
p983
S'http://www.last.fm/music/Al+Green/_/Lets+Stay+Together'
p984
S'1359395567'
p985
tp986
a(S'Aretha Franklin'
p987
S'Rock Steady'
p988
S'http://www.last.fm/music/Aretha+Franklin/_/Rock+Steady'
p989
S'1359395375'
p990
tp991
a(S'Soundgarden'
p992
S'Attrition'
p993
S'http://www.last.fm/music/Soundgarden/_/Attrition'
p994
S'1359377216'
p995
tp996
a(S'Tracy Chapman'
p997
S"Talkin' Bout a Revolution"
p998
S'http://www.last.fm/music/Tracy+Chapman/_/Talkin%27+Bout+a+Revolution'
p999
S'1359377056'
p1000
tp1001
a.