(lp1
(S'Ella Fitzgerald'
p2
S'Blue Skies'
p3
S'http://www.last.fm/music/Ella+Fitzgerald/_/Blue+Skies'
p4
S'1358360690'
p5
tp6
a(S'The Temptations'
p7
S'Papa Was a Rolling Stone'
p8
S'http://www.last.fm/music/The+Temptations/_/Papa+Was+a+Rolling+Stone'
p9
S'1358360270'
p10
tp11
a(S'Ella Fitzgerald'
p12
S'Deep Purple'
p13
S'http://www.last.fm/music/Ella+Fitzgerald/_/Deep+Purple'
p14
S'1358360023'
p15
tp16
a(S'Aretha Franklin'
p17
S'(You Make Me Feel Like) a Natural Woman'
p18
S'http://www.last.fm/music/Aretha+Franklin/_/(You+Make+Me+Feel+Like)+a+Natural+Woman'
p19
S'1358359858'
p20
tp21
a(S'Soundgarden'
p22
S'Attrition'
p23
S'http://www.last.fm/music/Soundgarden/_/Attrition'
p24
S'1358358370'
p25
tp26
a(S'Bill Withers'
p27
S"Ain't No Sunshine (Single Version)"
p28
S'http://www.last.fm/music/Bill+Withers/_/Ain%27t+No+Sunshine+(Single+Version)'
p29
S'1358358226'
p30
tp31
a(S'Aretha Franklin'
p32
S'Son Of A Preacher Man'
p33
S'http://www.last.fm/music/Aretha+Franklin/_/Son+Of+A+Preacher+Man'
p34
S'1358358028'
p35
tp36
a(S'Jamiroquai'
p37
S"Time Won't Wait"
p38
S'http://www.last.fm/music/Jamiroquai/_/Time+Won%27t+Wait'
p39
S'1358357726'
p40
tp41
a(S'Marvin Gaye'
p42
S'I Heard It Through the Grapevine'
p43
S'http://www.last.fm/music/Marvin+Gaye/_/I+Heard+It+Through+the+Grapevine'
p44
S'1358357529'
p45
tp46
a(S'Albert King'
p47
S"I'll Play The Blues For You"
p48
S'http://www.last.fm/music/Albert+King/_/I%27ll+Play+The+Blues+For+You'
p49
S'1358355416'
p50
tp51
a(S'Soundgarden'
p52
S'Rowing'
p53
S'http://www.last.fm/music/Soundgarden/_/Rowing'
p54
S'1358355112'
p55
tp56
a(S'The Temptations'
p57
S'Cloud Nine'
p58
S'http://www.last.fm/music/The+Temptations/_/Cloud+Nine'
p59
S'1358354894'
p60
tp61
a(S'Soundgarden'
p62
S'Attrition'
p63
S'http://www.last.fm/music/Soundgarden/_/Attrition'
p64
S'1358354728'
p65
tp66
a(S'Foreigner'
p67
S'Double Vision'
p68
S'http://www.last.fm/music/Foreigner/_/Double+Vision'
p69
S'1358354454'
p70
tp71
a(S'Al Green'
p72
S'Lets Stay Together'
p73
S'http://www.last.fm/music/Al+Green/_/Lets+Stay+Together'
p74
S'1358354255'
p75
tp76
a(S'The Blues Brothers'
p77
S'Minnie the Moocher'
p78
S'http://www.last.fm/music/The+Blues+Brothers/_/Minnie+the+Moocher'
p79
S'1358354048'
p80
tp81
a(S'The Temptations'
p82
S'Papa Was a Rolling Stone'
p83
S'http://www.last.fm/music/The+Temptations/_/Papa+Was+a+Rolling+Stone'
p84
S'1358353170'
p85
tp86
a(S'Jamiroquai'
p87
S"Time Won't Wait"
p88
S'http://www.last.fm/music/Jamiroquai/_/Time+Won%27t+Wait'
p89
S'1358352868'
p90
tp91
a(S'Marvin Gaye'
p92
S'I Heard It Through the Grapevine'
p93
S'http://www.last.fm/music/Marvin+Gaye/_/I+Heard+It+Through+the+Grapevine'
p94
S'1358352671'
p95
tp96
a(S'Soundgarden'
p97
S"Eyelid's Mouth"
p98
S'http://www.last.fm/music/Soundgarden/_/Eyelid%27s+Mouth'
p99
S'1358352403'
p100
tp101
a(S'U2'
p102
S'Hold Me, Thrill Me, Kiss Me, Kill Me'
p103
S'http://www.last.fm/music/U2/_/Hold+Me,+Thrill+Me,+Kiss+Me,+Kill+Me'
p104
S'1358352116'
p105
tp106
a(S'Soundgarden'
p107
S'Taree'
p108
S'http://www.last.fm/music/Soundgarden/_/Taree'
p109
S'1358351898'
p110
tp111
a(S'Albert King'
p112
S"I'll Play The Blues For You"
p113
S'http://www.last.fm/music/Albert+King/_/I%27ll+Play+The+Blues+For+You'
p114
S'1358351207'
p115
tp116
a(S'Soundgarden'
p117
S'Rowing'
p118
S'http://www.last.fm/music/Soundgarden/_/Rowing'
p119
S'1358350903'
p120
tp121
a(S'The Temptations'
p122
S'Cloud Nine'
p123
S'http://www.last.fm/music/The+Temptations/_/Cloud+Nine'
p124
S'1358350844'
p125
tp126
a(S'Soundgarden'
p127
S'Attrition'
p128
S'http://www.last.fm/music/Soundgarden/_/Attrition'
p129
S'1358350434'
p130
tp131
a(S'The Blues Brothers'
p132
S'Shake a Tail Feather'
p133
S'http://www.last.fm/music/The+Blues+Brothers/_/Shake+a+Tail+Feather'
p134
S'1358350266'
p135
tp136
a(S'The Temptations'
p137
S'My Girl'
p138
S'http://www.last.fm/music/The+Temptations/_/My+Girl'
p139
S'1358350235'
p140
tp141
a(S'Foreigner'
p142
S'Double Vision'
p143
S'http://www.last.fm/music/Foreigner/_/Double+Vision'
p144
S'1358349964'
p145
tp146
a(S'Al Green'
p147
S'Lets Stay Together'
p148
S'http://www.last.fm/music/Al+Green/_/Lets+Stay+Together'
p149
S'1358349766'
p150
tp151
a(S'The Blues Brothers'
p152
S'Minnie the Moocher'
p153
S'http://www.last.fm/music/The+Blues+Brothers/_/Minnie+the+Moocher'
p154
S'1358349560'
p155
tp156
a(S'The Temptations'
p157
S'Papa Was a Rolling Stone'
p158
S'http://www.last.fm/music/The+Temptations/_/Papa+Was+a+Rolling+Stone'
p159
S'1358337256'
p160
tp161
a(S'Jamiroquai'
p162
S"Time Won't Wait"
p163
S'http://www.last.fm/music/Jamiroquai/_/Time+Won%27t+Wait'
p164
S'1358336954'
p165
tp166
a(S'Marvin Gaye'
p167
S'I Heard It Through the Grapevine'
p168
S'http://www.last.fm/music/Marvin+Gaye/_/I+Heard+It+Through+the+Grapevine'
p169
S'1358336397'
p170
tp171
a(S'Soundgarden'
p172
S"Eyelid's Mouth"
p173
S'http://www.last.fm/music/Soundgarden/_/Eyelid%27s+Mouth'
p174
S'1358336128'
p175
tp176
a(S'Soundgarden'
p177
S'Taree'
p178
S'http://www.last.fm/music/Soundgarden/_/Taree'
p179
S'1358335910'
p180
tp181
a(S'U2'
p182
S'Hold Me, Thrill Me, Kiss Me, Kill Me'
p183
S'http://www.last.fm/music/U2/_/Hold+Me,+Thrill+Me,+Kiss+Me,+Kill+Me'
p184
S'1358335623'
p185
tp186
a(S'Bill Withers'
p187
S"Ain't No Sunshine (Single Version)"
p188
S'http://www.last.fm/music/Bill+Withers/_/Ain%27t+No+Sunshine+(Single+Version)'
p189
S'1358335499'
p190
tp191
a(S'U2'
p192
S'Discoteque'
p193
S'http://www.last.fm/music/U2/_/Discoteque'
p194
S'1358335186'
p195
tp196
a(S'Soundgarden'
p197
S"Eyelid's Mouth"
p198
S'http://www.last.fm/music/Soundgarden/_/Eyelid%27s+Mouth'
p199
S'1358283365'
p200
tp201
a(S'Soundgarden'
p202
S'Attrition'
p203
S'http://www.last.fm/music/Soundgarden/_/Attrition'
p204
S'1358282624'
p205
tp206
a(S'Soundgarden'
p207
S'Rowing'
p208
S'http://www.last.fm/music/Soundgarden/_/Rowing'
p209
S'1358282320'
p210
tp211
a(S'The Temptations'
p212
S'Papa Was a Rolling Stone'
p213
S'http://www.last.fm/music/The+Temptations/_/Papa+Was+a+Rolling+Stone'
p214
S'1358281900'
p215
tp216
a(S'The Blues Brothers'
p217
S'Minnie the Moocher'
p218
S'http://www.last.fm/music/The+Blues+Brothers/_/Minnie+the+Moocher'
p219
S'1358281694'
p220
tp221
a(S'Bill Withers'
p222
S"Ain't No Sunshine (Single Version)"
p223
S'http://www.last.fm/music/Bill+Withers/_/Ain%27t+No+Sunshine+(Single+Version)'
p224
S'1358281569'
p225
tp226
a(S'Foreigner'
p227
S'Double Vision'
p228
S'http://www.last.fm/music/Foreigner/_/Double+Vision'
p229
S'1358281347'
p230
tp231
a(S'Al Green'
p232
S'Lets Stay Together'
p233
S'http://www.last.fm/music/Al+Green/_/Lets+Stay+Together'
p234
S'1358281148'
p235
tp236
a(S'U2'
p237
S'Hold Me, Thrill Me, Kiss Me, Kill Me'
p238
S'http://www.last.fm/music/U2/_/Hold+Me,+Thrill+Me,+Kiss+Me,+Kill+Me'
p239
S'1358280861'
p240
tp241
a(S'Diana Ross and the Supremes'
p242
S"You Can't Hurry Love"
p243
S'http://www.last.fm/music/Diana+Ross+and+the+Supremes/_/You+Can%27t+Hurry+Love'
p244
S'1358280687'
p245
tp246
a(S'Chris Cornell'
p247
S'You Know My Name'
p248
S'http://www.last.fm/music/Chris+Cornell/_/You+Know+My+Name'
p249
S'1358280443'
p250
tp251
a(S'Albert King'
p252
S"I'll Play The Blues For You"
p253
S'http://www.last.fm/music/Albert+King/_/I%27ll+Play+The+Blues+For+You'
p254
S'1358280002'
p255
tp256
a(S'Jamiroquai'
p257
S"Time Won't Wait"
p258
S'http://www.last.fm/music/Jamiroquai/_/Time+Won%27t+Wait'
p259
S'1358279701'
p260
tp261
a(S'U2'
p262
S'Bullet the Blue Sky'
p263
S'http://www.last.fm/music/U2/_/Bullet+the+Blue+Sky'
p264
S'1358279429'
p265
tp266
a(S'Soundgarden'
p267
S'Taree'
p268
S'http://www.last.fm/music/Soundgarden/_/Taree'
p269
S'1358279212'
p270
tp271
a(S'Marvin Gaye'
p272
S'I Heard It Through the Grapevine'
p273
S'http://www.last.fm/music/Marvin+Gaye/_/I+Heard+It+Through+the+Grapevine'
p274
S'1358279013'
p275
tp276
a(S'U2'
p277
S'Discoteque'
p278
S'http://www.last.fm/music/U2/_/Discoteque'
p279
S'1358278077'
p280
tp281
a(S'Soundgarden'
p282
S"Eyelid's Mouth"
p283
S'http://www.last.fm/music/Soundgarden/_/Eyelid%27s+Mouth'
p284
S'1358277809'
p285
tp286
a(S'Soundgarden'
p287
S'Attrition'
p288
S'http://www.last.fm/music/Soundgarden/_/Attrition'
p289
S'1358277642'
p290
tp291
a(S'Soundgarden'
p292
S'Rowing'
p293
S'http://www.last.fm/music/Soundgarden/_/Rowing'
p294
S'1358277338'
p295
tp296
a(S'The Temptations'
p297
S'Papa Was a Rolling Stone'
p298
S'http://www.last.fm/music/The+Temptations/_/Papa+Was+a+Rolling+Stone'
p299
S'1358276917'
p300
tp301
a(S'The Blues Brothers'
p302
S'Minnie the Moocher'
p303
S'http://www.last.fm/music/The+Blues+Brothers/_/Minnie+the+Moocher'
p304
S'1358276659'
p305
tp306
a(S'Bill Withers'
p307
S"Ain't No Sunshine (Single Version)"
p308
S'http://www.last.fm/music/Bill+Withers/_/Ain%27t+No+Sunshine+(Single+Version)'
p309
S'1358276536'
p310
tp311
a(S'Foreigner'
p312
S'Double Vision'
p313
S'http://www.last.fm/music/Foreigner/_/Double+Vision'
p314
S'1358276312'
p315
tp316
a(S'Al Green'
p317
S'Lets Stay Together'
p318
S'http://www.last.fm/music/Al+Green/_/Lets+Stay+Together'
p319
S'1358276117'
p320
tp321
a(S'U2'
p322
S'Hold Me, Thrill Me, Kiss Me, Kill Me'
p323
S'http://www.last.fm/music/U2/_/Hold+Me,+Thrill+Me,+Kiss+Me,+Kill+Me'
p324
S'1358275826'
p325
tp326
a(S'Diana Ross and the Supremes'
p327
S"You Can't Hurry Love"
p328
S'http://www.last.fm/music/Diana+Ross+and+the+Supremes/_/You+Can%27t+Hurry+Love'
p329
S'1358275652'
p330
tp331
a(S'Chris Cornell'
p332
S'You Know My Name'
p333
S'http://www.last.fm/music/Chris+Cornell/_/You+Know+My+Name'
p334
S'1358275408'
p335
tp336
a(S'Albert King'
p337
S"I'll Play The Blues For You"
p338
S'http://www.last.fm/music/Albert+King/_/I%27ll+Play+The+Blues+For+You'
p339
S'1358274968'
p340
tp341
a(S'Jamiroquai'
p342
S"Time Won't Wait"
p343
S'http://www.last.fm/music/Jamiroquai/_/Time+Won%27t+Wait'
p344
S'1358274583'
p345
tp346
a(S'U2'
p347
S'Bullet the Blue Sky'
p348
S'http://www.last.fm/music/U2/_/Bullet+the+Blue+Sky'
p349
S'1358274328'
p350
tp351
a(S'Soundgarden'
p352
S'Taree'
p353
S'http://www.last.fm/music/Soundgarden/_/Taree'
p354
S'1358274091'
p355
tp356
a(S'Marvin Gaye'
p357
S'I Heard It Through the Grapevine'
p358
S'http://www.last.fm/music/Marvin+Gaye/_/I+Heard+It+Through+the+Grapevine'
p359
S'1358273894'
p360
tp361
a(S'Soundgarden'
p362
S'Blood on the Valley Floor'
p363
S'http://www.last.fm/music/Soundgarden/_/Blood+on+the+Valley+Floor'
p364
S'1358265767'
p365
tp366
a(S'Soundgarden'
p367
S'Halfway There'
p368
S'http://www.last.fm/music/Soundgarden/_/Halfway+There'
p369
S'1358265571'
p370
tp371
a(S'Soundgarden'
p372
S'Been Away Too Long'
p373
S'http://www.last.fm/music/Soundgarden/_/Been+Away+Too+Long'
p374
S'1358265355'
p375
tp376
a(S'Soundgarden'
p377
S'Black Saturday'
p378
S'http://www.last.fm/music/Soundgarden/_/Black+Saturday'
p379
S'1358265145'
p380
tp381
a(S'Soundgarden'
p382
S'Worse Dreams'
p383
S'http://www.last.fm/music/Soundgarden/_/Worse+Dreams'
p384
S'1358264852'
p385
tp386
a(S'Soundgarden'
p387
S'Rowing'
p388
S'http://www.last.fm/music/Soundgarden/_/Rowing'
p389
S'1358264545'
p390
tp391
a(S'Soundgarden'
p392
S'Bones of Birds'
p393
S'http://www.last.fm/music/Soundgarden/_/Bones+of+Birds'
p394
S'1358264283'
p395
tp396
a(S'Soundgarden'
p397
S'A Thousand Days Before'
p398
S'http://www.last.fm/music/Soundgarden/_/A+Thousand+Days+Before'
p399
S'1358264020'
p400
tp401
a(S'Soundgarden'
p402
S'Taree'
p403
S'http://www.last.fm/music/Soundgarden/_/Taree'
p404
S'1358254240'
p405
tp406
a(S'Soundgarden'
p407
S'Attrition'
p408
S'http://www.last.fm/music/Soundgarden/_/Attrition'
p409
S'1358254068'
p410
tp411
a(S'Soundgarden'
p412
S"Eyelid's Mouth"
p413
S'http://www.last.fm/music/Soundgarden/_/Eyelid%27s+Mouth'
p414
S'1358253789'
p415
tp416
a(S'Soundgarden'
p417
S'By Crooked Steps'
p418
S'http://www.last.fm/music/Soundgarden/_/By+Crooked+Steps'
p419
S'1358253550'
p420
tp421
a(S'Soundgarden'
p422
S'Worse Dreams'
p423
S'http://www.last.fm/music/Soundgarden/_/Worse+Dreams'
p424
S'1358250516'
p425
tp426
a(S'Soundgarden'
p427
S'Bones of Birds'
p428
S'http://www.last.fm/music/Soundgarden/_/Bones+of+Birds'
p429
S'1358250253'
p430
tp431
a(S'Soundgarden'
p432
S'A Thousand Days Before'
p433
S'http://www.last.fm/music/Soundgarden/_/A+Thousand+Days+Before'
p434
S'1358248085'
p435
tp436
a(S'Soundgarden'
p437
S'Attrition'
p438
S'http://www.last.fm/music/Soundgarden/_/Attrition'
p439
S'1358247913'
p440
tp441
a(S'Soundgarden'
p442
S'Halfway There'
p443
S'http://www.last.fm/music/Soundgarden/_/Halfway+There'
p444
S'1358247719'
p445
tp446
a(S'Soundgarden'
p447
S'By Crooked Steps'
p448
S'http://www.last.fm/music/Soundgarden/_/By+Crooked+Steps'
p449
S'1358247476'
p450
tp451
a(S'Soundgarden'
p452
S'Been Away Too Long'
p453
S'http://www.last.fm/music/Soundgarden/_/Been+Away+Too+Long'
p454
S'1358247260'
p455
tp456
a(S'Soundgarden'
p457
S'Rowing'
p458
S'http://www.last.fm/music/Soundgarden/_/Rowing'
p459
S'1358246953'
p460
tp461
a(S'Soundgarden'
p462
S'Non-State Actor'
p463
S'http://www.last.fm/music/Soundgarden/_/Non-State+Actor'
p464
S'1358246716'
p465
tp466
a(S'Soundgarden'
p467
S'Taree'
p468
S'http://www.last.fm/music/Soundgarden/_/Taree'
p469
S'1358244409'
p470
tp471
a(S'Soundgarden'
p472
S'Black Saturday'
p473
S'http://www.last.fm/music/Soundgarden/_/Black+Saturday'
p474
S'1358244199'
p475
tp476
a(S'Soundgarden'
p477
S'Blood on the Valley Floor'
p478
S'http://www.last.fm/music/Soundgarden/_/Blood+on+the+Valley+Floor'
p479
S'1358243970'
p480
tp481
a(S'Soundgarden'
p482
S"Eyelid's Mouth"
p483
S'http://www.last.fm/music/Soundgarden/_/Eyelid%27s+Mouth'
p484
S'1358243665'
p485
tp486
a(S'Soundgarden'
p487
S'Attrition'
p488
S'http://www.last.fm/music/Soundgarden/_/Attrition'
p489
S'1358243481'
p490
tp491
a(S'Soundgarden'
p492
S'Taree'
p493
S'http://www.last.fm/music/Soundgarden/_/Taree'
p494
S'1358169266'
p495
tp496
a(S'Foreigner'
p497
S'Double Vision'
p498
S'http://www.last.fm/music/Foreigner/_/Double+Vision'
p499
S'1358169042'
p500
tp501
a(S'The Blues Brothers'
p502
S'Minnie the Moocher'
p503
S'http://www.last.fm/music/The+Blues+Brothers/_/Minnie+the+Moocher'
p504
S'1358168836'
p505
tp506
a(S'Soundgarden'
p507
S'Attrition'
p508
S'http://www.last.fm/music/Soundgarden/_/Attrition'
p509
S'1358168670'
p510
tp511
a(S'U2'
p512
S'Hold Me, Thrill Me, Kiss Me, Kill Me'
p513
S'http://www.last.fm/music/U2/_/Hold+Me,+Thrill+Me,+Kiss+Me,+Kill+Me'
p514
S'1358168383'
p515
tp516
a(S'Marvin Gaye'
p517
S'I Heard It Through the Grapevine'
p518
S'http://www.last.fm/music/Marvin+Gaye/_/I+Heard+It+Through+the+Grapevine'
p519
S'1358168186'
p520
tp521
a(S'Soundgarden'
p522
S'Rowing'
p523
S'http://www.last.fm/music/Soundgarden/_/Rowing'
p524
S'1358167882'
p525
tp526
a(S'Soundgarden'
p527
S"Eyelid's Mouth"
p528
S'http://www.last.fm/music/Soundgarden/_/Eyelid%27s+Mouth'
p529
S'1358167613'
p530
tp531
a(S'U2'
p532
S'Discoteque'
p533
S'http://www.last.fm/music/U2/_/Discoteque'
p534
S'1358167301'
p535
tp536
a(S'Atreyu'
p537
S'Becoming the Bull'
p538
S'http://www.last.fm/music/Atreyu/_/Becoming+the+Bull'
p539
S'1357928943'
p540
tp541
a(S'Soundgarden'
p542
S'Attrition'
p543
S'http://www.last.fm/music/Soundgarden/_/Attrition'
p544
S'1357928776'
p545
tp546
a(S'Soundgarden'
p547
S"Eyelid's Mouth"
p548
S'http://www.last.fm/music/Soundgarden/_/Eyelid%27s+Mouth'
p549
S'1357928508'
p550
tp551
a(S'Albert King'
p552
S"I'll Play The Blues For You"
p553
S'http://www.last.fm/music/Albert+King/_/I%27ll+Play+The+Blues+For+You'
p554
S'1357928068'
p555
tp556
a(S'Soundgarden'
p557
S'Taree'
p558
S'http://www.last.fm/music/Soundgarden/_/Taree'
p559
S'1357926277'
p560
tp561
a(S'Chris Cornell'
p562
S'You Know My Name'
p563
S'http://www.last.fm/music/Chris+Cornell/_/You+Know+My+Name'
p564
S'1357926034'
p565
tp566
a(S'Marvin Gaye'
p567
S'I Heard It Through the Grapevine'
p568
S'http://www.last.fm/music/Marvin+Gaye/_/I+Heard+It+Through+the+Grapevine'
p569
S'1357925709'
p570
tp571
a(S'Soundgarden'
p572
S'Non-State Actor'
p573
S'http://www.last.fm/music/Soundgarden/_/Non-State+Actor'
p574
S'1357925455'
p575
tp576
a(S'The Blues Brothers'
p577
S'Shake a Tail Feather'
p578
S'http://www.last.fm/music/The+Blues+Brothers/_/Shake+a+Tail+Feather'
p579
S'1357925288'
p580
tp581
a(S'U2'
p582
S'Hold Me, Thrill Me, Kiss Me, Kill Me'
p583
S'http://www.last.fm/music/U2/_/Hold+Me,+Thrill+Me,+Kiss+Me,+Kill+Me'
p584
S'1357925001'
p585
tp586
a(S'Bill Withers'
p587
S"Ain't No Sunshine (Single Version)"
p588
S'http://www.last.fm/music/Bill+Withers/_/Ain%27t+No+Sunshine+(Single+Version)'
p589
S'1357924877'
p590
tp591
a(S'The Blues Brothers'
p592
S'Minnie the Moocher'
p593
S'http://www.last.fm/music/The+Blues+Brothers/_/Minnie+the+Moocher'
p594
S'1357924671'
p595
tp596
a(S'U2'
p597
S'Bullet the Blue Sky'
p598
S'http://www.last.fm/music/U2/_/Bullet+the+Blue+Sky'
p599
S'1357924399'
p600
tp601
a(S'Soundgarden'
p602
S'Rowing'
p603
S'http://www.last.fm/music/Soundgarden/_/Rowing'
p604
S'1357924095'
p605
tp606
a(S'U2'
p607
S'Discoteque'
p608
S'http://www.last.fm/music/U2/_/Discoteque'
p609
S'1357916660'
p610
tp611
a(S'Foreigner'
p612
S'Double Vision'
p613
S'http://www.last.fm/music/Foreigner/_/Double+Vision'
p614
S'1357916437'
p615
tp616
a(S'Marvin Gaye'
p617
S"Let's Get It On"
p618
S'http://www.last.fm/music/Marvin+Gaye/_/Let%27s+Get+It+On'
p619
S'1357916194'
p620
tp621
a(S'Jamiroquai'
p622
S"Time Won't Wait"
p623
S'http://www.last.fm/music/Jamiroquai/_/Time+Won%27t+Wait'
p624
S'1357915892'
p625
tp626
a(S'Atreyu'
p627
S'Becoming the Bull'
p628
S'http://www.last.fm/music/Atreyu/_/Becoming+the+Bull'
p629
S'1357915672'
p630
tp631
a(S'Soundgarden'
p632
S'Attrition'
p633
S'http://www.last.fm/music/Soundgarden/_/Attrition'
p634
S'1357915504'
p635
tp636
a(S'Soundgarden'
p637
S"Eyelid's Mouth"
p638
S'http://www.last.fm/music/Soundgarden/_/Eyelid%27s+Mouth'
p639
S'1357915237'
p640
tp641
a(S'Albert King'
p642
S"I'll Play The Blues For You"
p643
S'http://www.last.fm/music/Albert+King/_/I%27ll+Play+The+Blues+For+You'
p644
S'1357914796'
p645
tp646
a(S'Soundgarden'
p647
S'Taree'
p648
S'http://www.last.fm/music/Soundgarden/_/Taree'
p649
S'1357914578'
p650
tp651
a(S'Chris Cornell'
p652
S'You Know My Name'
p653
S'http://www.last.fm/music/Chris+Cornell/_/You+Know+My+Name'
p654
S'1357914334'
p655
tp656
a(S'Marvin Gaye'
p657
S'I Heard It Through the Grapevine'
p658
S'http://www.last.fm/music/Marvin+Gaye/_/I+Heard+It+Through+the+Grapevine'
p659
S'1357914137'
p660
tp661
a(S'Soundgarden'
p662
S'Non-State Actor'
p663
S'http://www.last.fm/music/Soundgarden/_/Non-State+Actor'
p664
S'1357913902'
p665
tp666
a(S'The Blues Brothers'
p667
S'Shake a Tail Feather'
p668
S'http://www.last.fm/music/The+Blues+Brothers/_/Shake+a+Tail+Feather'
p669
S'1357913735'
p670
tp671
a(S'U2'
p672
S'Hold Me, Thrill Me, Kiss Me, Kill Me'
p673
S'http://www.last.fm/music/U2/_/Hold+Me,+Thrill+Me,+Kiss+Me,+Kill+Me'
p674
S'1357913448'
p675
tp676
a(S'Bill Withers'
p677
S"Ain't No Sunshine (Single Version)"
p678
S'http://www.last.fm/music/Bill+Withers/_/Ain%27t+No+Sunshine+(Single+Version)'
p679
S'1357913324'
p680
tp681
a(S'The Blues Brothers'
p682
S'Minnie the Moocher'
p683
S'http://www.last.fm/music/The+Blues+Brothers/_/Minnie+the+Moocher'
p684
S'1357913118'
p685
tp686
a(S'U2'
p687
S'Bullet the Blue Sky'
p688
S'http://www.last.fm/music/U2/_/Bullet+the+Blue+Sky'
p689
S'1357912662'
p690
tp691
a(S'Soundgarden'
p692
S'Rowing'
p693
S'http://www.last.fm/music/Soundgarden/_/Rowing'
p694
S'1357912357'
p695
tp696
a(S'U2'
p697
S'Discoteque'
p698
S'http://www.last.fm/music/U2/_/Discoteque'
p699
S'1357912044'
p700
tp701
a(S'Foreigner'
p702
S'Double Vision'
p703
S'http://www.last.fm/music/Foreigner/_/Double+Vision'
p704
S'1357911845'
p705
tp706
a(S'Marvin Gaye'
p707
S"Let's Get It On"
p708
S'http://www.last.fm/music/Marvin+Gaye/_/Let%27s+Get+It+On'
p709
S'1357911577'
p710
tp711
a(S'Jamiroquai'
p712
S"Time Won't Wait"
p713
S'http://www.last.fm/music/Jamiroquai/_/Time+Won%27t+Wait'
p714
S'1357911275'
p715
tp716
a(S'Atreyu'
p717
S'Becoming the Bull'
p718
S'http://www.last.fm/music/Atreyu/_/Becoming+the+Bull'
p719
S'1357911055'
p720
tp721
a(S'Soundgarden'
p722
S'Attrition'
p723
S'http://www.last.fm/music/Soundgarden/_/Attrition'
p724
S'1357910888'
p725
tp726
a(S'Albert King'
p727
S"I'll Play The Blues For You"
p728
S'http://www.last.fm/music/Albert+King/_/I%27ll+Play+The+Blues+For+You'
p729
S'1357910512'
p730
tp731
a(S'Soundgarden'
p732
S'Taree'
p733
S'http://www.last.fm/music/Soundgarden/_/Taree'
p734
S'1357910293'
p735
tp736
a(S'Chris Cornell'
p737
S'You Know My Name'
p738
S'http://www.last.fm/music/Chris+Cornell/_/You+Know+My+Name'
p739
S'1357910050'
p740
tp741
a(S'Marvin Gaye'
p742
S'I Heard It Through the Grapevine'
p743
S'http://www.last.fm/music/Marvin+Gaye/_/I+Heard+It+Through+the+Grapevine'
p744
S'1357909853'
p745
tp746
a(S'Soundgarden'
p747
S'Non-State Actor'
p748
S'http://www.last.fm/music/Soundgarden/_/Non-State+Actor'
p749
S'1357909384'
p750
tp751
a(S'The Blues Brothers'
p752
S'Shake a Tail Feather'
p753
S'http://www.last.fm/music/The+Blues+Brothers/_/Shake+a+Tail+Feather'
p754
S'1357909217'
p755
tp756
a(S'U2'
p757
S'Hold Me, Thrill Me, Kiss Me, Kill Me'
p758
S'http://www.last.fm/music/U2/_/Hold+Me,+Thrill+Me,+Kiss+Me,+Kill+Me'
p759
S'1357908931'
p760
tp761
a(S'Bill Withers'
p762
S"Ain't No Sunshine (Single Version)"
p763
S'http://www.last.fm/music/Bill+Withers/_/Ain%27t+No+Sunshine+(Single+Version)'
p764
S'1357908806'
p765
tp766
a(S'The Blues Brothers'
p767
S'Minnie the Moocher'
p768
S'http://www.last.fm/music/The+Blues+Brothers/_/Minnie+the+Moocher'
p769
S'1357908600'
p770
tp771
a(S'U2'
p772
S'Bullet the Blue Sky'
p773
S'http://www.last.fm/music/U2/_/Bullet+the+Blue+Sky'
p774
S'1357908328'
p775
tp776
a(S'Soundgarden'
p777
S'Rowing'
p778
S'http://www.last.fm/music/Soundgarden/_/Rowing'
p779
S'1357908024'
p780
tp781
a(S'U2'
p782
S'Discoteque'
p783
S'http://www.last.fm/music/U2/_/Discoteque'
p784
S'1357907710'
p785
tp786
a(S'Foreigner'
p787
S'Double Vision'
p788
S'http://www.last.fm/music/Foreigner/_/Double+Vision'
p789
S'1357907487'
p790
tp791
a(S'Marvin Gaye'
p792
S"Let's Get It On"
p793
S'http://www.last.fm/music/Marvin+Gaye/_/Let%27s+Get+It+On'
p794
S'1357907244'
p795
tp796
a(S'Jamiroquai'
p797
S"Time Won't Wait"
p798
S'http://www.last.fm/music/Jamiroquai/_/Time+Won%27t+Wait'
p799
S'1357906943'
p800
tp801
a(S'Atreyu'
p802
S'Becoming the Bull'
p803
S'http://www.last.fm/music/Atreyu/_/Becoming+the+Bull'
p804
S'1357906722'
p805
tp806
a(S'Soundgarden'
p807
S'Attrition'
p808
S'http://www.last.fm/music/Soundgarden/_/Attrition'
p809
S'1357906555'
p810
tp811
a(S'Soundgarden'
p812
S"Eyelid's Mouth"
p813
S'http://www.last.fm/music/Soundgarden/_/Eyelid%27s+Mouth'
p814
S'1357906286'
p815
tp816
a(S'Albert King'
p817
S"I'll Play The Blues For You"
p818
S'http://www.last.fm/music/Albert+King/_/I%27ll+Play+The+Blues+For+You'
p819
S'1357905846'
p820
tp821
a(S'Soundgarden'
p822
S'Taree'
p823
S'http://www.last.fm/music/Soundgarden/_/Taree'
p824
S'1357905628'
p825
tp826
a(S'Chris Cornell'
p827
S'You Know My Name'
p828
S'http://www.last.fm/music/Chris+Cornell/_/You+Know+My+Name'
p829
S'1357905384'
p830
tp831
a(S'Soundgarden'
p832
S'Taree'
p833
S'http://www.last.fm/music/Soundgarden/_/Taree'
p834
S'1357905314'
p835
tp836
a(S'Soundgarden'
p837
S"Eyelid's Mouth"
p838
S'http://www.last.fm/music/Soundgarden/_/Eyelid%27s+Mouth'
p839
S'1357842005'
p840
tp841
a(S'Soundgarden'
p842
S'Rowing'
p843
S'http://www.last.fm/music/Soundgarden/_/Rowing'
p844
S'1357841701'
p845
tp846
a(S'Soundgarden'
p847
S'Non-State Actor'
p848
S'http://www.last.fm/music/Soundgarden/_/Non-State+Actor'
p849
S'1357841466'
p850
tp851
a(S'U2'
p852
S'Discoteque'
p853
S'http://www.last.fm/music/U2/_/Discoteque'
p854
S'1357841044'
p855
tp856
a(S'U2'
p857
S'Hold Me, Thrill Me, Kiss Me, Kill Me'
p858
S'http://www.last.fm/music/U2/_/Hold+Me,+Thrill+Me,+Kiss+Me,+Kill+Me'
p859
S'1357840757'
p860
tp861
a(S'Bill Withers'
p862
S"Ain't No Sunshine (Single Version)"
p863
S'http://www.last.fm/music/Bill+Withers/_/Ain%27t+No+Sunshine+(Single+Version)'
p864
S'1357840654'
p865
tp866
a(S'Marvin Gaye'
p867
S'I Heard It Through the Grapevine'
p868
S'http://www.last.fm/music/Marvin+Gaye/_/I+Heard+It+Through+the+Grapevine'
p869
S'1357837094'
p870
tp871
a(S'U2'
p872
S'Bullet the Blue Sky'
p873
S'http://www.last.fm/music/U2/_/Bullet+the+Blue+Sky'
p874
S'1357836821'
p875
tp876
a(S'Jamiroquai'
p877
S"Time Won't Wait"
p878
S'http://www.last.fm/music/Jamiroquai/_/Time+Won%27t+Wait'
p879
S'1357836519'
p880
tp881
a(S'The Blues Brothers'
p882
S'Minnie the Moocher'
p883
S'http://www.last.fm/music/The+Blues+Brothers/_/Minnie+the+Moocher'
p884
S'1357836314'
p885
tp886
a(S'Albert King'
p887
S"I'll Play The Blues For You"
p888
S'http://www.last.fm/music/Albert+King/_/I%27ll+Play+The+Blues+For+You'
p889
S'1357835874'
p890
tp891
a(S'Soundgarden'
p892
S'Attrition'
p893
S'http://www.last.fm/music/Soundgarden/_/Attrition'
p894
S'1357835707'
p895
tp896
a(S'Foreigner'
p897
S'Double Vision'
p898
S'http://www.last.fm/music/Foreigner/_/Double+Vision'
p899
S'1357835483'
p900
tp901
a(S'Soundgarden'
p902
S'Taree'
p903
S'http://www.last.fm/music/Soundgarden/_/Taree'
p904
S'1357835265'
p905
tp906
a(S'The Blues Brothers'
p907
S'Shake a Tail Feather'
p908
S'http://www.last.fm/music/The+Blues+Brothers/_/Shake+a+Tail+Feather'
p909
S'1357835097'
p910
tp911
a(S'Soundgarden'
p912
S"Eyelid's Mouth"
p913
S'http://www.last.fm/music/Soundgarden/_/Eyelid%27s+Mouth'
p914
S'1357834829'
p915
tp916
a(S'Soundgarden'
p917
S'Rowing'
p918
S'http://www.last.fm/music/Soundgarden/_/Rowing'
p919
S'1357834525'
p920
tp921
a(S'Soundgarden'
p922
S'Non-State Actor'
p923
S'http://www.last.fm/music/Soundgarden/_/Non-State+Actor'
p924
S'1357834290'
p925
tp926
a(S'U2'
p927
S'Discoteque'
p928
S'http://www.last.fm/music/U2/_/Discoteque'
p929
S'1357833977'
p930
tp931
a(S'U2'
p932
S'Hold Me, Thrill Me, Kiss Me, Kill Me'
p933
S'http://www.last.fm/music/U2/_/Hold+Me,+Thrill+Me,+Kiss+Me,+Kill+Me'
p934
S'1357833689'
p935
tp936
a(S'Bill Withers'
p937
S"Ain't No Sunshine (Single Version)"
p938
S'http://www.last.fm/music/Bill+Withers/_/Ain%27t+No+Sunshine+(Single+Version)'
p939
S'1357833565'
p940
tp941
a(S'Marvin Gaye'
p942
S'I Heard It Through the Grapevine'
p943
S'http://www.last.fm/music/Marvin+Gaye/_/I+Heard+It+Through+the+Grapevine'
p944
S'1357833368'
p945
tp946
a(S'U2'
p947
S'Bullet the Blue Sky'
p948
S'http://www.last.fm/music/U2/_/Bullet+the+Blue+Sky'
p949
S'1357832707'
p950
tp951
a(S'Jamiroquai'
p952
S"Time Won't Wait"
p953
S'http://www.last.fm/music/Jamiroquai/_/Time+Won%27t+Wait'
p954
S'1357822729'
p955
tp956
a(S'The Blues Brothers'
p957
S'Minnie the Moocher'
p958
S'http://www.last.fm/music/The+Blues+Brothers/_/Minnie+the+Moocher'
p959
S'1357822214'
p960
tp961
a(S'Albert King'
p962
S"I'll Play The Blues For You"
p963
S'http://www.last.fm/music/Albert+King/_/I%27ll+Play+The+Blues+For+You'
p964
S'1357821227'
p965
tp966
a(S'Soundgarden'
p967
S'Attrition'
p968
S'http://www.last.fm/music/Soundgarden/_/Attrition'
p969
S'1357820976'
p970
tp971
a(S'Foreigner'
p972
S'Double Vision'
p973
S'http://www.last.fm/music/Foreigner/_/Double+Vision'
p974
S'1357820755'
p975
tp976
a(S'Soundgarden'
p977
S'Taree'
p978
S'http://www.last.fm/music/Soundgarden/_/Taree'
p979
S'1357820534'
p980
tp981
a(S'The Blues Brothers'
p982
S'Shake a Tail Feather'
p983
S'http://www.last.fm/music/The+Blues+Brothers/_/Shake+a+Tail+Feather'
p984
S'1357820366'
p985
tp986
a(S'Soundgarden'
p987
S"Eyelid's Mouth"
p988
S'http://www.last.fm/music/Soundgarden/_/Eyelid%27s+Mouth'
p989
S'1357820098'
p990
tp991
a(S'Soundgarden'
p992
S'Rowing'
p993
S'http://www.last.fm/music/Soundgarden/_/Rowing'
p994
S'1357819793'
p995
tp996
a(S'Soundgarden'
p997
S'Non-State Actor'
p998
S'http://www.last.fm/music/Soundgarden/_/Non-State+Actor'
p999
S'1357819558'
p1000
tp1001
a.