(lp1
(S'Alice Cooper'
p2
S'Poison'
p3
S'http://www.last.fm/music/Alice+Cooper/_/Poison'
p4
S'1275318825'
p5
tp6
a(S'Stone Temple Pilots'
p7
S'Transmissions From a Lonely Room'
p8
S'http://www.last.fm/music/Stone+Temple+Pilots/_/Transmissions+From+a+Lonely+Room'
p9
S'1275318551'
p10
tp11
a(S'Bee Gees'
p12
S'E.S.P.'
p13
S'http://www.last.fm/music/Bee+Gees/_/E.S.P.'
p14
S'1275318347'
p15
tp16
a(S'Stone Temple Pilots'
p17
S'Take a Load Off'
p18
S'http://www.last.fm/music/Stone+Temple+Pilots/_/Take+a+Load+Off'
p19
S'1275317689'
p20
tp21
a(S'Ozzy Osbourne'
p22
S'The Ultimate Sin'
p23
S'http://www.last.fm/music/Ozzy+Osbourne/_/The+Ultimate+Sin'
p24
S'1275317370'
p25
tp26
a(S'Queen'
p27
S'I Want It All'
p28
S'http://www.last.fm/music/Queen/_/I+Want+It+All'
p29
S'1275314703'
p30
tp31
a(S'Lynyrd Skynyrd'
p32
S'Mean Streets'
p33
S'http://www.last.fm/music/Lynyrd+Skynyrd/_/Mean+Streets'
p34
S'1275314422'
p35
tp36
a(S'Iron Maiden'
p37
S'Purgatory'
p38
S'http://www.last.fm/music/Iron+Maiden/_/Purgatory'
p39
S'1275314132'
p40
tp41
a(S'Nirvana'
p42
S'(New Wave) Polly'
p43
S'http://www.last.fm/music/Nirvana/_/(New+Wave)+Polly'
p44
S'1275313932'
p45
tp46
a(S'Daft Punk'
p47
S'Human After All'
p48
S'http://www.last.fm/music/Daft+Punk/_/Human+After+All'
p49
S'1275313824'
p50
tp51
a(S'Alice Cooper'
p52
S'Bed of Nails'
p53
S'http://www.last.fm/music/Alice+Cooper/_/Bed+of+Nails'
p54
S'1275313504'
p55
tp56
a(S'Stone Temple Pilots'
p57
S'Daisy'
p58
S'http://www.last.fm/music/Stone+Temple+Pilots/_/Daisy'
p59
S'1275313238'
p60
tp61
a(S'Queens of the Stone Age'
p62
S"You Think I Ain't Worth a Dollar, But I Feel Like a Millionaire"
p63
S'http://www.last.fm/music/Queens+of+the+Stone+Age/_/You+Think+I+Ain%27t+Worth+a+Dollar,+But+I+Feel+Like+a+Millionaire'
p64
S'1275288119'
p65
tp66
a(S'Stone Temple Pilots'
p67
S'Take a Load Off'
p68
S'http://www.last.fm/music/Stone+Temple+Pilots/_/Take+a+Load+Off'
p69
S'1275287927'
p70
tp71
a(S'Black Sabbath'
p72
S'Behind the Wall of Sleep'
p73
S'http://www.last.fm/music/Black+Sabbath/_/Behind+the+Wall+of+Sleep'
p74
S'1275287725'
p75
tp76
a(S'Ozzy Osbourne'
p77
S'No More Tears'
p78
S'http://www.last.fm/music/Ozzy+Osbourne/_/No+More+Tears'
p79
S'1275287508'
p80
tp81
a(S'Daft Punk'
p82
S'Digital Love'
p83
S'http://www.last.fm/music/Daft+Punk/_/Digital+Love'
p84
S'1275287064'
p85
tp86
a(S'Metallica'
p87
S'Of Wolf and Man'
p88
S'http://www.last.fm/music/Metallica/_/Of+Wolf+and+Man'
p89
S'1275286760'
p90
tp91
a(S'Diamond Head'
p92
S'This Planet and Me'
p93
S'http://www.last.fm/music/Diamond+Head/_/This+Planet+and+Me'
p94
S'1275286503'
p95
tp96
a(S'Metallica'
p97
S'My Friend of Misery'
p98
S'http://www.last.fm/music/Metallica/_/My+Friend+of+Misery'
p99
S'1275286131'
p100
tp101
a(S'Them Crooked Vultures'
p102
S'Bandoliers'
p103
S'http://www.last.fm/music/Them+Crooked+Vultures/_/Bandoliers'
p104
S'1275285721'
p105
tp106
a(S'Soundgarden'
p107
S'Drawing Flies'
p108
S'http://www.last.fm/music/Soundgarden/_/Drawing+Flies'
p109
S'1275285379'
p110
tp111
a(S'Queens of the Stone Age'
p112
S'Feel Good Hit of the Summer'
p113
S'http://www.last.fm/music/Queens+of+the+Stone+Age/_/Feel+Good+Hit+of+the+Summer'
p114
S'1275285232'
p115
tp116
a(S'Velvet Revolver'
p117
S'She Builds Quick Machines'
p118
S'http://www.last.fm/music/Velvet+Revolver/_/She+Builds+Quick+Machines'
p119
S'1275285069'
p120
tp121
a(S'Stone Temple Pilots'
p122
S'Hickory Dichotomy (Live from Chicago)'
p123
S'http://www.last.fm/music/Stone+Temple+Pilots/_/Hickory+Dichotomy+(Live+from+Chicago)'
p124
S'1275284821'
p125
tp126
a(S'Live'
p127
S'They Stood Up For Love'
p128
S'http://www.last.fm/music/Live/_/They+Stood+Up+For+Love'
p129
S'1275284621'
p130
tp131
a(S'Alice in Chains'
p132
S'Junkhead'
p133
S'http://www.last.fm/music/Alice+in+Chains/_/Junkhead'
p134
S'1275283957'
p135
tp136
a(S'Ozzy Osbourne'
p137
S'Denial'
p138
S'http://www.last.fm/music/Ozzy+Osbourne/_/Denial'
p139
S'1275283608'
p140
tp141
a(S'Live'
p142
S'All Over You'
p143
S'http://www.last.fm/music/Live/_/All+Over+You'
p144
S'1275283298'
p145
tp146
a(S'Live'
p147
S'Out To Dry'
p148
S'http://www.last.fm/music/Live/_/Out+To+Dry'
p149
S'1275283014'
p150
tp151
a(S'Alice in Chains'
p152
S'Black Gives Way to Blue'
p153
S'http://www.last.fm/music/Alice+in+Chains/_/Black+Gives+Way+to+Blue'
p154
S'1275282805'
p155
tp156
a(S'Ozzy Osbourne'
p157
S'Slow Down'
p158
S'http://www.last.fm/music/Ozzy+Osbourne/_/Slow+Down'
p159
S'1275282616'
p160
tp161
a(S'Alice in Chains'
p162
S'Got Me Wrong'
p163
S'http://www.last.fm/music/Alice+in+Chains/_/Got+Me+Wrong'
p164
S'1275282359'
p165
tp166
a(S'Jamiroquai'
p167
S'Canned Head (7"Edit)'
p168
S'http://www.last.fm/music/Jamiroquai/_/Canned+Head+(7%22Edit)'
p169
S'1275282059'
p170
tp171
a(S'Ozzy Osbourne'
p172
S"I Don't Wanna Stop"
p173
S'http://www.last.fm/music/Ozzy+Osbourne/_/I+Don%27t+Wanna+Stop'
p174
S'1275281834'
p175
tp176
a(S'Black Sabbath'
p177
S'Supernaut'
p178
S'http://www.last.fm/music/Black+Sabbath/_/Supernaut'
p179
S'1275281594'
p180
tp181
a(S'Alice in Chains'
p182
S"It Ain't Like That"
p183
S'http://www.last.fm/music/Alice+in+Chains/_/It+Ain%27t+Like+That'
p184
S'1275281299'
p185
tp186
a(S'Queens of the Stone Age'
p187
S"You Think I Ain't Worth a Dollar, But I Feel Like a Millionaire"
p188
S'http://www.last.fm/music/Queens+of+the+Stone+Age/_/You+Think+I+Ain%27t+Worth+a+Dollar,+But+I+Feel+Like+a+Millionaire'
p189
S'1275281021'
p190
tp191
a(S'Stone Temple Pilots'
p192
S'Take a Load Off'
p193
S'http://www.last.fm/music/Stone+Temple+Pilots/_/Take+a+Load+Off'
p194
S'1275280828'
p195
tp196
a(S'Black Sabbath'
p197
S'Cornucopia'
p198
S'http://www.last.fm/music/Black+Sabbath/_/Cornucopia'
p199
S'1275280566'
p200
tp201
a(S'Stone Temple Pilots'
p202
S'Hickory Dichotomy'
p203
S'http://www.last.fm/music/Stone+Temple+Pilots/_/Hickory+Dichotomy'
p204
S'1275280331'
p205
tp206
a(S'Soundgarden'
p207
S'4th of July'
p208
S'http://www.last.fm/music/Soundgarden/_/4th+of+July'
p209
S'1275280113'
p210
tp211
a(S'Live'
p212
S'Top'
p213
S'http://www.last.fm/music/Live/_/Top'
p214
S'1275279800'
p215
tp216
a(S'Them Crooked Vultures'
p217
S'Mind Eraser, No Chaser'
p218
S'http://www.last.fm/music/Them+Crooked+Vultures/_/Mind+Eraser,+No+Chaser'
p219
S'1275279637'
p220
tp221
a(S'Live'
p222
S'Top'
p223
S'http://www.last.fm/music/Live/_/Top'
p224
S'1275279383'
p225
tp226
a(S'Them Crooked Vultures'
p227
S'Mind Eraser, No Chaser'
p228
S'http://www.last.fm/music/Them+Crooked+Vultures/_/Mind+Eraser,+No+Chaser'
p229
S'1275279220'
p230
tp231
a(S'Velvet Revolver'
p232
S'She Mine'
p233
S'http://www.last.fm/music/Velvet+Revolver/_/She+Mine'
p234
S'1275278874'
p235
tp236
a(S'Shemekia Copeland'
p237
S'Has Anybody Seen My Man?'
p238
S'http://www.last.fm/music/Shemekia+Copeland/_/Has+Anybody+Seen+My+Man%3F'
p239
S'1275278669'
p240
tp241
a(S'Queens of the Stone Age'
p242
S"3's & 7's"
p243
S'http://www.last.fm/music/Queens+of+the+Stone+Age/_/3%27s+&+7%27s'
p244
S'1275278297'
p245
tp246
a(S'Alice in Chains'
p247
S'No Excuses'
p248
S'http://www.last.fm/music/Alice+in+Chains/_/No+Excuses'
p249
S'1275278075'
p250
tp251
a(S'Nirvana'
p252
S'Breed'
p253
S'http://www.last.fm/music/Nirvana/_/Breed'
p254
S'1275277778'
p255
tp256
a(S'Ozzy Osbourne'
p257
S'Bark at the Moon'
p258
S'http://www.last.fm/music/Ozzy+Osbourne/_/Bark+at+the+Moon'
p259
S'1275277547'
p260
tp261
a(S'Alice in Chains'
p262
S'Sunshine'
p263
S'http://www.last.fm/music/Alice+in+Chains/_/Sunshine'
p264
S'1275277292'
p265
tp266
a(S'Soundgarden'
p267
S'New Damage'
p268
S'http://www.last.fm/music/Soundgarden/_/New+Damage'
p269
S'1275277007'
p270
tp271
a(S'Diamond Head'
p272
S'Fallen Angel'
p273
S'http://www.last.fm/music/Diamond+Head/_/Fallen+Angel'
p274
S'1275276666'
p275
tp276
a(S'Stone Temple Pilots'
p277
S'Between the Lines'
p278
S'http://www.last.fm/music/Stone+Temple+Pilots/_/Between+the+Lines'
p279
S'1275276416'
p280
tp281
a(S'Bee Gees'
p282
S'E.S.P.'
p283
S'http://www.last.fm/music/Bee+Gees/_/E.S.P.'
p284
S'1275276201'
p285
tp286
a(S'Diamond Head'
p287
S'Calling Out'
p288
S'http://www.last.fm/music/Diamond+Head/_/Calling+Out'
p289
S'1275275855'
p290
tp291
a(S'Alice in Chains'
p292
S'Brother'
p293
S'http://www.last.fm/music/Alice+in+Chains/_/Brother'
p294
S'1275275624'
p295
tp296
a(S'Bee Gees'
p297
S'E.S.P.'
p298
S'http://www.last.fm/music/Bee+Gees/_/E.S.P.'
p299
S'1275275331'
p300
tp301
a(S'Stone Temple Pilots'
p302
S'Vasoline (Live from Chicago)'
p303
S'http://www.last.fm/music/Stone+Temple+Pilots/_/Vasoline+(Live+from+Chicago)'
p304
S'1275274996'
p305
tp306
a(S'Bo Diddley'
p307
S'OOPS! Bo Diddley'
p308
S'http://www.last.fm/music/Bo+Diddley/_/OOPS!+Bo+Diddley'
p309
S'1275274804'
p310
tp311
a(S'Queens of the Stone Age'
p312
S'Song For The Dead'
p313
S'http://www.last.fm/music/Queens+of+the+Stone+Age/_/Song+For+The+Dead'
p314
S'1275274363'
p315
tp316
a(S'Metallica'
p317
S"Don't Tread on Me"
p318
S'http://www.last.fm/music/Metallica/_/Don%27t+Tread+on+Me'
p319
S'1275274010'
p320
tp321
a(S'Lynyrd Skynyrd'
p322
S'Through It All'
p323
S'http://www.last.fm/music/Lynyrd+Skynyrd/_/Through+It+All'
p324
S'1275273769'
p325
tp326
a(S'ZZ Top'
p327
S"Deal Goin' Down"
p328
S'http://www.last.fm/music/ZZ+Top/_/Deal+Goin%27+Down'
p329
S'1275273441'
p330
tp331
a(S'Alice Cooper'
p332
S'Run Down the Devil'
p333
S'http://www.last.fm/music/Alice+Cooper/_/Run+Down+the+Devil'
p334
S'1275272219'
p335
tp336
a(S'Judas Priest'
p337
S'Turbo Lover'
p338
S'http://www.last.fm/music/Judas+Priest/_/Turbo+Lover'
p339
S'1275272010'
p340
tp341
a(S'Queens of the Stone Age'
p342
S'God Is in the Radio'
p343
S'http://www.last.fm/music/Queens+of+the+Stone+Age/_/God+Is+in+the+Radio'
p344
S'1275271619'
p345
tp346
a(S'Alice in Chains'
p347
S'Lesson Learned'
p348
S'http://www.last.fm/music/Alice+in+Chains/_/Lesson+Learned'
p349
S'1275271254'
p350
tp351
a(S'Queens of the Stone Age'
p352
S'Into the Hollow'
p353
S'http://www.last.fm/music/Queens+of+the+Stone+Age/_/Into+the+Hollow'
p354
S'1275270996'
p355
tp356
a(S'ZZ Top'
p357
S'Vincent Price Blues'
p358
S'http://www.last.fm/music/ZZ+Top/_/Vincent+Price+Blues'
p359
S'1275270774'
p360
tp361
a(S'Ozzy Osbourne'
p362
S'Shot in the Dark'
p363
S'http://www.last.fm/music/Ozzy+Osbourne/_/Shot+in+the+Dark'
p364
S'1275270410'
p365
tp366
a(S'Rainbow'
p367
S'Gates of Babylon'
p368
S'http://www.last.fm/music/Rainbow/_/Gates+of+Babylon'
p369
S'1275270148'
p370
tp371
a(S'Diamond Head'
p372
S'Prey For Me'
p373
S'http://www.last.fm/music/Diamond+Head/_/Prey+For+Me'
p374
S'1275269738'
p375
tp376
a(S'Daft Punk'
p377
S'Voyager'
p378
S'http://www.last.fm/music/Daft+Punk/_/Voyager'
p379
S'1275269474'
p380
tp381
a(S'Alice in Chains'
p382
S'Take Her Out'
p383
S'http://www.last.fm/music/Alice+in+Chains/_/Take+Her+Out'
p384
S'1275269245'
p385
tp386
a(S'Jamiroquai'
p387
S'You Give Me Something'
p388
S'http://www.last.fm/music/Jamiroquai/_/You+Give+Me+Something'
p389
S'1275268997'
p390
tp391
a(S'Yes'
p392
S'Changes'
p393
S'http://www.last.fm/music/Yes/_/Changes'
p394
S'1275268770'
p395
tp396
a(S'Jamiroquai'
p397
S'Dynamite'
p398
S'http://www.last.fm/music/Jamiroquai/_/Dynamite'
p399
S'1275268390'
p400
tp401
a(S'Them Crooked Vultures'
p402
S'Caligulove'
p403
S'http://www.last.fm/music/Them+Crooked+Vultures/_/Caligulove'
p404
S'1275268139'
p405
tp406
a(S'Jamiroquai'
p407
S'Little L'
p408
S'http://www.last.fm/music/Jamiroquai/_/Little+L'
p409
S'1275267854'
p410
tp411
a(S'Ozzy Osbourne'
p412
S'Ghost Behind My Eyes'
p413
S'http://www.last.fm/music/Ozzy+Osbourne/_/Ghost+Behind+My+Eyes'
p414
S'1275267547'
p415
tp416
a(S'Daft Punk'
p417
S'One More Time'
p418
S'http://www.last.fm/music/Daft+Punk/_/One+More+Time'
p419
S'1275267207'
p420
tp421
a(S'Metallica'
p422
S'Am I Evil'
p423
S'http://www.last.fm/music/Metallica/_/Am+I+Evil'
p424
S'1275266871'
p425
tp426
a(S'Queens of the Stone Age'
p427
S'Lightning Song'
p428
S'http://www.last.fm/music/Queens+of+the+Stone+Age/_/Lightning+Song'
p429
S'1275266396'
p430
tp431
a(S'Lynyrd Skynyrd'
p432
S'Preacher Man'
p433
S'http://www.last.fm/music/Lynyrd+Skynyrd/_/Preacher+Man'
p434
S'1275266246'
p435
tp436
a(S'Ozzy Osbourne'
p437
S'Thunder Underground'
p438
S'http://www.last.fm/music/Ozzy+Osbourne/_/Thunder+Underground'
p439
S'1275265865'
p440
tp441
a(S'Metallica'
p442
S'The God That Failed'
p443
S'http://www.last.fm/music/Metallica/_/The+God+That+Failed'
p444
S'1275265482'
p445
tp446
a(S'Alice Cooper'
p447
S'Perfect'
p448
S'http://www.last.fm/music/Alice+Cooper/_/Perfect'
p449
S'1275265147'
p450
tp451
a(S'Stone Temple Pilots'
p452
S'Between the Lines'
p453
S'http://www.last.fm/music/Stone+Temple+Pilots/_/Between+the+Lines'
p454
S'1275264926'
p455
tp456
a(S'Alice Cooper'
p457
S'Sideshow'
p458
S'http://www.last.fm/music/Alice+Cooper/_/Sideshow'
p459
S'1275264746'
p460
tp461
a(S'Black Sabbath'
p462
S'Paranoid'
p463
S'http://www.last.fm/music/Black+Sabbath/_/Paranoid'
p464
S'1275263298'
p465
tp466
a(S'Nirvana'
p467
S'Dumb'
p468
S'http://www.last.fm/music/Nirvana/_/Dumb'
p469
S'1275263097'
p470
tp471
a(S'AC/DC'
p472
S'Bad Boy Boogie'
p473
S'http://www.last.fm/music/AC%2FDC/_/Bad+Boy+Boogie'
p474
S'1275262924'
p475
tp476
a(S'Alice in Chains'
p477
S'Check My Brain'
p478
S'http://www.last.fm/music/Alice+in+Chains/_/Check+My+Brain'
p479
S'1275262475'
p480
tp481
a(S'Alice in Chains'
p482
S'We Die Young (Demo)'
p483
S'http://www.last.fm/music/Alice+in+Chains/_/We+Die+Young+(Demo)'
p484
S'1275262238'
p485
tp486
a(S'Live'
p487
S'Heropsychodreamer'
p488
S'http://www.last.fm/music/Live/_/Heropsychodreamer'
p489
S'1275262091'
p490
tp491
a(S'Ozzy Osbourne'
p492
S'Bark at the Moon'
p493
S'http://www.last.fm/music/Ozzy+Osbourne/_/Bark+at+the+Moon'
p494
S'1275261889'
p495
tp496
a(S'Alice in Chains'
p497
S'Sunshine'
p498
S'http://www.last.fm/music/Alice+in+Chains/_/Sunshine'
p499
S'1275261634'
p500
tp501
a(S'Stone Temple Pilots'
p502
S'Between the Lines'
p503
S'http://www.last.fm/music/Stone+Temple+Pilots/_/Between+the+Lines'
p504
S'1275261283'
p505
tp506
a(S'Black Sabbath'
p507
S'Cornucopia'
p508
S'http://www.last.fm/music/Black+Sabbath/_/Cornucopia'
p509
S'1275261099'
p510
tp511
a(S'Stone Temple Pilots'
p512
S'Hickory Dichotomy'
p513
S'http://www.last.fm/music/Stone+Temple+Pilots/_/Hickory+Dichotomy'
p514
S'1275260864'
p515
tp516
a(S'Bee Gees'
p517
S'E.S.P.'
p518
S'http://www.last.fm/music/Bee+Gees/_/E.S.P.'
p519
S'1275260646'
p520
tp521
a(S'Queens of the Stone Age'
p522
S"You Think I Ain't Worth a Dollar, But I Feel Like a Millionaire"
p523
S'http://www.last.fm/music/Queens+of+the+Stone+Age/_/You+Think+I+Ain%27t+Worth+a+Dollar,+But+I+Feel+Like+a+Millionaire'
p524
S'1275260242'
p525
tp526
a(S'Stone Temple Pilots'
p527
S'Take a Load Off'
p528
S'http://www.last.fm/music/Stone+Temple+Pilots/_/Take+a+Load+Off'
p529
S'1275259919'
p530
tp531
a(S'Stone Temple Pilots'
p532
S'Between the Lines'
p533
S'http://www.last.fm/music/Stone+Temple+Pilots/_/Between+the+Lines'
p534
S'1275259718'
p535
tp536
a(S'Stone Temple Pilots'
p537
S'Huckleberry Crumble'
p538
S'http://www.last.fm/music/Stone+Temple+Pilots/_/Huckleberry+Crumble'
p539
S'1275259535'
p540
tp541
a(S'Ozzy Osbourne'
p542
S"My Jekyll Doesn't Hide"
p543
S'http://www.last.fm/music/Ozzy+Osbourne/_/My+Jekyll+Doesn%27t+Hide'
p544
S'1275199841'
p545
tp546
a(S'Live'
p547
S'What Are We Fighting For?'
p548
S'http://www.last.fm/music/Live/_/What+Are+We+Fighting+For%3F'
p549
S'1275199448'
p550
tp551
a(S'Ozzy Osbourne'
p552
S'Road To Nowhere'
p553
S'http://www.last.fm/music/Ozzy+Osbourne/_/Road+To+Nowhere'
p554
S'1275199246'
p555
tp556
a(S'Jamiroquai'
p557
S'Seven Days in Sunny June'
p558
S'http://www.last.fm/music/Jamiroquai/_/Seven+Days+in+Sunny+June'
p559
S'1275199067'
p560
tp561
a(S'Judas Priest'
p562
S'Turbo Lover'
p563
S'http://www.last.fm/music/Judas+Priest/_/Turbo+Lover'
p564
S'1275198816'
p565
tp566
a(S'ZZ Top'
p567
S'Fuzzbox Voodoo'
p568
S'http://www.last.fm/music/ZZ+Top/_/Fuzzbox+Voodoo'
p569
S'1275198440'
p570
tp571
a(S'Live'
p572
S'Like A Soldier'
p573
S'http://www.last.fm/music/Live/_/Like+A+Soldier'
p574
S'1275198157'
p575
tp576
a(S'Alice in Chains'
p577
S'Down in a Hole'
p578
S'http://www.last.fm/music/Alice+in+Chains/_/Down+in+a+Hole'
p579
S'1275197961'
p580
tp581
a(S'Live'
p582
S'Nobody Knows'
p583
S'http://www.last.fm/music/Live/_/Nobody+Knows'
p584
S'1275197606'
p585
tp586
a(S'Live'
p587
S'I Alone'
p588
S'http://www.last.fm/music/Live/_/I+Alone'
p589
S'1275197339'
p590
tp591
a(S'Bee Gees'
p592
S'E.S.P.'
p593
S'http://www.last.fm/music/Bee+Gees/_/E.S.P.'
p594
S'1275197093'
p595
tp596
a(S'Metallica'
p597
S'Phantom Lord'
p598
S'http://www.last.fm/music/Metallica/_/Phantom+Lord'
p599
S'1275196650'
p600
tp601
a(S'Army Of Anyone'
p602
S'Non Stop'
p603
S'http://www.last.fm/music/Army+Of+Anyone/_/Non+Stop'
p604
S'1275196421'
p605
tp606
a(S'Bee Gees'
p607
S'E.S.P.'
p608
S'http://www.last.fm/music/Bee+Gees/_/E.S.P.'
p609
S'1275196169'
p610
tp611
a(S'Them Crooked Vultures'
p612
S'Bandoliers'
p613
S'http://www.last.fm/music/Them+Crooked+Vultures/_/Bandoliers'
p614
S'1275195826'
p615
tp616
a(S'Diamond Head'
p617
S'Give It to Me'
p618
S'http://www.last.fm/music/Diamond+Head/_/Give+It+to+Me'
p619
S'1275195466'
p620
tp621
a(S'Alice in Chains'
p622
S'Confusion'
p623
S'http://www.last.fm/music/Alice+in+Chains/_/Confusion'
p624
S'1275195281'
p625
tp626
a(S'Stone Temple Pilots'
p627
S'Between the Lines'
p628
S'http://www.last.fm/music/Stone+Temple+Pilots/_/Between+the+Lines'
p629
S'1275194937'
p630
tp631
a(S'Bo Diddley'
p632
S'Hey Baby'
p633
S'http://www.last.fm/music/Bo+Diddley/_/Hey+Baby'
p634
S'1275194767'
p635
tp636
a(S'Black Sabbath'
p637
S'Looking for Today'
p638
S'http://www.last.fm/music/Black+Sabbath/_/Looking+for+Today'
p639
S'1275194566'
p640
tp641
a(S'Live'
p642
S'Pillar Of Davidson'
p643
S'http://www.last.fm/music/Live/_/Pillar+Of+Davidson'
p644
S'1275192839'
p645
tp646
a(S'Stone Temple Pilots'
p647
S'Peacoat'
p648
S'http://www.last.fm/music/Stone+Temple+Pilots/_/Peacoat'
p649
S'1275192433'
p650
tp651
a(S'Jamiroquai'
p652
S'Love Blind'
p653
S'http://www.last.fm/music/Jamiroquai/_/Love+Blind'
p654
S'1275192224'
p655
tp656
a(S'Velvet Revolver'
p657
S'Messages'
p658
S'http://www.last.fm/music/Velvet+Revolver/_/Messages'
p659
S'1275192078'
p660
tp661
a(S'Live'
p662
S'Where Fishes Go'
p663
S'http://www.last.fm/music/Live/_/Where+Fishes+Go'
p664
S'1275191791'
p665
tp666
a(S'Queens of the Stone Age'
p667
S"Someone's in the Wolf"
p668
S'http://www.last.fm/music/Queens+of+the+Stone+Age/_/Someone%27s+in+the+Wolf'
p669
S'1275191529'
p670
tp671
a(S'Jamiroquai'
p672
S'Feels Just Like It Should'
p673
S'http://www.last.fm/music/Jamiroquai/_/Feels+Just+Like+It+Should'
p674
S'1275191093'
p675
tp676
a(S'Queens of the Stone Age'
p677
S'The Lost Art of Keeping a Secret'
p678
S'http://www.last.fm/music/Queens+of+the+Stone+Age/_/The+Lost+Art+of+Keeping+a+Secret'
p679
S'1275190876'
p680
tp681
a(S'Daft Punk'
p682
S'One More Time'
p683
S'http://www.last.fm/music/Daft+Punk/_/One+More+Time'
p684
S'1275190660'
p685
tp686
a(S'Nirvana'
p687
S'Gallons Of Rubbing Alcohol Flow Through The Strip'
p688
S'http://www.last.fm/music/Nirvana/_/Gallons+Of+Rubbing+Alcohol+Flow+Through+The+Strip'
p689
S'1275190339'
p690
tp691
a(S'Black Sabbath'
p692
S'Thrill of it All'
p693
S'http://www.last.fm/music/Black+Sabbath/_/Thrill+of+it+All'
p694
S'1275189887'
p695
tp696
a(S'Diamond Head'
p697
S'Prey For Me'
p698
S'http://www.last.fm/music/Diamond+Head/_/Prey+For+Me'
p699
S'1275189531'
p700
tp701
a(S'Black Sabbath'
p702
S'Snowblind'
p703
S'http://www.last.fm/music/Black+Sabbath/_/Snowblind'
p704
S'1275189267'
p705
tp706
a(S'Nirvana'
p707
S'Downer'
p708
S'http://www.last.fm/music/Nirvana/_/Downer'
p709
S'1275188934'
p710
tp711
a(S'Alice in Chains'
p712
S'Sickman'
p713
S'http://www.last.fm/music/Alice+in+Chains/_/Sickman'
p714
S'1275188832'
p715
tp716
a(S'AC/DC'
p717
S'Problem Child'
p718
S'http://www.last.fm/music/AC%2FDC/_/Problem+Child'
p719
S'1275188503'
p720
tp721
a(S'Daft Punk'
p722
S'Veridis Quo'
p723
S'http://www.last.fm/music/Daft+Punk/_/Veridis+Quo'
p724
S'1275188226'
p725
tp726
a(S'Soundgarden'
p727
S'Half'
p728
S'http://www.last.fm/music/Soundgarden/_/Half'
p729
S'1275187885'
p730
tp731
a(S'Black Sabbath'
p732
S'Iron Man'
p733
S'http://www.last.fm/music/Black+Sabbath/_/Iron+Man'
p734
S'1275187752'
p735
tp736
a(S'Velvet Revolver'
p737
S'Let It Roll'
p738
S'http://www.last.fm/music/Velvet+Revolver/_/Let+It+Roll'
p739
S'1275187396'
p740
tp741
a(S'Diamond Head'
p742
S'Muddy Waters'
p743
S'http://www.last.fm/music/Diamond+Head/_/Muddy+Waters'
p744
S'1275187243'
p745
tp746
a(S'Daft Punk'
p747
S'Around the World'
p748
S'http://www.last.fm/music/Daft+Punk/_/Around+the+World'
p749
S'1275186968'
p750
tp751
a(S'Daft Punk'
p752
S'Digital Love'
p753
S'http://www.last.fm/music/Daft+Punk/_/Digital+Love'
p754
S'1275186508'
p755
tp756
a(S'Alice in Chains'
p757
S'We Die Young'
p758
S'http://www.last.fm/music/Alice+in+Chains/_/We+Die+Young'
p759
S'1275186078'
p760
tp761
a(S'Nirvana'
p762
S'All Apologies'
p763
S'http://www.last.fm/music/Nirvana/_/All+Apologies'
p764
S'1275185919'
p765
tp766
a(S'Nirvana'
p767
S'Lake Of Fire'
p768
S'http://www.last.fm/music/Nirvana/_/Lake+Of+Fire'
p769
S'1275185656'
p770
tp771
a(S'Nirvana'
p772
S'Oh Me'
p773
S'http://www.last.fm/music/Nirvana/_/Oh+Me'
p774
S'1275185480'
p775
tp776
a(S'Nirvana'
p777
S'Plateau'
p778
S'http://www.last.fm/music/Nirvana/_/Plateau'
p779
S'1275185274'
p780
tp781
a(S'Nirvana'
p782
S'Something in the Way'
p783
S'http://www.last.fm/music/Nirvana/_/Something+in+the+Way'
p784
S'1275185056'
p785
tp786
a(S'Nirvana'
p787
S'On a Plain'
p788
S'http://www.last.fm/music/Nirvana/_/On+a+Plain'
p789
S'1275184815'
p790
tp791
a(S'Nirvana'
p792
S'Polly'
p793
S'http://www.last.fm/music/Nirvana/_/Polly'
p794
S'1275184590'
p795
tp796
a(S'Nirvana'
p797
S'Dumb'
p798
S'http://www.last.fm/music/Nirvana/_/Dumb'
p799
S'1275184394'
p800
tp801
a(S'Nirvana'
p802
S'Pennyroyal Tea'
p803
S'http://www.last.fm/music/Nirvana/_/Pennyroyal+Tea'
p804
S'1275184221'
p805
tp806
a(S'Nirvana'
p807
S'The Man Who Sold the World'
p808
S'http://www.last.fm/music/Nirvana/_/The+Man+Who+Sold+the+World'
p809
S'1275184001'
p810
tp811
a(S'Nirvana'
p812
S"Jesus Doesn't Want Me For A Sunbeam"
p813
S'http://www.last.fm/music/Nirvana/_/Jesus+Doesn%27t+Want+Me+For+A+Sunbeam'
p814
S'1275183740'
p815
tp816
a(S'ZZ Top'
p817
S"She's Just Killing Me"
p818
S'http://www.last.fm/music/ZZ+Top/_/She%27s+Just+Killing+Me'
p819
S'1275183421'
p820
tp821
a(S'Nirvana'
p822
S'About a Girl'
p823
S'http://www.last.fm/music/Nirvana/_/About+a+Girl'
p824
S'1275183123'
p825
tp826
a(S'Nirvana'
p827
S'Plateau'
p828
S'http://www.last.fm/music/Nirvana/_/Plateau'
p829
S'1275182905'
p830
tp831
a(S'AC/DC'
p832
S'Show Business'
p833
S'http://www.last.fm/music/AC%2FDC/_/Show+Business'
p834
S'1275182676'
p835
tp836
a(S'Black Sabbath'
p837
S'Wishing Well'
p838
S'http://www.last.fm/music/Black+Sabbath/_/Wishing+Well'
p839
S'1275182389'
p840
tp841
a(S'Black Sabbath'
p842
S'A National Acrobat'
p843
S'http://www.last.fm/music/Black+Sabbath/_/A+National+Acrobat'
p844
S'1275182127'
p845
tp846
a(S'AC/DC'
p847
S'High Voltage'
p848
S'http://www.last.fm/music/AC%2FDC/_/High+Voltage'
p849
S'1275181750'
p850
tp851
a(S'Soundgarden'
p852
S'Somewhere'
p853
S'http://www.last.fm/music/Soundgarden/_/Somewhere'
p854
S'1275181445'
p855
tp856
a(S'Daft Punk'
p857
S'One More Time'
p858
S'http://www.last.fm/music/Daft+Punk/_/One+More+Time'
p859
S'1275181185'
p860
tp861
a(S'Bee Gees'
p862
S'E.S.P.'
p863
S'http://www.last.fm/music/Bee+Gees/_/E.S.P.'
p864
S'1275180849'
p865
tp866
a(S'ZZ Top'
p867
S'Loaded'
p868
S'http://www.last.fm/music/ZZ+Top/_/Loaded'
p869
S'1275180515'
p870
tp871
a(S'Nirvana'
p872
S'Dumb'
p873
S'http://www.last.fm/music/Nirvana/_/Dumb'
p874
S'1275180366'
p875
tp876
a(S'Live'
p877
S'White, Discussion'
p878
S'http://www.last.fm/music/Live/_/White,+Discussion'
p879
S'1275180214'
p880
tp881
a(S'Jerry Cantrell'
p882
S'Hurt A Long Time'
p883
S'http://www.last.fm/music/Jerry+Cantrell/_/Hurt+A+Long+Time'
p884
S'1275178976'
p885
tp886
a(S'Bee Gees'
p887
S'E.S.P.'
p888
S'http://www.last.fm/music/Bee+Gees/_/E.S.P.'
p889
S'1275178628'
p890
tp891
a(S'ZZ Top'
p892
S'Pincushion'
p893
S'http://www.last.fm/music/ZZ+Top/_/Pincushion'
p894
S'1275178280'
p895
tp896
a(S'Bee Gees'
p897
S'E.S.P.'
p898
S'http://www.last.fm/music/Bee+Gees/_/E.S.P.'
p899
S'1275178001'
p900
tp901
a(S'Bee Gees'
p902
S'E.S.P.'
p903
S'http://www.last.fm/music/Bee+Gees/_/E.S.P.'
p904
S'1275177632'
p905
tp906
a(S'Bo Diddley'
p907
S'Can I Walk You Home'
p908
S'http://www.last.fm/music/Bo+Diddley/_/Can+I+Walk+You+Home'
p909
S'1275177290'
p910
tp911
a(S'Velvet Revolver'
p912
S'Mary Mary'
p913
S'http://www.last.fm/music/Velvet+Revolver/_/Mary+Mary'
p914
S'1275176957'
p915
tp916
a(S'Soundgarden'
p917
S'Mind Riot'
p918
S'http://www.last.fm/music/Soundgarden/_/Mind+Riot'
p919
S'1275176683'
p920
tp921
a(S'Ozzy Osbourne'
p922
S'Lay Your World on Me'
p923
S'http://www.last.fm/music/Ozzy+Osbourne/_/Lay+Your+World+on+Me'
p924
S'1275176394'
p925
tp926
a(S'Stone Temple Pilots'
p927
S'Take a Load Off'
p928
S'http://www.last.fm/music/Stone+Temple+Pilots/_/Take+a+Load+Off'
p929
S'1275176120'
p930
tp931
a(S'Stone Temple Pilots'
p932
S'Huckleberry Crumble'
p933
S'http://www.last.fm/music/Stone+Temple+Pilots/_/Huckleberry+Crumble'
p934
S'1275175915'
p935
tp936
a(S'Stone Temple Pilots'
p937
S'Hickory Dichotomy'
p938
S'http://www.last.fm/music/Stone+Temple+Pilots/_/Hickory+Dichotomy'
p939
S'1275175704'
p940
tp941
a(S'Stone Temple Pilots'
p942
S'Between the Lines'
p943
S'http://www.last.fm/music/Stone+Temple+Pilots/_/Between+the+Lines'
p944
S'1275175500'
p945
tp946
a(S'Stone Temple Pilots'
p947
S'Between the Lines'
p948
S'http://www.last.fm/music/Stone+Temple+Pilots/_/Between+the+Lines'
p949
S'1275175500'
p950
tp951
a(S'Stone Temple Pilots'
p952
S'Between The Lines (Live from Chicago)'
p953
S'http://www.last.fm/music/Stone+Temple+Pilots/_/Between+The+Lines+(Live+from+Chicago)'
p954
S'1275175279'
p955
tp956
a(S'Stone Temple Pilots'
p957
S'Between The Lines (Live from Chicago)'
p958
S'http://www.last.fm/music/Stone+Temple+Pilots/_/Between+The+Lines+(Live+from+Chicago)'
p959
S'1275175279'
p960
tp961
a(S'Stone Temple Pilots'
p962
S'Take a Load Off'
p963
S'http://www.last.fm/music/Stone+Temple+Pilots/_/Take+a+Load+Off'
p964
S'1275175104'
p965
tp966
a(S'Stone Temple Pilots'
p967
S'Take a Load Off'
p968
S'http://www.last.fm/music/Stone+Temple+Pilots/_/Take+a+Load+Off'
p969
S'1275175104'
p970
tp971
a(S'Stone Temple Pilots'
p972
S'Peacoat'
p973
S'http://www.last.fm/music/Stone+Temple+Pilots/_/Peacoat'
p974
S'1275173697'
p975
tp976
a(S'Stone Temple Pilots'
p977
S'Huckleberry Crumble'
p978
S'http://www.last.fm/music/Stone+Temple+Pilots/_/Huckleberry+Crumble'
p979
S'1275169846'
p980
tp981
a(S'Stone Temple Pilots'
p982
S'Between the Lines'
p983
S'http://www.last.fm/music/Stone+Temple+Pilots/_/Between+the+Lines'
p984
S'1275169655'
p985
tp986
a(S'Stone Temple Pilots'
p987
S'Take a Load Off'
p988
S'http://www.last.fm/music/Stone+Temple+Pilots/_/Take+a+Load+Off'
p989
S'1275169469'
p990
tp991
a(S'Stone Temple Pilots'
p992
S'Peacoat'
p993
S'http://www.last.fm/music/Stone+Temple+Pilots/_/Peacoat'
p994
S'1275169181'
p995
tp996
a(S'Stone Temple Pilots'
p997
S'Take a Load Off'
p998
S'http://www.last.fm/music/Stone+Temple+Pilots/_/Take+a+Load+Off'
p999
S'1275168898'
p1000
tp1001
a.