(lp1
(S'Daft Punk'
p2
S'Get Lucky (feat. Pharrell Williams)'
p3
S'http://www.last.fm/music/Daft+Punk/_/Get+Lucky+(feat.+Pharrell+Williams)'
p4
S'1373475833'
p5
tp6
a(S'Alice in Chains'
p7
S'Voices'
p8
S'http://www.last.fm/music/Alice+in+Chains/_/Voices'
p9
S'1373474826'
p10
tp11
a(S'Rainbow'
p12
S'Kill the King'
p13
S'http://www.last.fm/music/Rainbow/_/Kill+the+King'
p14
S'1373474555'
p15
tp16
a(S'Alice in Chains'
p17
S'Breath on a Window'
p18
S'http://www.last.fm/music/Alice+in+Chains/_/Breath+on+a+Window'
p19
S'1373474237'
p20
tp21
a(S'Daft Punk'
p22
S'Fragments of Time (feat. Todd Edwards)'
p23
S'http://www.last.fm/music/Daft+Punk/_/Fragments+of+Time+(feat.+Todd+Edwards)'
p24
S'1373473824'
p25
tp26
a(S'Daft Punk'
p27
S"Doin' It Right (feat. Panda Bear)"
p28
S'http://www.last.fm/music/Daft+Punk/_/Doin%27+It+Right+(feat.+Panda+Bear)'
p29
S'1373473572'
p30
tp31
a(S'Daft Punk'
p32
S'Horizon (Japan Bonus Track)'
p33
S'http://www.last.fm/music/Daft+Punk/_/Horizon+(Japan+Bonus+Track)'
p34
S'1373473307'
p35
tp36
a(S'Daft Punk'
p37
S'Within'
p38
S'http://www.last.fm/music/Daft+Punk/_/Within'
p39
S'1373473078'
p40
tp41
a(S'Daft Punk'
p42
S'Instant Crush (feat. Julian Casablancas)'
p43
S'http://www.last.fm/music/Daft+Punk/_/Instant+Crush+(feat.+Julian+Casablancas)'
p44
S'1373472739'
p45
tp46
a(S'Alice in Chains'
p47
S'Hollow'
p48
S'http://www.last.fm/music/Alice+in+Chains/_/Hollow'
p49
S'1373472366'
p50
tp51
a(S'Alice in Chains'
p52
S'Voices'
p53
S'http://www.last.fm/music/Alice+in+Chains/_/Voices'
p54
S'1373043440'
p55
tp56
a(S'Daft Punk'
p57
S"Doin' It Right (feat. Panda Bear)"
p58
S'http://www.last.fm/music/Daft+Punk/_/Doin%27+It+Right+(feat.+Panda+Bear)'
p59
S'1373043190'
p60
tp61
a(S'Rainbow'
p62
S'Kill the King'
p63
S'http://www.last.fm/music/Rainbow/_/Kill+the+King'
p64
S'1373042920'
p65
tp66
a(S'Alice in Chains'
p67
S'Pretty Done'
p68
S'http://www.last.fm/music/Alice+in+Chains/_/Pretty+Done'
p69
S'1373042645'
p70
tp71
a(S'Daft Punk'
p72
S'Contact'
p73
S'http://www.last.fm/music/Daft+Punk/_/Contact'
p74
S'1373042265'
p75
tp76
a(S'Alice in Chains'
p77
S'Hollow'
p78
S'http://www.last.fm/music/Alice+in+Chains/_/Hollow'
p79
S'1373041925'
p80
tp81
a(S'Alice in Chains'
p82
S'Phantom Limb'
p83
S'http://www.last.fm/music/Alice+in+Chains/_/Phantom+Limb'
p84
S'1373041496'
p85
tp86
a(S'Daft Punk'
p87
S'Instant Crush (feat. Julian Casablancas)'
p88
S'http://www.last.fm/music/Daft+Punk/_/Instant+Crush+(feat.+Julian+Casablancas)'
p89
S'1373041160'
p90
tp91
a(S'Rainbow'
p92
S'Catch the Rainbow'
p93
S'http://www.last.fm/music/Rainbow/_/Catch+the+Rainbow'
p94
S'1373040769'
p95
tp96
a(S'Alice in Chains'
p97
S'Breath on a Window'
p98
S'http://www.last.fm/music/Alice+in+Chains/_/Breath+on+a+Window'
p99
S'1373040450'
p100
tp101
a(S'Daft Punk'
p102
S'Get Lucky (feat. Pharrell Williams)'
p103
S'http://www.last.fm/music/Daft+Punk/_/Get+Lucky+(feat.+Pharrell+Williams)'
p104
S'1373040082'
p105
tp106
a(S'Daft Punk'
p107
S'Motherboard'
p108
S'http://www.last.fm/music/Daft+Punk/_/Motherboard'
p109
S'1373039740'
p110
tp111
a(S'Alice in Chains'
p112
S'Choke'
p113
S'http://www.last.fm/music/Alice+in+Chains/_/Choke'
p114
S'1373039396'
p115
tp116
a(S'Daft Punk'
p117
S'Fragments of Time (feat. Todd Edwards)'
p118
S'http://www.last.fm/music/Daft+Punk/_/Fragments+of+Time+(feat.+Todd+Edwards)'
p119
S'1373039118'
p120
tp121
a(S'Alice in Chains'
p122
S'The Devil Put Dinosaurs Here'
p123
S'http://www.last.fm/music/Alice+in+Chains/_/The+Devil+Put+Dinosaurs+Here'
p124
S'1373038721'
p125
tp126
a(S'Alice in Chains'
p127
S'Lab Monkey'
p128
S'http://www.last.fm/music/Alice+in+Chains/_/Lab+Monkey'
p129
S'1373038361'
p130
tp131
a(S'Daft Punk'
p132
S'Lose Yourself to Dance (feat. Pharrell Williams)'
p133
S'http://www.last.fm/music/Daft+Punk/_/Lose+Yourself+to+Dance+(feat.+Pharrell+Williams)'
p134
S'1373038009'
p135
tp136
a(S'Alice in Chains'
p137
S'Stone'
p138
S'http://www.last.fm/music/Alice+in+Chains/_/Stone'
p139
S'1373037747'
p140
tp141
a(S'Alice in Chains'
p142
S'Scalpel'
p143
S'http://www.last.fm/music/Alice+in+Chains/_/Scalpel'
p144
S'1373037425'
p145
tp146
a(S'Alice in Chains'
p147
S'Low Ceiling'
p148
S'http://www.last.fm/music/Alice+in+Chains/_/Low+Ceiling'
p149
S'1373037109'
p150
tp151
a(S'Daft Punk'
p152
S'Within'
p153
S'http://www.last.fm/music/Daft+Punk/_/Within'
p154
S'1373036881'
p155
tp156
a(S'Daft Punk'
p157
S'Beyond'
p158
S'http://www.last.fm/music/Daft+Punk/_/Beyond'
p159
S'1373036590'
p160
tp161
a(S'Daft Punk'
p162
S'Touch (feat. Paul Williams)'
p163
S'http://www.last.fm/music/Daft+Punk/_/Touch+(feat.+Paul+Williams)'
p164
S'1373036090'
p165
tp166
a(S'Daft Punk'
p167
S'Horizon (Japan Bonus Track)'
p168
S'http://www.last.fm/music/Daft+Punk/_/Horizon+(Japan+Bonus+Track)'
p169
S'1373035825'
p170
tp171
a(S'Alice in Chains'
p172
S'Hung on a Hook'
p173
S'http://www.last.fm/music/Alice+in+Chains/_/Hung+on+a+Hook'
p174
S'1373035492'
p175
tp176
a(S'Dio'
p177
S'Holy Diver'
p178
S'http://www.last.fm/music/Dio/_/Holy+Diver'
p179
S'1373035141'
p180
tp181
a(S'Daft Punk'
p182
S'Give Life Back to Music'
p183
S'http://www.last.fm/music/Daft+Punk/_/Give+Life+Back+to+Music'
p184
S'1373034866'
p185
tp186
a(S'Daft Punk'
p187
S'Giorgio by Moroder'
p188
S'http://www.last.fm/music/Daft+Punk/_/Giorgio+by+Moroder'
p189
S'1373034321'
p190
tp191
a(S'Alice in Chains'
p192
S'Voices'
p193
S'http://www.last.fm/music/Alice+in+Chains/_/Voices'
p194
S'1373033979'
p195
tp196
a(S'Daft Punk'
p197
S"Doin' It Right (feat. Panda Bear)"
p198
S'http://www.last.fm/music/Daft+Punk/_/Doin%27+It+Right+(feat.+Panda+Bear)'
p199
S'1373033728'
p200
tp201
a(S'Rainbow'
p202
S'Kill the King'
p203
S'http://www.last.fm/music/Rainbow/_/Kill+the+King'
p204
S'1373033452'
p205
tp206
a(S'Alice in Chains'
p207
S'Pretty Done'
p208
S'http://www.last.fm/music/Alice+in+Chains/_/Pretty+Done'
p209
S'1373033177'
p210
tp211
a(S'Daft Punk'
p212
S'Contact'
p213
S'http://www.last.fm/music/Daft+Punk/_/Contact'
p214
S'1373032790'
p215
tp216
a(S'Alice in Chains'
p217
S'Hollow'
p218
S'http://www.last.fm/music/Alice+in+Chains/_/Hollow'
p219
S'1373032450'
p220
tp221
a(S'Alice in Chains'
p222
S'Phantom Limb'
p223
S'http://www.last.fm/music/Alice+in+Chains/_/Phantom+Limb'
p224
S'1373032021'
p225
tp226
a(S'Daft Punk'
p227
S'Instant Crush (feat. Julian Casablancas)'
p228
S'http://www.last.fm/music/Daft+Punk/_/Instant+Crush+(feat.+Julian+Casablancas)'
p229
S'1373031684'
p230
tp231
a(S'Daft Punk'
p232
S'Instant Crush (feat. Julian Casablancas)'
p233
S'http://www.last.fm/music/Daft+Punk/_/Instant+Crush+(feat.+Julian+Casablancas)'
p234
S'1373027355'
p235
tp236
a(S'Dio'
p237
S'Holy Diver'
p238
S'http://www.last.fm/music/Dio/_/Holy+Diver'
p239
S'1373027004'
p240
tp241
a(S'Daft Punk'
p242
S'Instant Crush (feat. Julian Casablancas)'
p243
S'http://www.last.fm/music/Daft+Punk/_/Instant+Crush+(feat.+Julian+Casablancas)'
p244
S'1373026668'
p245
tp246
a(S'Daft Punk'
p247
S'Instant Crush (feat. Julian Casablancas)'
p248
S'http://www.last.fm/music/Daft+Punk/_/Instant+Crush+(feat.+Julian+Casablancas)'
p249
S'1373026312'
p250
tp251
a(S'Alice in Chains'
p252
S'Choke'
p253
S'http://www.last.fm/music/Alice+in+Chains/_/Choke'
p254
S'1372945950'
p255
tp256
a(S'Daft Punk'
p257
S'Get Lucky (feat. Pharrell Williams)'
p258
S'http://www.last.fm/music/Daft+Punk/_/Get+Lucky+(feat.+Pharrell+Williams)'
p259
S'1372945582'
p260
tp261
a(S'Daft Punk'
p262
S'Instant Crush (feat. Julian Casablancas)'
p263
S'http://www.last.fm/music/Daft+Punk/_/Instant+Crush+(feat.+Julian+Casablancas)'
p264
S'1372942368'
p265
tp266
a(S'Daft Punk'
p267
S'Touch (feat. Paul Williams)'
p268
S'http://www.last.fm/music/Daft+Punk/_/Touch+(feat.+Paul+Williams)'
p269
S'1372941867'
p270
tp271
a(S'Alice in Chains'
p272
S'Voices'
p273
S'http://www.last.fm/music/Alice+in+Chains/_/Voices'
p274
S'1372941524'
p275
tp276
a(S'Alice in Chains'
p277
S'Stone'
p278
S'http://www.last.fm/music/Alice+in+Chains/_/Stone'
p279
S'1372941260'
p280
tp281
a(S'Daft Punk'
p282
S'Giorgio by Moroder'
p283
S'http://www.last.fm/music/Daft+Punk/_/Giorgio+by+Moroder'
p284
S'1372940717'
p285
tp286
a(S'Daft Punk'
p287
S'Beyond'
p288
S'http://www.last.fm/music/Daft+Punk/_/Beyond'
p289
S'1372940421'
p290
tp291
a(S'Daft Punk'
p292
S'Instant Crush (feat. Julian Casablancas)'
p293
S'http://www.last.fm/music/Daft+Punk/_/Instant+Crush+(feat.+Julian+Casablancas)'
p294
S'1372854932'
p295
tp296
a(S'Daft Punk'
p297
S'Touch (feat. Paul Williams)'
p298
S'http://www.last.fm/music/Daft+Punk/_/Touch+(feat.+Paul+Williams)'
p299
S'1372854432'
p300
tp301
a(S'Alice in Chains'
p302
S'Voices'
p303
S'http://www.last.fm/music/Alice+in+Chains/_/Voices'
p304
S'1372854091'
p305
tp306
a(S'Alice in Chains'
p307
S'Stone'
p308
S'http://www.last.fm/music/Alice+in+Chains/_/Stone'
p309
S'1372853826'
p310
tp311
a(S'Daft Punk'
p312
S'Giorgio by Moroder'
p313
S'http://www.last.fm/music/Daft+Punk/_/Giorgio+by+Moroder'
p314
S'1372853278'
p315
tp316
a(S'Alice in Chains'
p317
S'Breath on a Window'
p318
S'http://www.last.fm/music/Alice+in+Chains/_/Breath+on+a+Window'
p319
S'1372804519'
p320
tp321
a(S'Alice in Chains'
p322
S'Low Ceiling'
p323
S'http://www.last.fm/music/Alice+in+Chains/_/Low+Ceiling'
p324
S'1372804202'
p325
tp326
a(S'Alice in Chains'
p327
S'The Devil Put Dinosaurs Here'
p328
S'http://www.last.fm/music/Alice+in+Chains/_/The+Devil+Put+Dinosaurs+Here'
p329
S'1372803802'
p330
tp331
a(S'Daft Punk'
p332
S'Touch (feat. Paul Williams)'
p333
S'http://www.last.fm/music/Daft+Punk/_/Touch+(feat.+Paul+Williams)'
p334
S'1372799618'
p335
tp336
a(S'Daft Punk'
p337
S'Fragments of Time (feat. Todd Edwards)'
p338
S'http://www.last.fm/music/Daft+Punk/_/Fragments+of+Time+(feat.+Todd+Edwards)'
p339
S'1372799337'
p340
tp341
a(S'Dio'
p342
S'Holy Diver'
p343
S'http://www.last.fm/music/Dio/_/Holy+Diver'
p344
S'1372798984'
p345
tp346
a(S'Rainbow'
p347
S'Catch the Rainbow'
p348
S'http://www.last.fm/music/Rainbow/_/Catch+the+Rainbow'
p349
S'1372798591'
p350
tp351
a(S'Alice in Chains'
p352
S'Hung on a Hook'
p353
S'http://www.last.fm/music/Alice+in+Chains/_/Hung+on+a+Hook'
p354
S'1372798256'
p355
tp356
a(S'Alice in Chains'
p357
S'Pretty Done'
p358
S'http://www.last.fm/music/Alice+in+Chains/_/Pretty+Done'
p359
S'1372797980'
p360
tp361
a(S'Daft Punk'
p362
S'Within'
p363
S'http://www.last.fm/music/Daft+Punk/_/Within'
p364
S'1372797753'
p365
tp366
a(S'Alice in Chains'
p367
S'Choke'
p368
S'http://www.last.fm/music/Alice+in+Chains/_/Choke'
p369
S'1372797408'
p370
tp371
a(S'Daft Punk'
p372
S'Giorgio by Moroder'
p373
S'http://www.last.fm/music/Daft+Punk/_/Giorgio+by+Moroder'
p374
S'1372796865'
p375
tp376
a(S'Daft Punk'
p377
S'Give Life Back to Music'
p378
S'http://www.last.fm/music/Daft+Punk/_/Give+Life+Back+to+Music'
p379
S'1372796588'
p380
tp381
a(S'Alice in Chains'
p382
S'Stone'
p383
S'http://www.last.fm/music/Alice+in+Chains/_/Stone'
p384
S'1372796326'
p385
tp386
a(S'Alice in Chains'
p387
S'Lab Monkey'
p388
S'http://www.last.fm/music/Alice+in+Chains/_/Lab+Monkey'
p389
S'1372795967'
p390
tp391
a(S'Daft Punk'
p392
S'Get Lucky (feat. Pharrell Williams)'
p393
S'http://www.last.fm/music/Daft+Punk/_/Get+Lucky+(feat.+Pharrell+Williams)'
p394
S'1372795598'
p395
tp396
a(S'Daft Punk'
p397
S'Contact'
p398
S'http://www.last.fm/music/Daft+Punk/_/Contact'
p399
S'1372795215'
p400
tp401
a(S'Alice in Chains'
p402
S'Scalpel'
p403
S'http://www.last.fm/music/Alice+in+Chains/_/Scalpel'
p404
S'1372794417'
p405
tp406
a(S'Rainbow'
p407
S'Kill the King'
p408
S'http://www.last.fm/music/Rainbow/_/Kill+the+King'
p409
S'1372794146'
p410
tp411
a(S'Alice in Chains'
p412
S'Voices'
p413
S'http://www.last.fm/music/Alice+in+Chains/_/Voices'
p414
S'1372793804'
p415
tp416
a(S'Alice in Chains'
p417
S'Hollow'
p418
S'http://www.last.fm/music/Alice+in+Chains/_/Hollow'
p419
S'1372789089'
p420
tp421
a(S'Rainbow'
p422
S'Catch the Rainbow'
p423
S'http://www.last.fm/music/Rainbow/_/Catch+the+Rainbow'
p424
S'1372788698'
p425
tp426
a(S'Alice in Chains'
p427
S'Choke'
p428
S'http://www.last.fm/music/Alice+in+Chains/_/Choke'
p429
S'1372787826'
p430
tp431
a(S'Daft Punk'
p432
S'Beyond'
p433
S'http://www.last.fm/music/Daft+Punk/_/Beyond'
p434
S'1372787536'
p435
tp436
a(S'Alice in Chains'
p437
S'Pretty Done'
p438
S'http://www.last.fm/music/Alice+in+Chains/_/Pretty+Done'
p439
S'1372786777'
p440
tp441
a(S'Daft Punk'
p442
S'Contact'
p443
S'http://www.last.fm/music/Daft+Punk/_/Contact'
p444
S'1372772206'
p445
tp446
a(S'Daft Punk'
p447
S'Within'
p448
S'http://www.last.fm/music/Daft+Punk/_/Within'
p449
S'1372771976'
p450
tp451
a(S'Daft Punk'
p452
S'Instant Crush (feat. Julian Casablancas)'
p453
S'http://www.last.fm/music/Daft+Punk/_/Instant+Crush+(feat.+Julian+Casablancas)'
p454
S'1372771635'
p455
tp456
a(S'Alice in Chains'
p457
S'Voices'
p458
S'http://www.last.fm/music/Alice+in+Chains/_/Voices'
p459
S'1372771294'
p460
tp461
a(S'Daft Punk'
p462
S'Fragments of Time (feat. Todd Edwards)'
p463
S'http://www.last.fm/music/Daft+Punk/_/Fragments+of+Time+(feat.+Todd+Edwards)'
p464
S'1372771015'
p465
tp466
a(S'Daft Punk'
p467
S"Doin' It Right (feat. Panda Bear)"
p468
S'http://www.last.fm/music/Daft+Punk/_/Doin%27+It+Right+(feat.+Panda+Bear)'
p469
S'1372770762'
p470
tp471
a(S'Dio'
p472
S'Holy Diver'
p473
S'http://www.last.fm/music/Dio/_/Holy+Diver'
p474
S'1372770411'
p475
tp476
a(S'Alice in Chains'
p477
S'Scalpel'
p478
S'http://www.last.fm/music/Alice+in+Chains/_/Scalpel'
p479
S'1372770090'
p480
tp481
a(S'Alice in Chains'
p482
S'Hung on a Hook'
p483
S'http://www.last.fm/music/Alice+in+Chains/_/Hung+on+a+Hook'
p484
S'1372769755'
p485
tp486
a(S'Alice in Chains'
p487
S'Phantom Limb'
p488
S'http://www.last.fm/music/Alice+in+Chains/_/Phantom+Limb'
p489
S'1372769325'
p490
tp491
a(S'Alice in Chains'
p492
S'The Devil Put Dinosaurs Here'
p493
S'http://www.last.fm/music/Alice+in+Chains/_/The+Devil+Put+Dinosaurs+Here'
p494
S'1372768925'
p495
tp496
a(S'Daft Punk'
p497
S'Touch (feat. Paul Williams)'
p498
S'http://www.last.fm/music/Daft+Punk/_/Touch+(feat.+Paul+Williams)'
p499
S'1372768426'
p500
tp501
a(S'Daft Punk'
p502
S'Give Life Back to Music'
p503
S'http://www.last.fm/music/Daft+Punk/_/Give+Life+Back+to+Music'
p504
S'1372768149'
p505
tp506
a(S'Rainbow'
p507
S'Kill the King'
p508
S'http://www.last.fm/music/Rainbow/_/Kill+the+King'
p509
S'1372767533'
p510
tp511
a(S'Alice in Chains'
p512
S'Breath on a Window'
p513
S'http://www.last.fm/music/Alice+in+Chains/_/Breath+on+a+Window'
p514
S'1372766907'
p515
tp516
a(S'Daft Punk'
p517
S'Lose Yourself to Dance (feat. Pharrell Williams)'
p518
S'http://www.last.fm/music/Daft+Punk/_/Lose+Yourself+to+Dance+(feat.+Pharrell+Williams)'
p519
S'1372764840'
p520
tp521
a(S'Daft Punk'
p522
S'Get Lucky (feat. Pharrell Williams)'
p523
S'http://www.last.fm/music/Daft+Punk/_/Get+Lucky+(feat.+Pharrell+Williams)'
p524
S'1372707060'
p525
tp526
a(S'Daft Punk'
p527
S'Give Life Back to Music'
p528
S'http://www.last.fm/music/Daft+Punk/_/Give+Life+Back+to+Music'
p529
S'1372706785'
p530
tp531
a(S'Daft Punk'
p532
S'Lose Yourself to Dance (feat. Pharrell Williams)'
p533
S'http://www.last.fm/music/Daft+Punk/_/Lose+Yourself+to+Dance+(feat.+Pharrell+Williams)'
p534
S'1372706429'
p535
tp536
a(S'Daft Punk'
p537
S'Motherboard'
p538
S'http://www.last.fm/music/Daft+Punk/_/Motherboard'
p539
S'1372706087'
p540
tp541
a(S'Rainbow'
p542
S'Kill the King'
p543
S'http://www.last.fm/music/Rainbow/_/Kill+the+King'
p544
S'1372705817'
p545
tp546
a(S'Daft Punk'
p547
S'Fragments of Time (feat. Todd Edwards)'
p548
S'http://www.last.fm/music/Daft+Punk/_/Fragments+of+Time+(feat.+Todd+Edwards)'
p549
S'1372705539'
p550
tp551
a(S'Daft Punk'
p552
S'Instant Crush (feat. Julian Casablancas)'
p553
S'http://www.last.fm/music/Daft+Punk/_/Instant+Crush+(feat.+Julian+Casablancas)'
p554
S'1372705201'
p555
tp556
a(S'Daft Punk'
p557
S'Giorgio by Moroder'
p558
S'http://www.last.fm/music/Daft+Punk/_/Giorgio+by+Moroder'
p559
S'1372704655'
p560
tp561
a(S'Daft Punk'
p562
S'Beyond'
p563
S'http://www.last.fm/music/Daft+Punk/_/Beyond'
p564
S'1372704364'
p565
tp566
a(S'Alice in Chains'
p567
S'The Devil Put Dinosaurs Here'
p568
S'http://www.last.fm/music/Alice+in+Chains/_/The+Devil+Put+Dinosaurs+Here'
p569
S'1372703966'
p570
tp571
a(S'Alice in Chains'
p572
S'Breath on a Window'
p573
S'http://www.last.fm/music/Alice+in+Chains/_/Breath+on+a+Window'
p574
S'1372703646'
p575
tp576
a(S'Alice in Chains'
p577
S'Hollow'
p578
S'http://www.last.fm/music/Alice+in+Chains/_/Hollow'
p579
S'1372703223'
p580
tp581
a(S'Alice in Chains'
p582
S'Hollow'
p583
S'http://www.last.fm/music/Alice+in+Chains/_/Hollow'
p584
S'1372686781'
p585
tp586
a(S'Alice in Chains'
p587
S'Breath on a Window'
p588
S'http://www.last.fm/music/Alice+in+Chains/_/Breath+on+a+Window'
p589
S'1372686461'
p590
tp591
a(S'Rainbow'
p592
S'Kill the King'
p593
S'http://www.last.fm/music/Rainbow/_/Kill+the+King'
p594
S'1372686190'
p595
tp596
a(S'Alice in Chains'
p597
S'Hung on a Hook'
p598
S'http://www.last.fm/music/Alice+in+Chains/_/Hung+on+a+Hook'
p599
S'1372685856'
p600
tp601
a(S'Dio'
p602
S'Holy Diver'
p603
S'http://www.last.fm/music/Dio/_/Holy+Diver'
p604
S'1372685505'
p605
tp606
a(S'Daft Punk'
p607
S"Doin' It Right (feat. Panda Bear)"
p608
S'http://www.last.fm/music/Daft+Punk/_/Doin%27+It+Right+(feat.+Panda+Bear)'
p609
S'1372685254'
p610
tp611
a(S'Alice in Chains'
p612
S'Low Ceiling'
p613
S'http://www.last.fm/music/Alice+in+Chains/_/Low+Ceiling'
p614
S'1372684940'
p615
tp616
a(S'Daft Punk'
p617
S'Fragments of Time (feat. Todd Edwards)'
p618
S'http://www.last.fm/music/Daft+Punk/_/Fragments+of+Time+(feat.+Todd+Edwards)'
p619
S'1372684661'
p620
tp621
a(S'Daft Punk'
p622
S'Contact'
p623
S'http://www.last.fm/music/Daft+Punk/_/Contact'
p624
S'1372684278'
p625
tp626
a(S'Daft Punk'
p627
S'Touch (feat. Paul Williams)'
p628
S'http://www.last.fm/music/Daft+Punk/_/Touch+(feat.+Paul+Williams)'
p629
S'1372683421'
p630
tp631
a(S'Alice in Chains'
p632
S'Lab Monkey'
p633
S'http://www.last.fm/music/Alice+in+Chains/_/Lab+Monkey'
p634
S'1372683063'
p635
tp636
a(S'Daft Punk'
p637
S'Lose Yourself to Dance (feat. Pharrell Williams)'
p638
S'http://www.last.fm/music/Daft+Punk/_/Lose+Yourself+to+Dance+(feat.+Pharrell+Williams)'
p639
S'1372682707'
p640
tp641
a(S'Alice in Chains'
p642
S'Stone'
p643
S'http://www.last.fm/music/Alice+in+Chains/_/Stone'
p644
S'1372682440'
p645
tp646
a(S'Alice in Chains'
p647
S'Choke'
p648
S'http://www.last.fm/music/Alice+in+Chains/_/Choke'
p649
S'1372680967'
p650
tp651
a(S'Alice in Chains'
p652
S'Voices'
p653
S'http://www.last.fm/music/Alice+in+Chains/_/Voices'
p654
S'1372680624'
p655
tp656
a(S'Daft Punk'
p657
S'Get Lucky (feat. Pharrell Williams)'
p658
S'http://www.last.fm/music/Daft+Punk/_/Get+Lucky+(feat.+Pharrell+Williams)'
p659
S'1372680255'
p660
tp661
a(S'Alice in Chains'
p662
S'Pretty Done'
p663
S'http://www.last.fm/music/Alice+in+Chains/_/Pretty+Done'
p664
S'1372679980'
p665
tp666
a(S'Alice in Chains'
p667
S'The Devil Put Dinosaurs Here'
p668
S'http://www.last.fm/music/Alice+in+Chains/_/The+Devil+Put+Dinosaurs+Here'
p669
S'1372679580'
p670
tp671
a(S'Daft Punk'
p672
S'Give Life Back to Music'
p673
S'http://www.last.fm/music/Daft+Punk/_/Give+Life+Back+to+Music'
p674
S'1372679305'
p675
tp676
a(S'Alice in Chains'
p677
S'Scalpel'
p678
S'http://www.last.fm/music/Alice+in+Chains/_/Scalpel'
p679
S'1372678921'
p680
tp681
a(S'Daft Punk'
p682
S'Beyond'
p683
S'http://www.last.fm/music/Daft+Punk/_/Beyond'
p684
S'1372678421'
p685
tp686
a(S'Daft Punk'
p687
S'Fragments of Time (feat. Todd Edwards)'
p688
S'http://www.last.fm/music/Daft+Punk/_/Fragments+of+Time+(feat.+Todd+Edwards)'
p689
S'1372452643'
p690
tp691
a(S'Rainbow'
p692
S'Kill the King'
p693
S'http://www.last.fm/music/Rainbow/_/Kill+the+King'
p694
S'1372452373'
p695
tp696
a(S'Alice in Chains'
p697
S'Choke'
p698
S'http://www.last.fm/music/Alice+in+Chains/_/Choke'
p699
S'1372452030'
p700
tp701
a(S'Rainbow'
p702
S'Catch the Rainbow'
p703
S'http://www.last.fm/music/Rainbow/_/Catch+the+Rainbow'
p704
S'1372451638'
p705
tp706
a(S'Alice in Chains'
p707
S'Scalpel'
p708
S'http://www.last.fm/music/Alice+in+Chains/_/Scalpel'
p709
S'1372451318'
p710
tp711
a(S'Daft Punk'
p712
S'Contact'
p713
S'http://www.last.fm/music/Daft+Punk/_/Contact'
p714
S'1372450937'
p715
tp716
a(S'Alice in Chains'
p717
S'Hung on a Hook'
p718
S'http://www.last.fm/music/Alice+in+Chains/_/Hung+on+a+Hook'
p719
S'1372450603'
p720
tp721
a(S'Alice in Chains'
p722
S'Phantom Limb'
p723
S'http://www.last.fm/music/Alice+in+Chains/_/Phantom+Limb'
p724
S'1372450175'
p725
tp726
a(S'Alice in Chains'
p727
S'Hollow'
p728
S'http://www.last.fm/music/Alice+in+Chains/_/Hollow'
p729
S'1372449833'
p730
tp731
a(S'Alice in Chains'
p732
S'Voices'
p733
S'http://www.last.fm/music/Alice+in+Chains/_/Voices'
p734
S'1372449489'
p735
tp736
a(S'Daft Punk'
p737
S'Giorgio by Moroder'
p738
S'http://www.last.fm/music/Daft+Punk/_/Giorgio+by+Moroder'
p739
S'1372448946'
p740
tp741
a(S'Daft Punk'
p742
S'Lose Yourself to Dance (feat. Pharrell Williams)'
p743
S'http://www.last.fm/music/Daft+Punk/_/Lose+Yourself+to+Dance+(feat.+Pharrell+Williams)'
p744
S'1372448591'
p745
tp746
a(S'Alice in Chains'
p747
S'Low Ceiling'
p748
S'http://www.last.fm/music/Alice+in+Chains/_/Low+Ceiling'
p749
S'1372448276'
p750
tp751
a(S'Alice in Chains'
p752
S'The Devil Put Dinosaurs Here'
p753
S'http://www.last.fm/music/Alice+in+Chains/_/The+Devil+Put+Dinosaurs+Here'
p754
S'1372447876'
p755
tp756
a(S'Alice in Chains'
p757
S'Lab Monkey'
p758
S'http://www.last.fm/music/Alice+in+Chains/_/Lab+Monkey'
p759
S'1372447517'
p760
tp761
a(S'Daft Punk'
p762
S"Doin' It Right (feat. Panda Bear)"
p763
S'http://www.last.fm/music/Daft+Punk/_/Doin%27+It+Right+(feat.+Panda+Bear)'
p764
S'1372447377'
p765
tp766
a(S'Daft Punk'
p767
S'Give Life Back to Music'
p768
S'http://www.last.fm/music/Daft+Punk/_/Give+Life+Back+to+Music'
p769
S'1372447102'
p770
tp771
a(S'Alice in Chains'
p772
S'Breath on a Window'
p773
S'http://www.last.fm/music/Alice+in+Chains/_/Breath+on+a+Window'
p774
S'1372446658'
p775
tp776
a(S'Daft Punk'
p777
S'Horizon (Japan Bonus Track)'
p778
S'http://www.last.fm/music/Daft+Punk/_/Horizon+(Japan+Bonus+Track)'
p779
S'1372362837'
p780
tp781
a(S'Rainbow'
p782
S'Kill the King'
p783
S'http://www.last.fm/music/Rainbow/_/Kill+the+King'
p784
S'1372362567'
p785
tp786
a(S'Rainbow'
p787
S'Catch the Rainbow'
p788
S'http://www.last.fm/music/Rainbow/_/Catch+the+Rainbow'
p789
S'1372362175'
p790
tp791
a(S'Alice in Chains'
p792
S'Low Ceiling'
p793
S'http://www.last.fm/music/Alice+in+Chains/_/Low+Ceiling'
p794
S'1372361860'
p795
tp796
a(S'Alice in Chains'
p797
S'Phantom Limb'
p798
S'http://www.last.fm/music/Alice+in+Chains/_/Phantom+Limb'
p799
S'1372361431'
p800
tp801
a(S'Alice in Chains'
p802
S'Scalpel'
p803
S'http://www.last.fm/music/Alice+in+Chains/_/Scalpel'
p804
S'1372359384'
p805
tp806
a(S'Alice in Chains'
p807
S'Voices'
p808
S'http://www.last.fm/music/Alice+in+Chains/_/Voices'
p809
S'1372359039'
p810
tp811
a(S'Alice in Chains'
p812
S'Stone'
p813
S'http://www.last.fm/music/Alice+in+Chains/_/Stone'
p814
S'1372358775'
p815
tp816
a(S'Daft Punk'
p817
S'Instant Crush (feat. Julian Casablancas)'
p818
S'http://www.last.fm/music/Daft+Punk/_/Instant+Crush+(feat.+Julian+Casablancas)'
p819
S'1372358438'
p820
tp821
a(S'Daft Punk'
p822
S'Fragments of Time (feat. Todd Edwards)'
p823
S'http://www.last.fm/music/Daft+Punk/_/Fragments+of+Time+(feat.+Todd+Edwards)'
p824
S'1372358157'
p825
tp826
a(S'Alice in Chains'
p827
S'The Devil Put Dinosaurs Here'
p828
S'http://www.last.fm/music/Alice+in+Chains/_/The+Devil+Put+Dinosaurs+Here'
p829
S'1372357760'
p830
tp831
a(S'Alice in Chains'
p832
S'Hung on a Hook'
p833
S'http://www.last.fm/music/Alice+in+Chains/_/Hung+on+a+Hook'
p834
S'1372357425'
p835
tp836
a(S'Daft Punk'
p837
S'Giorgio by Moroder'
p838
S'http://www.last.fm/music/Daft+Punk/_/Giorgio+by+Moroder'
p839
S'1372356881'
p840
tp841
a(S'Alice in Chains'
p842
S'Lab Monkey'
p843
S'http://www.last.fm/music/Alice+in+Chains/_/Lab+Monkey'
p844
S'1372356524'
p845
tp846
a(S'Daft Punk'
p847
S'Beyond'
p848
S'http://www.last.fm/music/Daft+Punk/_/Beyond'
p849
S'1372356218'
p850
tp851
a(S'Daft Punk'
p852
S'Contact'
p853
S'http://www.last.fm/music/Daft+Punk/_/Contact'
p854
S'1372342378'
p855
tp856
a(S'Daft Punk'
p857
S'Lose Yourself to Dance (feat. Pharrell Williams)'
p858
S'http://www.last.fm/music/Daft+Punk/_/Lose+Yourself+to+Dance+(feat.+Pharrell+Williams)'
p859
S'1372342024'
p860
tp861
a(S'Daft Punk'
p862
S'Get Lucky (feat. Pharrell Williams)'
p863
S'http://www.last.fm/music/Daft+Punk/_/Get+Lucky+(feat.+Pharrell+Williams)'
p864
S'1372341622'
p865
tp866
a(S'Daft Punk'
p867
S'Touch (feat. Paul Williams)'
p868
S'http://www.last.fm/music/Daft+Punk/_/Touch+(feat.+Paul+Williams)'
p869
S'1372341122'
p870
tp871
a(S'Dio'
p872
S'Holy Diver'
p873
S'http://www.last.fm/music/Dio/_/Holy+Diver'
p874
S'1372340288'
p875
tp876
a(S'Daft Punk'
p877
S'Give Life Back to Music'
p878
S'http://www.last.fm/music/Daft+Punk/_/Give+Life+Back+to+Music'
p879
S'1372340013'
p880
tp881
a(S'Alice in Chains'
p882
S'Breath on a Window'
p883
S'http://www.last.fm/music/Alice+in+Chains/_/Breath+on+a+Window'
p884
S'1372339695'
p885
tp886
a(S'Rainbow'
p887
S'Catch the Rainbow'
p888
S'http://www.last.fm/music/Rainbow/_/Catch+the+Rainbow'
p889
S'1372337702'
p890
tp891
a(S'Alice in Chains'
p892
S'Low Ceiling'
p893
S'http://www.last.fm/music/Alice+in+Chains/_/Low+Ceiling'
p894
S'1372337388'
p895
tp896
a(S'Alice in Chains'
p897
S'Phantom Limb'
p898
S'http://www.last.fm/music/Alice+in+Chains/_/Phantom+Limb'
p899
S'1372336959'
p900
tp901
a(S'Alice in Chains'
p902
S'Scalpel'
p903
S'http://www.last.fm/music/Alice+in+Chains/_/Scalpel'
p904
S'1372336637'
p905
tp906
a(S'Alice in Chains'
p907
S'Voices'
p908
S'http://www.last.fm/music/Alice+in+Chains/_/Voices'
p909
S'1372336140'
p910
tp911
a(S'Alice in Chains'
p912
S'Stone'
p913
S'http://www.last.fm/music/Alice+in+Chains/_/Stone'
p914
S'1372335876'
p915
tp916
a(S'Daft Punk'
p917
S'Instant Crush (feat. Julian Casablancas)'
p918
S'http://www.last.fm/music/Daft+Punk/_/Instant+Crush+(feat.+Julian+Casablancas)'
p919
S'1372335539'
p920
tp921
a(S'Daft Punk'
p922
S'Fragments of Time (feat. Todd Edwards)'
p923
S'http://www.last.fm/music/Daft+Punk/_/Fragments+of+Time+(feat.+Todd+Edwards)'
p924
S'1372335258'
p925
tp926
a(S'Alice in Chains'
p927
S'The Devil Put Dinosaurs Here'
p928
S'http://www.last.fm/music/Alice+in+Chains/_/The+Devil+Put+Dinosaurs+Here'
p929
S'1372334861'
p930
tp931
a(S'Alice in Chains'
p932
S'Hung on a Hook'
p933
S'http://www.last.fm/music/Alice+in+Chains/_/Hung+on+a+Hook'
p934
S'1372334526'
p935
tp936
a(S'Daft Punk'
p937
S'Giorgio by Moroder'
p938
S'http://www.last.fm/music/Daft+Punk/_/Giorgio+by+Moroder'
p939
S'1372333981'
p940
tp941
a(S'Alice in Chains'
p942
S'Lab Monkey'
p943
S'http://www.last.fm/music/Alice+in+Chains/_/Lab+Monkey'
p944
S'1372333624'
p945
tp946
a(S'Daft Punk'
p947
S'Beyond'
p948
S'http://www.last.fm/music/Daft+Punk/_/Beyond'
p949
S'1372333335'
p950
tp951
a(S'Daft Punk'
p952
S'Within'
p953
S'http://www.last.fm/music/Daft+Punk/_/Within'
p954
S'1372333106'
p955
tp956
a(S'Daft Punk'
p957
S'Motherboard'
p958
S'http://www.last.fm/music/Daft+Punk/_/Motherboard'
p959
S'1372332763'
p960
tp961
a(S'Daft Punk'
p962
S'Contact'
p963
S'http://www.last.fm/music/Daft+Punk/_/Contact'
p964
S'1372278012'
p965
tp966
a(S'Daft Punk'
p967
S'Lose Yourself to Dance (feat. Pharrell Williams)'
p968
S'http://www.last.fm/music/Daft+Punk/_/Lose+Yourself+to+Dance+(feat.+Pharrell+Williams)'
p969
S'1372277657'
p970
tp971
a(S'Alice in Chains'
p972
S'Pretty Done'
p973
S'http://www.last.fm/music/Alice+in+Chains/_/Pretty+Done'
p974
S'1372277383'
p975
tp976
a(S'Daft Punk'
p977
S"Doin' It Right (feat. Panda Bear)"
p978
S'http://www.last.fm/music/Daft+Punk/_/Doin%27+It+Right+(feat.+Panda+Bear)'
p979
S'1372277132'
p980
tp981
a(S'Daft Punk'
p982
S'Get Lucky (feat. Pharrell Williams)'
p983
S'http://www.last.fm/music/Daft+Punk/_/Get+Lucky+(feat.+Pharrell+Williams)'
p984
S'1372276762'
p985
tp986
a(S'Daft Punk'
p987
S'Touch (feat. Paul Williams)'
p988
S'http://www.last.fm/music/Daft+Punk/_/Touch+(feat.+Paul+Williams)'
p989
S'1372276262'
p990
tp991
a(S'Dio'
p992
S'Holy Diver'
p993
S'http://www.last.fm/music/Dio/_/Holy+Diver'
p994
S'1372275497'
p995
tp996
a(S'Daft Punk'
p997
S'Give Life Back to Music'
p998
S'http://www.last.fm/music/Daft+Punk/_/Give+Life+Back+to+Music'
p999
S'1372275223'
p1000
tp1001
a.