(lp1
(S'Al Green'
p2
S'Lets Stay Together'
p3
S'http://www.last.fm/music/Al+Green/_/Lets+Stay+Together'
p4
S'1359376857'
p5
tp6
a(S'Jamiroquai'
p7
S"Time Won't Wait"
p8
S'http://www.last.fm/music/Jamiroquai/_/Time+Won%27t+Wait'
p9
S'1359376555'
p10
tp11
a(S'Beastie Boys'
p12
S"So What'cha Want"
p13
S'http://www.last.fm/music/Beastie+Boys/_/So+What%27cha+Want'
p14
S'1359376338'
p15
tp16
a(S'Aretha Franklin'
p17
S'Rock Steady'
p18
S'http://www.last.fm/music/Aretha+Franklin/_/Rock+Steady'
p19
S'1359376146'
p20
tp21
a(S'Beastie Boys'
p22
S'Triple Trouble (Album Version)'
p23
S'http://www.last.fm/music/Beastie+Boys/_/Triple+Trouble+(Album+Version)'
p24
S'1359375983'
p25
tp26
a(S'Tracy Chapman'
p27
S'Fast Car'
p28
S'http://www.last.fm/music/Tracy+Chapman/_/Fast+Car'
p29
S'1359375922'
p30
tp31
a(S'Soundgarden'
p32
S"Eyelid's Mouth"
p33
S'http://www.last.fm/music/Soundgarden/_/Eyelid%27s+Mouth'
p34
S'1359053992'
p35
tp36
a(S'Marvin Gaye'
p37
S'I Heard It Through the Grapevine'
p38
S'http://www.last.fm/music/Marvin+Gaye/_/I+Heard+It+Through+the+Grapevine'
p39
S'1359053796'
p40
tp41
a(S'Tracy Chapman'
p42
S'Fast Car'
p43
S'http://www.last.fm/music/Tracy+Chapman/_/Fast+Car'
p44
S'1359053352'
p45
tp46
a(S'Soundgarden'
p47
S'Attrition'
p48
S'http://www.last.fm/music/Soundgarden/_/Attrition'
p49
S'1359053185'
p50
tp51
a(S'Albert King'
p52
S"I'll Play The Blues For You"
p53
S'http://www.last.fm/music/Albert+King/_/I%27ll+Play+The+Blues+For+You'
p54
S'1359053117'
p55
tp56
a(S'Chris Cornell'
p57
S'You Know My Name'
p58
S'http://www.last.fm/music/Chris+Cornell/_/You+Know+My+Name'
p59
S'1359052874'
p60
tp61
a(S'Soundgarden'
p62
S'Taree'
p63
S'http://www.last.fm/music/Soundgarden/_/Taree'
p64
S'1359052659'
p65
tp66
a(S'Tracy Chapman'
p67
S'Baby Can I Hold You'
p68
S'http://www.last.fm/music/Tracy+Chapman/_/Baby+Can+I+Hold+You'
p69
S'1359052461'
p70
tp71
a(S'Journey'
p72
S'Separate Ways'
p73
S'http://www.last.fm/music/Journey/_/Separate+Ways'
p74
S'1359050573'
p75
tp76
a(S'Bill Withers'
p77
S"Ain't No Sunshine (Single Version)"
p78
S'http://www.last.fm/music/Bill+Withers/_/Ain%27t+No+Sunshine+(Single+Version)'
p79
S'1359050449'
p80
tp81
a(S'Marvin Gaye'
p82
S"Let's Get It On"
p83
S'http://www.last.fm/music/Marvin+Gaye/_/Let%27s+Get+It+On'
p84
S'1359050092'
p85
tp86
a(S'U2'
p87
S'Hold Me, Thrill Me, Kiss Me, Kill Me'
p88
S'http://www.last.fm/music/U2/_/Hold+Me,+Thrill+Me,+Kiss+Me,+Kill+Me'
p89
S'1359049795'
p90
tp91
a(S'Tracy Chapman'
p92
S"Talkin' Bout a Revolution"
p93
S'http://www.last.fm/music/Tracy+Chapman/_/Talkin%27+Bout+a+Revolution'
p94
S'1359049635'
p95
tp96
a(S'Al Green'
p97
S'Lets Stay Together'
p98
S'http://www.last.fm/music/Al+Green/_/Lets+Stay+Together'
p99
S'1359049373'
p100
tp101
a(S'The Temptations'
p102
S'Papa Was a Rolling Stone'
p103
S'http://www.last.fm/music/The+Temptations/_/Papa+Was+a+Rolling+Stone'
p104
S'1359048645'
p105
tp106
a(S'Aretha Franklin'
p107
S'Rock Steady'
p108
S'http://www.last.fm/music/Aretha+Franklin/_/Rock+Steady'
p109
S'1359048409'
p110
tp111
a(S'The Blues Brothers'
p112
S'Minnie the Moocher'
p113
S'http://www.last.fm/music/The+Blues+Brothers/_/Minnie+the+Moocher'
p114
S'1359048202'
p115
tp116
a(S'Jamiroquai'
p117
S"Time Won't Wait"
p118
S'http://www.last.fm/music/Jamiroquai/_/Time+Won%27t+Wait'
p119
S'1359047900'
p120
tp121
a(S'Soundgarden'
p122
S"Eyelid's Mouth"
p123
S'http://www.last.fm/music/Soundgarden/_/Eyelid%27s+Mouth'
p124
S'1359047632'
p125
tp126
a(S'Marvin Gaye'
p127
S'I Heard It Through the Grapevine'
p128
S'http://www.last.fm/music/Marvin+Gaye/_/I+Heard+It+Through+the+Grapevine'
p129
S'1359047436'
p130
tp131
a(S'Bill Withers'
p132
S"Ain't No Sunshine (Single Version)"
p133
S'http://www.last.fm/music/Bill+Withers/_/Ain%27t+No+Sunshine+(Single+Version)'
p134
S'1359033406'
p135
tp136
a(S'U2'
p137
S'Hold Me, Thrill Me, Kiss Me, Kill Me'
p138
S'http://www.last.fm/music/U2/_/Hold+Me,+Thrill+Me,+Kiss+Me,+Kill+Me'
p139
S'1359033121'
p140
tp141
a(S'Jamiroquai'
p142
S"Time Won't Wait"
p143
S'http://www.last.fm/music/Jamiroquai/_/Time+Won%27t+Wait'
p144
S'1359032819'
p145
tp146
a(S'Commodores'
p147
S'Easy'
p148
S'http://www.last.fm/music/Commodores/_/Easy'
p149
S'1358959855'
p150
tp151
a(S'Soundgarden'
p152
S'Attrition'
p153
S'http://www.last.fm/music/Soundgarden/_/Attrition'
p154
S'1358959652'
p155
tp156
a(S'Albert King'
p157
S"I'll Play The Blues For You"
p158
S'http://www.last.fm/music/Albert+King/_/I%27ll+Play+The+Blues+For+You'
p159
S'1358959211'
p160
tp161
a(S'Soundgarden'
p162
S"Eyelid's Mouth"
p163
S'http://www.last.fm/music/Soundgarden/_/Eyelid%27s+Mouth'
p164
S'1358958943'
p165
tp166
a(S'The Blues Brothers'
p167
S'Minnie the Moocher'
p168
S'http://www.last.fm/music/The+Blues+Brothers/_/Minnie+the+Moocher'
p169
S'1358958737'
p170
tp171
a(S'Tracy Chapman'
p172
S'Baby Can I Hold You'
p173
S'http://www.last.fm/music/Tracy+Chapman/_/Baby+Can+I+Hold+You'
p174
S'1358958544'
p175
tp176
a(S'Jamiroquai'
p177
S"Time Won't Wait"
p178
S'http://www.last.fm/music/Jamiroquai/_/Time+Won%27t+Wait'
p179
S'1358958241'
p180
tp181
a(S'Marvin Gaye'
p182
S'I Heard It Through the Grapevine'
p183
S'http://www.last.fm/music/Marvin+Gaye/_/I+Heard+It+Through+the+Grapevine'
p184
S'1358958045'
p185
tp186
a(S'U2'
p187
S'Discoteque'
p188
S'http://www.last.fm/music/U2/_/Discoteque'
p189
S'1358878843'
p190
tp191
a(S'Tracy Chapman'
p192
S'Baby Can I Hold You'
p193
S'http://www.last.fm/music/Tracy+Chapman/_/Baby+Can+I+Hold+You'
p194
S'1358878649'
p195
tp196
a(S'Aretha Franklin'
p197
S'Rock Steady'
p198
S'http://www.last.fm/music/Aretha+Franklin/_/Rock+Steady'
p199
S'1358878401'
p200
tp201
a(S'Jamiroquai'
p202
S"Time Won't Wait"
p203
S'http://www.last.fm/music/Jamiroquai/_/Time+Won%27t+Wait'
p204
S'1358878072'
p205
tp206
a(S'Marvin Gaye'
p207
S'I Heard It Through the Grapevine'
p208
S'http://www.last.fm/music/Marvin+Gaye/_/I+Heard+It+Through+the+Grapevine'
p209
S'1358877875'
p210
tp211
a(S'Aretha Franklin'
p212
S'Son Of A Preacher Man'
p213
S'http://www.last.fm/music/Aretha+Franklin/_/Son+Of+A+Preacher+Man'
p214
S'1358877676'
p215
tp216
a(S'Bill Withers'
p217
S"Ain't No Sunshine (Single Version)"
p218
S'http://www.last.fm/music/Bill+Withers/_/Ain%27t+No+Sunshine+(Single+Version)'
p219
S'1358877552'
p220
tp221
a(S'Albert King'
p222
S"I'll Play The Blues For You"
p223
S'http://www.last.fm/music/Albert+King/_/I%27ll+Play+The+Blues+For+You'
p224
S'1358877112'
p225
tp226
a(S'Soundgarden'
p227
S'Attrition'
p228
S'http://www.last.fm/music/Soundgarden/_/Attrition'
p229
S'1358876945'
p230
tp231
a(S'Soundgarden'
p232
S'Taree'
p233
S'http://www.last.fm/music/Soundgarden/_/Taree'
p234
S'1358876811'
p235
tp236
a(S'U2'
p237
S'Discoteque'
p238
S'http://www.last.fm/music/U2/_/Discoteque'
p239
S'1358876498'
p240
tp241
a(S'Tracy Chapman'
p242
S'Baby Can I Hold You'
p243
S'http://www.last.fm/music/Tracy+Chapman/_/Baby+Can+I+Hold+You'
p244
S'1358876285'
p245
tp246
a(S'Aretha Franklin'
p247
S'Rock Steady'
p248
S'http://www.last.fm/music/Aretha+Franklin/_/Rock+Steady'
p249
S'1358876092'
p250
tp251
a(S'Jamiroquai'
p252
S"Time Won't Wait"
p253
S'http://www.last.fm/music/Jamiroquai/_/Time+Won%27t+Wait'
p254
S'1358875790'
p255
tp256
a(S'Marvin Gaye'
p257
S'I Heard It Through the Grapevine'
p258
S'http://www.last.fm/music/Marvin+Gaye/_/I+Heard+It+Through+the+Grapevine'
p259
S'1358875594'
p260
tp261
a(S'Soundgarden'
p262
S'Rowing'
p263
S'http://www.last.fm/music/Soundgarden/_/Rowing'
p264
S'1358875486'
p265
tp266
a(S'Bill Withers'
p267
S"Ain't No Sunshine (Single Version)"
p268
S'http://www.last.fm/music/Bill+Withers/_/Ain%27t+No+Sunshine+(Single+Version)'
p269
S'1358875360'
p270
tp271
a(S'Albert King'
p272
S"I'll Play The Blues For You"
p273
S'http://www.last.fm/music/Albert+King/_/I%27ll+Play+The+Blues+For+You'
p274
S'1358874919'
p275
tp276
a(S'Soundgarden'
p277
S'Attrition'
p278
S'http://www.last.fm/music/Soundgarden/_/Attrition'
p279
S'1358874753'
p280
tp281
a(S'Chris Cornell'
p282
S'You Know My Name'
p283
S'http://www.last.fm/music/Chris+Cornell/_/You+Know+My+Name'
p284
S'1358874509'
p285
tp286
a(S'Marvin Gaye'
p287
S"Let's Get It On"
p288
S'http://www.last.fm/music/Marvin+Gaye/_/Let%27s+Get+It+On'
p289
S'1358874263'
p290
tp291
a(S'Al Green'
p292
S'Lets Stay Together'
p293
S'http://www.last.fm/music/Al+Green/_/Lets+Stay+Together'
p294
S'1358874064'
p295
tp296
a(S'Soundgarden'
p297
S"Eyelid's Mouth"
p298
S'http://www.last.fm/music/Soundgarden/_/Eyelid%27s+Mouth'
p299
S'1358873796'
p300
tp301
a(S'The Temptations'
p302
S'Papa Was a Rolling Stone'
p303
S'http://www.last.fm/music/The+Temptations/_/Papa+Was+a+Rolling+Stone'
p304
S'1358873376'
p305
tp306
a(S'Aretha Franklin'
p307
S'Chain of Fools'
p308
S'http://www.last.fm/music/Aretha+Franklin/_/Chain+of+Fools'
p309
S'1358873206'
p310
tp311
a(S'Aretha Franklin'
p312
S"You're All I Need To Get By"
p313
S'http://www.last.fm/music/Aretha+Franklin/_/You%27re+All+I+Need+To+Get+By'
p314
S'1358872991'
p315
tp316
a(S'Tracy Chapman'
p317
S"Talkin' Bout a Revolution"
p318
S'http://www.last.fm/music/Tracy+Chapman/_/Talkin%27+Bout+a+Revolution'
p319
S'1358872824'
p320
tp321
a(S'Tracy Chapman'
p322
S'Fast Car'
p323
S'http://www.last.fm/music/Tracy+Chapman/_/Fast+Car'
p324
S'1358872527'
p325
tp326
a(S'Aretha Franklin'
p327
S"Money Won't Change You"
p328
S'http://www.last.fm/music/Aretha+Franklin/_/Money+Won%27t+Change+You'
p329
S'1358872472'
p330
tp331
a(S'Soundgarden'
p332
S'Taree'
p333
S'http://www.last.fm/music/Soundgarden/_/Taree'
p334
S'1358872253'
p335
tp336
a(S'U2'
p337
S'Discoteque'
p338
S'http://www.last.fm/music/U2/_/Discoteque'
p339
S'1358871940'
p340
tp341
a(S'Tracy Chapman'
p342
S'Baby Can I Hold You'
p343
S'http://www.last.fm/music/Tracy+Chapman/_/Baby+Can+I+Hold+You'
p344
S'1358871745'
p345
tp346
a(S'Aretha Franklin'
p347
S'Rock Steady'
p348
S'http://www.last.fm/music/Aretha+Franklin/_/Rock+Steady'
p349
S'1358871553'
p350
tp351
a(S'Jamiroquai'
p352
S"Time Won't Wait"
p353
S'http://www.last.fm/music/Jamiroquai/_/Time+Won%27t+Wait'
p354
S'1358860410'
p355
tp356
a(S'Marvin Gaye'
p357
S'I Heard It Through the Grapevine'
p358
S'http://www.last.fm/music/Marvin+Gaye/_/I+Heard+It+Through+the+Grapevine'
p359
S'1358860213'
p360
tp361
a(S'Aretha Franklin'
p362
S'Son Of A Preacher Man'
p363
S'http://www.last.fm/music/Aretha+Franklin/_/Son+Of+A+Preacher+Man'
p364
S'1358860015'
p365
tp366
a(S'Soundgarden'
p367
S'Rowing'
p368
S'http://www.last.fm/music/Soundgarden/_/Rowing'
p369
S'1358859710'
p370
tp371
a(S'Bill Withers'
p372
S"Ain't No Sunshine (Single Version)"
p373
S'http://www.last.fm/music/Bill+Withers/_/Ain%27t+No+Sunshine+(Single+Version)'
p374
S'1358859586'
p375
tp376
a(S'Albert King'
p377
S"I'll Play The Blues For You"
p378
S'http://www.last.fm/music/Albert+King/_/I%27ll+Play+The+Blues+For+You'
p379
S'1358859145'
p380
tp381
a(S'Soundgarden'
p382
S'Attrition'
p383
S'http://www.last.fm/music/Soundgarden/_/Attrition'
p384
S'1358858979'
p385
tp386
a(S'Chris Cornell'
p387
S'You Know My Name'
p388
S'http://www.last.fm/music/Chris+Cornell/_/You+Know+My+Name'
p389
S'1358858735'
p390
tp391
a(S'Marvin Gaye'
p392
S"Let's Get It On"
p393
S'http://www.last.fm/music/Marvin+Gaye/_/Let%27s+Get+It+On'
p394
S'1358858492'
p395
tp396
a(S'Al Green'
p397
S'Lets Stay Together'
p398
S'http://www.last.fm/music/Al+Green/_/Lets+Stay+Together'
p399
S'1358858294'
p400
tp401
a(S'Soundgarden'
p402
S"Eyelid's Mouth"
p403
S'http://www.last.fm/music/Soundgarden/_/Eyelid%27s+Mouth'
p404
S'1358858030'
p405
tp406
a(S'The Temptations'
p407
S'Papa Was a Rolling Stone'
p408
S'http://www.last.fm/music/The+Temptations/_/Papa+Was+a+Rolling+Stone'
p409
S'1358857610'
p410
tp411
a(S'Aretha Franklin'
p412
S'Chain of Fools'
p413
S'http://www.last.fm/music/Aretha+Franklin/_/Chain+of+Fools'
p414
S'1358857511'
p415
tp416
a(S'Aretha Franklin'
p417
S"You're All I Need To Get By"
p418
S'http://www.last.fm/music/Aretha+Franklin/_/You%27re+All+I+Need+To+Get+By'
p419
S'1358857295'
p420
tp421
a(S'Tracy Chapman'
p422
S"Talkin' Bout a Revolution"
p423
S'http://www.last.fm/music/Tracy+Chapman/_/Talkin%27+Bout+a+Revolution'
p424
S'1358857136'
p425
tp426
a(S'Tracy Chapman'
p427
S'Fast Car'
p428
S'http://www.last.fm/music/Tracy+Chapman/_/Fast+Car'
p429
S'1358856839'
p430
tp431
a(S'Tracy Chapman'
p432
S"Talkin' Bout a Revolution"
p433
S'http://www.last.fm/music/Tracy+Chapman/_/Talkin%27+Bout+a+Revolution'
p434
S'1358856657'
p435
tp436
a(S'Tracy Chapman'
p437
S'Fast Car'
p438
S'http://www.last.fm/music/Tracy+Chapman/_/Fast+Car'
p439
S'1358856360'
p440
tp441
a(S'Tracy Chapman'
p442
S'Give Me One Reason'
p443
S'http://www.last.fm/music/Tracy+Chapman/_/Give+Me+One+Reason'
p444
S'1358856089'
p445
tp446
a(S'Aretha Franklin'
p447
S'Think'
p448
S'http://www.last.fm/music/Aretha+Franklin/_/Think'
p449
S'1358855950'
p450
tp451
a(S'Aretha Franklin'
p452
S"Money Won't Change You"
p453
S'http://www.last.fm/music/Aretha+Franklin/_/Money+Won%27t+Change+You'
p454
S'1358855821'
p455
tp456
a(S'Soundgarden'
p457
S'Taree'
p458
S'http://www.last.fm/music/Soundgarden/_/Taree'
p459
S'1358855601'
p460
tp461
a(S'U2'
p462
S'Discoteque'
p463
S'http://www.last.fm/music/U2/_/Discoteque'
p464
S'1358855288'
p465
tp466
a(S'Tracy Chapman'
p467
S'Baby Can I Hold You'
p468
S'http://www.last.fm/music/Tracy+Chapman/_/Baby+Can+I+Hold+You'
p469
S'1358855094'
p470
tp471
a(S'Aretha Franklin'
p472
S'Rock Steady'
p473
S'http://www.last.fm/music/Aretha+Franklin/_/Rock+Steady'
p474
S'1358854901'
p475
tp476
a(S'Jamiroquai'
p477
S"Time Won't Wait"
p478
S'http://www.last.fm/music/Jamiroquai/_/Time+Won%27t+Wait'
p479
S'1358854599'
p480
tp481
a(S'Marvin Gaye'
p482
S'I Heard It Through the Grapevine'
p483
S'http://www.last.fm/music/Marvin+Gaye/_/I+Heard+It+Through+the+Grapevine'
p484
S'1358854401'
p485
tp486
a(S'Aretha Franklin'
p487
S'Son Of A Preacher Man'
p488
S'http://www.last.fm/music/Aretha+Franklin/_/Son+Of+A+Preacher+Man'
p489
S'1358854203'
p490
tp491
a(S'Soundgarden'
p492
S'Rowing'
p493
S'http://www.last.fm/music/Soundgarden/_/Rowing'
p494
S'1358853899'
p495
tp496
a(S'Bill Withers'
p497
S"Ain't No Sunshine (Single Version)"
p498
S'http://www.last.fm/music/Bill+Withers/_/Ain%27t+No+Sunshine+(Single+Version)'
p499
S'1358853775'
p500
tp501
a(S'Albert King'
p502
S"I'll Play The Blues For You"
p503
S'http://www.last.fm/music/Albert+King/_/I%27ll+Play+The+Blues+For+You'
p504
S'1358853334'
p505
tp506
a(S'Soundgarden'
p507
S'Attrition'
p508
S'http://www.last.fm/music/Soundgarden/_/Attrition'
p509
S'1358853167'
p510
tp511
a(S'Chris Cornell'
p512
S'You Know My Name'
p513
S'http://www.last.fm/music/Chris+Cornell/_/You+Know+My+Name'
p514
S'1358852924'
p515
tp516
a(S'Marvin Gaye'
p517
S"Let's Get It On"
p518
S'http://www.last.fm/music/Marvin+Gaye/_/Let%27s+Get+It+On'
p519
S'1358852681'
p520
tp521
a(S'Al Green'
p522
S'Lets Stay Together'
p523
S'http://www.last.fm/music/Al+Green/_/Lets+Stay+Together'
p524
S'1358852483'
p525
tp526
a(S'Soundgarden'
p527
S"Eyelid's Mouth"
p528
S'http://www.last.fm/music/Soundgarden/_/Eyelid%27s+Mouth'
p529
S'1358852214'
p530
tp531
a(S'The Temptations'
p532
S'Papa Was a Rolling Stone'
p533
S'http://www.last.fm/music/The+Temptations/_/Papa+Was+a+Rolling+Stone'
p534
S'1358851794'
p535
tp536
a(S'Aretha Franklin'
p537
S'Chain of Fools'
p538
S'http://www.last.fm/music/Aretha+Franklin/_/Chain+of+Fools'
p539
S'1358851596'
p540
tp541
a(S'Aretha Franklin'
p542
S"You're All I Need To Get By"
p543
S'http://www.last.fm/music/Aretha+Franklin/_/You%27re+All+I+Need+To+Get+By'
p544
S'1358851369'
p545
tp546
a(S'Aretha Franklin'
p547
S"Since You've Been Gone (Sweet Sweet Baby)"
p548
S'http://www.last.fm/music/Aretha+Franklin/_/Since+You%27ve+Been+Gone+(Sweet+Sweet+Baby)'
p549
S'1358851224'
p550
tp551
a(S'Tracy Chapman'
p552
S"Talkin' Bout a Revolution"
p553
S'http://www.last.fm/music/Tracy+Chapman/_/Talkin%27+Bout+a+Revolution'
p554
S'1358795355'
p555
tp556
a(S'Tracy Chapman'
p557
S'Fast Car'
p558
S'http://www.last.fm/music/Tracy+Chapman/_/Fast+Car'
p559
S'1358795058'
p560
tp561
a(S'Tracy Chapman'
p562
S'Give Me One Reason'
p563
S'http://www.last.fm/music/Tracy+Chapman/_/Give+Me+One+Reason'
p564
S'1358794787'
p565
tp566
a(S'Aretha Franklin'
p567
S'Think'
p568
S'http://www.last.fm/music/Aretha+Franklin/_/Think'
p569
S'1358794649'
p570
tp571
a(S'Aretha Franklin'
p572
S"Money Won't Change You"
p573
S'http://www.last.fm/music/Aretha+Franklin/_/Money+Won%27t+Change+You'
p574
S'1358794520'
p575
tp576
a(S'Soundgarden'
p577
S'Taree'
p578
S'http://www.last.fm/music/Soundgarden/_/Taree'
p579
S'1358794301'
p580
tp581
a(S'U2'
p582
S'Discoteque'
p583
S'http://www.last.fm/music/U2/_/Discoteque'
p584
S'1358793987'
p585
tp586
a(S'Tracy Chapman'
p587
S'Baby Can I Hold You'
p588
S'http://www.last.fm/music/Tracy+Chapman/_/Baby+Can+I+Hold+You'
p589
S'1358793793'
p590
tp591
a(S'Aretha Franklin'
p592
S'Rock Steady'
p593
S'http://www.last.fm/music/Aretha+Franklin/_/Rock+Steady'
p594
S'1358793601'
p595
tp596
a(S'Jamiroquai'
p597
S"Time Won't Wait"
p598
S'http://www.last.fm/music/Jamiroquai/_/Time+Won%27t+Wait'
p599
S'1358793298'
p600
tp601
a(S'Marvin Gaye'
p602
S'I Heard It Through the Grapevine'
p603
S'http://www.last.fm/music/Marvin+Gaye/_/I+Heard+It+Through+the+Grapevine'
p604
S'1358793103'
p605
tp606
a(S'Aretha Franklin'
p607
S'Son Of A Preacher Man'
p608
S'http://www.last.fm/music/Aretha+Franklin/_/Son+Of+A+Preacher+Man'
p609
S'1358792903'
p610
tp611
a(S'Soundgarden'
p612
S'Rowing'
p613
S'http://www.last.fm/music/Soundgarden/_/Rowing'
p614
S'1358792599'
p615
tp616
a(S'Bill Withers'
p617
S"Ain't No Sunshine (Single Version)"
p618
S'http://www.last.fm/music/Bill+Withers/_/Ain%27t+No+Sunshine+(Single+Version)'
p619
S'1358792474'
p620
tp621
a(S'Albert King'
p622
S"I'll Play The Blues For You"
p623
S'http://www.last.fm/music/Albert+King/_/I%27ll+Play+The+Blues+For+You'
p624
S'1358792034'
p625
tp626
a(S'Soundgarden'
p627
S'Attrition'
p628
S'http://www.last.fm/music/Soundgarden/_/Attrition'
p629
S'1358791868'
p630
tp631
a(S'Chris Cornell'
p632
S'You Know My Name'
p633
S'http://www.last.fm/music/Chris+Cornell/_/You+Know+My+Name'
p634
S'1358791624'
p635
tp636
a(S'Soundgarden'
p637
S'Attrition'
p638
S'http://www.last.fm/music/Soundgarden/_/Attrition'
p639
S'1358791099'
p640
tp641
a(S'Chris Cornell'
p642
S'You Know My Name'
p643
S'http://www.last.fm/music/Chris+Cornell/_/You+Know+My+Name'
p644
S'1358790796'
p645
tp646
a(S'Marvin Gaye'
p647
S"Let's Get It On"
p648
S'http://www.last.fm/music/Marvin+Gaye/_/Let%27s+Get+It+On'
p649
S'1358790553'
p650
tp651
a(S'Al Green'
p652
S'Lets Stay Together'
p653
S'http://www.last.fm/music/Al+Green/_/Lets+Stay+Together'
p654
S'1358790354'
p655
tp656
a(S'Soundgarden'
p657
S"Eyelid's Mouth"
p658
S'http://www.last.fm/music/Soundgarden/_/Eyelid%27s+Mouth'
p659
S'1358790086'
p660
tp661
a(S'The Temptations'
p662
S'Papa Was a Rolling Stone'
p663
S'http://www.last.fm/music/The+Temptations/_/Papa+Was+a+Rolling+Stone'
p664
S'1358789667'
p665
tp666
a(S'Soundgarden'
p667
S'Rowing'
p668
S'http://www.last.fm/music/Soundgarden/_/Rowing'
p669
S'1358782037'
p670
tp671
a(S'Soundgarden'
p672
S'Attrition'
p673
S'http://www.last.fm/music/Soundgarden/_/Attrition'
p674
S'1358781870'
p675
tp676
a(S'Al Green'
p677
S'Lets Stay Together'
p678
S'http://www.last.fm/music/Al+Green/_/Lets+Stay+Together'
p679
S'1358781672'
p680
tp681
a(S'The Temptations'
p682
S'Papa Was a Rolling Stone'
p683
S'http://www.last.fm/music/The+Temptations/_/Papa+Was+a+Rolling+Stone'
p684
S'1358781232'
p685
tp686
a(S'Aretha Franklin'
p687
S'Son Of A Preacher Man'
p688
S'http://www.last.fm/music/Aretha+Franklin/_/Son+Of+A+Preacher+Man'
p689
S'1358778830'
p690
tp691
a(S'Chris Cornell'
p692
S'You Know My Name'
p693
S'http://www.last.fm/music/Chris+Cornell/_/You+Know+My+Name'
p694
S'1358778587'
p695
tp696
a(S'Albert King'
p697
S"I'll Play The Blues For You"
p698
S'http://www.last.fm/music/Albert+King/_/I%27ll+Play+The+Blues+For+You'
p699
S'1358778146'
p700
tp701
a(S'Bill Withers'
p702
S"Ain't No Sunshine (Single Version)"
p703
S'http://www.last.fm/music/Bill+Withers/_/Ain%27t+No+Sunshine+(Single+Version)'
p704
S'1358778022'
p705
tp706
a(S'Diana Ross and the Supremes'
p707
S"You Can't Hurry Love"
p708
S'http://www.last.fm/music/Diana+Ross+and+the+Supremes/_/You+Can%27t+Hurry+Love'
p709
S'1358777847'
p710
tp711
a(S'Marvin Gaye'
p712
S'I Heard It Through the Grapevine'
p713
S'http://www.last.fm/music/Marvin+Gaye/_/I+Heard+It+Through+the+Grapevine'
p714
S'1358777650'
p715
tp716
a(S'U2'
p717
S'Bullet the Blue Sky'
p718
S'http://www.last.fm/music/U2/_/Bullet+the+Blue+Sky'
p719
S'1358777378'
p720
tp721
a(S'U2'
p722
S'Hold Me, Thrill Me, Kiss Me, Kill Me'
p723
S'http://www.last.fm/music/U2/_/Hold+Me,+Thrill+Me,+Kiss+Me,+Kill+Me'
p724
S'1358777092'
p725
tp726
a(S'Marvin Gaye'
p727
S"Let's Get It On"
p728
S'http://www.last.fm/music/Marvin+Gaye/_/Let%27s+Get+It+On'
p729
S'1358776849'
p730
tp731
a(S'Soundgarden'
p732
S'Taree'
p733
S'http://www.last.fm/music/Soundgarden/_/Taree'
p734
S'1358776630'
p735
tp736
a(S'Soundgarden'
p737
S"Eyelid's Mouth"
p738
S'http://www.last.fm/music/Soundgarden/_/Eyelid%27s+Mouth'
p739
S'1358776362'
p740
tp741
a(S'Jamiroquai'
p742
S"Time Won't Wait"
p743
S'http://www.last.fm/music/Jamiroquai/_/Time+Won%27t+Wait'
p744
S'1358776060'
p745
tp746
a(S'U2'
p747
S'Discoteque'
p748
S'http://www.last.fm/music/U2/_/Discoteque'
p749
S'1358775746'
p750
tp751
a(S'Soundgarden'
p752
S'Rowing'
p753
S'http://www.last.fm/music/Soundgarden/_/Rowing'
p754
S'1358775449'
p755
tp756
a(S'Soundgarden'
p757
S'Attrition'
p758
S'http://www.last.fm/music/Soundgarden/_/Attrition'
p759
S'1358775275'
p760
tp761
a(S'Al Green'
p762
S'Lets Stay Together'
p763
S'http://www.last.fm/music/Al+Green/_/Lets+Stay+Together'
p764
S'1358775077'
p765
tp766
a(S'The Temptations'
p767
S'Papa Was a Rolling Stone'
p768
S'http://www.last.fm/music/The+Temptations/_/Papa+Was+a+Rolling+Stone'
p769
S'1358774689'
p770
tp771
a(S'Aretha Franklin'
p772
S'Son Of A Preacher Man'
p773
S'http://www.last.fm/music/Aretha+Franklin/_/Son+Of+A+Preacher+Man'
p774
S'1358774491'
p775
tp776
a(S'Chris Cornell'
p777
S'You Know My Name'
p778
S'http://www.last.fm/music/Chris+Cornell/_/You+Know+My+Name'
p779
S'1358774247'
p780
tp781
a(S'Albert King'
p782
S"I'll Play The Blues For You"
p783
S'http://www.last.fm/music/Albert+King/_/I%27ll+Play+The+Blues+For+You'
p784
S'1358773807'
p785
tp786
a(S'Bill Withers'
p787
S"Ain't No Sunshine (Single Version)"
p788
S'http://www.last.fm/music/Bill+Withers/_/Ain%27t+No+Sunshine+(Single+Version)'
p789
S'1358773683'
p790
tp791
a(S'Diana Ross and the Supremes'
p792
S"You Can't Hurry Love"
p793
S'http://www.last.fm/music/Diana+Ross+and+the+Supremes/_/You+Can%27t+Hurry+Love'
p794
S'1358773508'
p795
tp796
a(S'Marvin Gaye'
p797
S'I Heard It Through the Grapevine'
p798
S'http://www.last.fm/music/Marvin+Gaye/_/I+Heard+It+Through+the+Grapevine'
p799
S'1358773311'
p800
tp801
a(S'U2'
p802
S'Bullet the Blue Sky'
p803
S'http://www.last.fm/music/U2/_/Bullet+the+Blue+Sky'
p804
S'1358773039'
p805
tp806
a(S'U2'
p807
S'Hold Me, Thrill Me, Kiss Me, Kill Me'
p808
S'http://www.last.fm/music/U2/_/Hold+Me,+Thrill+Me,+Kiss+Me,+Kill+Me'
p809
S'1358772753'
p810
tp811
a(S'Marvin Gaye'
p812
S"Let's Get It On"
p813
S'http://www.last.fm/music/Marvin+Gaye/_/Let%27s+Get+It+On'
p814
S'1358772510'
p815
tp816
a(S'Soundgarden'
p817
S'Taree'
p818
S'http://www.last.fm/music/Soundgarden/_/Taree'
p819
S'1358772291'
p820
tp821
a(S'Soundgarden'
p822
S"Eyelid's Mouth"
p823
S'http://www.last.fm/music/Soundgarden/_/Eyelid%27s+Mouth'
p824
S'1358772023'
p825
tp826
a(S'Jamiroquai'
p827
S"Time Won't Wait"
p828
S'http://www.last.fm/music/Jamiroquai/_/Time+Won%27t+Wait'
p829
S'1358771721'
p830
tp831
a(S'Jamiroquai'
p832
S"Time Won't Wait"
p833
S'http://www.last.fm/music/Jamiroquai/_/Time+Won%27t+Wait'
p834
S'1358510512'
p835
tp836
a(S'Soundgarden'
p837
S'Rowing'
p838
S'http://www.last.fm/music/Soundgarden/_/Rowing'
p839
S'1358510208'
p840
tp841
a(S'Soundgarden'
p842
S"Eyelid's Mouth"
p843
S'http://www.last.fm/music/Soundgarden/_/Eyelid%27s+Mouth'
p844
S'1358509940'
p845
tp846
a(S'Soundgarden'
p847
S'Attrition'
p848
S'http://www.last.fm/music/Soundgarden/_/Attrition'
p849
S'1358509773'
p850
tp851
a(S'Al Green'
p852
S'Lets Stay Together'
p853
S'http://www.last.fm/music/Al+Green/_/Lets+Stay+Together'
p854
S'1358509574'
p855
tp856
a(S'Soundgarden'
p857
S'Taree'
p858
S'http://www.last.fm/music/Soundgarden/_/Taree'
p859
S'1358509355'
p860
tp861
a(S'The Temptations'
p862
S'Papa Was a Rolling Stone'
p863
S'http://www.last.fm/music/The+Temptations/_/Papa+Was+a+Rolling+Stone'
p864
S'1358508936'
p865
tp866
a(S'Marvin Gaye'
p867
S'I Heard It Through the Grapevine'
p868
S'http://www.last.fm/music/Marvin+Gaye/_/I+Heard+It+Through+the+Grapevine'
p869
S'1358508739'
p870
tp871
a(S'The Blues Brothers'
p872
S'Minnie the Moocher'
p873
S'http://www.last.fm/music/The+Blues+Brothers/_/Minnie+the+Moocher'
p874
S'1358440749'
p875
tp876
a(S'Marvin Gaye'
p877
S'I Heard It Through the Grapevine'
p878
S'http://www.last.fm/music/Marvin+Gaye/_/I+Heard+It+Through+the+Grapevine'
p879
S'1358440552'
p880
tp881
a(S'Soundgarden'
p882
S'Rowing'
p883
S'http://www.last.fm/music/Soundgarden/_/Rowing'
p884
S'1358440247'
p885
tp886
a(S'Al Green'
p887
S'Lets Stay Together'
p888
S'http://www.last.fm/music/Al+Green/_/Lets+Stay+Together'
p889
S'1358440048'
p890
tp891
a(S'Marvin Gaye'
p892
S"Let's Get It On"
p893
S'http://www.last.fm/music/Marvin+Gaye/_/Let%27s+Get+It+On'
p894
S'1358439806'
p895
tp896
a(S'Aretha Franklin'
p897
S'Son Of A Preacher Man'
p898
S'http://www.last.fm/music/Aretha+Franklin/_/Son+Of+A+Preacher+Man'
p899
S'1358439608'
p900
tp901
a(S'Diana Ross and the Supremes'
p902
S"You Can't Hurry Love"
p903
S'http://www.last.fm/music/Diana+Ross+and+the+Supremes/_/You+Can%27t+Hurry+Love'
p904
S'1358439488'
p905
tp906
a(S'Soundgarden'
p907
S'Taree'
p908
S'http://www.last.fm/music/Soundgarden/_/Taree'
p909
S'1358439269'
p910
tp911
a(S'U2'
p912
S'Hold Me, Thrill Me, Kiss Me, Kill Me'
p913
S'http://www.last.fm/music/U2/_/Hold+Me,+Thrill+Me,+Kiss+Me,+Kill+Me'
p914
S'1358438982'
p915
tp916
a(S'Soundgarden'
p917
S"Eyelid's Mouth"
p918
S'http://www.last.fm/music/Soundgarden/_/Eyelid%27s+Mouth'
p919
S'1358438714'
p920
tp921
a(S'Bill Withers'
p922
S"Ain't No Sunshine (Single Version)"
p923
S'http://www.last.fm/music/Bill+Withers/_/Ain%27t+No+Sunshine+(Single+Version)'
p924
S'1358438590'
p925
tp926
a(S'Journey'
p927
S'Separate Ways'
p928
S'http://www.last.fm/music/Journey/_/Separate+Ways'
p929
S'1358438262'
p930
tp931
a(S'U2'
p932
S'Discoteque'
p933
S'http://www.last.fm/music/U2/_/Discoteque'
p934
S'1358437948'
p935
tp936
a(S'The Temptations'
p937
S'Papa Was a Rolling Stone'
p938
S'http://www.last.fm/music/The+Temptations/_/Papa+Was+a+Rolling+Stone'
p939
S'1358437528'
p940
tp941
a(S'Jamiroquai'
p942
S"Time Won't Wait"
p943
S'http://www.last.fm/music/Jamiroquai/_/Time+Won%27t+Wait'
p944
S'1358437226'
p945
tp946
a(S'Foreigner'
p947
S'Double Vision'
p948
S'http://www.last.fm/music/Foreigner/_/Double+Vision'
p949
S'1358437075'
p950
tp951
a(S'The Blues Brothers'
p952
S'Minnie the Moocher'
p953
S'http://www.last.fm/music/The+Blues+Brothers/_/Minnie+the+Moocher'
p954
S'1358436869'
p955
tp956
a(S'Marvin Gaye'
p957
S'I Heard It Through the Grapevine'
p958
S'http://www.last.fm/music/Marvin+Gaye/_/I+Heard+It+Through+the+Grapevine'
p959
S'1358436266'
p960
tp961
a(S'Soundgarden'
p962
S'Rowing'
p963
S'http://www.last.fm/music/Soundgarden/_/Rowing'
p964
S'1358430119'
p965
tp966
a(S'U2'
p967
S'Discoteque'
p968
S'http://www.last.fm/music/U2/_/Discoteque'
p969
S'1358427288'
p970
tp971
a(S'The Temptations'
p972
S'Papa Was a Rolling Stone'
p973
S'http://www.last.fm/music/The+Temptations/_/Papa+Was+a+Rolling+Stone'
p974
S'1358426627'
p975
tp976
a(S'Jamiroquai'
p977
S"Time Won't Wait"
p978
S'http://www.last.fm/music/Jamiroquai/_/Time+Won%27t+Wait'
p979
S'1358426324'
p980
tp981
a(S'The Blues Brothers'
p982
S'Shake a Tail Feather'
p983
S'http://www.last.fm/music/The+Blues+Brothers/_/Shake+a+Tail+Feather'
p984
S'1358426157'
p985
tp986
a(S'Foreigner'
p987
S'Double Vision'
p988
S'http://www.last.fm/music/Foreigner/_/Double+Vision'
p989
S'1358425934'
p990
tp991
a(S'The Blues Brothers'
p992
S'Minnie the Moocher'
p993
S'http://www.last.fm/music/The+Blues+Brothers/_/Minnie+the+Moocher'
p994
S'1358425728'
p995
tp996
a(S'Marvin Gaye'
p997
S'I Heard It Through the Grapevine'
p998
S'http://www.last.fm/music/Marvin+Gaye/_/I+Heard+It+Through+the+Grapevine'
p999
S'1358425532'
p1000
tp1001
a.