(lp1
(S'Live'
p2
S'Lighthouse'
p3
S'http://www.last.fm/music/Live/_/Lighthouse'
p4
S'1159112898'
p5
tp6
a(S'Live'
p7
S'Sweet Release'
p8
S'http://www.last.fm/music/Live/_/Sweet+Release'
p9
S'1159112716'
p10
tp11
a(S'Live'
p12
S'River Town'
p13
S'http://www.last.fm/music/Live/_/River+Town'
p14
S'1159112467'
p15
tp16
a(S'Stone Temple Pilots'
p17
S'Vasoline'
p18
S'http://www.last.fm/music/Stone+Temple+Pilots/_/Vasoline'
p19
S'1158638228'
p20
tp21
a(S'Soundgarden'
p22
S'Come Together'
p23
S'http://www.last.fm/music/Soundgarden/_/Come+Together'
p24
S'1158637876'
p25
tp26
a(S'Mother Love Bone'
p27
S'Mindshaker Meltdown'
p28
S'http://www.last.fm/music/Mother+Love+Bone/_/Mindshaker+Meltdown'
p29
S'1158637650'
p30
tp31
a(S'Stone Temple Pilots'
p32
S'Transmissions From a Lonely Room'
p33
S'http://www.last.fm/music/Stone+Temple+Pilots/_/Transmissions+From+a+Lonely+Room'
p34
S'1158637433'
p35
tp36
a(S'Stone Temple Pilots'
p37
S'Still Remains'
p38
S'http://www.last.fm/music/Stone+Temple+Pilots/_/Still+Remains'
p39
S'1158637220'
p40
tp41
a(S'Live'
p42
S'Rattlesnake'
p43
S'http://www.last.fm/music/Live/_/Rattlesnake'
p44
S'1158636928'
p45
tp46
a(S'Stone Temple Pilots'
p47
S'Church on Tuesday'
p48
S'http://www.last.fm/music/Stone+Temple+Pilots/_/Church+on+Tuesday'
p49
S'1158636747'
p50
tp51
a(S'Alice in Chains'
p52
S'Would?'
p53
S'http://www.last.fm/music/Alice+in+Chains/_/Would%3F'
p54
S'1158636540'
p55
tp56
a(S'Stone Temple Pilots'
p57
S'Sex Type Thing'
p58
S'http://www.last.fm/music/Stone+Temple+Pilots/_/Sex+Type+Thing'
p59
S'1158636322'
p60
tp61
a(S"Jane's Addiction"
p62
S'Just Because'
p63
S'http://www.last.fm/music/Jane%27s+Addiction/_/Just+Because'
p64
S'1158636059'
p65
tp66
a(S'Stone Temple Pilots'
p67
S'Atlanta'
p68
S'http://www.last.fm/music/Stone+Temple+Pilots/_/Atlanta'
p69
S'1158635740'
p70
tp71
a(S'Live'
p72
S'She'
p73
S'http://www.last.fm/music/Live/_/She'
p74
S'1158635580'
p75
tp76
a(S'Soundgarden'
p77
S'Fell on Black Days'
p78
S'http://www.last.fm/music/Soundgarden/_/Fell+on+Black+Days'
p79
S'1158635298'
p80
tp81
a(S'Live'
p82
S'T.B.D.'
p83
S'http://www.last.fm/music/Live/_/T.B.D.'
p84
S'1158635010'
p85
tp86
a(S'Mother Love Bone'
p87
S'Stargazer'
p88
S'http://www.last.fm/music/Mother+Love+Bone/_/Stargazer'
p89
S'1158634717'
p90
tp91
a(S'Mad Season'
p92
S'River of Deceit'
p93
S'http://www.last.fm/music/Mad+Season/_/River+of+Deceit'
p94
S'1158634413'
p95
tp96
a(S'Mad Season'
p97
S"I'm Above"
p98
S'http://www.last.fm/music/Mad+Season/_/I%27m+Above'
p99
S'1158634069'
p100
tp101
a(S'Muddy Waters'
p102
S"I Can't Be Satisfied"
p103
S'http://www.last.fm/music/Muddy+Waters/_/I+Can%27t+Be+Satisfied'
p104
S'1158633887'
p105
tp106
a(S'The Allman Brothers Band'
p107
S'Midnight Rider'
p108
S'http://www.last.fm/music/The+Allman+Brothers+Band/_/Midnight+Rider'
p109
S'1158633488'
p110
tp111
a(S'Blues Traveler'
p112
S"Maybe I'm Wrong"
p113
S'http://www.last.fm/music/Blues+Traveler/_/Maybe+I%27m+Wrong'
p114
S'1158633142'
p115
tp116
a(S'Eric Clapton'
p117
S"I Ain't Gonna Stand For It"
p118
S'http://www.last.fm/music/Eric+Clapton/_/I+Ain%27t+Gonna+Stand+For+It'
p119
S'1158632852'
p120
tp121
a(S'Eric Clapton'
p122
S'Running on Faith'
p123
S'http://www.last.fm/music/Eric+Clapton/_/Running+on+Faith'
p124
S'1158632462'
p125
tp126
a(S'Eric Clapton'
p127
S'Old Love'
p128
S'http://www.last.fm/music/Eric+Clapton/_/Old+Love'
p129
S'1158631989'
p130
tp131
a(S'John Lee Hooker'
p132
S'Dimples'
p133
S'http://www.last.fm/music/John+Lee+Hooker/_/Dimples'
p134
S'1158631747'
p135
tp136
a(S'Tracy Chapman'
p137
S'Fast Car'
p138
S'http://www.last.fm/music/Tracy+Chapman/_/Fast+Car'
p139
S'1158631451'
p140
tp141
a(S'Shemekia Copeland'
p142
S'Salt In My Wounds'
p143
S'http://www.last.fm/music/Shemekia+Copeland/_/Salt+In+My+Wounds'
p144
S'1158631198'
p145
tp146
a(S'Santana'
p147
S'Black Magic Woman'
p148
S'http://www.last.fm/music/Santana/_/Black+Magic+Woman'
p149
S'1158630986'
p150
tp151
a(S'Santana'
p152
S'Hold On'
p153
S'http://www.last.fm/music/Santana/_/Hold+On'
p154
S'1158630724'
p155
tp156
a(S"Keb' Mo'"
p157
S'Riley B. King'
p158
S'http://www.last.fm/music/Keb%27+Mo%27/_/Riley+B.+King'
p159
S'1158630406'
p160
tp161
a(S'Muddy Waters'
p162
S'They Call Me Muddy Waters'
p163
S'http://www.last.fm/music/Muddy+Waters/_/They+Call+Me+Muddy+Waters'
p164
S'1158630201'
p165
tp166
a(S'Blues Traveler'
p167
S'Sweet Pain'
p168
S'http://www.last.fm/music/Blues+Traveler/_/Sweet+Pain'
p169
S'1158629740'
p170
tp171
a(S'Led Zeppelin'
p172
S'All My Love'
p173
S'http://www.last.fm/music/Led+Zeppelin/_/All+My+Love'
p174
S'1158629373'
p175
tp176
a(S'Aerosmith'
p177
S'Big Ten Inch Record'
p178
S'http://www.last.fm/music/Aerosmith/_/Big+Ten+Inch+Record'
p179
S'1158629238'
p180
tp181
a(S'The Beatles'
p182
S'Eleanor Rigby'
p183
S'http://www.last.fm/music/The+Beatles/_/Eleanor+Rigby'
p184
S'1158629114'
p185
tp186
a(S'Black Sabbath'
p187
S'Sabbath Bloody Sabbath'
p188
S'http://www.last.fm/music/Black+Sabbath/_/Sabbath+Bloody+Sabbath'
p189
S'1158628766'
p190
tp191
a(S'Black Sabbath'
p192
S'Snowblind'
p193
S'http://www.last.fm/music/Black+Sabbath/_/Snowblind'
p194
S'1158628435'
p195
tp196
a(S'Black Sabbath'
p197
S'N.I.B.'
p198
S'http://www.last.fm/music/Black+Sabbath/_/N.I.B.'
p199
S'1158628070'
p200
tp201
a(S'Black Sabbath'
p202
S'The Wizard'
p203
S'http://www.last.fm/music/Black+Sabbath/_/The+Wizard'
p204
S'1158627806'
p205
tp206
a(S'The Who'
p207
S"Won't Get Fooled Again"
p208
S'http://www.last.fm/music/The+Who/_/Won%27t+Get+Fooled+Again'
p209
S'1158627284'
p210
tp211
a(S'The Who'
p212
S'Pinball Wizard'
p213
S'http://www.last.fm/music/The+Who/_/Pinball+Wizard'
p214
S'1158627102'
p215
tp216
a(S'The Who'
p217
S'My Generation'
p218
S'http://www.last.fm/music/The+Who/_/My+Generation'
p219
S'1158626904'
p220
tp221
a(S'The Police'
p222
S'Roxanne'
p223
S'http://www.last.fm/music/The+Police/_/Roxanne'
p224
S'1158626709'
p225
tp226
a(S'The Rolling Stones'
p227
S"Jumpin' Jack Flash"
p228
S'http://www.last.fm/music/The+Rolling+Stones/_/Jumpin%27+Jack+Flash'
p229
S'1158626488'
p230
tp231
a(S'Queen'
p232
S'One Vision'
p233
S'http://www.last.fm/music/Queen/_/One+Vision'
p234
S'1158626245'
p235
tp236
a(S'Queen'
p237
S'Headlong'
p238
S'http://www.last.fm/music/Queen/_/Headlong'
p239
S'1158625972'
p240
tp241
a(S'Queen'
p242
S'Breakthru'
p243
S'http://www.last.fm/music/Queen/_/Breakthru'
p244
S'1158625723'
p245
tp246
a(S'Queen'
p247
S'A Kind of Magic'
p248
S'http://www.last.fm/music/Queen/_/A+Kind+of+Magic'
p249
S'1158625460'
p250
tp251
a(S'Queen'
p252
S'Killer Queen'
p253
S'http://www.last.fm/music/Queen/_/Killer+Queen'
p254
S'1158625279'
p255
tp256
a(S'Queen'
p257
S'Fat Bottomed Girls'
p258
S'http://www.last.fm/music/Queen/_/Fat+Bottomed+Girls'
p259
S'1158625077'
p260
tp261
a(S'Queen'
p262
S'Bohemian Rhapsody'
p263
S'http://www.last.fm/music/Queen/_/Bohemian+Rhapsody'
p264
S'1158624723'
p265
tp266
a(S'Led Zeppelin'
p267
S'Tangerine'
p268
S'http://www.last.fm/music/Led+Zeppelin/_/Tangerine'
p269
S'1158624533'
p270
tp271
a(S'Led Zeppelin'
p272
S'Ramble On'
p273
S'http://www.last.fm/music/Led+Zeppelin/_/Ramble+On'
p274
S'1158624270'
p275
tp276
a(S'Aerosmith'
p277
S'Walk This Way'
p278
S'http://www.last.fm/music/Aerosmith/_/Walk+This+Way'
p279
S'1158624049'
p280
tp281
a(S'Aerosmith'
p282
S'Somebody'
p283
S'http://www.last.fm/music/Aerosmith/_/Somebody'
p284
S'1158623823'
p285
tp286
a(S'Aerosmith'
p287
S'One Way Street'
p288
S'http://www.last.fm/music/Aerosmith/_/One+Way+Street'
p289
S'1158623402'
p290
tp291
a(S'Misfits'
p292
S'London Dungeon'
p293
S'http://www.last.fm/music/Misfits/_/London+Dungeon'
p294
S'1158623257'
p295
tp296
a(S'Misfits'
p297
S'We Are 138'
p298
S'http://www.last.fm/music/Misfits/_/We+Are+138'
p299
S'1158623172'
p300
tp301
a(S'Misfits'
p302
S'Blacklight'
p303
S'http://www.last.fm/music/Misfits/_/Blacklight'
p304
S'1158623084'
p305
tp306
a(S'Misfits'
p307
S'Spinal Remains'
p308
S'http://www.last.fm/music/Misfits/_/Spinal+Remains'
p309
S'1158623000'
p310
tp311
a(S'The Toy Dolls'
p312
S'Park Lane Punch Up'
p313
S'http://www.last.fm/music/The+Toy+Dolls/_/Park+Lane+Punch+Up'
p314
S'1158622775'
p315
tp316
a(S'Prong'
p317
S'London Dungeon'
p318
S'http://www.last.fm/music/Prong/_/London+Dungeon'
p319
S'1158622557'
p320
tp321
a(S'The Toy Dolls'
p322
S'Bare Faced Cheek'
p323
S'http://www.last.fm/music/The+Toy+Dolls/_/Bare+Faced+Cheek'
p324
S'1158622506'
p325
tp326
a(S'The Toy Dolls'
p327
S'Howza Bouta Kiss Babe??!'
p328
S'http://www.last.fm/music/The+Toy+Dolls/_/Howza+Bouta+Kiss+Babe%3F%3F!'
p329
S'1158622336'
p330
tp331
a(S'The Toy Dolls'
p332
S'Quick to Quit the Quentin'
p333
S'http://www.last.fm/music/The+Toy+Dolls/_/Quick+to+Quit+the+Quentin'
p334
S'1158622167'
p335
tp336
a(S'Misfits'
p337
S'Last Caress'
p338
S'http://www.last.fm/music/Misfits/_/Last+Caress'
p339
S'1158622050'
p340
tp341
a(S'Misfits'
p342
S'Saturday Night'
p343
S'http://www.last.fm/music/Misfits/_/Saturday+Night'
p344
S'1158621841'
p345
tp346
a(S'Misfits'
p347
S'Helena'
p348
S'http://www.last.fm/music/Misfits/_/Helena'
p349
S'1158621641'
p350
tp351
a(S'Misfits'
p352
S'Descending Angel'
p353
S'http://www.last.fm/music/Misfits/_/Descending+Angel'
p354
S'1158621415'
p355
tp356
a(S'Misfits'
p357
S'Monster Mash'
p358
S'http://www.last.fm/music/Misfits/_/Monster+Mash'
p359
S'1158621258'
p360
tp361
a(S'Alice in Chains'
p362
S'Sea of Sorrow'
p363
S'http://www.last.fm/music/Alice+in+Chains/_/Sea+of+Sorrow'
p364
S'1158424500'
p365
tp366
a(S'Alice in Chains'
p367
S'Bleed the Freak'
p368
S'http://www.last.fm/music/Alice+in+Chains/_/Bleed+the+Freak'
p369
S'1158424259'
p370
tp371
a(S'Alice in Chains'
p372
S'Man in the Box'
p373
S'http://www.last.fm/music/Alice+in+Chains/_/Man+in+the+Box'
p374
S'1158424005'
p375
tp376
a(S'Alice in Chains'
p377
S'God Smack'
p378
S'http://www.last.fm/music/Alice+in+Chains/_/God+Smack'
p379
S'1158423774'
p380
tp381
a(S'Live'
p382
S'The Dam At Otter Creek'
p383
S'http://www.last.fm/music/Live/_/The+Dam+At+Otter+Creek'
p384
S'1158423491'
p385
tp386
a(S'Alice in Chains'
p387
S'Whale & Wasp'
p388
S'http://www.last.fm/music/Alice+in+Chains/_/Whale+&+Wasp'
p389
S'1158423334'
p390
tp391
a(S'Mudhoney'
p392
S'Poisoned Water'
p393
S'http://www.last.fm/music/Mudhoney/_/Poisoned+Water'
p394
S'1158423168'
p395
tp396
a(S'Stone Temple Pilots'
p397
S'Naked Sunday'
p398
S'http://www.last.fm/music/Stone+Temple+Pilots/_/Naked+Sunday'
p399
S'1158422879'
p400
tp401
a(S'Stone Temple Pilots'
p402
S'Church on Tuesday'
p403
S'http://www.last.fm/music/Stone+Temple+Pilots/_/Church+on+Tuesday'
p404
S'1158422638'
p405
tp406
a(S'Mother Love Bone'
p407
S'Stargazer'
p408
S'http://www.last.fm/music/Mother+Love+Bone/_/Stargazer'
p409
S'1158422345'
p410
tp411
a(S'Live'
p412
S'Lighthouse'
p413
S'http://www.last.fm/music/Live/_/Lighthouse'
p414
S'1158422157'
p415
tp416
a(S'Alice Cooper'
p417
S'Wind-Up Toy'
p418
S'http://www.last.fm/music/Alice+Cooper/_/Wind-Up+Toy'
p419
S'1158421830'
p420
tp421
a(S'Alice Cooper'
p422
S'Little By Little'
p423
S'http://www.last.fm/music/Alice+Cooper/_/Little+By+Little'
p424
S'1158421555'
p425
tp426
a(S'Alice Cooper'
p427
S'Hurricane Years'
p428
S'http://www.last.fm/music/Alice+Cooper/_/Hurricane+Years'
p429
S'1158421316'
p430
tp431
a(S'Alice Cooper'
p432
S'Might As Well Be on Mars'
p433
S'http://www.last.fm/music/Alice+Cooper/_/Might+As+Well+Be+on+Mars'
p434
S'1158420886'
p435
tp436
a(S'Alice Cooper'
p437
S'Dangerous Tonight'
p438
S'http://www.last.fm/music/Alice+Cooper/_/Dangerous+Tonight'
p439
S'1158420605'
p440
tp441
a(S'Alice Cooper'
p442
S'Burning Our Bed'
p443
S'http://www.last.fm/music/Alice+Cooper/_/Burning+Our+Bed'
p444
S'1158420330'
p445
tp446
a(S'Alice Cooper'
p447
S'Snakebite'
p448
S'http://www.last.fm/music/Alice+Cooper/_/Snakebite'
p449
S'1158419977'
p450
tp451
a(S'Stone Temple Pilots'
p452
S'Army Ants'
p453
S'http://www.last.fm/music/Stone+Temple+Pilots/_/Army+Ants'
p454
S'1158419745'
p455
tp456
a(S'Live'
p457
S'Show'
p458
S'http://www.last.fm/music/Live/_/Show'
p459
S'1158419540'
p460
tp461
a(S'Mother Love Bone'
p462
S'Chloe Dancer/Crown of Thorns'
p463
S'http://www.last.fm/music/Mother+Love+Bone/_/Chloe+Dancer%2FCrown+of+Thorns'
p464
S'1158419038'
p465
tp466
a(S'Mother Love Bone'
p467
S'Gentle Groove'
p468
S'http://www.last.fm/music/Mother+Love+Bone/_/Gentle+Groove'
p469
S'1158418794'
p470
tp471
a(S'Mother Love Bone'
p472
S'Heartshine'
p473
S'http://www.last.fm/music/Mother+Love+Bone/_/Heartshine'
p474
S'1158418516'
p475
tp476
a(S'Mother Love Bone'
p477
S'Stargazer'
p478
S'http://www.last.fm/music/Mother+Love+Bone/_/Stargazer'
p479
S'1158418223'
p480
tp481
a(S'Mother Love Bone'
p482
S'Mindshaker Meltdown'
p483
S'http://www.last.fm/music/Mother+Love+Bone/_/Mindshaker+Meltdown'
p484
S'1158417996'
p485
tp486
a(S'Mother Love Bone'
p487
S'Come Bite The Apple'
p488
S'http://www.last.fm/music/Mother+Love+Bone/_/Come+Bite+The+Apple'
p489
S'1158417671'
p490
tp491
a(S'Nirvana'
p492
S'Pennyroyal Tea (Unplugged)'
p493
S'http://www.last.fm/music/Nirvana/_/Pennyroyal+Tea+(Unplugged)'
p494
S'1158417521'
p495
tp496
a(S'Mad Season'
p497
S'River of Deceit'
p498
S'http://www.last.fm/music/Mad+Season/_/River+of+Deceit'
p499
S'1158417217'
p500
tp501
a(S'Mad Season'
p502
S"I'm Above"
p503
S'http://www.last.fm/music/Mad+Season/_/I%27m+Above'
p504
S'1158416872'
p505
tp506
a(S'Live'
p507
S'Like I Do'
p508
S'http://www.last.fm/music/Live/_/Like+I+Do'
p509
S'1158416617'
p510
tp511
a(S'Live'
p512
S'River Town'
p513
S'http://www.last.fm/music/Live/_/River+Town'
p514
S'1158416368'
p515
tp516
a(S'Live'
p517
S'Lighthouse'
p518
S'http://www.last.fm/music/Live/_/Lighthouse'
p519
S'1158416180'
p520
tp521
a(S'Live'
p522
S'Sweet Release'
p523
S'http://www.last.fm/music/Live/_/Sweet+Release'
p524
S'1158415997'
p525
tp526
a(S'Alice in Chains'
p527
S"Don't Follow"
p528
S'http://www.last.fm/music/Alice+in+Chains/_/Don%27t+Follow'
p529
S'1158415735'
p530
tp531
a(S'Nirvana'
p532
S'About a Girl'
p533
S'http://www.last.fm/music/Nirvana/_/About+a+Girl'
p534
S'1158415566'
p535
tp536
a(S'Queens of the Stone Age'
p537
S'No One Knows'
p538
S'http://www.last.fm/music/Queens+of+the+Stone+Age/_/No+One+Knows'
p539
S'1158415279'
p540
tp541
a(S'Alice in Chains'
p542
S'Love, Hate, Love'
p543
S'http://www.last.fm/music/Alice+in+Chains/_/Love,+Hate,+Love'
p544
S'1158414893'
p545
tp546
a(S'Blues Traveler'
p547
S'Sweet Pain'
p548
S'http://www.last.fm/music/Blues+Traveler/_/Sweet+Pain'
p549
S'1158414417'
p550
tp551
a(S'John Lee Hooker'
p552
S'The Healer'
p553
S'http://www.last.fm/music/John+Lee+Hooker/_/The+Healer'
p554
S'1158285818'
p555
tp556
a(S'Eric Clapton'
p557
S'Running on Faith'
p558
S'http://www.last.fm/music/Eric+Clapton/_/Running+on+Faith'
p559
S'1158285428'
p560
tp561
a(S'Blues Traveler'
p562
S'Support Your Local Emperor'
p563
S'http://www.last.fm/music/Blues+Traveler/_/Support+Your+Local+Emperor'
p564
S'1158120904'
p565
tp566
a(S'B.B. King'
p567
S'Paying The Cost To Be The Boss'
p568
S'http://www.last.fm/music/B.B.+King/_/Paying+The+Cost+To+Be+The+Boss'
p569
S'1158120688'
p570
tp571
a(S'John Hiatt'
p572
S'Lift Up Every Stone'
p573
S'http://www.last.fm/music/John+Hiatt/_/Lift+Up+Every+Stone'
p574
S'1158120493'
p575
tp576
a(S'Albert King'
p577
S'Crosscut Saw'
p578
S'http://www.last.fm/music/Albert+King/_/Crosscut+Saw'
p579
S'1158120338'
p580
tp581
a(S'Albert King'
p582
S'Get Out Of My Life Woman'
p583
S'http://www.last.fm/music/Albert+King/_/Get+Out+Of+My+Life+Woman'
p584
S'1158120115'
p585
tp586
a(S'Albert King'
p587
S"That's What The Blues Is All About"
p588
S'http://www.last.fm/music/Albert+King/_/That%27s+What+The+Blues+Is+All+About'
p589
S'1158119879'
p590
tp591
a(S'Aretha Franklin'
p592
S"Since You've Been Gone"
p593
S'http://www.last.fm/music/Aretha+Franklin/_/Since+You%27ve+Been+Gone'
p594
S'1158119733'
p595
tp596
a(S'The Allman Brothers Band'
p597
S'Midnight Rider'
p598
S'http://www.last.fm/music/The+Allman+Brothers+Band/_/Midnight+Rider'
p599
S'1158119550'
p600
tp601
a(S'Blues Traveler'
p602
S'Ivory Tusk'
p603
S'http://www.last.fm/music/Blues+Traveler/_/Ivory+Tusk'
p604
S'1158119235'
p605
tp606
a(S'Blues Traveler'
p607
S'But Anyway'
p608
S'http://www.last.fm/music/Blues+Traveler/_/But+Anyway'
p609
S'1158118879'
p610
tp611
a(S'John Hiatt'
p612
S'Crossing Muddy Waters'
p613
S'http://www.last.fm/music/John+Hiatt/_/Crossing+Muddy+Waters'
p614
S'1158118634'
p615
tp616
a(S'John Lee Hooker'
p617
S'This Is Hip'
p618
S'http://www.last.fm/music/John+Lee+Hooker/_/This+Is+Hip'
p619
S'1158118428'
p620
tp621
a(S'John Lee Hooker'
p622
S'The Healer'
p623
S'http://www.last.fm/music/John+Lee+Hooker/_/The+Healer'
p624
S'1158118088'
p625
tp626
a(S'John Lee Hooker'
p627
S"I'm in the Mood"
p628
S'http://www.last.fm/music/John+Lee+Hooker/_/I%27m+in+the+Mood'
p629
S'1158117818'
p630
tp631
a(S'John Lee Hooker'
p632
S'Dimples'
p633
S'http://www.last.fm/music/John+Lee+Hooker/_/Dimples'
p634
S'1158117576'
p635
tp636
a(S'Muddy Waters'
p637
S"Baby Please Don't Go"
p638
S'http://www.last.fm/music/Muddy+Waters/_/Baby+Please+Don%27t+Go'
p639
S'1158117379'
p640
tp641
a(S'Santana'
p642
S'Hold On'
p643
S'http://www.last.fm/music/Santana/_/Hold+On'
p644
S'1158117117'
p645
tp646
a(S'Shemekia Copeland'
p647
S'Salt In My Wounds'
p648
S'http://www.last.fm/music/Shemekia+Copeland/_/Salt+In+My+Wounds'
p649
S'1158116864'
p650
tp651
a(S'ZZ Top'
p652
S'Breakaway'
p653
S'http://www.last.fm/music/ZZ+Top/_/Breakaway'
p654
S'1158116566'
p655
tp656
a(S'ZZ Top'
p657
S'World of Swirl'
p658
S'http://www.last.fm/music/ZZ+Top/_/World+of+Swirl'
p659
S'1158116319'
p660
tp661
a(S'ZZ Top'
p662
S'Fuzzbox Voodoo'
p663
S'http://www.last.fm/music/ZZ+Top/_/Fuzzbox+Voodoo'
p664
S'1158116036'
p665
tp666
a(S'Tracy Chapman'
p667
S'Fast Car'
p668
S'http://www.last.fm/music/Tracy+Chapman/_/Fast+Car'
p669
S'1158115739'
p670
tp671
a(S'The Yardbirds'
p672
S'Good Morning Little Schoolgirl'
p673
S'http://www.last.fm/music/The+Yardbirds/_/Good+Morning+Little+Schoolgirl'
p674
S'1158115571'
p675
tp676
a(S'Stevie Ray Vaughan and Double Trouble'
p677
S'Change It'
p678
S'http://www.last.fm/music/Stevie+Ray+Vaughan+and+Double+Trouble/_/Change+It'
p679
S'1158115267'
p680
tp681
a(S'ZZ Top'
p682
S'Fuzzbox Voodoo'
p683
S'http://www.last.fm/music/ZZ+Top/_/Fuzzbox+Voodoo'
p684
S'1158114984'
p685
tp686
a(S'Albert King'
p687
S'The Hunter'
p688
S'http://www.last.fm/music/Albert+King/_/The+Hunter'
p689
S'1158114818'
p690
tp691
a(S'Albert King'
p692
S'Flat Tire'
p693
S'http://www.last.fm/music/Albert+King/_/Flat+Tire'
p694
S'1158114651'
p695
tp696
a(S'Eric Clapton'
p697
S'Modern Girl'
p698
S'http://www.last.fm/music/Eric+Clapton/_/Modern+Girl'
p699
S'1158114362'
p700
tp701
a(S'Eric Clapton'
p702
S'Everything I Do Is Wrong'
p703
S'http://www.last.fm/music/Eric+Clapton/_/Everything+I+Do+Is+Wrong'
p704
S'1158114195'
p705
tp706
a(S'Santana'
p707
S'Africa Bamba'
p708
S'http://www.last.fm/music/Santana/_/Africa+Bamba'
p709
S'1158113913'
p710
tp711
a(S'Santana'
p712
S'Migra'
p713
S'http://www.last.fm/music/Santana/_/Migra'
p714
S'1158113584'
p715
tp716
a(S'Buddy Guy'
p717
S'Leave My Girl Alone'
p718
S'http://www.last.fm/music/Buddy+Guy/_/Leave+My+Girl+Alone'
p719
S'1158113378'
p720
tp721
a(S'Stevie Ray Vaughan and Double Trouble'
p722
S'Voodoo Chile (Slight Return)'
p723
S'http://www.last.fm/music/Stevie+Ray+Vaughan+and+Double+Trouble/_/Voodoo+Chile+(Slight+Return)'
p724
S'1158112801'
p725
tp726
a(S'Santana'
p727
S'Oye Como Va'
p728
S'http://www.last.fm/music/Santana/_/Oye+Como+Va'
p729
S'1158112542'
p730
tp731
a(S'Eric Clapton'
p732
S'White Room'
p733
S'http://www.last.fm/music/Eric+Clapton/_/White+Room'
p734
S'1158112241'
p735
tp736
a(S'B.B. King'
p737
S"Ain't Nobody Home"
p738
S'http://www.last.fm/music/B.B.+King/_/Ain%27t+Nobody+Home'
p739
S'1158111797'
p740
tp741
a(S'Albert King'
p742
S'Personal Manager'
p743
S'http://www.last.fm/music/Albert+King/_/Personal+Manager'
p744
S'1158111527'
p745
tp746
a(S'Eric Clapton'
p747
S'Blues Leave Me Alone'
p748
S'http://www.last.fm/music/Eric+Clapton/_/Blues+Leave+Me+Alone'
p749
S'1158111310'
p750
tp751
a(S'Elmore James'
p752
S'Baby Please Set A Date'
p753
S'http://www.last.fm/music/Elmore+James/_/Baby+Please+Set+A+Date'
p754
S'1158111137'
p755
tp756
a(S'ZZ Top'
p757
S'Cover Your Rig'
p758
S'http://www.last.fm/music/ZZ+Top/_/Cover+Your+Rig'
p759
S'1158110788'
p760
tp761
a(S'ZZ Top'
p762
S'PCH'
p763
S'http://www.last.fm/music/ZZ+Top/_/PCH'
p764
S'1158110550'
p765
tp766
a(S'The Yardbirds'
p767
S'Little Red Rooster'
p768
S'http://www.last.fm/music/The+Yardbirds/_/Little+Red+Rooster'
p769
S'1158110318'
p770
tp771
a(S'The Yardbirds'
p772
S'Little Red Rooster (Rehearsal)'
p773
S'http://www.last.fm/music/The+Yardbirds/_/Little+Red+Rooster+(Rehearsal)'
p774
S'1158110200'
p775
tp776
a(S'Stevie Ray Vaughan and Double Trouble'
p777
S"Ain't Gone 'N' Give Up On Love"
p778
S'http://www.last.fm/music/Stevie+Ray+Vaughan+and+Double+Trouble/_/Ain%27t+Gone+%27N%27+Give+Up+On+Love'
p779
S'1158109816'
p780
tp781
a(S'Shemekia Copeland'
p782
S'Has Anybody Seen My Man?'
p783
S'http://www.last.fm/music/Shemekia+Copeland/_/Has+Anybody+Seen+My+Man%3F'
p784
S'1158109599'
p785
tp786
a(S'Muddy Waters'
p787
S'They Call Me Muddy Waters'
p788
S'http://www.last.fm/music/Muddy+Waters/_/They+Call+Me+Muddy+Waters'
p789
S'1158109393'
p790
tp791
a(S'Elmore James'
p792
S'She Done Moved'
p793
S'http://www.last.fm/music/Elmore+James/_/She+Done+Moved'
p794
S'1158109282'
p795
tp796
a(S'Albert King'
p797
S'Get Out Of My Life Woman'
p798
S'http://www.last.fm/music/Albert+King/_/Get+Out+Of+My+Life+Woman'
p799
S'1158109059'
p800
tp801
a(S'B.B. King'
p802
S'Sweet Little Angel'
p803
S'http://www.last.fm/music/B.B.+King/_/Sweet+Little+Angel'
p804
S'1158108748'
p805
tp806
a(S'Blues Traveler'
p807
S'Sweet Pain'
p808
S'http://www.last.fm/music/Blues+Traveler/_/Sweet+Pain'
p809
S'1158108286'
p810
tp811
a(S'Eric Clapton'
p812
S'Broken Down'
p813
S'http://www.last.fm/music/Eric+Clapton/_/Broken+Down'
p814
S'1158107960'
p815
tp816
a(S'Eric Clapton'
p817
S'Running on Faith'
p818
S'http://www.last.fm/music/Eric+Clapton/_/Running+on+Faith'
p819
S'1158107572'
p820
tp821
a(S'Alice in Chains'
p822
S'Sludge Factory (Unplugged)'
p823
S'http://www.last.fm/music/Alice+in+Chains/_/Sludge+Factory+(Unplugged)'
p824
S'1158032392'
p825
tp826
a(S'Alice in Chains'
p827
S'Would?'
p828
S'http://www.last.fm/music/Alice+in+Chains/_/Would%3F'
p829
S'1158032184'
p830
tp831
a(S'Stone Temple Pilots'
p832
S"Trippin' on a Hole in a Paper Heart"
p833
S'http://www.last.fm/music/Stone+Temple+Pilots/_/Trippin%27+on+a+Hole+in+a+Paper+Heart'
p834
S'1158032009'
p835
tp836
a(S'Soundgarden'
p837
S'Loud Love'
p838
S'http://www.last.fm/music/Soundgarden/_/Loud+Love'
p839
S'1158031698'
p840
tp841
a(S"Jane's Addiction"
p842
S'Just Because'
p843
S'http://www.last.fm/music/Jane%27s+Addiction/_/Just+Because'
p844
S'1158031460'
p845
tp846
a(S'Mother Love Bone'
p847
S'Lady Godiva Blues'
p848
S'http://www.last.fm/music/Mother+Love+Bone/_/Lady+Godiva+Blues'
p849
S'1158031257'
p850
tp851
a(S'Alice in Chains'
p852
S'Get Born Again'
p853
S'http://www.last.fm/music/Alice+in+Chains/_/Get+Born+Again'
p854
S'1158030929'
p855
tp856
a(S'Stone Temple Pilots'
p857
S'Transmissions From a Lonely Room'
p858
S'http://www.last.fm/music/Stone+Temple+Pilots/_/Transmissions+From+a+Lonely+Room'
p859
S'1158030734'
p860
tp861
a(S'Live'
p862
S'Sun'
p863
S'http://www.last.fm/music/Live/_/Sun'
p864
S'1158030521'
p865
tp866
a(S'Alice in Chains'
p867
S'Angry Chair'
p868
S'http://www.last.fm/music/Alice+in+Chains/_/Angry+Chair'
p869
S'1158030233'
p870
tp871
a(S'Mad Season'
p872
S"I'm Above"
p873
S'http://www.last.fm/music/Mad+Season/_/I%27m+Above'
p874
S'1158029889'
p875
tp876
a(S'Live'
p877
S'Mystery'
p878
S'http://www.last.fm/music/Live/_/Mystery'
p879
S'1158029645'
p880
tp881
a(S'Live'
p882
S'Like I Do'
p883
S'http://www.last.fm/music/Live/_/Like+I+Do'
p884
S'1158029390'
p885
tp886
a(S'Alice in Chains'
p887
S'Brush Away'
p888
S'http://www.last.fm/music/Alice+in+Chains/_/Brush+Away'
p889
S'1158029188'
p890
tp891
a(S'Live'
p892
S'Deep Enough (Hip Hop Mix)'
p893
S'http://www.last.fm/music/Live/_/Deep+Enough+(Hip+Hop+Mix)'
p894
S'1158028997'
p895
tp896
a(S'Mother Love Bone'
p897
S'Heartshine'
p898
S'http://www.last.fm/music/Mother+Love+Bone/_/Heartshine'
p899
S'1158028720'
p900
tp901
a(S'Pearl Jam'
p902
S'Jeremy'
p903
S'http://www.last.fm/music/Pearl+Jam/_/Jeremy'
p904
S'1158028400'
p905
tp906
a(S'Stone Temple Pilots'
p907
S'Dumb Love'
p908
S'http://www.last.fm/music/Stone+Temple+Pilots/_/Dumb+Love'
p909
S'1158028229'
p910
tp911
a(S'Live'
p912
S'River Town'
p913
S'http://www.last.fm/music/Live/_/River+Town'
p914
S'1158027980'
p915
tp916
a(S'Live'
p917
S'Sweet Release'
p918
S'http://www.last.fm/music/Live/_/Sweet+Release'
p919
S'1158027797'
p920
tp921
a(S'Alice in Chains'
p922
S'Frogs'
p923
S'http://www.last.fm/music/Alice+in+Chains/_/Frogs'
p924
S'1158027299'
p925
tp926
a(S'Stone Temple Pilots'
p927
S'Lady Picture Show'
p928
S'http://www.last.fm/music/Stone+Temple+Pilots/_/Lady+Picture+Show'
p929
S'1158027051'
p930
tp931
a(S'Green River'
p932
S'New God'
p933
S'http://www.last.fm/music/Green+River/_/New+God'
p934
S'1158026737'
p935
tp936
a(S'Queens of the Stone Age'
p937
S'No One Knows'
p938
S'http://www.last.fm/music/Queens+of+the+Stone+Age/_/No+One+Knows'
p939
S'1158026450'
p940
tp941
a(S'Alice in Chains'
p942
S"Don't Follow"
p943
S'http://www.last.fm/music/Alice+in+Chains/_/Don%27t+Follow'
p944
S'1158026188'
p945
tp946
a(S'Alice in Chains'
p947
S'No Excuses'
p948
S'http://www.last.fm/music/Alice+in+Chains/_/No+Excuses'
p949
S'1158025932'
p950
tp951
a(S'Alice in Chains'
p952
S'I Stay Away'
p953
S'http://www.last.fm/music/Alice+in+Chains/_/I+Stay+Away'
p954
S'1158025677'
p955
tp956
a(S'Alice in Chains'
p957
S'Nutshell'
p958
S'http://www.last.fm/music/Alice+in+Chains/_/Nutshell'
p959
S'1158025418'
p960
tp961
a(S'Alice in Chains'
p962
S'Put You Down'
p963
S'http://www.last.fm/music/Alice+in+Chains/_/Put+You+Down'
p964
S'1158025222'
p965
tp966
a(S'Alice in Chains'
p967
S'Got Me Wrong'
p968
S'http://www.last.fm/music/Alice+in+Chains/_/Got+Me+Wrong'
p969
S'1158024970'
p970
tp971
a(S'Alice in Chains'
p972
S'Right Turn'
p973
S'http://www.last.fm/music/Alice+in+Chains/_/Right+Turn'
p974
S'1158024772'
p975
tp976
a(S'Alice in Chains'
p977
S'Brother'
p978
S'http://www.last.fm/music/Alice+in+Chains/_/Brother'
p979
S'1158024504'
p980
tp981
a(S'Audioslave'
p982
S'Like A Stone'
p983
S'http://www.last.fm/music/Audioslave/_/Like+A+Stone'
p984
S'1158024207'
p985
tp986
a(S'Audioslave'
p987
S'Shadow On The Sun'
p988
S'http://www.last.fm/music/Audioslave/_/Shadow+On+The+Sun'
p989
S'1158023864'
p990
tp991
a(S'Audioslave'
p992
S'Show Me How To Live'
p993
S'http://www.last.fm/music/Audioslave/_/Show+Me+How+To+Live'
p994
S'1158023586'
p995
tp996
a(S'Live'
p997
S'The Distance'
p998
S'http://www.last.fm/music/Live/_/The+Distance'
p999
S'1158023355'
p1000
tp1001
a.