(lp1
(S'Jamiroquai'
p2
S'Black Capricorn Day'
p3
S'http://www.last.fm/music/Jamiroquai/_/Black+Capricorn+Day'
p4
S'1233405395'
p5
tp6
a(S'Jamiroquai'
p7
S'Planet Home'
p8
S'http://www.last.fm/music/Jamiroquai/_/Planet+Home'
p9
S'1233405112'
p10
tp11
a(S'Jamiroquai'
p12
S'When You Gonna Learn (digerido)'
p13
S'http://www.last.fm/music/Jamiroquai/_/When+You+Gonna+Learn+(digerido)'
p14
S'1233404881'
p15
tp16
a(S'Jamiroquai'
p17
S'Starchild'
p18
S'http://www.last.fm/music/Jamiroquai/_/Starchild'
p19
S'1233404570'
p20
tp21
a(S'Jamiroquai'
p22
S'Dynamite'
p23
S'http://www.last.fm/music/Jamiroquai/_/Dynamite'
p24
S'1233404113'
p25
tp26
a(S'Jamiroquai'
p27
S'Little L'
p28
S'http://www.last.fm/music/Jamiroquai/_/Little+L'
p29
S'1233403816'
p30
tp31
a(S'Jamiroquai'
p32
S'Love Foolosophy'
p33
S'http://www.last.fm/music/Jamiroquai/_/Love+Foolosophy'
p34
S'1233403588'
p35
tp36
a(S'Jamiroquai'
p37
S'Corner of the Earth'
p38
S'http://www.last.fm/music/Jamiroquai/_/Corner+of+the+Earth'
p39
S'1233403246'
p40
tp41
a(S'Jamiroquai'
p42
S'You Give Me Something'
p43
S'http://www.last.fm/music/Jamiroquai/_/You+Give+Me+Something'
p44
S'1233403040'
p45
tp46
a(S'Jamiroquai'
p47
S'Electric Mistress'
p48
S'http://www.last.fm/music/Jamiroquai/_/Electric+Mistress'
p49
S'1233402806'
p50
tp51
a(S'Jamiroquai'
p52
S'Everyday'
p53
S'http://www.last.fm/music/Jamiroquai/_/Everyday'
p54
S'1233402538'
p55
tp56
a(S'Jamiroquai'
p57
S'Journey to Arnhemland'
p58
S'http://www.last.fm/music/Jamiroquai/_/Journey+to+Arnhemland'
p59
S'1233402216'
p60
tp61
a(S'Jamiroquai'
p62
S'Supersonic'
p63
S'http://www.last.fm/music/Jamiroquai/_/Supersonic'
p64
S'1233401901'
p65
tp66
a(S'Jamiroquai'
p67
S'Hot Tequila Brown'
p68
S'http://www.last.fm/music/Jamiroquai/_/Hot+Tequila+Brown'
p69
S'1233401626'
p70
tp71
a(S'Jamiroquai'
p72
S"Time Won't Wait"
p73
S'http://www.last.fm/music/Jamiroquai/_/Time+Won%27t+Wait'
p74
S'1233342998'
p75
tp76
a(S'Jamiroquai'
p77
S"Stop Don't Panic"
p78
S'http://www.last.fm/music/Jamiroquai/_/Stop+Don%27t+Panic'
p79
S'1233342722'
p80
tp81
a(S'Jamiroquai'
p82
S'Starchild'
p83
S'http://www.last.fm/music/Jamiroquai/_/Starchild'
p84
S'1233342411'
p85
tp86
a(S'Jamiroquai'
p87
S'Dynamite'
p88
S'http://www.last.fm/music/Jamiroquai/_/Dynamite'
p89
S'1233342116'
p90
tp91
a(S'Jamiroquai'
p92
S'Use the Force'
p93
S'http://www.last.fm/music/Jamiroquai/_/Use+the+Force'
p94
S'1233341876'
p95
tp96
a(S'Jamiroquai'
p97
S'You Give Me Something'
p98
S'http://www.last.fm/music/Jamiroquai/_/You+Give+Me+Something'
p99
S'1233341670'
p100
tp101
a(S'Jamiroquai'
p102
S'Corner of the Earth'
p103
S'http://www.last.fm/music/Jamiroquai/_/Corner+of+the+Earth'
p104
S'1233341328'
p105
tp106
a(S'Jamiroquai'
p107
S'Everyday'
p108
S'http://www.last.fm/music/Jamiroquai/_/Everyday'
p109
S'1233341059'
p110
tp111
a(S'Jamiroquai'
p112
S'Main Vein'
p113
S'http://www.last.fm/music/Jamiroquai/_/Main+Vein'
p114
S'1233340754'
p115
tp116
a(S'Pantera'
p117
S'Cowboys from Hell'
p118
S'http://www.last.fm/music/Pantera/_/Cowboys+from+Hell'
p119
S'1233337321'
p120
tp121
a(S'Megadeth'
p122
S'Killing Is My Business... and Business Is Good!'
p123
S'http://www.last.fm/music/Megadeth/_/Killing+Is+My+Business...+and+Business+Is+Good!'
p124
S'1233337134'
p125
tp126
a(S'Judas Priest'
p127
S'Out in the Cold'
p128
S'http://www.last.fm/music/Judas+Priest/_/Out+in+the+Cold'
p129
S'1233336720'
p130
tp131
a(S'Megadeth'
p132
S'The Disintegrators'
p133
S'http://www.last.fm/music/Megadeth/_/The+Disintegrators'
p134
S'1233336536'
p135
tp136
a(S'Jerry Cantrell'
p137
S'Between'
p138
S'http://www.last.fm/music/Jerry+Cantrell/_/Between'
p139
S'1233336319'
p140
tp141
a(S'Diamond Head'
p142
S'Nothing to Lose'
p143
S'http://www.last.fm/music/Diamond+Head/_/Nothing+to+Lose'
p144
S'1233336047'
p145
tp146
a(S'Pantera'
p147
S'Fucking Hostile'
p148
S'http://www.last.fm/music/Pantera/_/Fucking+Hostile'
p149
S'1233335879'
p150
tp151
a(S'AC/DC'
p152
S'Money Made'
p153
S'http://www.last.fm/music/AC%2FDC/_/Money+Made'
p154
S'1233335623'
p155
tp156
a(S'AC/DC'
p157
S"Spoilin' For A Fight"
p158
S'http://www.last.fm/music/AC%2FDC/_/Spoilin%27+For+A+Fight'
p159
S'1233335426'
p160
tp161
a(S'Megadeth'
p162
S'Addicted to Chaos'
p163
S'http://www.last.fm/music/Megadeth/_/Addicted+to+Chaos'
p164
S'1233335099'
p165
tp166
a(S'Jamiroquai'
p167
S'Electric Mistress'
p168
S'http://www.last.fm/music/Jamiroquai/_/Electric+Mistress'
p169
S'1233334857'
p170
tp171
a(S'Jamiroquai'
p172
S'Bonus Track'
p173
S'http://www.last.fm/music/Jamiroquai/_/Bonus+Track'
p174
S'1233334527'
p175
tp176
a(S'Jamiroquai'
p177
S'Virtual Insanity'
p178
S'http://www.last.fm/music/Jamiroquai/_/Virtual+Insanity'
p179
S'1233334186'
p180
tp181
a(S'Jamiroquai'
p182
S'Main Vein'
p183
S'http://www.last.fm/music/Jamiroquai/_/Main+Vein'
p184
S'1233333867'
p185
tp186
a(S'Jamiroquai'
p187
S'Dynamite'
p188
S'http://www.last.fm/music/Jamiroquai/_/Dynamite'
p189
S'1233333573'
p190
tp191
a(S'Jamiroquai'
p192
S'Dynamite'
p193
S'http://www.last.fm/music/Jamiroquai/_/Dynamite'
p194
S'1233332326'
p195
tp196
a(S'Jamiroquai'
p197
S'Black Crow'
p198
S'http://www.last.fm/music/Jamiroquai/_/Black+Crow'
p199
S'1233332018'
p200
tp201
a(S'Jamiroquai'
p202
S'You Give Me Something'
p203
S'http://www.last.fm/music/Jamiroquai/_/You+Give+Me+Something'
p204
S'1233331662'
p205
tp206
a(S'Jamiroquai'
p207
S'High Times'
p208
S'http://www.last.fm/music/Jamiroquai/_/High+Times'
p209
S'1233322722'
p210
tp211
a(S'Jamiroquai'
p212
S'Love Foolosophy'
p213
S'http://www.last.fm/music/Jamiroquai/_/Love+Foolosophy'
p214
S'1233322494'
p215
tp216
a(S'Jamiroquai'
p217
S'Starchild'
p218
S'http://www.last.fm/music/Jamiroquai/_/Starchild'
p219
S'1233322183'
p220
tp221
a(S'Jamiroquai'
p222
S'Feels Like It Should'
p223
S'http://www.last.fm/music/Jamiroquai/_/Feels+Like+It+Should'
p224
S'1233322046'
p225
tp226
a(S'Jamiroquai'
p227
S'Everyday'
p228
S'http://www.last.fm/music/Jamiroquai/_/Everyday'
p229
S'1233321777'
p230
tp231
a(S'Jamiroquai'
p232
S"Time Won't Wait"
p233
S'http://www.last.fm/music/Jamiroquai/_/Time+Won%27t+Wait'
p234
S'1233321549'
p235
tp236
a(S'Jamiroquai'
p237
S'Hot Tequila Brown'
p238
S'http://www.last.fm/music/Jamiroquai/_/Hot+Tequila+Brown'
p239
S'1233321274'
p240
tp241
a(S'Jamiroquai'
p242
S'Little L'
p243
S'http://www.last.fm/music/Jamiroquai/_/Little+L'
p244
S'1233320977'
p245
tp246
a(S'Jamiroquai'
p247
S'Corner of the Earth'
p248
S'http://www.last.fm/music/Jamiroquai/_/Corner+of+the+Earth'
p249
S'1233320600'
p250
tp251
a(S'Megadeth'
p252
S'Addicted to Chaos'
p253
S'http://www.last.fm/music/Megadeth/_/Addicted+to+Chaos'
p254
S'1233320234'
p255
tp256
a(S'Megadeth'
p257
S'Elysian Fields'
p258
S'http://www.last.fm/music/Megadeth/_/Elysian+Fields'
p259
S'1233319982'
p260
tp261
a(S'Alice Cooper'
p262
S'Poison'
p263
S'http://www.last.fm/music/Alice+Cooper/_/Poison'
p264
S'1233319712'
p265
tp266
a(S'Megadeth'
p267
S'Symphony of Destruction'
p268
S'http://www.last.fm/music/Megadeth/_/Symphony+of+Destruction'
p269
S'1233319471'
p270
tp271
a(S'Jerry Cantrell'
p272
S'Satisfy'
p273
S'http://www.last.fm/music/Jerry+Cantrell/_/Satisfy'
p274
S'1233319257'
p275
tp276
a(S'Pantera'
p277
S'Mouth for War'
p278
S'http://www.last.fm/music/Pantera/_/Mouth+for+War'
p279
S'1233319021'
p280
tp281
a(S'Metallica'
p282
S'The House Jack Built'
p283
S'http://www.last.fm/music/Metallica/_/The+House+Jack+Built'
p284
S'1233316913'
p285
tp286
a(S'Pantera'
p287
S'Fucking Hostile'
p288
S'http://www.last.fm/music/Pantera/_/Fucking+Hostile'
p289
S'1233316641'
p290
tp291
a(S'Pantera'
p292
S'Cowboys from Hell'
p293
S'http://www.last.fm/music/Pantera/_/Cowboys+from+Hell'
p294
S'1233316394'
p295
tp296
a(S'Jerry Cantrell'
p297
S'Keep The Light On'
p298
S'http://www.last.fm/music/Jerry+Cantrell/_/Keep+The+Light+On'
p299
S'1233316107'
p300
tp301
a(S'Metallica'
p302
S"Ain't My Bitch"
p303
S'http://www.last.fm/music/Metallica/_/Ain%27t+My+Bitch'
p304
S'1233315801'
p305
tp306
a(S'Metallica'
p307
S'King Nothing'
p308
S'http://www.last.fm/music/Metallica/_/King+Nothing'
p309
S'1233315471'
p310
tp311
a(S'Metallica'
p312
S'The Outlaw Torn'
p313
S'http://www.last.fm/music/Metallica/_/The+Outlaw+Torn'
p314
S'1233314883'
p315
tp316
a(S'Megadeth'
p317
S'Addicted to Chaos'
p318
S'http://www.last.fm/music/Megadeth/_/Addicted+to+Chaos'
p319
S'1233314536'
p320
tp321
a(S'Judas Priest'
p322
S'Out in the Cold'
p323
S'http://www.last.fm/music/Judas+Priest/_/Out+in+the+Cold'
p324
S'1233312880'
p325
tp326
a(S'Megadeth'
p327
S'Addicted to Chaos'
p328
S'http://www.last.fm/music/Megadeth/_/Addicted+to+Chaos'
p329
S'1233312553'
p330
tp331
a(S'Megadeth'
p332
S'Addicted to Chaos'
p333
S'http://www.last.fm/music/Megadeth/_/Addicted+to+Chaos'
p334
S'1233277489'
p335
tp336
a(S'Jamiroquai'
p337
S'Dynamite'
p338
S'http://www.last.fm/music/Jamiroquai/_/Dynamite'
p339
S'1233277157'
p340
tp341
a(S'Jamiroquai'
p342
S'You Give Me Something'
p343
S'http://www.last.fm/music/Jamiroquai/_/You+Give+Me+Something'
p344
S'1233276952'
p345
tp346
a(S'Jamiroquai'
p347
S'When You Gonna Learn (digerido)'
p348
S'http://www.last.fm/music/Jamiroquai/_/When+You+Gonna+Learn+(digerido)'
p349
S'1233276721'
p350
tp351
a(S'Jamiroquai'
p352
S'Corner of the Earth'
p353
S'http://www.last.fm/music/Jamiroquai/_/Corner+of+the+Earth'
p354
S'1233276379'
p355
tp356
a(S'Jamiroquai'
p357
S'Electric Mistress'
p358
S'http://www.last.fm/music/Jamiroquai/_/Electric+Mistress'
p359
S'1233276145'
p360
tp361
a(S'Jamiroquai'
p362
S'Little L'
p363
S'http://www.last.fm/music/Jamiroquai/_/Little+L'
p364
S'1233275848'
p365
tp366
a(S'Jamiroquai'
p367
S'Dynamite'
p368
S'http://www.last.fm/music/Jamiroquai/_/Dynamite'
p369
S'1233275553'
p370
tp371
a(S'Jamiroquai'
p372
S'Seven Days in Sunny June'
p373
S'http://www.last.fm/music/Jamiroquai/_/Seven+Days+in+Sunny+June'
p374
S'1233275315'
p375
tp376
a(S'Jamiroquai'
p377
S'Virtual Insanity'
p378
S'http://www.last.fm/music/Jamiroquai/_/Virtual+Insanity'
p379
S'1233274974'
p380
tp381
a(S'Jamiroquai'
p382
S'Cosmic Girl'
p383
S'http://www.last.fm/music/Jamiroquai/_/Cosmic+Girl'
p384
S'1233274730'
p385
tp386
a(S'Jamiroquai'
p387
S'Space Cowboy'
p388
S'http://www.last.fm/music/Jamiroquai/_/Space+Cowboy'
p389
S'1233274345'
p390
tp391
a(S'Jamiroquai'
p392
S'When You Gonna Learn (digerido)'
p393
S'http://www.last.fm/music/Jamiroquai/_/When+You+Gonna+Learn+(digerido)'
p394
S'1233274114'
p395
tp396
a(S'Jamiroquai'
p397
S'Planet Home'
p398
S'http://www.last.fm/music/Jamiroquai/_/Planet+Home'
p399
S'1233273831'
p400
tp401
a(S'Jamiroquai'
p402
S'Destitute Illusions'
p403
S'http://www.last.fm/music/Jamiroquai/_/Destitute+Illusions'
p404
S'1233273492'
p405
tp406
a(S'Jamiroquai'
p407
S'Hot Tequila Brown'
p408
S'http://www.last.fm/music/Jamiroquai/_/Hot+Tequila+Brown'
p409
S'1233273217'
p410
tp411
a(S'Jamiroquai'
p412
S'Love Foolosophy'
p413
S'http://www.last.fm/music/Jamiroquai/_/Love+Foolosophy'
p414
S'1233272989'
p415
tp416
a(S'Jamiroquai'
p417
S'Electric Mistress'
p418
S'http://www.last.fm/music/Jamiroquai/_/Electric+Mistress'
p419
S'1233269641'
p420
tp421
a(S'Jamiroquai'
p422
S'Everyday'
p423
S'http://www.last.fm/music/Jamiroquai/_/Everyday'
p424
S'1233251110'
p425
tp426
a(S'Jamiroquai'
p427
S'Electric Mistress'
p428
S'http://www.last.fm/music/Jamiroquai/_/Electric+Mistress'
p429
S'1233250876'
p430
tp431
a(S'Jamiroquai'
p432
S'Dynamite'
p433
S'http://www.last.fm/music/Jamiroquai/_/Dynamite'
p434
S'1233250581'
p435
tp436
a(S'Jamiroquai'
p437
S'Seven Days in Sunny June'
p438
S'http://www.last.fm/music/Jamiroquai/_/Seven+Days+in+Sunny+June'
p439
S'1233250198'
p440
tp441
a(S'Jamiroquai'
p442
S'You Give Me Something'
p443
S'http://www.last.fm/music/Jamiroquai/_/You+Give+Me+Something'
p444
S'1233249992'
p445
tp446
a(S'Jamiroquai'
p447
S'Love Foolosophy'
p448
S'http://www.last.fm/music/Jamiroquai/_/Love+Foolosophy'
p449
S'1233249758'
p450
tp451
a(S'Jamiroquai'
p452
S'Starchild'
p453
S'http://www.last.fm/music/Jamiroquai/_/Starchild'
p454
S'1233249447'
p455
tp456
a(S'Jamiroquai'
p457
S'Corner of the Earth'
p458
S'http://www.last.fm/music/Jamiroquai/_/Corner+of+the+Earth'
p459
S'1233249105'
p460
tp461
a(S'Jerry Cantrell'
p462
S'Keep The Light On'
p463
S'http://www.last.fm/music/Jerry+Cantrell/_/Keep+The+Light+On'
p464
S'1233244720'
p465
tp466
a(S'Megadeth'
p467
S'Killing Is My Business... and Business Is Good!'
p468
S'http://www.last.fm/music/Megadeth/_/Killing+Is+My+Business...+and+Business+Is+Good!'
p469
S'1233244459'
p470
tp471
a(S'Megadeth'
p472
S'Addicted to Chaos'
p473
S'http://www.last.fm/music/Megadeth/_/Addicted+to+Chaos'
p474
S'1233244132'
p475
tp476
a(S'Pantera'
p477
S'Cowboys from Hell'
p478
S'http://www.last.fm/music/Pantera/_/Cowboys+from+Hell'
p479
S'1233243800'
p480
tp481
a(S'AC/DC'
p482
S'War Machine'
p483
S'http://www.last.fm/music/AC%2FDC/_/War+Machine'
p484
S'1233243610'
p485
tp486
a(S'Jerry Cantrell'
p487
S'Satisfy'
p488
S'http://www.last.fm/music/Jerry+Cantrell/_/Satisfy'
p489
S'1233243395'
p490
tp491
a(S'Metallica'
p492
S'The House Jack Built'
p493
S'http://www.last.fm/music/Metallica/_/The+House+Jack+Built'
p494
S'1233242973'
p495
tp496
a(S'Metallica'
p497
S'The Outlaw Torn'
p498
S'http://www.last.fm/music/Metallica/_/The+Outlaw+Torn'
p499
S'1233231342'
p500
tp501
a(S'Megadeth'
p502
S'Addicted to Chaos'
p503
S'http://www.last.fm/music/Megadeth/_/Addicted+to+Chaos'
p504
S'1233230655'
p505
tp506
a(S'Megadeth'
p507
S'Diadems'
p508
S'http://www.last.fm/music/Megadeth/_/Diadems'
p509
S'1233230153'
p510
tp511
a(S'Megadeth'
p512
S"Crush 'em"
p513
S'http://www.last.fm/music/Megadeth/_/Crush+%27em'
p514
S'1233229859'
p515
tp516
a(S'Metallica'
p517
S'Cure'
p518
S'http://www.last.fm/music/Metallica/_/Cure'
p519
S'1233229562'
p520
tp521
a(S'Diamond Head'
p522
S'Calling Out'
p523
S'http://www.last.fm/music/Diamond+Head/_/Calling+Out'
p524
S'1233229334'
p525
tp526
a(S'AC/DC'
p527
S'Stormy May Day'
p528
S'http://www.last.fm/music/AC%2FDC/_/Stormy+May+Day'
p529
S'1233229135'
p530
tp531
a(S'Jamiroquai'
p532
S'Dynamite'
p533
S'http://www.last.fm/music/Jamiroquai/_/Dynamite'
p534
S'1233228741'
p535
tp536
a(S'Jamiroquai'
p537
S'Dynamite'
p538
S'http://www.last.fm/music/Jamiroquai/_/Dynamite'
p539
S'1233228433'
p540
tp541
a(S'Jamiroquai'
p542
S'Little L'
p543
S'http://www.last.fm/music/Jamiroquai/_/Little+L'
p544
S'1233228108'
p545
tp546
a(S'Jamiroquai'
p547
S'Corner of the Earth'
p548
S'http://www.last.fm/music/Jamiroquai/_/Corner+of+the+Earth'
p549
S'1233227766'
p550
tp551
a(S'Jamiroquai'
p552
S'You Give Me Something'
p553
S'http://www.last.fm/music/Jamiroquai/_/You+Give+Me+Something'
p554
S'1233227544'
p555
tp556
a(S'Jamiroquai'
p557
S'Love Foolosophy'
p558
S'http://www.last.fm/music/Jamiroquai/_/Love+Foolosophy'
p559
S'1233227300'
p560
tp561
a(S'Jamiroquai'
p562
S'Seven Days in Sunny June'
p563
S'http://www.last.fm/music/Jamiroquai/_/Seven+Days+in+Sunny+June'
p564
S'1233227053'
p565
tp566
a(S'Jamiroquai'
p567
S'Everyday'
p568
S'http://www.last.fm/music/Jamiroquai/_/Everyday'
p569
S'1233226780'
p570
tp571
a(S'Jamiroquai'
p572
S'Electric Mistress'
p573
S'http://www.last.fm/music/Jamiroquai/_/Electric+Mistress'
p574
S'1233226546'
p575
tp576
a(S'Jamiroquai'
p577
S'Dynamite'
p578
S'http://www.last.fm/music/Jamiroquai/_/Dynamite'
p579
S'1233226043'
p580
tp581
a(S'Jamiroquai'
p582
S'Black Crow'
p583
S'http://www.last.fm/music/Jamiroquai/_/Black+Crow'
p584
S'1233225799'
p585
tp586
a(S'Jamiroquai'
p587
S'Little L'
p588
S'http://www.last.fm/music/Jamiroquai/_/Little+L'
p589
S'1233225502'
p590
tp591
a(S'Jamiroquai'
p592
S'Corner of the Earth'
p593
S'http://www.last.fm/music/Jamiroquai/_/Corner+of+the+Earth'
p594
S'1233225159'
p595
tp596
a(S'Jamiroquai'
p597
S'You Give Me Something'
p598
S'http://www.last.fm/music/Jamiroquai/_/You+Give+Me+Something'
p599
S'1233224935'
p600
tp601
a(S'Jamiroquai'
p602
S'Love Foolosophy'
p603
S'http://www.last.fm/music/Jamiroquai/_/Love+Foolosophy'
p604
S'1233224574'
p605
tp606
a(S'Jamiroquai'
p607
S'Alright'
p608
S'http://www.last.fm/music/Jamiroquai/_/Alright'
p609
S'1233224301'
p610
tp611
a(S'Jamiroquai'
p612
S'Seven Days in Sunny June'
p613
S'http://www.last.fm/music/Jamiroquai/_/Seven+Days+in+Sunny+June'
p614
S'1233224063'
p615
tp616
a(S'Jamiroquai'
p617
S'Everyday'
p618
S'http://www.last.fm/music/Jamiroquai/_/Everyday'
p619
S'1233223789'
p620
tp621
a(S'Jamiroquai'
p622
S'Electric Mistress'
p623
S'http://www.last.fm/music/Jamiroquai/_/Electric+Mistress'
p624
S'1233223471'
p625
tp626
a(S'Jamiroquai'
p627
S'Electric Mistress'
p628
S'http://www.last.fm/music/Jamiroquai/_/Electric+Mistress'
p629
S'1233172976'
p630
tp631
a(S'Jamiroquai'
p632
S'Talulah'
p633
S'http://www.last.fm/music/Jamiroquai/_/Talulah'
p634
S'1233172612'
p635
tp636
a(S'Jamiroquai'
p637
S'Picture of My Life'
p638
S'http://www.last.fm/music/Jamiroquai/_/Picture+of+My+Life'
p639
S'1233172231'
p640
tp641
a(S'Jamiroquai'
p642
S'Dynamite'
p643
S'http://www.last.fm/music/Jamiroquai/_/Dynamite'
p644
S'1233171929'
p645
tp646
a(S'Jamiroquai'
p647
S'Everyday'
p648
S'http://www.last.fm/music/Jamiroquai/_/Everyday'
p649
S'1233171418'
p650
tp651
a(S'Jamiroquai'
p652
S'Little L'
p653
S'http://www.last.fm/music/Jamiroquai/_/Little+L'
p654
S'1233171121'
p655
tp656
a(S'Jamiroquai'
p657
S'Canned Head (7"Edit)'
p658
S'http://www.last.fm/music/Jamiroquai/_/Canned+Head+(7%22Edit)'
p659
S'1233170896'
p660
tp661
a(S'Jamiroquai'
p662
S'Seven Days in Sunny June'
p663
S'http://www.last.fm/music/Jamiroquai/_/Seven+Days+in+Sunny+June'
p664
S'1233170658'
p665
tp666
a(S'Jamiroquai'
p667
S'Main Vein'
p668
S'http://www.last.fm/music/Jamiroquai/_/Main+Vein'
p669
S'1233170352'
p670
tp671
a(S'Jamiroquai'
p672
S'Cosmic Girl'
p673
S'http://www.last.fm/music/Jamiroquai/_/Cosmic+Girl'
p674
S'1233170109'
p675
tp676
a(S'Jamiroquai'
p677
S'Black Crow'
p678
S'http://www.last.fm/music/Jamiroquai/_/Black+Crow'
p679
S'1233169864'
p680
tp681
a(S'Jamiroquai'
p682
S'You Give Me Something'
p683
S'http://www.last.fm/music/Jamiroquai/_/You+Give+Me+Something'
p684
S'1233169658'
p685
tp686
a(S'Jamiroquai'
p687
S'Corner of the Earth'
p688
S'http://www.last.fm/music/Jamiroquai/_/Corner+of+the+Earth'
p689
S'1233169299'
p690
tp691
a(S'Jamiroquai'
p692
S'Bonus Track'
p693
S'http://www.last.fm/music/Jamiroquai/_/Bonus+Track'
p694
S'1233163731'
p695
tp696
a(S'Jamiroquai'
p697
S"Time Won't Wait"
p698
S'http://www.last.fm/music/Jamiroquai/_/Time+Won%27t+Wait'
p699
S'1233163430'
p700
tp701
a(S'Jamiroquai'
p702
S'Virtual Insanity'
p703
S'http://www.last.fm/music/Jamiroquai/_/Virtual+Insanity'
p704
S'1233163089'
p705
tp706
a(S'Jamiroquai'
p707
S'Use the Force'
p708
S'http://www.last.fm/music/Jamiroquai/_/Use+the+Force'
p709
S'1233162848'
p710
tp711
a(S'Jamiroquai'
p712
S'Seven Days in Sunny June'
p713
S'http://www.last.fm/music/Jamiroquai/_/Seven+Days+in+Sunny+June'
p714
S'1233162610'
p715
tp716
a(S'Jamiroquai'
p717
S'Black Crow'
p718
S'http://www.last.fm/music/Jamiroquai/_/Black+Crow'
p719
S'1233162366'
p720
tp721
a(S'Jamiroquai'
p722
S'Alright'
p723
S'http://www.last.fm/music/Jamiroquai/_/Alright'
p724
S'1233162100'
p725
tp726
a(S'Jamiroquai'
p727
S"(Don't) Give Hate a Chance"
p728
S'http://www.last.fm/music/Jamiroquai/_/(Don%27t)+Give+Hate+a+Chance'
p729
S'1233161800'
p730
tp731
a(S'Jamiroquai'
p732
S'Starchild'
p733
S'http://www.last.fm/music/Jamiroquai/_/Starchild'
p734
S'1233161490'
p735
tp736
a(S'Jamiroquai'
p737
S'High Times'
p738
S'http://www.last.fm/music/Jamiroquai/_/High+Times'
p739
S'1233161131'
p740
tp741
a(S'Jamiroquai'
p742
S'Feels Like It Should'
p743
S'http://www.last.fm/music/Jamiroquai/_/Feels+Like+It+Should'
p744
S'1233160858'
p745
tp746
a(S'Jamiroquai'
p747
S'You Give Me Something (Full International Mix)'
p748
S'http://www.last.fm/music/Jamiroquai/_/You+Give+Me+Something+(Full+International+Mix)'
p749
S'1233160678'
p750
tp751
a(S'Jamiroquai'
p752
S'Love Blind'
p753
S'http://www.last.fm/music/Jamiroquai/_/Love+Blind'
p754
S'1233160466'
p755
tp756
a(S'Jamiroquai'
p757
S'Dynamite'
p758
S'http://www.last.fm/music/Jamiroquai/_/Dynamite'
p759
S'1233160172'
p760
tp761
a(S'Jamiroquai'
p762
S'Main Vein'
p763
S'http://www.last.fm/music/Jamiroquai/_/Main+Vein'
p764
S'1233159866'
p765
tp766
a(S'Jamiroquai'
p767
S'Feels Just Like It Should'
p768
S'http://www.last.fm/music/Jamiroquai/_/Feels+Just+Like+It+Should'
p769
S'1233159649'
p770
tp771
a(S'Jamiroquai'
p772
S'Love Footosophy (Twin Club Mix)'
p773
S'http://www.last.fm/music/Jamiroquai/_/Love+Footosophy+(Twin+Club+Mix)'
p774
S'1233159234'
p775
tp776
a(S'Jamiroquai'
p777
S'Hot Tequila Brown'
p778
S'http://www.last.fm/music/Jamiroquai/_/Hot+Tequila+Brown'
p779
S'1233158959'
p780
tp781
a(S'Jamiroquai'
p782
S'Cosmic Girl'
p783
S'http://www.last.fm/music/Jamiroquai/_/Cosmic+Girl'
p784
S'1233158715'
p785
tp786
a(S'Jamiroquai'
p787
S'Canned Head (7"Edit)'
p788
S'http://www.last.fm/music/Jamiroquai/_/Canned+Head+(7%22Edit)'
p789
S'1233158490'
p790
tp791
a(S'Jamiroquai'
p792
S'Corner of the Earth'
p793
S'http://www.last.fm/music/Jamiroquai/_/Corner+of+the+Earth'
p794
S'1233158148'
p795
tp796
a(S'Jamiroquai'
p797
S'Love Foolosophy'
p798
S'http://www.last.fm/music/Jamiroquai/_/Love+Foolosophy'
p799
S'1233157920'
p800
tp801
a(S'Jamiroquai'
p802
S'Little L'
p803
S'http://www.last.fm/music/Jamiroquai/_/Little+L'
p804
S'1233157623'
p805
tp806
a(S'Jamiroquai'
p807
S'Dynamite'
p808
S'http://www.last.fm/music/Jamiroquai/_/Dynamite'
p809
S'1233157306'
p810
tp811
a(S'Jamiroquai'
p812
S'Main Vein'
p813
S'http://www.last.fm/music/Jamiroquai/_/Main+Vein'
p814
S'1233143945'
p815
tp816
a(S'Jamiroquai'
p817
S'You Give Me Something'
p818
S'http://www.last.fm/music/Jamiroquai/_/You+Give+Me+Something'
p819
S'1233143709'
p820
tp821
a(S'Jamiroquai'
p822
S'Electric Mistress'
p823
S'http://www.last.fm/music/Jamiroquai/_/Electric+Mistress'
p824
S'1233143449'
p825
tp826
a(S'Jamiroquai'
p827
S'Little L'
p828
S'http://www.last.fm/music/Jamiroquai/_/Little+L'
p829
S'1233055847'
p830
tp831
a(S'Jamiroquai'
p832
S"Time Won't Wait"
p833
S'http://www.last.fm/music/Jamiroquai/_/Time+Won%27t+Wait'
p834
S'1233055545'
p835
tp836
a(S'Jamiroquai'
p837
S'Corner of the Earth'
p838
S'http://www.last.fm/music/Jamiroquai/_/Corner+of+the+Earth'
p839
S'1233054991'
p840
tp841
a(S'Jamiroquai'
p842
S'High Times'
p843
S'http://www.last.fm/music/Jamiroquai/_/High+Times'
p844
S'1233054632'
p845
tp846
a(S'Jamiroquai'
p847
S'You Give Me Something'
p848
S'http://www.last.fm/music/Jamiroquai/_/You+Give+Me+Something'
p849
S'1233054426'
p850
tp851
a(S'Jamiroquai'
p852
S'Corner of the Earth'
p853
S'http://www.last.fm/music/Jamiroquai/_/Corner+of+the+Earth'
p854
S'1232631083'
p855
tp856
a(S'Jamiroquai'
p857
S'Dynamite'
p858
S'http://www.last.fm/music/Jamiroquai/_/Dynamite'
p859
S'1232630788'
p860
tp861
a(S'Jamiroquai'
p862
S'Corner of the Earth'
p863
S'http://www.last.fm/music/Jamiroquai/_/Corner+of+the+Earth'
p864
S'1232630409'
p865
tp866
a(S'Jamiroquai'
p867
S'Dynamite'
p868
S'http://www.last.fm/music/Jamiroquai/_/Dynamite'
p869
S'1232630114'
p870
tp871
a(S'Jamiroquai'
p872
S'Feels Like It Should'
p873
S'http://www.last.fm/music/Jamiroquai/_/Feels+Like+It+Should'
p874
S'1232629703'
p875
tp876
a(S'Jamiroquai'
p877
S'Feels Just Like It Should'
p878
S'http://www.last.fm/music/Jamiroquai/_/Feels+Just+Like+It+Should'
p879
S'1232629486'
p880
tp881
a(S'Jamiroquai'
p882
S'Little L'
p883
S'http://www.last.fm/music/Jamiroquai/_/Little+L'
p884
S'1232628377'
p885
tp886
a(S'Jamiroquai'
p887
S'Starchild'
p888
S'http://www.last.fm/music/Jamiroquai/_/Starchild'
p889
S'1232628066'
p890
tp891
a(S'Jamiroquai'
p892
S'Black Crow'
p893
S'http://www.last.fm/music/Jamiroquai/_/Black+Crow'
p894
S'1232627822'
p895
tp896
a(S'Jamiroquai'
p897
S'Everyday'
p898
S'http://www.last.fm/music/Jamiroquai/_/Everyday'
p899
S'1232627539'
p900
tp901
a(S'Jamiroquai'
p902
S'High Times'
p903
S'http://www.last.fm/music/Jamiroquai/_/High+Times'
p904
S'1232627174'
p905
tp906
a(S'Jamiroquai'
p907
S'Hot Tequila Brown'
p908
S'http://www.last.fm/music/Jamiroquai/_/Hot+Tequila+Brown'
p909
S'1232626899'
p910
tp911
a(S'Jamiroquai'
p912
S"Time Won't Wait"
p913
S'http://www.last.fm/music/Jamiroquai/_/Time+Won%27t+Wait'
p914
S'1232625225'
p915
tp916
a(S'Jamiroquai'
p917
S'Dynamite'
p918
S'http://www.last.fm/music/Jamiroquai/_/Dynamite'
p919
S'1232624899'
p920
tp921
a(S'Jamiroquai'
p922
S'Love Foolosophy'
p923
S'http://www.last.fm/music/Jamiroquai/_/Love+Foolosophy'
p924
S'1232624671'
p925
tp926
a(S'Jamiroquai'
p927
S'Virtual Insanity'
p928
S'http://www.last.fm/music/Jamiroquai/_/Virtual+Insanity'
p929
S'1232624330'
p930
tp931
a(S'Jamiroquai'
p932
S'Seven Days in Sunny June'
p933
S'http://www.last.fm/music/Jamiroquai/_/Seven+Days+in+Sunny+June'
p934
S'1232624092'
p935
tp936
a(S'Jamiroquai'
p937
S'Electric Mistress'
p938
S'http://www.last.fm/music/Jamiroquai/_/Electric+Mistress'
p939
S'1232623858'
p940
tp941
a(S'Jamiroquai'
p942
S'Main Vein'
p943
S'http://www.last.fm/music/Jamiroquai/_/Main+Vein'
p944
S'1232623526'
p945
tp946
a(S'Jamiroquai'
p947
S'You Give Me Something'
p948
S'http://www.last.fm/music/Jamiroquai/_/You+Give+Me+Something'
p949
S'1232623320'
p950
tp951
a(S'Jamiroquai'
p952
S'Feels Just Like It Should'
p953
S'http://www.last.fm/music/Jamiroquai/_/Feels+Just+Like+It+Should'
p954
S'1232566056'
p955
tp956
a(S'Jamiroquai'
p957
S'Dynamite'
p958
S'http://www.last.fm/music/Jamiroquai/_/Dynamite'
p959
S'1232565761'
p960
tp961
a(S'Jamiroquai'
p962
S'Hot Tequila Brown'
p963
S'http://www.last.fm/music/Jamiroquai/_/Hot+Tequila+Brown'
p964
S'1232565486'
p965
tp966
a(S'Jamiroquai'
p967
S'Feel So Good'
p968
S'http://www.last.fm/music/Jamiroquai/_/Feel+So+Good'
p969
S'1232565163'
p970
tp971
a(S'Jamiroquai'
p972
S'Little L (Bob Sinclair Mix)'
p973
S'http://www.last.fm/music/Jamiroquai/_/Little+L+(Bob+Sinclair+Mix)'
p974
S'1232564830'
p975
tp976
a(S'Jamiroquai'
p977
S'Everyday'
p978
S'http://www.last.fm/music/Jamiroquai/_/Everyday'
p979
S'1232564561'
p980
tp981
a(S'Jamiroquai'
p982
S'Feels Like It Should'
p983
S'http://www.last.fm/music/Jamiroquai/_/Feels+Like+It+Should'
p984
S'1232564288'
p985
tp986
a(S'Jamiroquai'
p987
S'You Give Me Something (Full International Mix)'
p988
S'http://www.last.fm/music/Jamiroquai/_/You+Give+Me+Something+(Full+International+Mix)'
p989
S'1232564108'
p990
tp991
a(S'Jamiroquai'
p992
S'Bonus Track'
p993
S'http://www.last.fm/music/Jamiroquai/_/Bonus+Track'
p994
S'1232563655'
p995
tp996
a(S'Jamiroquai'
p997
S'Corner of the Earth'
p998
S'http://www.last.fm/music/Jamiroquai/_/Corner+of+the+Earth'
p999
S'1232563313'
p1000
tp1001
a.