(lp1
(S'The Toy Dolls'
p2
S'Quick to Quit the Quentin'
p3
S'http://www.last.fm/music/The+Toy+Dolls/_/Quick+to+Quit+the+Quentin'
p4
S'1268409252'
p5
tp6
a(S'Audioslave'
p7
S'Cochise'
p8
S'http://www.last.fm/music/Audioslave/_/Cochise'
p9
S'1268409030'
p10
tp11
a(S'Misfits'
p12
S'Descending Angel'
p13
S'http://www.last.fm/music/Misfits/_/Descending+Angel'
p14
S'1268408804'
p15
tp16
a(S'Iron Maiden'
p17
S'Purgatory'
p18
S'http://www.last.fm/music/Iron+Maiden/_/Purgatory'
p19
S'1268408604'
p20
tp21
a(S'Chickenfoot'
p22
S'Sexy Little Thing'
p23
S'http://www.last.fm/music/Chickenfoot/_/Sexy+Little+Thing'
p24
S'1268408342'
p25
tp26
a(S'Audioslave'
p27
S'Gasoline'
p28
S'http://www.last.fm/music/Audioslave/_/Gasoline'
p29
S'1268408063'
p30
tp31
a(S'Salad'
p32
S'Granite Statue'
p33
S'http://www.last.fm/music/Salad/_/Granite+Statue'
p34
S'1268407861'
p35
tp36
a(S'Audioslave'
p37
S'I Am The Highway'
p38
S'http://www.last.fm/music/Audioslave/_/I+Am+The+Highway'
p39
S'1268407526'
p40
tp41
a(S'Soundgarden'
p42
S'The Day I Tried to Live'
p43
S'http://www.last.fm/music/Soundgarden/_/The+Day+I+Tried+to+Live'
p44
S'1268407108'
p45
tp46
a(S'Soundgarden'
p47
S'Let Me Drown'
p48
S'http://www.last.fm/music/Soundgarden/_/Let+Me+Drown'
p49
S'1268406876'
p50
tp51
a(S'Diamond Head'
p52
S'This Planet and Me'
p53
S'http://www.last.fm/music/Diamond+Head/_/This+Planet+and+Me'
p54
S'1268406580'
p55
tp56
a(S'Bad Religion'
p57
S'Marked'
p58
S'http://www.last.fm/music/Bad+Religion/_/Marked'
p59
S'1268406100'
p60
tp61
a(S'Misfits'
p62
S'Hybrid Moments'
p63
S'http://www.last.fm/music/Misfits/_/Hybrid+Moments'
p64
S'1268406000'
p65
tp66
a(S'Alice Cooper'
p67
S"You're My Temptation"
p68
S'http://www.last.fm/music/Alice+Cooper/_/You%27re+My+Temptation'
p69
S'1268405691'
p70
tp71
a(S'Audioslave'
p72
S'Moth'
p73
S'http://www.last.fm/music/Audioslave/_/Moth'
p74
S'1268405396'
p75
tp76
a(S'Megadeth'
p77
S'A Secret Place'
p78
S'http://www.last.fm/music/Megadeth/_/A+Secret+Place'
p79
S'1268405072'
p80
tp81
a(S'Metallica'
p82
S'Until It Sleeps'
p83
S'http://www.last.fm/music/Metallica/_/Until+It+Sleeps'
p84
S'1268404800'
p85
tp86
a(S'Jerry Cantrell'
p87
S'Keep The Light On'
p88
S'http://www.last.fm/music/Jerry+Cantrell/_/Keep+The+Light+On'
p89
S'1268404513'
p90
tp91
a(S'Bad Religion'
p92
S'Stranger Than Fiction'
p93
S'http://www.last.fm/music/Bad+Religion/_/Stranger+Than+Fiction'
p94
S'1268404373'
p95
tp96
a(S'Soundgarden'
p97
S'Big Dumb Sex'
p98
S'http://www.last.fm/music/Soundgarden/_/Big+Dumb+Sex'
p99
S'1268404122'
p100
tp101
a(S'Soundgarden'
p102
S'Hands All Over'
p103
S'http://www.last.fm/music/Soundgarden/_/Hands+All+Over'
p104
S'1268403761'
p105
tp106
a(S'Misfits'
p107
S'Dust To Dust'
p108
S'http://www.last.fm/music/Misfits/_/Dust+To+Dust'
p109
S'1268403597'
p110
tp111
a(S'Alice in Chains'
p112
S'Bleed the Freak'
p113
S'http://www.last.fm/music/Alice+in+Chains/_/Bleed+the+Freak'
p114
S'1268403356'
p115
tp116
a(S'Megadeth'
p117
S'Addicted to Chaos'
p118
S'http://www.last.fm/music/Megadeth/_/Addicted+to+Chaos'
p119
S'1268403029'
p120
tp121
a(S'Misfits'
p122
S'Monster Mash'
p123
S'http://www.last.fm/music/Misfits/_/Monster+Mash'
p124
S'1268402871'
p125
tp126
a(S'Them Crooked Vultures'
p127
S'New Fang'
p128
S'http://www.last.fm/music/Them+Crooked+Vultures/_/New+Fang'
p129
S'1268402643'
p130
tp131
a(S'Soundgarden'
p132
S'Loud Love'
p133
S'http://www.last.fm/music/Soundgarden/_/Loud+Love'
p134
S'1268402346'
p135
tp136
a(S'Bad Religion'
p137
S'Leave Mine to Me'
p138
S'http://www.last.fm/music/Bad+Religion/_/Leave+Mine+to+Me'
p139
S'1268402219'
p140
tp141
a(S'Diamond Head'
p142
S'Calling Out'
p143
S'http://www.last.fm/music/Diamond+Head/_/Calling+Out'
p144
S'1268398514'
p145
tp146
a(S'ZZ Top'
p147
S'Fuzzbox Voodoo'
p148
S'http://www.last.fm/music/ZZ+Top/_/Fuzzbox+Voodoo'
p149
S'1268398231'
p150
tp151
a(S'Audioslave'
p152
S'Like A Stone'
p153
S'http://www.last.fm/music/Audioslave/_/Like+A+Stone'
p154
S'1268397890'
p155
tp156
a(S'Alice in Chains'
p157
S'Check My Brain'
p158
S'http://www.last.fm/music/Alice+in+Chains/_/Check+My+Brain'
p159
S'1268397652'
p160
tp161
a(S'Airbourne'
p162
S"Runnin' Wild"
p163
S'http://www.last.fm/music/Airbourne/_/Runnin%27+Wild'
p164
S'1268348353'
p165
tp166
a(S'Audioslave'
p167
S'Be Yourself'
p168
S'http://www.last.fm/music/Audioslave/_/Be+Yourself'
p169
S'1268348073'
p170
tp171
a(S'The Mission'
p172
S'Severina'
p173
S'http://www.last.fm/music/The+Mission/_/Severina'
p174
S'1268347811'
p175
tp176
a(S'Bad Religion'
p177
S'The Handshake'
p178
S'http://www.last.fm/music/Bad+Religion/_/The+Handshake'
p179
S'1268347641'
p180
tp181
a(S'Placebo'
p182
S'Every You Every Me'
p183
S'http://www.last.fm/music/Placebo/_/Every+You+Every+Me'
p184
S'1268347427'
p185
tp186
a(S'Audioslave'
p187
S"Heaven's Dead"
p188
S'http://www.last.fm/music/Audioslave/_/Heaven%27s+Dead'
p189
S'1268347150'
p190
tp191
a(S'Audioslave'
p192
S'I Am The Highway'
p193
S'http://www.last.fm/music/Audioslave/_/I+Am+The+Highway'
p194
S'1268346816'
p195
tp196
a(S'Iron Maiden'
p197
S'Drifter'
p198
S'http://www.last.fm/music/Iron+Maiden/_/Drifter'
p199
S'1268346527'
p200
tp201
a(S'Them Crooked Vultures'
p202
S'New Fang'
p203
S'http://www.last.fm/music/Them+Crooked+Vultures/_/New+Fang'
p204
S'1268346299'
p205
tp206
a(S'Jerry Cantrell'
p207
S'Hurt A Long Time'
p208
S'http://www.last.fm/music/Jerry+Cantrell/_/Hurt+A+Long+Time'
p209
S'1268345958'
p210
tp211
a(S'Bad Religion'
p212
S'Better Off Dead'
p213
S'http://www.last.fm/music/Bad+Religion/_/Better+Off+Dead'
p214
S'1268345799'
p215
tp216
a(S'Misfits'
p217
S'Hybrid Moments'
p218
S'http://www.last.fm/music/Misfits/_/Hybrid+Moments'
p219
S'1268345699'
p220
tp221
a(S'Audioslave'
p222
S'Cochise'
p223
S'http://www.last.fm/music/Audioslave/_/Cochise'
p224
S'1268345477'
p225
tp226
a(S'Soundgarden'
p227
S'Big Dumb Sex'
p228
S'http://www.last.fm/music/Soundgarden/_/Big+Dumb+Sex'
p229
S'1268345226'
p230
tp231
a(S'ZZ Top'
p232
S'Fuzzbox Voodoo'
p233
S'http://www.last.fm/music/ZZ+Top/_/Fuzzbox+Voodoo'
p234
S'1268344943'
p235
tp236
a(S'Megadeth'
p237
S'A Secret Place'
p238
S'http://www.last.fm/music/Megadeth/_/A+Secret+Place'
p239
S'1268344618'
p240
tp241
a(S'Mother Love Bone'
p242
S'Come Bite The Apple'
p243
S'http://www.last.fm/music/Mother+Love+Bone/_/Come+Bite+The+Apple'
p244
S'1268344292'
p245
tp246
a(S'Jupiter One'
p247
S'Countdown'
p248
S'http://www.last.fm/music/Jupiter+One/_/Countdown'
p249
S'1268344064'
p250
tp251
a(S'Metallica'
p252
S'2 X 4'
p253
S'http://www.last.fm/music/Metallica/_/2+X+4'
p254
S'1268343734'
p255
tp256
a(S'Misfits'
p257
S'Descending Angel'
p258
S'http://www.last.fm/music/Misfits/_/Descending+Angel'
p259
S'1268342915'
p260
tp261
a(S'Misfits'
p262
S'The Hunger'
p263
S'http://www.last.fm/music/Misfits/_/The+Hunger'
p264
S'1268342812'
p265
tp266
a(S'Queens of the Stone Age'
p267
S'Misfit Love'
p268
S'http://www.last.fm/music/Queens+of+the+Stone+Age/_/Misfit+Love'
p269
S'1268342045'
p270
tp271
a(S'Salad'
p272
S'Granite Statue'
p273
S'http://www.last.fm/music/Salad/_/Granite+Statue'
p274
S'1268341625'
p275
tp276
a(S'Misfits'
p277
S'Monster Mash'
p278
S'http://www.last.fm/music/Misfits/_/Monster+Mash'
p279
S'1268341418'
p280
tp281
a(S'Soundgarden'
p282
S'Loud Love'
p283
S'http://www.last.fm/music/Soundgarden/_/Loud+Love'
p284
S'1268341120'
p285
tp286
a(S'Diamond Head'
p287
S'Calling Out'
p288
S'http://www.last.fm/music/Diamond+Head/_/Calling+Out'
p289
S'1268340893'
p290
tp291
a(S'Metallica'
p292
S'Until It Sleeps'
p293
S'http://www.last.fm/music/Metallica/_/Until+It+Sleeps'
p294
S'1268340620'
p295
tp296
a(S'Mother Love Bone'
p297
S'Gentle Groove'
p298
S'http://www.last.fm/music/Mother+Love+Bone/_/Gentle+Groove'
p299
S'1268340376'
p300
tp301
a(S'Them Crooked Vultures'
p302
S'Gunman'
p303
S'http://www.last.fm/music/Them+Crooked+Vultures/_/Gunman'
p304
S'1268339867'
p305
tp306
a(S'Diamond Head'
p307
S'This Planet and Me'
p308
S'http://www.last.fm/music/Diamond+Head/_/This+Planet+and+Me'
p309
S'1268339570'
p310
tp311
a(S'Alice Cooper'
p312
S'Snakebite'
p313
S'http://www.last.fm/music/Alice+Cooper/_/Snakebite'
p314
S'1268339297'
p315
tp316
a(S'Audioslave'
p317
S'Gasoline'
p318
S'http://www.last.fm/music/Audioslave/_/Gasoline'
p319
S'1268339018'
p320
tp321
a(S'Bad Religion'
p322
S'Stranger Than Fiction'
p323
S'http://www.last.fm/music/Bad+Religion/_/Stranger+Than+Fiction'
p324
S'1268338878'
p325
tp326
a(S'Army Of Anyone'
p327
S'Generation'
p328
S'http://www.last.fm/music/Army+Of+Anyone/_/Generation'
p329
S'1268338667'
p330
tp331
a(S'Airbourne'
p332
S'Diamond in the Rough'
p333
S'http://www.last.fm/music/Airbourne/_/Diamond+in+the+Rough'
p334
S'1268338489'
p335
tp336
a(S'The Toy Dolls'
p337
S'Quick to Quit the Quentin'
p338
S'http://www.last.fm/music/The+Toy+Dolls/_/Quick+to+Quit+the+Quentin'
p339
S'1268338320'
p340
tp341
a(S'ZZ Top'
p342
S'Cherry Red'
p343
S'http://www.last.fm/music/ZZ+Top/_/Cherry+Red'
p344
S'1268334936'
p345
tp346
a(S'Audioslave'
p347
S'Like A Stone'
p348
S'http://www.last.fm/music/Audioslave/_/Like+A+Stone'
p349
S'1268334130'
p350
tp351
a(S'Bad Religion'
p352
S'Marked'
p353
S'http://www.last.fm/music/Bad+Religion/_/Marked'
p354
S'1268333908'
p355
tp356
a(S'Them Crooked Vultures'
p357
S'Spinning in Daffodils'
p358
S'http://www.last.fm/music/Them+Crooked+Vultures/_/Spinning+in+Daffodils'
p359
S'1268333460'
p360
tp361
a(S'Soundgarden'
p362
S"Full On Kevin's Mom"
p363
S'http://www.last.fm/music/Soundgarden/_/Full+On+Kevin%27s+Mom'
p364
S'1268333243'
p365
tp366
a(S'Misfits'
p367
S'This Island Earth'
p368
S'http://www.last.fm/music/Misfits/_/This+Island+Earth'
p369
S'1268333107'
p370
tp371
a(S'Soundgarden'
p372
S'Hands All Over'
p373
S'http://www.last.fm/music/Soundgarden/_/Hands+All+Over'
p374
S'1268332570'
p375
tp376
a(S'Diamond Head'
p377
S'Muddy Waters'
p378
S'http://www.last.fm/music/Diamond+Head/_/Muddy+Waters'
p379
S'1268332295'
p380
tp381
a(S'Soundgarden'
p382
S'The Day I Tried to Live'
p383
S'http://www.last.fm/music/Soundgarden/_/The+Day+I+Tried+to+Live'
p384
S'1268331975'
p385
tp386
a(S'Soundgarden'
p387
S'Superunknown'
p388
S'http://www.last.fm/music/Soundgarden/_/Superunknown'
p389
S'1268331669'
p390
tp391
a(S'Alice in Chains'
p392
S'Bleed the Freak'
p393
S'http://www.last.fm/music/Alice+in+Chains/_/Bleed+the+Freak'
p394
S'1268331427'
p395
tp396
a(S'The Toy Dolls'
p397
S"The Ashbrooke Launderette (You'll Stink... Your Clothes Shrink, Your White'll Be As Black As Ink)"
p398
S'http://www.last.fm/music/The+Toy+Dolls/_/The+Ashbrooke+Launderette+(You%27ll+Stink...+Your+Clothes+Shrink,+Your+White%27ll+Be+As+Black+As+Ink)'
p399
S'1268331217'
p400
tp401
a(S'Audioslave'
p402
S'Yesterday To Tomorrow'
p403
S'http://www.last.fm/music/Audioslave/_/Yesterday+To+Tomorrow'
p404
S'1268330943'
p405
tp406
a(S'Misfits'
p407
S'Dust To Dust'
p408
S'http://www.last.fm/music/Misfits/_/Dust+To+Dust'
p409
S'1268325119'
p410
tp411
a(S'Alice Cooper'
p412
S"You're My Temptation"
p413
S'http://www.last.fm/music/Alice+Cooper/_/You%27re+My+Temptation'
p414
S'1268324810'
p415
tp416
a(S'Bad Religion'
p417
S'What It Is'
p418
S'http://www.last.fm/music/Bad+Religion/_/What+It+Is'
p419
S'1268324681'
p420
tp421
a(S'Jerry Cantrell'
p422
S'Keep The Light On'
p423
S'http://www.last.fm/music/Jerry+Cantrell/_/Keep+The+Light+On'
p424
S'1268324394'
p425
tp426
a(S'Misfits'
p427
S'Halloween'
p428
S'http://www.last.fm/music/Misfits/_/Halloween'
p429
S'1268324287'
p430
tp431
a(S'The Toy Dolls'
p432
S'Howza Bouta Kiss Babe??!'
p433
S'http://www.last.fm/music/The+Toy+Dolls/_/Howza+Bouta+Kiss+Babe%3F%3F!'
p434
S'1268324117'
p435
tp436
a(S'ZZ Top'
p437
S'Pincushion'
p438
S'http://www.last.fm/music/ZZ+Top/_/Pincushion'
p439
S'1268323844'
p440
tp441
a(S'Alice in Chains'
p442
S'Check My Brain'
p443
S'http://www.last.fm/music/Alice+in+Chains/_/Check+My+Brain'
p444
S'1268323606'
p445
tp446
a(S'Soundgarden'
p447
S'Full On (Reprise)'
p448
S'http://www.last.fm/music/Soundgarden/_/Full+On+(Reprise)'
p449
S'1268323444'
p450
tp451
a(S'Bad Religion'
p452
S'Leave Mine to Me'
p453
S'http://www.last.fm/music/Bad+Religion/_/Leave+Mine+to+Me'
p454
S'1268312049'
p455
tp456
a(S'Misfits'
p457
S'Bullet'
p458
S'http://www.last.fm/music/Misfits/_/Bullet'
p459
S'1268311951'
p460
tp461
a(S'The Toy Dolls'
p462
S'Bare Faced Cheek'
p463
S'http://www.last.fm/music/The+Toy+Dolls/_/Bare+Faced+Cheek'
p464
S'1268311900'
p465
tp466
a(S'Iron Maiden'
p467
S'Purgatory'
p468
S'http://www.last.fm/music/Iron+Maiden/_/Purgatory'
p469
S'1268311700'
p470
tp471
a(S'Chickenfoot'
p472
S'Sexy Little Thing'
p473
S'http://www.last.fm/music/Chickenfoot/_/Sexy+Little+Thing'
p474
S'1268310880'
p475
tp476
a(S'Misfits'
p477
S'Monster Mash'
p478
S'http://www.last.fm/music/Misfits/_/Monster+Mash'
p479
S'1268258190'
p480
tp481
a(S'Bad Religion'
p482
S'Along The Way'
p483
S'http://www.last.fm/music/Bad+Religion/_/Along+The+Way'
p484
S'1268258091'
p485
tp486
a(S'Misfits'
p487
S'Dust To Dust'
p488
S'http://www.last.fm/music/Misfits/_/Dust+To+Dust'
p489
S'1268257927'
p490
tp491
a(S'Misfits'
p492
S'This Island Earth'
p493
S'http://www.last.fm/music/Misfits/_/This+Island+Earth'
p494
S'1268257792'
p495
tp496
a(S'Misfits'
p497
S'The Hunger'
p498
S'http://www.last.fm/music/Misfits/_/The+Hunger'
p499
S'1268257688'
p500
tp501
a(S'Bad Religion'
p502
S'What It Is'
p503
S'http://www.last.fm/music/Bad+Religion/_/What+It+Is'
p504
S'1268257559'
p505
tp506
a(S'Misfits'
p507
S'Descending Angel'
p508
S'http://www.last.fm/music/Misfits/_/Descending+Angel'
p509
S'1268257333'
p510
tp511
a(S'Audioslave'
p512
S'Be Yourself'
p513
S'http://www.last.fm/music/Audioslave/_/Be+Yourself'
p514
S'1268257054'
p515
tp516
a(S'Alice in Chains'
p517
S'Check My Brain'
p518
S'http://www.last.fm/music/Alice+in+Chains/_/Check+My+Brain'
p519
S'1268256816'
p520
tp521
a(S'Bad Religion'
p522
S'Better Off Dead'
p523
S'http://www.last.fm/music/Bad+Religion/_/Better+Off+Dead'
p524
S'1268256657'
p525
tp526
a(S'Soundgarden'
p527
S'Full On (Reprise)'
p528
S'http://www.last.fm/music/Soundgarden/_/Full+On+(Reprise)'
p529
S'1268256495'
p530
tp531
a(S'Iron Maiden'
p532
S'Purgatory'
p533
S'http://www.last.fm/music/Iron+Maiden/_/Purgatory'
p534
S'1268256322'
p535
tp536
a(S'Audioslave'
p537
S'Yesterday To Tomorrow'
p538
S'http://www.last.fm/music/Audioslave/_/Yesterday+To+Tomorrow'
p539
S'1268256049'
p540
tp541
a(S'Soundgarden'
p542
S'Let Me Drown'
p543
S'http://www.last.fm/music/Soundgarden/_/Let+Me+Drown'
p544
S'1268255817'
p545
tp546
a(S'Soundgarden'
p547
S"Full On Kevin's Mom"
p548
S'http://www.last.fm/music/Soundgarden/_/Full+On+Kevin%27s+Mom'
p549
S'1268255599'
p550
tp551
a(S'The Mission'
p552
S'Severina'
p553
S'http://www.last.fm/music/The+Mission/_/Severina'
p554
S'1268255072'
p555
tp556
a(S'ZZ Top'
p557
S'Cherry Red'
p558
S'http://www.last.fm/music/ZZ+Top/_/Cherry+Red'
p559
S'1268254793'
p560
tp561
a(S'Bad Religion'
p562
S'The Handshake'
p563
S'http://www.last.fm/music/Bad+Religion/_/The+Handshake'
p564
S'1268254623'
p565
tp566
a(S'ZZ Top'
p567
S'Fuzzbox Voodoo'
p568
S'http://www.last.fm/music/ZZ+Top/_/Fuzzbox+Voodoo'
p569
S'1268254341'
p570
tp571
a(S'Army Of Anyone'
p572
S'Generation'
p573
S'http://www.last.fm/music/Army+Of+Anyone/_/Generation'
p574
S'1268254130'
p575
tp576
a(S'Misfits'
p577
S'Hollywood Babylon'
p578
S'http://www.last.fm/music/Misfits/_/Hollywood+Babylon'
p579
S'1268253990'
p580
tp581
a(S'Salad'
p582
S'Granite Statue'
p583
S'http://www.last.fm/music/Salad/_/Granite+Statue'
p584
S'1268253796'
p585
tp586
a(S'Misfits'
p587
S'Hybrid Moments'
p588
S'http://www.last.fm/music/Misfits/_/Hybrid+Moments'
p589
S'1268253696'
p590
tp591
a(S'Megadeth'
p592
S'Addicted to Chaos'
p593
S'http://www.last.fm/music/Megadeth/_/Addicted+to+Chaos'
p594
S'1268253370'
p595
tp596
a(S'ZZ Top'
p597
S'Pincushion'
p598
S'http://www.last.fm/music/ZZ+Top/_/Pincushion'
p599
S'1268253097'
p600
tp601
a(S'The Toy Dolls'
p602
S'Quick to Quit the Quentin'
p603
S'http://www.last.fm/music/The+Toy+Dolls/_/Quick+to+Quit+the+Quentin'
p604
S'1268252928'
p605
tp606
a(S'Bad Religion'
p607
S'Leave Mine to Me'
p608
S'http://www.last.fm/music/Bad+Religion/_/Leave+Mine+to+Me'
p609
S'1268252801'
p610
tp611
a(S'Soundgarden'
p612
S'Loud Love'
p613
S'http://www.last.fm/music/Soundgarden/_/Loud+Love'
p614
S'1268252504'
p615
tp616
a(S'Bad Religion'
p617
S'Marked'
p618
S'http://www.last.fm/music/Bad+Religion/_/Marked'
p619
S'1268249522'
p620
tp621
a(S'Placebo'
p622
S'Every You Every Me'
p623
S'http://www.last.fm/music/Placebo/_/Every+You+Every+Me'
p624
S'1268249308'
p625
tp626
a(S'Audioslave'
p627
S'Gasoline'
p628
S'http://www.last.fm/music/Audioslave/_/Gasoline'
p629
S'1268249029'
p630
tp631
a(S'Iron Maiden'
p632
S'Drifter'
p633
S'http://www.last.fm/music/Iron+Maiden/_/Drifter'
p634
S'1268248740'
p635
tp636
a(S'Airbourne'
p637
S"Runnin' Wild"
p638
S'http://www.last.fm/music/Airbourne/_/Runnin%27+Wild'
p639
S'1268248522'
p640
tp641
a(S'Them Crooked Vultures'
p642
S'Gunman'
p643
S'http://www.last.fm/music/Them+Crooked+Vultures/_/Gunman'
p644
S'1268248236'
p645
tp646
a(S'Jupiter One'
p647
S'Countdown'
p648
S'http://www.last.fm/music/Jupiter+One/_/Countdown'
p649
S'1268248008'
p650
tp651
a(S'Chickenfoot'
p652
S'Sexy Little Thing'
p653
S'http://www.last.fm/music/Chickenfoot/_/Sexy+Little+Thing'
p654
S'1268247752'
p655
tp656
a(S'Iron Maiden'
p657
S'Innocent Exile'
p658
S'http://www.last.fm/music/Iron+Maiden/_/Innocent+Exile'
p659
S'1268247634'
p660
tp661
a(S'Metallica'
p662
S'2 X 4'
p663
S'http://www.last.fm/music/Metallica/_/2+X+4'
p664
S'1268247304'
p665
tp666
a(S'Audioslave'
p667
S'Like A Stone'
p668
S'http://www.last.fm/music/Audioslave/_/Like+A+Stone'
p669
S'1268247010'
p670
tp671
a(S'Diamond Head'
p672
S'Calling Out'
p673
S'http://www.last.fm/music/Diamond+Head/_/Calling+Out'
p674
S'1268246782'
p675
tp676
a(S'Airbourne'
p677
S'Diamond in the Rough'
p678
S'http://www.last.fm/music/Airbourne/_/Diamond+in+the+Rough'
p679
S'1268246608'
p680
tp681
a(S'Them Crooked Vultures'
p682
S'New Fang'
p683
S'http://www.last.fm/music/Them+Crooked+Vultures/_/New+Fang'
p684
S'1268245956'
p685
tp686
a(S'Audioslave'
p687
S'Cochise'
p688
S'http://www.last.fm/music/Audioslave/_/Cochise'
p689
S'1268245733'
p690
tp691
a(S'Soundgarden'
p692
S'Big Dumb Sex'
p693
S'http://www.last.fm/music/Soundgarden/_/Big+Dumb+Sex'
p694
S'1268240244'
p695
tp696
a(S'Metallica'
p697
S'Until It Sleeps'
p698
S'http://www.last.fm/music/Metallica/_/Until+It+Sleeps'
p699
S'1268239864'
p700
tp701
a(S'Alice Cooper'
p702
S'Snakebite'
p703
S'http://www.last.fm/music/Alice+Cooper/_/Snakebite'
p704
S'1268239591'
p705
tp706
a(S'Soundgarden'
p707
S'Hands All Over'
p708
S'http://www.last.fm/music/Soundgarden/_/Hands+All+Over'
p709
S'1268239161'
p710
tp711
a(S'Queens of the Stone Age'
p712
S'Misfit Love'
p713
S'http://www.last.fm/music/Queens+of+the+Stone+Age/_/Misfit+Love'
p714
S'1268229754'
p715
tp716
a(S'Yes'
p717
S'Changes'
p718
S'http://www.last.fm/music/Yes/_/Changes'
p719
S'1268229374'
p720
tp721
a(S'Alice in Chains'
p722
S'Bleed the Freak'
p723
S'http://www.last.fm/music/Alice+in+Chains/_/Bleed+the+Freak'
p724
S'1268229132'
p725
tp726
a(S'Misfits'
p727
S'Halloween'
p728
S'http://www.last.fm/music/Misfits/_/Halloween'
p729
S'1268229025'
p730
tp731
a(S'Soundgarden'
p732
S'Superunknown'
p733
S'http://www.last.fm/music/Soundgarden/_/Superunknown'
p734
S'1268228719'
p735
tp736
a(S'Bad Religion'
p737
S'Stranger Than Fiction'
p738
S'http://www.last.fm/music/Bad+Religion/_/Stranger+Than+Fiction'
p739
S'1268228579'
p740
tp741
a(S'Misfits'
p742
S'Bullet'
p743
S'http://www.last.fm/music/Misfits/_/Bullet'
p744
S'1268228481'
p745
tp746
a(S'Alice in Chains'
p747
S'Brother'
p748
S'http://www.last.fm/music/Alice+in+Chains/_/Brother'
p749
S'1268228213'
p750
tp751
a(S'The Toy Dolls'
p752
S'Howza Bouta Kiss Babe??!'
p753
S'http://www.last.fm/music/The+Toy+Dolls/_/Howza+Bouta+Kiss+Babe%3F%3F!'
p754
S'1268228043'
p755
tp756
a(S'Mother Love Bone'
p757
S'Gentle Groove'
p758
S'http://www.last.fm/music/Mother+Love+Bone/_/Gentle+Groove'
p759
S'1268227800'
p760
tp761
a(S'Mother Love Bone'
p762
S'Come Bite The Apple'
p763
S'http://www.last.fm/music/Mother+Love+Bone/_/Come+Bite+The+Apple'
p764
S'1268227444'
p765
tp766
a(S'Diamond Head'
p767
S'This Planet and Me'
p768
S'http://www.last.fm/music/Diamond+Head/_/This+Planet+and+Me'
p769
S'1268227037'
p770
tp771
a(S'Soundgarden'
p772
S'The Day I Tried to Live'
p773
S'http://www.last.fm/music/Soundgarden/_/The+Day+I+Tried+to+Live'
p774
S'1268226717'
p775
tp776
a(S'The Toy Dolls'
p777
S'Bare Faced Cheek'
p778
S'http://www.last.fm/music/The+Toy+Dolls/_/Bare+Faced+Cheek'
p779
S'1268226666'
p780
tp781
a(S'Black Sabbath'
p782
S'Megalomania'
p783
S'http://www.last.fm/music/Black+Sabbath/_/Megalomania'
p784
S'1268168324'
p785
tp786
a(S'Pearl Jam'
p787
S'Go'
p788
S'http://www.last.fm/music/Pearl+Jam/_/Go'
p789
S'1268168130'
p790
tp791
a(S'Soundgarden'
p792
S'Slaves & Bulldozers'
p793
S'http://www.last.fm/music/Soundgarden/_/Slaves+&+Bulldozers'
p794
S'1268167715'
p795
tp796
a(S'Alice Cooper'
p797
S'Hurricane Years'
p798
S'http://www.last.fm/music/Alice+Cooper/_/Hurricane+Years'
p799
S'1268167476'
p800
tp801
a(S'Airbourne'
p802
S"Runnin' Wild"
p803
S'http://www.last.fm/music/Airbourne/_/Runnin%27+Wild'
p804
S'1268167258'
p805
tp806
a(S'Them Crooked Vultures'
p807
S'New Fang'
p808
S'http://www.last.fm/music/Them+Crooked+Vultures/_/New+Fang'
p809
S'1268163041'
p810
tp811
a(S'Rainbow'
p812
S'Kill the King'
p813
S'http://www.last.fm/music/Rainbow/_/Kill+the+King'
p814
S'1268162771'
p815
tp816
a(S'Stone Temple Pilots'
p817
S'Vasoline'
p818
S'http://www.last.fm/music/Stone+Temple+Pilots/_/Vasoline'
p819
S'1268162594'
p820
tp821
a(S'Bad Religion'
p822
S'News From the Front'
p823
S'http://www.last.fm/music/Bad+Religion/_/News+From+the+Front'
p824
S'1268162451'
p825
tp826
a(S'Iron Maiden'
p827
S'Wrathchild'
p828
S'http://www.last.fm/music/Iron+Maiden/_/Wrathchild'
p829
S'1268162277'
p830
tp831
a(S'Queens of the Stone Age'
p832
S'Little Sister'
p833
S'http://www.last.fm/music/Queens+of+the+Stone+Age/_/Little+Sister'
p834
S'1268162103'
p835
tp836
a(S'ZZ Top'
p837
S'PCH'
p838
S'http://www.last.fm/music/ZZ+Top/_/PCH'
p839
S'1268161866'
p840
tp841
a(S'Queens of the Stone Age'
p842
S'Misfit Love'
p843
S'http://www.last.fm/music/Queens+of+the+Stone+Age/_/Misfit+Love'
p844
S'1268161526'
p845
tp846
a(S'Rainbow'
p847
S'Gates of Babylon'
p848
S'http://www.last.fm/music/Rainbow/_/Gates+of+Babylon'
p849
S'1268161116'
p850
tp851
a(S'Iron Maiden'
p852
S'The Ides Of March'
p853
S'http://www.last.fm/music/Iron+Maiden/_/The+Ides+Of+March'
p854
S'1268161011'
p855
tp856
a(S'Iron Maiden'
p857
S'Innocent Exile'
p858
S'http://www.last.fm/music/Iron+Maiden/_/Innocent+Exile'
p859
S'1268160778'
p860
tp861
a(S'Alice Cooper'
p862
S'House of Fire'
p863
S'http://www.last.fm/music/Alice+Cooper/_/House+of+Fire'
p864
S'1268159116'
p865
tp866
a(S'Black Sabbath'
p867
S'Get a Grip'
p868
S'http://www.last.fm/music/Black+Sabbath/_/Get+a+Grip'
p869
S'1268158876'
p870
tp871
a(S'Alice Cooper'
p872
S"Nothing's Free"
p873
S'http://www.last.fm/music/Alice+Cooper/_/Nothing%27s+Free'
p874
S'1268158575'
p875
tp876
a(S'Queens of the Stone Age'
p877
S'Make It Wit Chu'
p878
S'http://www.last.fm/music/Queens+of+the+Stone+Age/_/Make+It+Wit+Chu'
p879
S'1268158284'
p880
tp881
a(S'Judas Priest'
p882
S'Worth Fighting For'
p883
S'http://www.last.fm/music/Judas+Priest/_/Worth+Fighting+For'
p884
S'1268157979'
p885
tp886
a(S'Them Crooked Vultures'
p887
S'Gunman'
p888
S'http://www.last.fm/music/Them+Crooked+Vultures/_/Gunman'
p889
S'1268157692'
p890
tp891
a(S'ZZ Top'
p892
S'Vincent Price Blues'
p893
S'http://www.last.fm/music/ZZ+Top/_/Vincent+Price+Blues'
p894
S'1268157328'
p895
tp896
a(S'ZZ Top'
p897
S'Cherry Red'
p898
S'http://www.last.fm/music/ZZ+Top/_/Cherry+Red'
p899
S'1268157049'
p900
tp901
a(S'Pearl Jam'
p902
S'Leash'
p903
S'http://www.last.fm/music/Pearl+Jam/_/Leash'
p904
S'1268153099'
p905
tp906
a(S'Chickenfoot'
p907
S'Down The Drain'
p908
S'http://www.last.fm/music/Chickenfoot/_/Down+The+Drain'
p909
S'1268152722'
p910
tp911
a(S'Velvet Revolver'
p912
S'Headspace'
p913
S'http://www.last.fm/music/Velvet+Revolver/_/Headspace'
p914
S'1268152499'
p915
tp916
a(S'Alice in Chains'
p917
S'Lesson Learned'
p918
S'http://www.last.fm/music/Alice+in+Chains/_/Lesson+Learned'
p919
S'1268152242'
p920
tp921
a(S'Stone Temple Pilots'
p922
S'Seven Caged Tigers'
p923
S'http://www.last.fm/music/Stone+Temple+Pilots/_/Seven+Caged+Tigers'
p924
S'1268151633'
p925
tp926
a(S'Alice Cooper'
p927
S'House of Fire'
p928
S'http://www.last.fm/music/Alice+Cooper/_/House+of+Fire'
p929
S'1268151406'
p930
tp931
a(S'Megadeth'
p932
S'Almost Honest'
p933
S'http://www.last.fm/music/Megadeth/_/Almost+Honest'
p934
S'1268151163'
p935
tp936
a(S'Temple of the Dog'
p937
S'Pushin Forward Back'
p938
S'http://www.last.fm/music/Temple+of+the+Dog/_/Pushin+Forward+Back'
p939
S'1268150938'
p940
tp941
a(S'Black Sabbath'
p942
S'Get a Grip'
p943
S'http://www.last.fm/music/Black+Sabbath/_/Get+a+Grip'
p944
S'1268150698'
p945
tp946
a(S'Alice in Chains'
p947
S'Brother'
p948
S'http://www.last.fm/music/Alice+in+Chains/_/Brother'
p949
S'1268150430'
p950
tp951
a(S'Temple of the Dog'
p952
S'Wooden Jesus'
p953
S'http://www.last.fm/music/Temple+of+the+Dog/_/Wooden+Jesus'
p954
S'1268145479'
p955
tp956
a(S'Rainbow'
p957
S'Kill the King'
p958
S'http://www.last.fm/music/Rainbow/_/Kill+the+King'
p959
S'1268145209'
p960
tp961
a(S'Soundgarden'
p962
S'Slaves & Bulldozers'
p963
S'http://www.last.fm/music/Soundgarden/_/Slaves+&+Bulldozers'
p964
S'1268144793'
p965
tp966
a(S'ZZ Top'
p967
S'Cherry Red'
p968
S'http://www.last.fm/music/ZZ+Top/_/Cherry+Red'
p969
S'1268144514'
p970
tp971
a(S'Pearl Jam'
p972
S'Leash'
p973
S'http://www.last.fm/music/Pearl+Jam/_/Leash'
p974
S'1268144219'
p975
tp976
a(S'Velvet Revolver'
p977
S'Get Out The Door'
p978
S'http://www.last.fm/music/Velvet+Revolver/_/Get+Out+The+Door'
p979
S'1268144024'
p980
tp981
a(S'Black Sabbath'
p982
S'Wheels of Confusion'
p983
S'http://www.last.fm/music/Black+Sabbath/_/Wheels+of+Confusion'
p984
S'1268143530'
p985
tp986
a(S'AC/DC'
p987
S'Decibel'
p988
S'http://www.last.fm/music/AC%2FDC/_/Decibel'
p989
S'1268143316'
p990
tp991
a(S'ZZ Top'
p992
S'PCH'
p993
S'http://www.last.fm/music/ZZ+Top/_/PCH'
p994
S'1268143079'
p995
tp996
a(S'Queens of the Stone Age'
p997
S'Little Sister'
p998
S'http://www.last.fm/music/Queens+of+the+Stone+Age/_/Little+Sister'
p999
S'1268142905'
p1000
tp1001
a.