(lp1
(S'Jamiroquai'
p2
S'Space Cowboy'
p3
S'http://www.last.fm/music/Jamiroquai/_/Space+Cowboy'
p4
S'1208893887'
p5
tp6
a(S'Jerry Cantrell'
p7
S'Satisfy'
p8
S'http://www.last.fm/music/Jerry+Cantrell/_/Satisfy'
p9
S'1208893672'
p10
tp11
a(S'Army Of Anyone'
p12
S'Generation'
p13
S'http://www.last.fm/music/Army+Of+Anyone/_/Generation'
p14
S'1208893462'
p15
tp16
a(S'Queens of the Stone Age'
p17
S'Make It Wit Chu'
p18
S'http://www.last.fm/music/Queens+of+the+Stone+Age/_/Make+It+Wit+Chu'
p19
S'1208893171'
p20
tp21
a(S'Jerry Cantrell'
p22
S'Settling Down'
p23
S'http://www.last.fm/music/Jerry+Cantrell/_/Settling+Down'
p24
S'1208892787'
p25
tp26
a(S'Queens of the Stone Age'
p27
S'Little Sister'
p28
S'http://www.last.fm/music/Queens+of+the+Stone+Age/_/Little+Sister'
p29
S'1208892614'
p30
tp31
a(S'Jamiroquai'
p32
S'7 days in sunny june'
p33
S'http://www.last.fm/music/Jamiroquai/_/7+days+in+sunny+june'
p34
S'1208892374'
p35
tp36
a(S'Queens of the Stone Age'
p37
S'God Is in the Radio'
p38
S'http://www.last.fm/music/Queens+of+the+Stone+Age/_/God+Is+in+the+Radio'
p39
S'1208892009'
p40
tp41
a(S'Marvin Gaye'
p42
S'Lets Get It On'
p43
S'http://www.last.fm/music/Marvin+Gaye/_/Lets+Get+It+On'
p44
S'1208891716'
p45
tp46
a(S'Jerry Cantrell'
p47
S'Breaks My Back'
p48
S'http://www.last.fm/music/Jerry+Cantrell/_/Breaks+My+Back'
p49
S'1208891292'
p50
tp51
a(S'Jerry Cantrell'
p52
S'Between'
p53
S'http://www.last.fm/music/Jerry+Cantrell/_/Between'
p54
S'1208891075'
p55
tp56
a(S'Butthole Surfers'
p57
S'Pepper'
p58
S'http://www.last.fm/music/Butthole+Surfers/_/Pepper'
p59
S'1208890778'
p60
tp61
a(S'Jamiroquai'
p62
S'When You Gonna Learn'
p63
S'http://www.last.fm/music/Jamiroquai/_/When+You+Gonna+Learn'
p64
S'1208890549'
p65
tp66
a(S'Jamiroquai'
p67
S'Love Foolosophy'
p68
S'http://www.last.fm/music/Jamiroquai/_/Love+Foolosophy'
p69
S'1208890322'
p70
tp71
a(S'Marvin Gaye'
p72
S'Sexual Healing'
p73
S'http://www.last.fm/music/Marvin+Gaye/_/Sexual+Healing'
p74
S'1208890084'
p75
tp76
a(S'Iron Maiden'
p77
S'The Evil That Men Do'
p78
S'http://www.last.fm/music/Iron+Maiden/_/The+Evil+That+Men+Do'
p79
S'1208889811'
p80
tp81
a(S'Nirvana'
p82
S'Lithium'
p83
S'http://www.last.fm/music/Nirvana/_/Lithium'
p84
S'1208889554'
p85
tp86
a(S'Jamiroquai'
p87
S'Little L'
p88
S'http://www.last.fm/music/Jamiroquai/_/Little+L'
p89
S'1208889316'
p90
tp91
a(S'Jerry Cantrell'
p92
S'Breaks My Back'
p93
S'http://www.last.fm/music/Jerry+Cantrell/_/Breaks+My+Back'
p94
S'1208888891'
p95
tp96
a(S'Queens of the Stone Age'
p97
S"3's & 7's"
p98
S'http://www.last.fm/music/Queens+of+the+Stone+Age/_/3%27s+&+7%27s'
p99
S'1208888677'
p100
tp101
a(S'Blondie'
p102
S'Call Me'
p103
S'http://www.last.fm/music/Blondie/_/Call+Me'
p104
S'1208888465'
p105
tp106
a(S'Jamiroquai'
p107
S'Virtual Insanity'
p108
S'http://www.last.fm/music/Jamiroquai/_/Virtual+Insanity'
p109
S'1208888237'
p110
tp111
a(S'Queens of the Stone Age'
p112
S'God Is in the Radio'
p113
S'http://www.last.fm/music/Queens+of+the+Stone+Age/_/God+Is+in+the+Radio'
p114
S'1208887873'
p115
tp116
a(S'Jamiroquai'
p117
S'Love Foolosophy'
p118
S'http://www.last.fm/music/Jamiroquai/_/Love+Foolosophy'
p119
S'1208887588'
p120
tp121
a(S'Butthole Surfers'
p122
S'Pepper'
p123
S'http://www.last.fm/music/Butthole+Surfers/_/Pepper'
p124
S'1208887290'
p125
tp126
a(S'Donita Sparks & The Stellar Moments'
p127
S"He's Got The Honey"
p128
S'http://www.last.fm/music/Donita+Sparks+&+The+Stellar+Moments/_/He%27s+Got+The+Honey'
p129
S'1208887099'
p130
tp131
a(S'Jerry Cantrell'
p132
S'Keep The Light On'
p133
S'http://www.last.fm/music/Jerry+Cantrell/_/Keep+The+Light+On'
p134
S'1208886813'
p135
tp136
a(S'Nirvana'
p137
S'Lithium'
p138
S'http://www.last.fm/music/Nirvana/_/Lithium'
p139
S'1208886556'
p140
tp141
a(S'Queens of the Stone Age'
p142
S'Little Sister'
p143
S'http://www.last.fm/music/Queens+of+the+Stone+Age/_/Little+Sister'
p144
S'1208886382'
p145
tp146
a(S'Iron Maiden'
p147
S'Public Enema Number One'
p148
S'http://www.last.fm/music/Iron+Maiden/_/Public+Enema+Number+One'
p149
S'1208886049'
p150
tp151
a(S'Nirvana'
p152
S'In Bloom'
p153
S'http://www.last.fm/music/Nirvana/_/In+Bloom'
p154
S'1208885795'
p155
tp156
a(S'Weezer'
p157
S'Buddy Holly'
p158
S'http://www.last.fm/music/Weezer/_/Buddy+Holly'
p159
S'1208885636'
p160
tp161
a(S'Jerry Cantrell'
p162
S'Devil By His Side'
p163
S'http://www.last.fm/music/Jerry+Cantrell/_/Devil+By+His+Side'
p164
S'1208884763'
p165
tp166
a(S'Army Of Anyone'
p167
S'A Better Place'
p168
S'http://www.last.fm/music/Army+Of+Anyone/_/A+Better+Place'
p169
S'1208884465'
p170
tp171
a(S'Marvin Gaye'
p172
S'Sexual Healing'
p173
S'http://www.last.fm/music/Marvin+Gaye/_/Sexual+Healing'
p174
S'1208884227'
p175
tp176
a(S'Jerry Cantrell'
p177
S'Hurt A Long Time'
p178
S'http://www.last.fm/music/Jerry+Cantrell/_/Hurt+A+Long+Time'
p179
S'1208883886'
p180
tp181
a(S'Iron Maiden'
p182
S'The Evil That Men Do'
p183
S'http://www.last.fm/music/Iron+Maiden/_/The+Evil+That+Men+Do'
p184
S'1208883599'
p185
tp186
a(S'Jerry Cantrell'
p187
S'Dickeye'
p188
S'http://www.last.fm/music/Jerry+Cantrell/_/Dickeye'
p189
S'1208883296'
p190
tp191
a(S'Jamiroquai'
p192
S'Space Cowboy'
p193
S'http://www.last.fm/music/Jamiroquai/_/Space+Cowboy'
p194
S'1208883056'
p195
tp196
a(S'Jerry Cantrell'
p197
S'Jesus Hands'
p198
S'http://www.last.fm/music/Jerry+Cantrell/_/Jesus+Hands'
p199
S'1208877801'
p200
tp201
a(S'Marvin Gaye'
p202
S'Lets Get It On'
p203
S'http://www.last.fm/music/Marvin+Gaye/_/Lets+Get+It+On'
p204
S'1208877461'
p205
tp206
a(S'Public Enemy'
p207
S'Fight the Power'
p208
S'http://www.last.fm/music/Public+Enemy/_/Fight+the+Power'
p209
S'1208877236'
p210
tp211
a(S'Jerry Cantrell'
p212
S'Settling Down'
p213
S'http://www.last.fm/music/Jerry+Cantrell/_/Settling+Down'
p214
S'1208876866'
p215
tp216
a(S'Army Of Anyone'
p217
S'Generation'
p218
S'http://www.last.fm/music/Army+Of+Anyone/_/Generation'
p219
S'1208876656'
p220
tp221
a(S'Iron Maiden'
p222
S'Chains of Misery'
p223
S'http://www.last.fm/music/Iron+Maiden/_/Chains+of+Misery'
p224
S'1208876438'
p225
tp226
a(S'Jamiroquai'
p227
S'7 days in sunny june'
p228
S'http://www.last.fm/music/Jamiroquai/_/7+days+in+sunny+june'
p229
S'1208875080'
p230
tp231
a(S'Jamiroquai'
p232
S'Love Foolosophy'
p233
S'http://www.last.fm/music/Jamiroquai/_/Love+Foolosophy'
p234
S'1208874853'
p235
tp236
a(S'Iron Maiden'
p237
S'Public Enema Number One'
p238
S'http://www.last.fm/music/Iron+Maiden/_/Public+Enema+Number+One'
p239
S'1208874595'
p240
tp241
a(S'Jerry Cantrell'
p242
S'Breaks My Back'
p243
S'http://www.last.fm/music/Jerry+Cantrell/_/Breaks+My+Back'
p244
S'1208874170'
p245
tp246
a(S'Queens of the Stone Age'
p247
S'Make It Wit Chu'
p248
S'http://www.last.fm/music/Queens+of+the+Stone+Age/_/Make+It+Wit+Chu'
p249
S'1208873879'
p250
tp251
a(S'Nirvana'
p252
S'In Bloom'
p253
S'http://www.last.fm/music/Nirvana/_/In+Bloom'
p254
S'1208873625'
p255
tp256
a(S'Army Of Anyone'
p257
S'Generation'
p258
S'http://www.last.fm/music/Army+Of+Anyone/_/Generation'
p259
S'1208873414'
p260
tp261
a(S'Jamiroquai'
p262
S'Space Cowboy'
p263
S'http://www.last.fm/music/Jamiroquai/_/Space+Cowboy'
p264
S'1208873197'
p265
tp266
a(S"Howlin' Wolf"
p267
S'Spoonful'
p268
S'http://www.last.fm/music/Howlin%27+Wolf/_/Spoonful'
p269
S'1208872553'
p270
tp271
a(S'Jamiroquai'
p272
S'When You Gonna Learn'
p273
S'http://www.last.fm/music/Jamiroquai/_/When+You+Gonna+Learn'
p274
S'1208872115'
p275
tp276
a(S'Queens of the Stone Age'
p277
S'Little Sister'
p278
S'http://www.last.fm/music/Queens+of+the+Stone+Age/_/Little+Sister'
p279
S'1208871941'
p280
tp281
a(S'Iron Maiden'
p282
S'Chains of Misery'
p283
S'http://www.last.fm/music/Iron+Maiden/_/Chains+of+Misery'
p284
S'1208871717'
p285
tp286
a(S'Jerry Cantrell'
p287
S'Between'
p288
S'http://www.last.fm/music/Jerry+Cantrell/_/Between'
p289
S'1208871220'
p290
tp291
a(S'Jamiroquai'
p292
S'7 days in sunny june'
p293
S'http://www.last.fm/music/Jamiroquai/_/7+days+in+sunny+june'
p294
S'1208870981'
p295
tp296
a(S'Jerry Cantrell'
p297
S'Keep The Light On'
p298
S'http://www.last.fm/music/Jerry+Cantrell/_/Keep+The+Light+On'
p299
S'1208870307'
p300
tp301
a(S'Jerry Cantrell'
p302
S'Devil By His Side'
p303
S'http://www.last.fm/music/Jerry+Cantrell/_/Devil+By+His+Side'
p304
S'1208870017'
p305
tp306
a(S'Donita Sparks & The Stellar Moments'
p307
S"He's Got The Honey"
p308
S'http://www.last.fm/music/Donita+Sparks+&+The+Stellar+Moments/_/He%27s+Got+The+Honey'
p309
S'1208869826'
p310
tp311
a(S'Queens of the Stone Age'
p312
S'No One Knows'
p313
S'http://www.last.fm/music/Queens+of+the+Stone+Age/_/No+One+Knows'
p314
S'1208869547'
p315
tp316
a(S'Jamiroquai'
p317
S'Virtual Insanity'
p318
S'http://www.last.fm/music/Jamiroquai/_/Virtual+Insanity'
p319
S'1208869319'
p320
tp321
a(S'Weezer'
p322
S'Buddy Holly'
p323
S'http://www.last.fm/music/Weezer/_/Buddy+Holly'
p324
S'1208869160'
p325
tp326
a(S'Jamiroquai'
p327
S'Little L'
p328
S'http://www.last.fm/music/Jamiroquai/_/Little+L'
p329
S'1208868912'
p330
tp331
a(S'Nirvana'
p332
S'Lithium'
p333
S'http://www.last.fm/music/Nirvana/_/Lithium'
p334
S'1208868655'
p335
tp336
a(S'Butthole Surfers'
p337
S'Pepper'
p338
S'http://www.last.fm/music/Butthole+Surfers/_/Pepper'
p339
S'1208868358'
p340
tp341
a(S'Jerry Cantrell'
p342
S'Hurt A Long Time'
p343
S'http://www.last.fm/music/Jerry+Cantrell/_/Hurt+A+Long+Time'
p344
S'1208868017'
p345
tp346
a(S'Jerry Cantrell'
p347
S'Dickeye'
p348
S'http://www.last.fm/music/Jerry+Cantrell/_/Dickeye'
p349
S'1208867714'
p350
tp351
a(S'Queens of the Stone Age'
p352
S"3's & 7's"
p353
S'http://www.last.fm/music/Queens+of+the+Stone+Age/_/3%27s+&+7%27s'
p354
S'1208867583'
p355
tp356
a(S'Public Enemy'
p357
S'Fight the Power'
p358
S'http://www.last.fm/music/Public+Enemy/_/Fight+the+Power'
p359
S'1208867354'
p360
tp361
a(S'Nirvana'
p362
S'Lithium'
p363
S'http://www.last.fm/music/Nirvana/_/Lithium'
p364
S'1208791876'
p365
tp366
a(S'Jamiroquai'
p367
S'When You Gonna Learn'
p368
S'http://www.last.fm/music/Jamiroquai/_/When+You+Gonna+Learn'
p369
S'1208791646'
p370
tp371
a(S'Jerry Cantrell'
p372
S'Dickeye'
p373
S'http://www.last.fm/music/Jerry+Cantrell/_/Dickeye'
p374
S'1208791343'
p375
tp376
a(S'Jamiroquai'
p377
S'7 days in sunny june'
p378
S'http://www.last.fm/music/Jamiroquai/_/7+days+in+sunny+june'
p379
S'1208791102'
p380
tp381
a(S'Jamiroquai'
p382
S'Love Foolosophy'
p383
S'http://www.last.fm/music/Jamiroquai/_/Love+Foolosophy'
p384
S'1208790867'
p385
tp386
a(S'Marvin Gaye'
p387
S'Lets Get It On'
p388
S'http://www.last.fm/music/Marvin+Gaye/_/Lets+Get+It+On'
p389
S'1208547353'
p390
tp391
a(S'Iron Maiden'
p392
S'Chains of Misery'
p393
S'http://www.last.fm/music/Iron+Maiden/_/Chains+of+Misery'
p394
S'1208547135'
p395
tp396
a(S'Donita Sparks & The Stellar Moments'
p397
S"He's Got The Honey"
p398
S'http://www.last.fm/music/Donita+Sparks+&+The+Stellar+Moments/_/He%27s+Got+The+Honey'
p399
S'1208546943'
p400
tp401
a(S'Queens of the Stone Age'
p402
S'Little Sister'
p403
S'http://www.last.fm/music/Queens+of+the+Stone+Age/_/Little+Sister'
p404
S'1208546770'
p405
tp406
a(S'Jamiroquai'
p407
S'7 days in sunny june'
p408
S'http://www.last.fm/music/Jamiroquai/_/7+days+in+sunny+june'
p409
S'1208546530'
p410
tp411
a(S'Queens of the Stone Age'
p412
S'Make It Wit Chu'
p413
S'http://www.last.fm/music/Queens+of+the+Stone+Age/_/Make+It+Wit+Chu'
p414
S'1208546238'
p415
tp416
a(S'Jerry Cantrell'
p417
S'Settling Down'
p418
S'http://www.last.fm/music/Jerry+Cantrell/_/Settling+Down'
p419
S'1208545843'
p420
tp421
a(S'Army Of Anyone'
p422
S'A Better Place'
p423
S'http://www.last.fm/music/Army+Of+Anyone/_/A+Better+Place'
p424
S'1208545545'
p425
tp426
a(S'Jamiroquai'
p427
S'Virtual Insanity'
p428
S'http://www.last.fm/music/Jamiroquai/_/Virtual+Insanity'
p429
S'1208545331'
p430
tp431
a(S'Jamiroquai'
p432
S'Little L'
p433
S'http://www.last.fm/music/Jamiroquai/_/Little+L'
p434
S'1208545094'
p435
tp436
a(S'Marvin Gaye'
p437
S'Lets Get It On'
p438
S'http://www.last.fm/music/Marvin+Gaye/_/Lets+Get+It+On'
p439
S'1208544801'
p440
tp441
a(S'Jerry Cantrell'
p442
S'Dickeye'
p443
S'http://www.last.fm/music/Jerry+Cantrell/_/Dickeye'
p444
S'1208543297'
p445
tp446
a(S'Jerry Cantrell'
p447
S'Satisfy'
p448
S'http://www.last.fm/music/Jerry+Cantrell/_/Satisfy'
p449
S'1208542119'
p450
tp451
a(S'Jerry Cantrell'
p452
S'Between'
p453
S'http://www.last.fm/music/Jerry+Cantrell/_/Between'
p454
S'1208541802'
p455
tp456
a(S'Jerry Cantrell'
p457
S'Jesus Hands'
p458
S'http://www.last.fm/music/Jerry+Cantrell/_/Jesus+Hands'
p459
S'1208541465'
p460
tp461
a(S'Queens of the Stone Age'
p462
S'No One Knows'
p463
S'http://www.last.fm/music/Queens+of+the+Stone+Age/_/No+One+Knows'
p464
S'1208541187'
p465
tp466
a(S'Jerry Cantrell'
p467
S'Hurt A Long Time'
p468
S'http://www.last.fm/music/Jerry+Cantrell/_/Hurt+A+Long+Time'
p469
S'1208540081'
p470
tp471
a(S'Queens of the Stone Age'
p472
S'God Is in the Radio'
p473
S'http://www.last.fm/music/Queens+of+the+Stone+Age/_/God+Is+in+the+Radio'
p474
S'1208539781'
p475
tp476
a(S'Jamiroquai'
p477
S'Love Foolosophy'
p478
S'http://www.last.fm/music/Jamiroquai/_/Love+Foolosophy'
p479
S'1208539549'
p480
tp481
a(S'Jamiroquai'
p482
S'7 days in sunny june'
p483
S'http://www.last.fm/music/Jamiroquai/_/7+days+in+sunny+june'
p484
S'1208481145'
p485
tp486
a(S'Jamiroquai'
p487
S'Little L'
p488
S'http://www.last.fm/music/Jamiroquai/_/Little+L'
p489
S'1208474780'
p490
tp491
a(S'Jamiroquai'
p492
S'Space Cowboy'
p493
S'http://www.last.fm/music/Jamiroquai/_/Space+Cowboy'
p494
S'1208474605'
p495
tp496
a(S'Jamiroquai'
p497
S'When You Gonna Learn'
p498
S'http://www.last.fm/music/Jamiroquai/_/When+You+Gonna+Learn'
p499
S'1208474257'
p500
tp501
a(S'Army Of Anyone'
p502
S'Generation'
p503
S'http://www.last.fm/music/Army+Of+Anyone/_/Generation'
p504
S'1208474047'
p505
tp506
a(S'Iron Maiden'
p507
S'Chains of Misery'
p508
S'http://www.last.fm/music/Iron+Maiden/_/Chains+of+Misery'
p509
S'1208473829'
p510
tp511
a(S'Nirvana'
p512
S'Lithium'
p513
S'http://www.last.fm/music/Nirvana/_/Lithium'
p514
S'1208473573'
p515
tp516
a(S'Marvin Gaye'
p517
S'Lets Get It On'
p518
S'http://www.last.fm/music/Marvin+Gaye/_/Lets+Get+It+On'
p519
S'1208473281'
p520
tp521
a(S'Jerry Cantrell'
p522
S'Keep The Light On'
p523
S'http://www.last.fm/music/Jerry+Cantrell/_/Keep+The+Light+On'
p524
S'1208472994'
p525
tp526
a(S'Queens of the Stone Age'
p527
S'Make It Wit Chu'
p528
S'http://www.last.fm/music/Queens+of+the+Stone+Age/_/Make+It+Wit+Chu'
p529
S'1208472703'
p530
tp531
a(S'Jerry Cantrell'
p532
S'Hurt A Long Time'
p533
S'http://www.last.fm/music/Jerry+Cantrell/_/Hurt+A+Long+Time'
p534
S'1208472363'
p535
tp536
a(S'Jerry Cantrell'
p537
S'Settling Down'
p538
S'http://www.last.fm/music/Jerry+Cantrell/_/Settling+Down'
p539
S'1208471993'
p540
tp541
a(S'Jamiroquai'
p542
S'Love Foolosophy'
p543
S'http://www.last.fm/music/Jamiroquai/_/Love+Foolosophy'
p544
S'1208471752'
p545
tp546
a(S'Butthole Surfers'
p547
S'Pepper'
p548
S'http://www.last.fm/music/Butthole+Surfers/_/Pepper'
p549
S'1208376237'
p550
tp551
a(S'Jerry Cantrell'
p552
S'Keep The Light On'
p553
S'http://www.last.fm/music/Jerry+Cantrell/_/Keep+The+Light+On'
p554
S'1208375951'
p555
tp556
a(S'Jamiroquai'
p557
S'7 days in sunny june'
p558
S'http://www.last.fm/music/Jamiroquai/_/7+days+in+sunny+june'
p559
S'1208375710'
p560
tp561
a(S'Jerry Cantrell'
p562
S'Hurt A Long Time'
p563
S'http://www.last.fm/music/Jerry+Cantrell/_/Hurt+A+Long+Time'
p564
S'1208375369'
p565
tp566
a(S'Iron Maiden'
p567
S'Public Enema Number One'
p568
S'http://www.last.fm/music/Iron+Maiden/_/Public+Enema+Number+One'
p569
S'1208374766'
p570
tp571
a(S'Jerry Cantrell'
p572
S'Satisfy'
p573
S'http://www.last.fm/music/Jerry+Cantrell/_/Satisfy'
p574
S'1208374551'
p575
tp576
a(S'Iron Maiden'
p577
S'Chains of Misery'
p578
S'http://www.last.fm/music/Iron+Maiden/_/Chains+of+Misery'
p579
S'1208374334'
p580
tp581
a(S'Jerry Cantrell'
p582
S'Dickeye'
p583
S'http://www.last.fm/music/Jerry+Cantrell/_/Dickeye'
p584
S'1208374031'
p585
tp586
a(S'Iron Maiden'
p587
S'The Evil That Men Do'
p588
S'http://www.last.fm/music/Iron+Maiden/_/The+Evil+That+Men+Do'
p589
S'1208373858'
p590
tp591
a(S'Jamiroquai'
p592
S'When You Gonna Learn'
p593
S'http://www.last.fm/music/Jamiroquai/_/When+You+Gonna+Learn'
p594
S'1208373366'
p595
tp596
a(S'Jamiroquai'
p597
S'Love Foolosophy'
p598
S'http://www.last.fm/music/Jamiroquai/_/Love+Foolosophy'
p599
S'1208373111'
p600
tp601
a(S'Jerry Cantrell'
p602
S'Keep The Light On'
p603
S'http://www.last.fm/music/Jerry+Cantrell/_/Keep+The+Light+On'
p604
S'1208372776'
p605
tp606
a(S'Jamiroquai'
p607
S'Love Foolosophy'
p608
S'http://www.last.fm/music/Jamiroquai/_/Love+Foolosophy'
p609
S'1208270889'
p610
tp611
a(S'Iron Maiden'
p612
S'Only the Good Die Young'
p613
S'http://www.last.fm/music/Iron+Maiden/_/Only+the+Good+Die+Young'
p614
S'1208270608'
p615
tp616
a(S'Jamiroquai'
p617
S'When You Gonna Learn'
p618
S'http://www.last.fm/music/Jamiroquai/_/When+You+Gonna+Learn'
p619
S'1208270378'
p620
tp621
a(S'Marvin Gaye'
p622
S'Lets Get It On'
p623
S'http://www.last.fm/music/Marvin+Gaye/_/Lets+Get+It+On'
p624
S'1208270086'
p625
tp626
a(S"Howlin' Wolf"
p627
S'Spoonful'
p628
S'http://www.last.fm/music/Howlin%27+Wolf/_/Spoonful'
p629
S'1208269922'
p630
tp631
a(S'Jerry Cantrell'
p632
S'Hurt A Long Time'
p633
S'http://www.last.fm/music/Jerry+Cantrell/_/Hurt+A+Long+Time'
p634
S'1208269581'
p635
tp636
a(S'Weezer'
p637
S'Buddy Holly'
p638
S'http://www.last.fm/music/Weezer/_/Buddy+Holly'
p639
S'1208269422'
p640
tp641
a(S'Army Of Anyone'
p642
S'A Better Place'
p643
S'http://www.last.fm/music/Army+Of+Anyone/_/A+Better+Place'
p644
S'1208269124'
p645
tp646
a(S'Iron Maiden'
p647
S'Public Enema Number One'
p648
S'http://www.last.fm/music/Iron+Maiden/_/Public+Enema+Number+One'
p649
S'1208268870'
p650
tp651
a(S'Jerry Cantrell'
p652
S'Keep The Light On'
p653
S'http://www.last.fm/music/Jerry+Cantrell/_/Keep+The+Light+On'
p654
S'1208268583'
p655
tp656
a(S'Queens of the Stone Age'
p657
S'Make It Wit Chu'
p658
S'http://www.last.fm/music/Queens+of+the+Stone+Age/_/Make+It+Wit+Chu'
p659
S'1208268293'
p660
tp661
a(S'Jerry Cantrell'
p662
S'Satisfy'
p663
S'http://www.last.fm/music/Jerry+Cantrell/_/Satisfy'
p664
S'1208268079'
p665
tp666
a(S'Jerry Cantrell'
p667
S'Dickeye'
p668
S'http://www.last.fm/music/Jerry+Cantrell/_/Dickeye'
p669
S'1208267776'
p670
tp671
a(S'Jerry Cantrell'
p672
S'Settling Down'
p673
S'http://www.last.fm/music/Jerry+Cantrell/_/Settling+Down'
p674
S'1208267389'
p675
tp676
a(S'Jamiroquai'
p677
S'Little L'
p678
S'http://www.last.fm/music/Jamiroquai/_/Little+L'
p679
S'1208267147'
p680
tp681
a(S'Jamiroquai'
p682
S'Virtual Insanity'
p683
S'http://www.last.fm/music/Jamiroquai/_/Virtual+Insanity'
p684
S'1208102137'
p685
tp686
a(S'Jerry Cantrell'
p687
S'Keep The Light On'
p688
S'http://www.last.fm/music/Jerry+Cantrell/_/Keep+The+Light+On'
p689
S'1208101849'
p690
tp691
a(S'Jerry Cantrell'
p692
S'Between'
p693
S'http://www.last.fm/music/Jerry+Cantrell/_/Between'
p694
S'1208101633'
p695
tp696
a(S'Jerry Cantrell'
p697
S'Dickeye'
p698
S'http://www.last.fm/music/Jerry+Cantrell/_/Dickeye'
p699
S'1208101330'
p700
tp701
a(S'Army Of Anyone'
p702
S'A Better Place'
p703
S'http://www.last.fm/music/Army+Of+Anyone/_/A+Better+Place'
p704
S'1208101036'
p705
tp706
a(S'Iron Maiden'
p707
S'Public Enema Number One'
p708
S'http://www.last.fm/music/Iron+Maiden/_/Public+Enema+Number+One'
p709
S'1208100776'
p710
tp711
a(S'Butthole Surfers'
p712
S'Pepper'
p713
S'http://www.last.fm/music/Butthole+Surfers/_/Pepper'
p714
S'1208100459'
p715
tp716
a(S'Jerry Cantrell'
p717
S'Breaks My Back'
p718
S'http://www.last.fm/music/Jerry+Cantrell/_/Breaks+My+Back'
p719
S'1208033229'
p720
tp721
a(S'Jamiroquai'
p722
S'When You Gonna Learn'
p723
S'http://www.last.fm/music/Jamiroquai/_/When+You+Gonna+Learn'
p724
S'1208033000'
p725
tp726
a(S'Jamiroquai'
p727
S'Virtual Insanity'
p728
S'http://www.last.fm/music/Jamiroquai/_/Virtual+Insanity'
p729
S'1208027895'
p730
tp731
a(S'Jerry Cantrell'
p732
S'Settling Down'
p733
S'http://www.last.fm/music/Jerry+Cantrell/_/Settling+Down'
p734
S'1208027525'
p735
tp736
a(S'Jerry Cantrell'
p737
S'Hurt A Long Time'
p738
S'http://www.last.fm/music/Jerry+Cantrell/_/Hurt+A+Long+Time'
p739
S'1208027184'
p740
tp741
a(S'Jamiroquai'
p742
S'Love Foolosophy'
p743
S'http://www.last.fm/music/Jamiroquai/_/Love+Foolosophy'
p744
S'1208026957'
p745
tp746
a(S'Metallica'
p747
S'For Whom the Bell Tolls'
p748
S'http://www.last.fm/music/Metallica/_/For+Whom+the+Bell+Tolls'
p749
S'1208026647'
p750
tp751
a(S'Army Of Anyone'
p752
S'Generation'
p753
S'http://www.last.fm/music/Army+Of+Anyone/_/Generation'
p754
S'1208026436'
p755
tp756
a(S'Metallica'
p757
S'King Nothing'
p758
S'http://www.last.fm/music/Metallica/_/King+Nothing'
p759
S'1208026108'
p760
tp761
a(S'Jamiroquai'
p762
S'When You Gonna Learn'
p763
S'http://www.last.fm/music/Jamiroquai/_/When+You+Gonna+Learn'
p764
S'1207925892'
p765
tp766
a(S'Iron Maiden'
p767
S'Chains of Misery'
p768
S'http://www.last.fm/music/Iron+Maiden/_/Chains+of+Misery'
p769
S'1207925496'
p770
tp771
a(S'Iron Maiden'
p772
S'Public Enema Number One'
p773
S'http://www.last.fm/music/Iron+Maiden/_/Public+Enema+Number+One'
p774
S'1207925243'
p775
tp776
a(S'Queens of the Stone Age'
p777
S'Make It Wit Chu'
p778
S'http://www.last.fm/music/Queens+of+the+Stone+Age/_/Make+It+Wit+Chu'
p779
S'1207924798'
p780
tp781
a(S'Queens of the Stone Age'
p782
S"3's & 7's"
p783
S'http://www.last.fm/music/Queens+of+the+Stone+Age/_/3%27s+&+7%27s'
p784
S'1207924579'
p785
tp786
a(S'Jerry Cantrell'
p787
S'Settling Down'
p788
S'http://www.last.fm/music/Jerry+Cantrell/_/Settling+Down'
p789
S'1207924209'
p790
tp791
a(S'Jamiroquai'
p792
S'Little L'
p793
S'http://www.last.fm/music/Jamiroquai/_/Little+L'
p794
S'1207923972'
p795
tp796
a(S'Jerry Cantrell'
p797
S'Jesus Hands'
p798
S'http://www.last.fm/music/Jerry+Cantrell/_/Jesus+Hands'
p799
S'1207923635'
p800
tp801
a(S'Jerry Cantrell'
p802
S'Between'
p803
S'http://www.last.fm/music/Jerry+Cantrell/_/Between'
p804
S'1207923418'
p805
tp806
a(S'Army Of Anyone'
p807
S'Non Stop'
p808
S'http://www.last.fm/music/Army+Of+Anyone/_/Non+Stop'
p809
S'1207923064'
p810
tp811
a(S'Jerry Cantrell'
p812
S'Satisfy'
p813
S'http://www.last.fm/music/Jerry+Cantrell/_/Satisfy'
p814
S'1207922849'
p815
tp816
a(S'Jamiroquai'
p817
S'Virtual Insanity'
p818
S'http://www.last.fm/music/Jamiroquai/_/Virtual+Insanity'
p819
S'1207922622'
p820
tp821
a(S'Queens of the Stone Age'
p822
S'No One Knows'
p823
S'http://www.last.fm/music/Queens+of+the+Stone+Age/_/No+One+Knows'
p824
S'1207922343'
p825
tp826
a(S'Sweet'
p827
S'The Ballroom Blitz'
p828
S'http://www.last.fm/music/Sweet/_/The+Ballroom+Blitz'
p829
S'1207922101'
p830
tp831
a(S'Yes'
p832
S'Owner of a Lonely Heart'
p833
S'http://www.last.fm/music/Yes/_/Owner+of+a+Lonely+Heart'
p834
S'1207921838'
p835
tp836
a(S'T. Rex'
p837
S'20th Century Boy'
p838
S'http://www.last.fm/music/T.+Rex/_/20th+Century+Boy'
p839
S'1207921619'
p840
tp841
a(S'Jamiroquai'
p842
S'7 days in sunny june'
p843
S'http://www.last.fm/music/Jamiroquai/_/7+days+in+sunny+june'
p844
S'1207921408'
p845
tp846
a(S'Army Of Anyone'
p847
S'Generation'
p848
S'http://www.last.fm/music/Army+Of+Anyone/_/Generation'
p849
S'1207921198'
p850
tp851
a(S'Jerry Cantrell'
p852
S'Satisfy'
p853
S'http://www.last.fm/music/Jerry+Cantrell/_/Satisfy'
p854
S'1207920983'
p855
tp856
a(S'Marvin Gaye'
p857
S'Sexual Healing'
p858
S'http://www.last.fm/music/Marvin+Gaye/_/Sexual+Healing'
p859
S'1207920746'
p860
tp861
a(S'Jamiroquai'
p862
S'Virtual Insanity'
p863
S'http://www.last.fm/music/Jamiroquai/_/Virtual+Insanity'
p864
S'1207920518'
p865
tp866
a(S'Queens of the Stone Age'
p867
S'Make It Wit Chu'
p868
S'http://www.last.fm/music/Queens+of+the+Stone+Age/_/Make+It+Wit+Chu'
p869
S'1207920227'
p870
tp871
a(S'Nirvana'
p872
S'Lithium'
p873
S'http://www.last.fm/music/Nirvana/_/Lithium'
p874
S'1207919970'
p875
tp876
a(S'Queens of the Stone Age'
p877
S'Little Sister'
p878
S'http://www.last.fm/music/Queens+of+the+Stone+Age/_/Little+Sister'
p879
S'1207919800'
p880
tp881
a(S'Jamiroquai'
p882
S'Love Foolosophy'
p883
S'http://www.last.fm/music/Jamiroquai/_/Love+Foolosophy'
p884
S'1207917867'
p885
tp886
a(S'Jamiroquai'
p887
S'Feels Like It Should'
p888
S'http://www.last.fm/music/Jamiroquai/_/Feels+Like+It+Should'
p889
S'1207859859'
p890
tp891
a(S'Marvin Gaye'
p892
S'Lets Get It On'
p893
S'http://www.last.fm/music/Marvin+Gaye/_/Lets+Get+It+On'
p894
S'1207850241'
p895
tp896
a(S'Iron Maiden'
p897
S'Wasted Years'
p898
S'http://www.last.fm/music/Iron+Maiden/_/Wasted+Years'
p899
S'1207849929'
p900
tp901
a(S'Jerry Cantrell'
p902
S'Satisfy'
p903
S'http://www.last.fm/music/Jerry+Cantrell/_/Satisfy'
p904
S'1207849714'
p905
tp906
a(S'Queens of the Stone Age'
p907
S'Little Sister'
p908
S'http://www.last.fm/music/Queens+of+the+Stone+Age/_/Little+Sister'
p909
S'1207849492'
p910
tp911
a(S'Jerry Cantrell'
p912
S'Devil By His Side'
p913
S'http://www.last.fm/music/Jerry+Cantrell/_/Devil+By+His+Side'
p914
S'1207849183'
p915
tp916
a(S'Jerry Cantrell'
p917
S'Dickeye'
p918
S'http://www.last.fm/music/Jerry+Cantrell/_/Dickeye'
p919
S'1207848887'
p920
tp921
a(S"Howlin' Wolf"
p922
S'Spoonful'
p923
S'http://www.last.fm/music/Howlin%27+Wolf/_/Spoonful'
p924
S'1207848722'
p925
tp926
a(S'Jamiroquai'
p927
S'7 days in sunny june'
p928
S'http://www.last.fm/music/Jamiroquai/_/7+days+in+sunny+june'
p929
S'1207848481'
p930
tp931
a(S'Jerry Cantrell'
p932
S'Hurt A Long Time'
p933
S'http://www.last.fm/music/Jerry+Cantrell/_/Hurt+A+Long+Time'
p934
S'1207848140'
p935
tp936
a(S'Jerry Cantrell'
p937
S'Keep The Light On'
p938
S'http://www.last.fm/music/Jerry+Cantrell/_/Keep+The+Light+On'
p939
S'1207847855'
p940
tp941
a(S'Jamiroquai'
p942
S'Space Cowboy'
p943
S'http://www.last.fm/music/Jamiroquai/_/Space+Cowboy'
p944
S'1207847739'
p945
tp946
a(S'Iron Maiden'
p947
S'Chains of Misery'
p948
S'http://www.last.fm/music/Iron+Maiden/_/Chains+of+Misery'
p949
S'1207847519'
p950
tp951
a(S'Jerry Cantrell'
p952
S'Dickeye'
p953
S'http://www.last.fm/music/Jerry+Cantrell/_/Dickeye'
p954
S'1207841720'
p955
tp956
a(S'Jerry Cantrell'
p957
S'Devil By His Side'
p958
S'http://www.last.fm/music/Jerry+Cantrell/_/Devil+By+His+Side'
p959
S'1207841430'
p960
tp961
a(S'Sweet'
p962
S'The Ballroom Blitz'
p963
S'http://www.last.fm/music/Sweet/_/The+Ballroom+Blitz'
p964
S'1207841188'
p965
tp966
a(S'Jamiroquai'
p967
S'Space Cowboy'
p968
S'http://www.last.fm/music/Jamiroquai/_/Space+Cowboy'
p969
S'1207841003'
p970
tp971
a(S'Jerry Cantrell'
p972
S'Keep The Light On'
p973
S'http://www.last.fm/music/Jerry+Cantrell/_/Keep+The+Light+On'
p974
S'1207840712'
p975
tp976
a(S'Queens of the Stone Age'
p977
S'Make It Wit Chu'
p978
S'http://www.last.fm/music/Queens+of+the+Stone+Age/_/Make+It+Wit+Chu'
p979
S'1207840421'
p980
tp981
a(S'Jerry Cantrell'
p982
S'Between'
p983
S'http://www.last.fm/music/Jerry+Cantrell/_/Between'
p984
S'1207840204'
p985
tp986
a(S'Jamiroquai'
p987
S'Love Foolosophy'
p988
S'http://www.last.fm/music/Jamiroquai/_/Love+Foolosophy'
p989
S'1207839977'
p990
tp991
a(S'Jamiroquai'
p992
S'7 days in sunny june'
p993
S'http://www.last.fm/music/Jamiroquai/_/7+days+in+sunny+june'
p994
S'1207839733'
p995
tp996
a(S'Jamiroquai'
p997
S'Little L'
p998
S'http://www.last.fm/music/Jamiroquai/_/Little+L'
p999
S'1207839032'
p1000
tp1001
a.