(lp1
(S'Black Sabbath'
p2
S'Megalomania'
p3
S'http://www.last.fm/music/Black+Sabbath/_/Megalomania'
p4
S'1389798817'
p5
tp6
a(S'Black Sabbath'
p7
S'Paranoid'
p8
S'http://www.last.fm/music/Black+Sabbath/_/Paranoid'
p9
S'1389797799'
p10
tp11
a(S'Black Sabbath'
p12
S'Iron Man'
p13
S'http://www.last.fm/music/Black+Sabbath/_/Iron+Man'
p14
S'1389797626'
p15
tp16
a(S'Black Sabbath'
p17
S'Sabbath Bloody Sabbath'
p18
S'http://www.last.fm/music/Black+Sabbath/_/Sabbath+Bloody+Sabbath'
p19
S'1389797269'
p20
tp21
a(S'Black Sabbath'
p22
S'The Wizard'
p23
S'http://www.last.fm/music/Black+Sabbath/_/The+Wizard'
p24
S'1389793344'
p25
tp26
a(S'Black Sabbath'
p27
S'Die Young'
p28
S'http://www.last.fm/music/Black+Sabbath/_/Die+Young'
p29
S'1389793079'
p30
tp31
a(S'Black Sabbath'
p32
S'A National Acrobat'
p33
S'http://www.last.fm/music/Black+Sabbath/_/A+National+Acrobat'
p34
S'1389792800'
p35
tp36
a(S'Black Sabbath'
p37
S'Wheels of Confusion / The Straightener'
p38
S'http://www.last.fm/music/Black+Sabbath/_/Wheels+of+Confusion+%2F+The+Straightener'
p39
S'1389790773'
p40
tp41
a(S'Black Sabbath'
p42
S'Sabbra Cadabra'
p43
S'http://www.last.fm/music/Black+Sabbath/_/Sabbra+Cadabra'
p44
S'1389790278'
p45
tp46
a(S'Black Sabbath'
p47
S'Changes'
p48
S'http://www.last.fm/music/Black+Sabbath/_/Changes'
p49
S'1389789917'
p50
tp51
a(S'Black Sabbath'
p52
S'N.I.B.'
p53
S'http://www.last.fm/music/Black+Sabbath/_/N.I.B.'
p54
S'1389789631'
p55
tp56
a(S'Black Sabbath'
p57
S'Heaven and Hell'
p58
S'http://www.last.fm/music/Black+Sabbath/_/Heaven+and+Hell'
p59
S'1389726377'
p60
tp61
a(S'Black Sabbath'
p62
S'Am I Going Insane (Radio)'
p63
S'http://www.last.fm/music/Black+Sabbath/_/Am+I+Going+Insane+(Radio)'
p64
S'1389725961'
p65
tp66
a(S'Black Sabbath'
p67
S'Die Young'
p68
S'http://www.last.fm/music/Black+Sabbath/_/Die+Young'
p69
S'1389725705'
p70
tp71
a(S'Black Sabbath'
p72
S'Supernaut'
p73
S'http://www.last.fm/music/Black+Sabbath/_/Supernaut'
p74
S'1389720217'
p75
tp76
a(S'Black Sabbath'
p77
S"St. Vitus' Dance"
p78
S'http://www.last.fm/music/Black+Sabbath/_/St.+Vitus%27+Dance'
p79
S'1389719931'
p80
tp81
a(S'Black Sabbath'
p82
S'Get a Grip'
p83
S'http://www.last.fm/music/Black+Sabbath/_/Get+a+Grip'
p84
S'1389719781'
p85
tp86
a(S'Black Sabbath'
p87
S'Headless Cross'
p88
S'http://www.last.fm/music/Black+Sabbath/_/Headless+Cross'
p89
S'1389719541'
p90
tp91
a(S'Black Sabbath'
p92
S'The Wizard'
p93
S'http://www.last.fm/music/Black+Sabbath/_/The+Wizard'
p94
S'1389719152'
p95
tp96
a(S'Black Sabbath'
p97
S'Changes'
p98
S'http://www.last.fm/music/Black+Sabbath/_/Changes'
p99
S'1389718887'
p100
tp101
a(S'Black Sabbath'
p102
S'Sabbath Bloody Sabbath'
p103
S'http://www.last.fm/music/Black+Sabbath/_/Sabbath+Bloody+Sabbath'
p104
S'1389718600'
p105
tp106
a(S'Black Sabbath'
p107
S'A National Acrobat'
p108
S'http://www.last.fm/music/Black+Sabbath/_/A+National+Acrobat'
p109
S'1389718254'
p110
tp111
a(S'Black Sabbath'
p112
S'Paranoid'
p113
S'http://www.last.fm/music/Black+Sabbath/_/Paranoid'
p114
S'1389717877'
p115
tp116
a(S'Black Sabbath'
p117
S'Spiral Architect'
p118
S'http://www.last.fm/music/Black+Sabbath/_/Spiral+Architect'
p119
S'1389717704'
p120
tp121
a(S'Black Sabbath'
p122
S'Snowblind'
p123
S'http://www.last.fm/music/Black+Sabbath/_/Snowblind'
p124
S'1389717374'
p125
tp126
a(S'Black Sabbath'
p127
S'Sabbra Cadabra'
p128
S'http://www.last.fm/music/Black+Sabbath/_/Sabbra+Cadabra'
p129
S'1389717042'
p130
tp131
a(S'Black Sabbath'
p132
S'Iron Man'
p133
S'http://www.last.fm/music/Black+Sabbath/_/Iron+Man'
p134
S'1389716681'
p135
tp136
a(S'Black Sabbath'
p137
S'Sabbra Cadabra'
p138
S'http://www.last.fm/music/Black+Sabbath/_/Sabbra+Cadabra'
p139
S'1389632204'
p140
tp141
a(S'Black Sabbath'
p142
S'Am I Going Insane (Radio)'
p143
S'http://www.last.fm/music/Black+Sabbath/_/Am+I+Going+Insane+(Radio)'
p144
S'1389629838'
p145
tp146
a(S'Black Sabbath'
p147
S'Sabbath Bloody Sabbath'
p148
S'http://www.last.fm/music/Black+Sabbath/_/Sabbath+Bloody+Sabbath'
p149
S'1389629582'
p150
tp151
a(S'Black Sabbath'
p152
S'Changes'
p153
S'http://www.last.fm/music/Black+Sabbath/_/Changes'
p154
S'1389628805'
p155
tp156
a(S'Black Sabbath'
p157
S'Spiral Architect'
p158
S'http://www.last.fm/music/Black+Sabbath/_/Spiral+Architect'
p159
S'1389628519'
p160
tp161
a(S'Black Sabbath'
p162
S'Paranoid'
p163
S'http://www.last.fm/music/Black+Sabbath/_/Paranoid'
p164
S'1389628189'
p165
tp166
a(S'Black Sabbath'
p167
S'Iron Man'
p168
S'http://www.last.fm/music/Black+Sabbath/_/Iron+Man'
p169
S'1389627987'
p170
tp171
a(S'Black Sabbath'
p172
S'Heaven and Hell'
p173
S'http://www.last.fm/music/Black+Sabbath/_/Heaven+and+Hell'
p174
S'1389627630'
p175
tp176
a(S'Black Sabbath'
p177
S'A National Acrobat'
p178
S'http://www.last.fm/music/Black+Sabbath/_/A+National+Acrobat'
p179
S'1389627215'
p180
tp181
a(S'Black Sabbath'
p182
S'Die Young'
p183
S'http://www.last.fm/music/Black+Sabbath/_/Die+Young'
p184
S'1389626838'
p185
tp186
a(S'Black Sabbath'
p187
S'Wheels of Confusion / The Straightener'
p188
S'http://www.last.fm/music/Black+Sabbath/_/Wheels+of+Confusion+%2F+The+Straightener'
p189
S'1389626560'
p190
tp191
a(S'Black Sabbath'
p192
S'Megalomania'
p193
S'http://www.last.fm/music/Black+Sabbath/_/Megalomania'
p194
S'1389626065'
p195
tp196
a(S'Black Sabbath'
p197
S'The Wizard'
p198
S'http://www.last.fm/music/Black+Sabbath/_/The+Wizard'
p199
S'1389625485'
p200
tp201
a(S'Black Sabbath'
p202
S'Headless Cross'
p203
S'http://www.last.fm/music/Black+Sabbath/_/Headless+Cross'
p204
S'1389625220'
p205
tp206
a(S'Black Sabbath'
p207
S'Snowblind'
p208
S'http://www.last.fm/music/Black+Sabbath/_/Snowblind'
p209
S'1389624831'
p210
tp211
a(S'Black Sabbath'
p212
S"St. Vitus' Dance"
p213
S'http://www.last.fm/music/Black+Sabbath/_/St.+Vitus%27+Dance'
p214
S'1389624077'
p215
tp216
a(S'Black Sabbath'
p217
S'Devil & Daughter'
p218
S'http://www.last.fm/music/Black+Sabbath/_/Devil+&+Daughter'
p219
S'1389620558'
p220
tp221
a(S'Midnight Oil'
p222
S'Blue Sky Mine'
p223
S'http://www.last.fm/music/Midnight+Oil/_/Blue+Sky+Mine'
p224
S'1389618037'
p225
tp226
a(S'Jerry Cantrell'
p227
S'Angel Eyes'
p228
S'http://www.last.fm/music/Jerry+Cantrell/_/Angel+Eyes'
p229
S'1389617776'
p230
tp231
a(S'Alice in Chains'
p232
S'We Die Young (Demo)'
p233
S'http://www.last.fm/music/Alice+in+Chains/_/We+Die+Young+(Demo)'
p234
S'1389381864'
p235
tp236
a(S'Soundgarden'
p237
S'Rowing'
p238
S'http://www.last.fm/music/Soundgarden/_/Rowing'
p239
S'1389381718'
p240
tp241
a(S'Jerry Cantrell'
p242
S'Angel Eyes'
p243
S'http://www.last.fm/music/Jerry+Cantrell/_/Angel+Eyes'
p244
S'1389381411'
p245
tp246
a(S'Foo Fighters'
p247
S'Low'
p248
S'http://www.last.fm/music/Foo+Fighters/_/Low'
p249
S'1389381127'
p250
tp251
a(S'Ramones'
p252
S'Poison Heart'
p253
S'http://www.last.fm/music/Ramones/_/Poison+Heart'
p254
S'1389380858'
p255
tp256
a(S'Danzig'
p257
S'Mother'
p258
S'http://www.last.fm/music/Danzig/_/Mother'
p259
S'1389380614'
p260
tp261
a(S'Alice in Chains'
p262
S'Check My Brain'
p263
S'http://www.last.fm/music/Alice+in+Chains/_/Check+My+Brain'
p264
S'1389380409'
p265
tp266
a(S'Army Of Anyone'
p267
S'Generation'
p268
S'http://www.last.fm/music/Army+Of+Anyone/_/Generation'
p269
S'1389380171'
p270
tp271
a(S"Jane's Addiction"
p272
S'Just Because'
p273
S'http://www.last.fm/music/Jane%27s+Addiction/_/Just+Because'
p274
S'1389379960'
p275
tp276
a(S'Queens of the Stone Age'
p277
S'The Blood Is Love'
p278
S'http://www.last.fm/music/Queens+of+the+Stone+Age/_/The+Blood+Is+Love'
p279
S'1389379723'
p280
tp281
a(S'Queens of the Stone Age'
p282
S'In the Fade'
p283
S'http://www.last.fm/music/Queens+of+the+Stone+Age/_/In+the+Fade'
p284
S'1389379325'
p285
tp286
a(S'Jerry Cantrell'
p287
S'Keep The Light On'
p288
S'http://www.last.fm/music/Jerry+Cantrell/_/Keep+The+Light+On'
p289
S'1389379094'
p290
tp291
a(S'Stone Temple Pilots'
p292
S'Pruno'
p293
S'http://www.last.fm/music/Stone+Temple+Pilots/_/Pruno'
p294
S'1389378807'
p295
tp296
a(S'Stone Temple Pilots'
p297
S'Take a Load Off'
p298
S'http://www.last.fm/music/Stone+Temple+Pilots/_/Take+a+Load+Off'
p299
S'1389378583'
p300
tp301
a(S'Midnight Oil'
p302
S'Blue Sky Mine'
p303
S'http://www.last.fm/music/Midnight+Oil/_/Blue+Sky+Mine'
p304
S'1389378053'
p305
tp306
a(S'Nirvana'
p307
S'In Bloom'
p308
S'http://www.last.fm/music/Nirvana/_/In+Bloom'
p309
S'1389377793'
p310
tp311
a(S'Alice in Chains'
p312
S'We Die Young (Demo)'
p313
S'http://www.last.fm/music/Alice+in+Chains/_/We+Die+Young+(Demo)'
p314
S'1389377538'
p315
tp316
a(S'Soundgarden'
p317
S'Rowing'
p318
S'http://www.last.fm/music/Soundgarden/_/Rowing'
p319
S'1389377391'
p320
tp321
a(S'Jerry Cantrell'
p322
S'Angel Eyes'
p323
S'http://www.last.fm/music/Jerry+Cantrell/_/Angel+Eyes'
p324
S'1389377085'
p325
tp326
a(S'Ramones'
p327
S'Poison Heart'
p328
S'http://www.last.fm/music/Ramones/_/Poison+Heart'
p329
S'1389374662'
p330
tp331
a(S'Alice in Chains'
p332
S'Check My Brain'
p333
S'http://www.last.fm/music/Alice+in+Chains/_/Check+My+Brain'
p334
S'1389371663'
p335
tp336
a(S'Army Of Anyone'
p337
S'Generation'
p338
S'http://www.last.fm/music/Army+Of+Anyone/_/Generation'
p339
S'1389371425'
p340
tp341
a(S"Jane's Addiction"
p342
S'Just Because'
p343
S'http://www.last.fm/music/Jane%27s+Addiction/_/Just+Because'
p344
S'1389371214'
p345
tp346
a(S'Queens of the Stone Age'
p347
S'The Blood Is Love'
p348
S'http://www.last.fm/music/Queens+of+the+Stone+Age/_/The+Blood+Is+Love'
p349
S'1389370976'
p350
tp351
a(S'Queens of the Stone Age'
p352
S'In the Fade'
p353
S'http://www.last.fm/music/Queens+of+the+Stone+Age/_/In+the+Fade'
p354
S'1389370578'
p355
tp356
a(S'Jerry Cantrell'
p357
S'Keep The Light On'
p358
S'http://www.last.fm/music/Jerry+Cantrell/_/Keep+The+Light+On'
p359
S'1389370347'
p360
tp361
a(S'Nirvana'
p362
S'Lithium'
p363
S'http://www.last.fm/music/Nirvana/_/Lithium'
p364
S'1389368637'
p365
tp366
a(S'Stone Temple Pilots'
p367
S'Take a Load Off'
p368
S'http://www.last.fm/music/Stone+Temple+Pilots/_/Take+a+Load+Off'
p369
S'1389368380'
p370
tp371
a(S'Midnight Oil'
p372
S'Blue Sky Mine'
p373
S'http://www.last.fm/music/Midnight+Oil/_/Blue+Sky+Mine'
p374
S'1389368188'
p375
tp376
a(S'Nirvana'
p377
S'In Bloom'
p378
S'http://www.last.fm/music/Nirvana/_/In+Bloom'
p379
S'1389367928'
p380
tp381
a(S'Alice in Chains'
p382
S'We Die Young (Demo)'
p383
S'http://www.last.fm/music/Alice+in+Chains/_/We+Die+Young+(Demo)'
p384
S'1389367673'
p385
tp386
a(S'Soundgarden'
p387
S'Rowing'
p388
S'http://www.last.fm/music/Soundgarden/_/Rowing'
p389
S'1389366091'
p390
tp391
a(S'B.B. King & Eric Clapton'
p392
S'Riding With the King'
p393
S'http://www.last.fm/music/B.B.+King+&+Eric+Clapton/_/Riding+With+the+King'
p394
S'1389360898'
p395
tp396
a(S'Eric Clapton'
p397
S"I'm Tore Down"
p398
S'http://www.last.fm/music/Eric+Clapton/_/I%27m+Tore+Down'
p399
S'1389360635'
p400
tp401
a(S'Stevie Wonder'
p402
S'Superstition'
p403
S'http://www.last.fm/music/Stevie+Wonder/_/Superstition'
p404
S'1389360452'
p405
tp406
a(S'Albert King'
p407
S"That's What The Blues Is All About"
p408
S'http://www.last.fm/music/Albert+King/_/That%27s+What+The+Blues+Is+All+About'
p409
S'1389282299'
p410
tp411
a(S'J.J. Cale & Eric Clapton'
p412
S"Don't Cry Sister"
p413
S'http://www.last.fm/music/J.J.+Cale+&+Eric+Clapton/_/Don%27t+Cry+Sister'
p414
S'1389281788'
p415
tp416
a(S'John Lee Hooker'
p417
S'The Healer'
p418
S'http://www.last.fm/music/John+Lee+Hooker/_/The+Healer'
p419
S'1389281553'
p420
tp421
a(S'Eric Clapton'
p422
S"I'm Tore Down"
p423
S'http://www.last.fm/music/Eric+Clapton/_/I%27m+Tore+Down'
p424
S'1389281212'
p425
tp426
a(S'John Lee Hooker'
p427
S'Chill Out (Things Gonna Change)'
p428
S'http://www.last.fm/music/John+Lee+Hooker/_/Chill+Out+(Things+Gonna+Change)'
p429
S'1389281030'
p430
tp431
a(S'John Lee Hooker'
p432
S'Catfish'
p433
S'http://www.last.fm/music/John+Lee+Hooker/_/Catfish'
p434
S'1389280728'
p435
tp436
a(S'Eric Clapton'
p437
S'Next Time You See Her'
p438
S'http://www.last.fm/music/Eric+Clapton/_/Next+Time+You+See+Her'
p439
S'1389280271'
p440
tp441
a(S'Eric Clapton'
p442
S'Superman Inside'
p443
S'http://www.last.fm/music/Eric+Clapton/_/Superman+Inside'
p444
S'1389280029'
p445
tp446
a(S'Chuck Berry'
p447
S'Maybellene'
p448
S'http://www.last.fm/music/Chuck+Berry/_/Maybellene'
p449
S'1389208084'
p450
tp451
a(S'Stevie Wonder'
p452
S'Part Time Lover'
p453
S'http://www.last.fm/music/Stevie+Wonder/_/Part+Time+Lover'
p454
S'1389207941'
p455
tp456
a(S'Albert Collins'
p457
S'Iceman'
p458
S'http://www.last.fm/music/Albert+Collins/_/Iceman'
p459
S'1389207718'
p460
tp461
a(S'Stevie Wonder'
p462
S'Higher Ground'
p463
S'http://www.last.fm/music/Stevie+Wonder/_/Higher+Ground'
p464
S'1389207413'
p465
tp466
a(S'Eric Clapton'
p467
S'The Core'
p468
S'http://www.last.fm/music/Eric+Clapton/_/The+Core'
p469
S'1389207226'
p470
tp471
a(S'Chuck Berry'
p472
S'Brown Eyed Handsome Man'
p473
S'http://www.last.fm/music/Chuck+Berry/_/Brown+Eyed+Handsome+Man'
p474
S'1389206700'
p475
tp476
a(S'John Hiatt'
p477
S'Lift Up Every Stone'
p478
S'http://www.last.fm/music/John+Hiatt/_/Lift+Up+Every+Stone'
p479
S'1389206561'
p480
tp481
a(S'John Lee Hooker'
p482
S'Catfish'
p483
S'http://www.last.fm/music/John+Lee+Hooker/_/Catfish'
p484
S'1389206359'
p485
tp486
a(S'Eric Clapton'
p487
S'Malted Milk'
p488
S'http://www.last.fm/music/Eric+Clapton/_/Malted+Milk'
p489
S'1389205911'
p490
tp491
a(S'Albert King'
p492
S"I'll Play The Blues For You (Parts 1 & 2)"
p493
S'http://www.last.fm/music/Albert+King/_/I%27ll+Play+The+Blues+For+You+(Parts+1+&+2)'
p494
S'1389205694'
p495
tp496
a(S'B.B. King & Eric Clapton'
p497
S'Riding With the King'
p498
S'http://www.last.fm/music/B.B.+King+&+Eric+Clapton/_/Riding+With+the+King'
p499
S'1389205198'
p500
tp501
a(S'Stevie Ray Vaughan and Double Trouble'
p502
S'Cold Shot'
p503
S'http://www.last.fm/music/Stevie+Ray+Vaughan+and+Double+Trouble/_/Cold+Shot'
p504
S'1389204935'
p505
tp506
a(S'Stevie Ray Vaughan and Double Trouble'
p507
S'Superstition'
p508
S'http://www.last.fm/music/Stevie+Ray+Vaughan+and+Double+Trouble/_/Superstition'
p509
S'1389204594'
p510
tp511
a(S'Stevie Wonder'
p512
S"Signed, Sealed, Delivered, I'm Yours"
p513
S'http://www.last.fm/music/Stevie+Wonder/_/Signed,+Sealed,+Delivered,+I%27m+Yours'
p514
S'1389204310'
p515
tp516
a(S'Eric Clapton'
p517
S"I Can't Stand It"
p518
S'http://www.last.fm/music/Eric+Clapton/_/I+Can%27t+Stand+It'
p519
S'1389204152'
p520
tp521
a(S'John Lee Hooker'
p522
S'The Healer'
p523
S'http://www.last.fm/music/John+Lee+Hooker/_/The+Healer'
p524
S'1389203902'
p525
tp526
a(S'Shemekia Copeland'
p527
S'Salt In My Wounds'
p528
S'http://www.last.fm/music/Shemekia+Copeland/_/Salt+In+My+Wounds'
p529
S'1389203562'
p530
tp531
a(S'John Hiatt'
p532
S"God's Golden Eyes"
p533
S'http://www.last.fm/music/John+Hiatt/_/God%27s+Golden+Eyes'
p534
S'1389203309'
p535
tp536
a(S'Stevie Ray Vaughan and Double Trouble'
p537
S"I'm Leaving You (Commit a Crime)"
p538
S'http://www.last.fm/music/Stevie+Ray+Vaughan+and+Double+Trouble/_/I%27m+Leaving+You+(Commit+a+Crime)'
p539
S'1389202295'
p540
tp541
a(S'Blues Traveler'
p542
S'Canadian Rose'
p543
S'http://www.last.fm/music/Blues+Traveler/_/Canadian+Rose'
p544
S'1389201960'
p545
tp546
a(S'Eric Clapton'
p547
S"My Father's Eyes"
p548
S'http://www.last.fm/music/Eric+Clapton/_/My+Father%27s+Eyes'
p549
S'1389201688'
p550
tp551
a(S'Chuck Berry'
p552
S'Nadine'
p553
S'http://www.last.fm/music/Chuck+Berry/_/Nadine'
p554
S'1389201106'
p555
tp556
a(S'Alice Cooper'
p557
S'Run Down the Devil'
p558
S'http://www.last.fm/music/Alice+Cooper/_/Run+Down+the+Devil'
p559
S'1389199382'
p560
tp561
a(S'Alice Cooper'
p562
S'Sideshow'
p563
S'http://www.last.fm/music/Alice+Cooper/_/Sideshow'
p564
S'1389199173'
p565
tp566
a(S'Alice Cooper'
p567
S'Dangerous Tonight'
p568
S'http://www.last.fm/music/Alice+Cooper/_/Dangerous+Tonight'
p569
S'1389198773'
p570
tp571
a(S'Alice Cooper'
p572
S"Nothing's Free"
p573
S'http://www.last.fm/music/Alice+Cooper/_/Nothing%27s+Free'
p574
S'1389198491'
p575
tp576
a(S'Alice Cooper'
p577
S"You're My Temptation"
p578
S'http://www.last.fm/music/Alice+Cooper/_/You%27re+My+Temptation'
p579
S'1389198190'
p580
tp581
a(S'Alice Cooper'
p582
S"School's Out"
p583
S'http://www.last.fm/music/Alice+Cooper/_/School%27s+Out'
p584
S'1389197881'
p585
tp586
a(S'Alice Cooper'
p587
S'My Stars'
p588
S'http://www.last.fm/music/Alice+Cooper/_/My+Stars'
p589
S'1389197671'
p590
tp591
a(S'Alice Cooper'
p592
S'Novocaine'
p593
S'http://www.last.fm/music/Alice+Cooper/_/Novocaine'
p594
S'1389197321'
p595
tp596
a(S'Alice Cooper'
p597
S'Hurricane Years'
p598
S'http://www.last.fm/music/Alice+Cooper/_/Hurricane+Years'
p599
S'1389197133'
p600
tp601
a(S'Alice Cooper'
p602
S'No More Mr. Nice Guy'
p603
S'http://www.last.fm/music/Alice+Cooper/_/No+More+Mr.+Nice+Guy'
p604
S'1389196895'
p605
tp606
a(S'Alice Cooper'
p607
S'Hell Is Living Without You'
p608
S'http://www.last.fm/music/Alice+Cooper/_/Hell+Is+Living+Without+You'
p609
S'1389196708'
p610
tp611
a(S'Alice Cooper'
p612
S'Snakebite'
p613
S'http://www.last.fm/music/Alice+Cooper/_/Snakebite'
p614
S'1389196456'
p615
tp616
a(S'Alice Cooper'
p617
S'Zombie Dance'
p618
S'http://www.last.fm/music/Alice+Cooper/_/Zombie+Dance'
p619
S'1389196183'
p620
tp621
a(S'Alice Cooper'
p622
S'Poison'
p623
S'http://www.last.fm/music/Alice+Cooper/_/Poison'
p624
S'1389193305'
p625
tp626
a(S'Alice Cooper'
p627
S'House of Fire'
p628
S'http://www.last.fm/music/Alice+Cooper/_/House+of+Fire'
p629
S'1389187634'
p630
tp631
a(S'Alice Cooper'
p632
S'Stolen Prayer'
p633
S'http://www.last.fm/music/Alice+Cooper/_/Stolen+Prayer'
p634
S'1389187356'
p635
tp636
a(S'Alice Cooper'
p637
S'Trash'
p638
S'http://www.last.fm/music/Alice+Cooper/_/Trash'
p639
S'1389185983'
p640
tp641
a(S'Alice Cooper'
p642
S"Love's a Loaded Gun"
p643
S'http://www.last.fm/music/Alice+Cooper/_/Love%27s+a+Loaded+Gun'
p644
S'1389185744'
p645
tp646
a(S'Alice Cooper'
p647
S'Might As Well Be on Mars'
p648
S'http://www.last.fm/music/Alice+Cooper/_/Might+As+Well+Be+on+Mars'
p649
S'1389185485'
p650
tp651
a(S'Alice Cooper'
p652
S'Snakebite'
p653
S'http://www.last.fm/music/Alice+Cooper/_/Snakebite'
p654
S'1389121758'
p655
tp656
a(S'Alice Cooper'
p657
S'Poison'
p658
S'http://www.last.fm/music/Alice+Cooper/_/Poison'
p659
S'1389121485'
p660
tp661
a(S'Alice Cooper'
p662
S'Public Animal #9'
p663
S'http://www.last.fm/music/Alice+Cooper/_/Public+Animal+%239'
p664
S'1389121215'
p665
tp666
a(S'Alice Cooper'
p667
S'Zombie Dance'
p668
S'http://www.last.fm/music/Alice+Cooper/_/Zombie+Dance'
p669
S'1389120980'
p670
tp671
a(S'Alice Cooper'
p672
S'Hurricane Years'
p673
S'http://www.last.fm/music/Alice+Cooper/_/Hurricane+Years'
p674
S'1389120717'
p675
tp676
a(S'Alice Cooper'
p677
S"You're My Temptation"
p678
S'http://www.last.fm/music/Alice+Cooper/_/You%27re+My+Temptation'
p679
S'1389120478'
p680
tp681
a(S'Alice Cooper'
p682
S'Under My Wheels'
p683
S'http://www.last.fm/music/Alice+Cooper/_/Under+My+Wheels'
p684
S'1389120168'
p685
tp686
a(S'Alice Cooper'
p687
S'Trash'
p688
S'http://www.last.fm/music/Alice+Cooper/_/Trash'
p689
S'1389120004'
p690
tp691
a(S'Alice Cooper'
p692
S'Bed of Nails'
p693
S'http://www.last.fm/music/Alice+Cooper/_/Bed+of+Nails'
p694
S'1389119765'
p695
tp696
a(S'Alice Cooper'
p697
S'Sideshow'
p698
S'http://www.last.fm/music/Alice+Cooper/_/Sideshow'
p699
S'1389119505'
p700
tp701
a(S'Alice Cooper'
p702
S'Stolen Prayer'
p703
S'http://www.last.fm/music/Alice+Cooper/_/Stolen+Prayer'
p704
S'1389119105'
p705
tp706
a(S'Alice Cooper'
p707
S'House of Fire'
p708
S'http://www.last.fm/music/Alice+Cooper/_/House+of+Fire'
p709
S'1389118767'
p710
tp711
a(S'Alice Cooper'
p712
S'Dangerous Tonight'
p713
S'http://www.last.fm/music/Alice+Cooper/_/Dangerous+Tonight'
p714
S'1389118540'
p715
tp716
a(S'Alice Cooper'
p717
S'My Stars'
p718
S'http://www.last.fm/music/Alice+Cooper/_/My+Stars'
p719
S'1389118258'
p720
tp721
a(S'Alice Cooper'
p722
S'Wind-Up Toy'
p723
S'http://www.last.fm/music/Alice+Cooper/_/Wind-Up+Toy'
p724
S'1389117908'
p725
tp726
a(S'Alice Cooper'
p727
S"Love's a Loaded Gun"
p728
S'http://www.last.fm/music/Alice+Cooper/_/Love%27s+a+Loaded+Gun'
p729
S'1389112237'
p730
tp731
a(S'Alice Cooper'
p732
S'Burning Our Bed'
p733
S'http://www.last.fm/music/Alice+Cooper/_/Burning+Our+Bed'
p734
S'1389111986'
p735
tp736
a(S'Alice Cooper'
p737
S'Run Down the Devil'
p738
S'http://www.last.fm/music/Alice+Cooper/_/Run+Down+the+Devil'
p739
S'1389111711'
p740
tp741
a(S'Alice Cooper'
p742
S'No More Mr. Nice Guy'
p743
S'http://www.last.fm/music/Alice+Cooper/_/No+More+Mr.+Nice+Guy'
p744
S'1389111480'
p745
tp746
a(S'Alice Cooper'
p747
S"School's Out"
p748
S'http://www.last.fm/music/Alice+Cooper/_/School%27s+Out'
p749
S'1389111293'
p750
tp751
a(S'Alice Cooper'
p752
S'Hey Stoopid'
p753
S'http://www.last.fm/music/Alice+Cooper/_/Hey+Stoopid'
p754
S'1389111083'
p755
tp756
a(S'Alice Cooper'
p757
S'Novocaine'
p758
S'http://www.last.fm/music/Alice+Cooper/_/Novocaine'
p759
S'1389110808'
p760
tp761
a(S'Alice Cooper'
p762
S"Nothing's Free"
p763
S'http://www.last.fm/music/Alice+Cooper/_/Nothing%27s+Free'
p764
S'1389110620'
p765
tp766
a(S'Alice Cooper'
p767
S'Might As Well Be on Mars'
p768
S'http://www.last.fm/music/Alice+Cooper/_/Might+As+Well+Be+on+Mars'
p769
S'1389110319'
p770
tp771
a(S'Alice Cooper'
p772
S'Snakebite'
p773
S'http://www.last.fm/music/Alice+Cooper/_/Snakebite'
p774
S'1389109889'
p775
tp776
a(S'Alice Cooper'
p777
S'Poison'
p778
S'http://www.last.fm/music/Alice+Cooper/_/Poison'
p779
S'1389109616'
p780
tp781
a(S'Alice Cooper'
p782
S'Public Animal #9'
p783
S'http://www.last.fm/music/Alice+Cooper/_/Public+Animal+%239'
p784
S'1389109346'
p785
tp786
a(S'Alice Cooper'
p787
S'Zombie Dance'
p788
S'http://www.last.fm/music/Alice+Cooper/_/Zombie+Dance'
p789
S'1389109111'
p790
tp791
a(S'Alice Cooper'
p792
S'Hurricane Years'
p793
S'http://www.last.fm/music/Alice+Cooper/_/Hurricane+Years'
p794
S'1389108848'
p795
tp796
a(S'Alice Cooper'
p797
S"You're My Temptation"
p798
S'http://www.last.fm/music/Alice+Cooper/_/You%27re+My+Temptation'
p799
S'1389108609'
p800
tp801
a(S'Alice Cooper'
p802
S'Under My Wheels'
p803
S'http://www.last.fm/music/Alice+Cooper/_/Under+My+Wheels'
p804
S'1389108299'
p805
tp806
a(S'Alice Cooper'
p807
S'Trash'
p808
S'http://www.last.fm/music/Alice+Cooper/_/Trash'
p809
S'1389108135'
p810
tp811
a(S'Alice Cooper'
p812
S'Bed of Nails'
p813
S'http://www.last.fm/music/Alice+Cooper/_/Bed+of+Nails'
p814
S'1389107896'
p815
tp816
a(S'Alice Cooper'
p817
S'Sideshow'
p818
S'http://www.last.fm/music/Alice+Cooper/_/Sideshow'
p819
S'1389107636'
p820
tp821
a(S'Alice Cooper'
p822
S'Stolen Prayer'
p823
S'http://www.last.fm/music/Alice+Cooper/_/Stolen+Prayer'
p824
S'1389107236'
p825
tp826
a(S'Alice Cooper'
p827
S'House of Fire'
p828
S'http://www.last.fm/music/Alice+Cooper/_/House+of+Fire'
p829
S'1389106898'
p830
tp831
a(S'Alice Cooper'
p832
S'Dangerous Tonight'
p833
S'http://www.last.fm/music/Alice+Cooper/_/Dangerous+Tonight'
p834
S'1389106671'
p835
tp836
a(S'Alice Cooper'
p837
S'My Stars'
p838
S'http://www.last.fm/music/Alice+Cooper/_/My+Stars'
p839
S'1389106389'
p840
tp841
a(S'Alice Cooper'
p842
S'Wind-Up Toy'
p843
S'http://www.last.fm/music/Alice+Cooper/_/Wind-Up+Toy'
p844
S'1389106039'
p845
tp846
a(S'Alice Cooper'
p847
S'Hell Is Living Without You'
p848
S'http://www.last.fm/music/Alice+Cooper/_/Hell+Is+Living+Without+You'
p849
S'1389105712'
p850
tp851
a(S'Alice Cooper'
p852
S"Love's a Loaded Gun"
p853
S'http://www.last.fm/music/Alice+Cooper/_/Love%27s+a+Loaded+Gun'
p854
S'1389105460'
p855
tp856
a(S'Alice Cooper'
p857
S'Run Down the Devil'
p858
S'http://www.last.fm/music/Alice+Cooper/_/Run+Down+the+Devil'
p859
S'1389099667'
p860
tp861
a(S'Alice Cooper'
p862
S"The Song That Didn't Rhyme"
p863
S'http://www.last.fm/music/Alice+Cooper/_/The+Song+That+Didn%27t+Rhyme'
p864
S'1389099458'
p865
tp866
a(S'Alice Cooper'
p867
S'No More Mr. Nice Guy'
p868
S'http://www.last.fm/music/Alice+Cooper/_/No+More+Mr.+Nice+Guy'
p869
S'1389099260'
p870
tp871
a(S'Alice Cooper'
p872
S"School's Out"
p873
S'http://www.last.fm/music/Alice+Cooper/_/School%27s+Out'
p874
S'1389099074'
p875
tp876
a(S'Alice Cooper'
p877
S'Hey Stoopid'
p878
S'http://www.last.fm/music/Alice+Cooper/_/Hey+Stoopid'
p879
S'1389098864'
p880
tp881
a(S'Alice Cooper'
p882
S'Novocaine'
p883
S'http://www.last.fm/music/Alice+Cooper/_/Novocaine'
p884
S'1389098589'
p885
tp886
a(S'Alice Cooper'
p887
S"Nothing's Free"
p888
S'http://www.last.fm/music/Alice+Cooper/_/Nothing%27s+Free'
p889
S'1389098401'
p890
tp891
a(S'Alice Cooper'
p892
S'Might As Well Be on Mars'
p893
S'http://www.last.fm/music/Alice+Cooper/_/Might+As+Well+Be+on+Mars'
p894
S'1389098100'
p895
tp896
a(S'Alice Cooper'
p897
S'Snakebite'
p898
S'http://www.last.fm/music/Alice+Cooper/_/Snakebite'
p899
S'1389097670'
p900
tp901
a(S'Alice Cooper'
p902
S'Poison'
p903
S'http://www.last.fm/music/Alice+Cooper/_/Poison'
p904
S'1389097397'
p905
tp906
a(S'Alice Cooper'
p907
S'Public Animal #9'
p908
S'http://www.last.fm/music/Alice+Cooper/_/Public+Animal+%239'
p909
S'1389097127'
p910
tp911
a(S'Alice Cooper'
p912
S'Zombie Dance'
p913
S'http://www.last.fm/music/Alice+Cooper/_/Zombie+Dance'
p914
S'1389096892'
p915
tp916
a(S'Alice Cooper'
p917
S'Hurricane Years'
p918
S'http://www.last.fm/music/Alice+Cooper/_/Hurricane+Years'
p919
S'1389096629'
p920
tp921
a(S'Alice Cooper'
p922
S"You're My Temptation"
p923
S'http://www.last.fm/music/Alice+Cooper/_/You%27re+My+Temptation'
p924
S'1389096390'
p925
tp926
a(S'Alice Cooper'
p927
S'Burning Our Bed'
p928
S'http://www.last.fm/music/Alice+Cooper/_/Burning+Our+Bed'
p929
S'1389035056'
p930
tp931
a(S'Alice Cooper'
p932
S'Bed of Nails'
p933
S'http://www.last.fm/music/Alice+Cooper/_/Bed+of+Nails'
p934
S'1389034895'
p935
tp936
a(S'Alice Cooper'
p937
S'Wind-Up Toy'
p938
S'http://www.last.fm/music/Alice+Cooper/_/Wind-Up+Toy'
p939
S'1389034632'
p940
tp941
a(S'Alice Cooper'
p942
S'Burning Our Bed'
p943
S'http://www.last.fm/music/Alice+Cooper/_/Burning+Our+Bed'
p944
S'1389034330'
p945
tp946
a(S'Alice Cooper'
p947
S'Bed of Nails'
p948
S'http://www.last.fm/music/Alice+Cooper/_/Bed+of+Nails'
p949
S'1389034055'
p950
tp951
a(S'Alice Cooper'
p952
S'Stolen Prayer'
p953
S'http://www.last.fm/music/Alice+Cooper/_/Stolen+Prayer'
p954
S'1389033795'
p955
tp956
a(S'Alice Cooper'
p957
S"Nothing's Free"
p958
S'http://www.last.fm/music/Alice+Cooper/_/Nothing%27s+Free'
p959
S'1389033458'
p960
tp961
a(S'Alice Cooper'
p962
S'Snakebite'
p963
S'http://www.last.fm/music/Alice+Cooper/_/Snakebite'
p964
S'1389033156'
p965
tp966
a(S'Alice Cooper'
p967
S'Dangerous Tonight'
p968
S'http://www.last.fm/music/Alice+Cooper/_/Dangerous+Tonight'
p969
S'1389032883'
p970
tp971
a(S'Alice Cooper'
p972
S'Sideshow'
p973
S'http://www.last.fm/music/Alice+Cooper/_/Sideshow'
p974
S'1389032601'
p975
tp976
a(S'Alice Cooper'
p977
S'Hey Stoopid'
p978
S'http://www.last.fm/music/Alice+Cooper/_/Hey+Stoopid'
p979
S'1389030890'
p980
tp981
a(S'Alice Cooper'
p982
S"School's Out"
p983
S'http://www.last.fm/music/Alice+Cooper/_/School%27s+Out'
p984
S'1389030616'
p985
tp986
a(S'Alice Cooper'
p987
S'Trash'
p988
S'http://www.last.fm/music/Alice+Cooper/_/Trash'
p989
S'1389030406'
p990
tp991
a(S'Alice Cooper'
p992
S'House of Fire'
p993
S'http://www.last.fm/music/Alice+Cooper/_/House+of+Fire'
p994
S'1389030167'
p995
tp996
a(S'Alice Cooper'
p997
S'Public Animal #9'
p998
S'http://www.last.fm/music/Alice+Cooper/_/Public+Animal+%239'
p999
S'1389029939'
p1000
tp1001
a.