(lp1
(S'Fleetwood Mac'
p2
S'The Chain'
p3
S'http://www.last.fm/music/Fleetwood+Mac/_/The+Chain'
p4
S'1360860303'
p5
tp6
a(S'ZZ Top'
p7
S'Jesus Just Left Chicago'
p8
S'http://www.last.fm/music/ZZ+Top/_/Jesus+Just+Left+Chicago'
p9
S'1360860092'
p10
tp11
a(S'George Michael'
p12
S'Shoot The Dog (Explicit Album Version)'
p13
S'http://www.last.fm/music/George+Michael/_/Shoot+The+Dog+(Explicit+Album+Version)'
p14
S'1360859440'
p15
tp16
a(S'Metallica'
p17
S'Bad Seed'
p18
S'http://www.last.fm/music/Metallica/_/Bad+Seed'
p19
S'1360859194'
p20
tp21
a(S'Soundgarden'
p22
S'Fell on Black Days'
p23
S'http://www.last.fm/music/Soundgarden/_/Fell+on+Black+Days'
p24
S'1360856454'
p25
tp26
a(S'R.E.M.'
p27
S'Losing My Religion'
p28
S'http://www.last.fm/music/R.E.M./_/Losing+My+Religion'
p29
S'1360856185'
p30
tp31
a(S'Beastie Boys'
p32
S'Make Some Noise'
p33
S'http://www.last.fm/music/Beastie+Boys/_/Make+Some+Noise'
p34
S'1360855891'
p35
tp36
a(S'R.E.M.'
p37
S"What's the Frequency, Kenneth?"
p38
S'http://www.last.fm/music/R.E.M./_/What%27s+the+Frequency,+Kenneth%3F'
p39
S'1360855650'
p40
tp41
a(S'Soundgarden'
p42
S'Attrition'
p43
S'http://www.last.fm/music/Soundgarden/_/Attrition'
p44
S'1360808902'
p45
tp46
a(S'Beastie Boys'
p47
S'Make Some Noise'
p48
S'http://www.last.fm/music/Beastie+Boys/_/Make+Some+Noise'
p49
S'1360808692'
p50
tp51
a(S'R.E.M.'
p52
S"What's the Frequency, Kenneth?"
p53
S'http://www.last.fm/music/R.E.M./_/What%27s+the+Frequency,+Kenneth%3F'
p54
S'1360808451'
p55
tp56
a(S'George Michael'
p57
S'Shoot The Dog (Explicit Album Version)'
p58
S'http://www.last.fm/music/George+Michael/_/Shoot+The+Dog+(Explicit+Album+Version)'
p59
S'1360808148'
p60
tp61
a(S'The Temptations'
p62
S'Papa Was a Rolling Stone'
p63
S'http://www.last.fm/music/The+Temptations/_/Papa+Was+a+Rolling+Stone'
p64
S'1360807727'
p65
tp66
a(S'Soundgarden'
p67
S'Attrition'
p68
S'http://www.last.fm/music/Soundgarden/_/Attrition'
p69
S'1360807561'
p70
tp71
a(S'Beastie Boys'
p72
S'Make Some Noise'
p73
S'http://www.last.fm/music/Beastie+Boys/_/Make+Some+Noise'
p74
S'1360807124'
p75
tp76
a(S'R.E.M.'
p77
S"What's the Frequency, Kenneth?"
p78
S'http://www.last.fm/music/R.E.M./_/What%27s+the+Frequency,+Kenneth%3F'
p79
S'1360806884'
p80
tp81
a(S'George Michael'
p82
S'Shoot The Dog (Explicit Album Version)'
p83
S'http://www.last.fm/music/George+Michael/_/Shoot+The+Dog+(Explicit+Album+Version)'
p84
S'1360806464'
p85
tp86
a(S'Tracy Chapman'
p87
S"Talkin' Bout a Revolution"
p88
S'http://www.last.fm/music/Tracy+Chapman/_/Talkin%27+Bout+a+Revolution'
p89
S'1360806384'
p90
tp91
a(S'Seal'
p92
S'Crazy'
p93
S'http://www.last.fm/music/Seal/_/Crazy'
p94
S'1360806027'
p95
tp96
a(S'Beastie Boys'
p97
S'Make Some Noise'
p98
S'http://www.last.fm/music/Beastie+Boys/_/Make+Some+Noise'
p99
S'1360805816'
p100
tp101
a(S'R.E.M.'
p102
S"What's the Frequency, Kenneth?"
p103
S'http://www.last.fm/music/R.E.M./_/What%27s+the+Frequency,+Kenneth%3F'
p104
S'1360805576'
p105
tp106
a(S'George Michael'
p107
S'Shoot The Dog (Explicit Album Version)'
p108
S'http://www.last.fm/music/George+Michael/_/Shoot+The+Dog+(Explicit+Album+Version)'
p109
S'1360805272'
p110
tp111
a(S'Aretha Franklin'
p112
S'Rock Steady'
p113
S'http://www.last.fm/music/Aretha+Franklin/_/Rock+Steady'
p114
S'1360804559'
p115
tp116
a(S'U2'
p117
S'Discoteque'
p118
S'http://www.last.fm/music/U2/_/Discoteque'
p119
S'1360804245'
p120
tp121
a(S'George Michael'
p122
S'Shoot The Dog (Explicit Album Version)'
p123
S'http://www.last.fm/music/George+Michael/_/Shoot+The+Dog+(Explicit+Album+Version)'
p124
S'1360803942'
p125
tp126
a(S'The Temptations'
p127
S'Papa Was a Rolling Stone'
p128
S'http://www.last.fm/music/The+Temptations/_/Papa+Was+a+Rolling+Stone'
p129
S'1360803522'
p130
tp131
a(S'Soundgarden'
p132
S'Attrition'
p133
S'http://www.last.fm/music/Soundgarden/_/Attrition'
p134
S'1360803355'
p135
tp136
a(S'Sheena Easton'
p137
S'For Your Eyes Only'
p138
S'http://www.last.fm/music/Sheena+Easton/_/For+Your+Eyes+Only'
p139
S'1360803300'
p140
tp141
a(S'Pixies'
p142
S'Here Comes Your Man'
p143
S'http://www.last.fm/music/Pixies/_/Here+Comes+Your+Man'
p144
S'1360803114'
p145
tp146
a(S'Tracy Chapman'
p147
S"Talkin' Bout a Revolution"
p148
S'http://www.last.fm/music/Tracy+Chapman/_/Talkin%27+Bout+a+Revolution'
p149
S'1360802954'
p150
tp151
a(S'Seal'
p152
S'Crazy'
p153
S'http://www.last.fm/music/Seal/_/Crazy'
p154
S'1360802597'
p155
tp156
a(S'Beastie Boys'
p157
S'Make Some Noise'
p158
S'http://www.last.fm/music/Beastie+Boys/_/Make+Some+Noise'
p159
S'1360802386'
p160
tp161
a(S'R.E.M.'
p162
S"What's the Frequency, Kenneth?"
p163
S'http://www.last.fm/music/R.E.M./_/What%27s+the+Frequency,+Kenneth%3F'
p164
S'1360802149'
p165
tp166
a(S'R.E.M.'
p167
S"What's the Frequency, Kenneth?"
p168
S'http://www.last.fm/music/R.E.M./_/What%27s+the+Frequency,+Kenneth%3F'
p169
S'1360801906'
p170
tp171
a(S'George Michael'
p172
S'Shoot The Dog (Explicit Album Version)'
p173
S'http://www.last.fm/music/George+Michael/_/Shoot+The+Dog+(Explicit+Album+Version)'
p174
S'1360784347'
p175
tp176
a(S'R.E.M.'
p177
S"What's the Frequency, Kenneth?"
p178
S'http://www.last.fm/music/R.E.M./_/What%27s+the+Frequency,+Kenneth%3F'
p179
S'1360784082'
p180
tp181
a(S'Jamiroquai'
p182
S"Time Won't Wait"
p183
S'http://www.last.fm/music/Jamiroquai/_/Time+Won%27t+Wait'
p184
S'1360783780'
p185
tp186
a(S'Marvin Gaye'
p187
S'I Heard It Through the Grapevine'
p188
S'http://www.last.fm/music/Marvin+Gaye/_/I+Heard+It+Through+the+Grapevine'
p189
S'1360783583'
p190
tp191
a(S'Beastie Boys'
p192
S'Make Some Noise'
p193
S'http://www.last.fm/music/Beastie+Boys/_/Make+Some+Noise'
p194
S'1360783318'
p195
tp196
a(S'Soundgarden'
p197
S'Attrition'
p198
S'http://www.last.fm/music/Soundgarden/_/Attrition'
p199
S'1360783043'
p200
tp201
a(S'The Temptations'
p202
S'Papa Was a Rolling Stone'
p203
S'http://www.last.fm/music/The+Temptations/_/Papa+Was+a+Rolling+Stone'
p204
S'1360782583'
p205
tp206
a(S'Queens of the Stone Age'
p207
S'No One Knows'
p208
S'http://www.last.fm/music/Queens+of+the+Stone+Age/_/No+One+Knows'
p209
S'1360782245'
p210
tp211
a(S'R.E.M.'
p212
S'Orange Crush'
p213
S'http://www.last.fm/music/R.E.M./_/Orange+Crush'
p214
S'1360782013'
p215
tp216
a(S'Alice in Chains'
p217
S'No Excuses'
p218
S'http://www.last.fm/music/Alice+in+Chains/_/No+Excuses'
p219
S'1360781758'
p220
tp221
a(S'Fleetwood Mac'
p222
S'The Chain'
p223
S'http://www.last.fm/music/Fleetwood+Mac/_/The+Chain'
p224
S'1360781489'
p225
tp226
a(S'R.E.M.'
p227
S'Losing My Religion'
p228
S'http://www.last.fm/music/R.E.M./_/Losing+My+Religion'
p229
S'1360781220'
p230
tp231
a(S'Tracy Chapman'
p232
S"Talkin' Bout a Revolution"
p233
S'http://www.last.fm/music/Tracy+Chapman/_/Talkin%27+Bout+a+Revolution'
p234
S'1360781060'
p235
tp236
a(S'Spin Doctors'
p237
S"Little Miss Can't Be Wrong"
p238
S'http://www.last.fm/music/Spin+Doctors/_/Little+Miss+Can%27t+Be+Wrong'
p239
S'1360780825'
p240
tp241
a(S'George Michael'
p242
S'Shoot The Dog (Explicit Album Version)'
p243
S'http://www.last.fm/music/George+Michael/_/Shoot+The+Dog+(Explicit+Album+Version)'
p244
S'1360780148'
p245
tp246
a(S'R.E.M.'
p247
S"What's the Frequency, Kenneth?"
p248
S'http://www.last.fm/music/R.E.M./_/What%27s+the+Frequency,+Kenneth%3F'
p249
S'1360778844'
p250
tp251
a(S'Twisted Sister'
p252
S'The Price'
p253
S'http://www.last.fm/music/Twisted+Sister/_/The+Price'
p254
S'1360778614'
p255
tp256
a(S'Green Day'
p257
S'She'
p258
S'http://www.last.fm/music/Green+Day/_/She'
p259
S'1360778480'
p260
tp261
a(S'Jamiroquai'
p262
S"Time Won't Wait"
p263
S'http://www.last.fm/music/Jamiroquai/_/Time+Won%27t+Wait'
p264
S'1360778178'
p265
tp266
a(S'Nirvana'
p267
S'Lithium'
p268
S'http://www.last.fm/music/Nirvana/_/Lithium'
p269
S'1360777921'
p270
tp271
a(S'Soundgarden'
p272
S"Eyelid's Mouth"
p273
S'http://www.last.fm/music/Soundgarden/_/Eyelid%27s+Mouth'
p274
S'1360777653'
p275
tp276
a(S'Marvin Gaye'
p277
S'I Heard It Through the Grapevine'
p278
S'http://www.last.fm/music/Marvin+Gaye/_/I+Heard+It+Through+the+Grapevine'
p279
S'1360777456'
p280
tp281
a(S'Beastie Boys'
p282
S'Make Some Noise'
p283
S'http://www.last.fm/music/Beastie+Boys/_/Make+Some+Noise'
p284
S'1360777246'
p285
tp286
a(S'Silverchair'
p287
S'Tomorrow'
p288
S'http://www.last.fm/music/Silverchair/_/Tomorrow'
p289
S'1360765273'
p290
tp291
a(S'R.E.M.'
p292
S'The One I Love'
p293
S'http://www.last.fm/music/R.E.M./_/The+One+I+Love'
p294
S'1360765080'
p295
tp296
a(S'Steve Miller Band'
p297
S'Abracadabra'
p298
S'http://www.last.fm/music/Steve+Miller+Band/_/Abracadabra'
p299
S'1360764858'
p300
tp301
a(S'Soundgarden'
p302
S'Attrition'
p303
S'http://www.last.fm/music/Soundgarden/_/Attrition'
p304
S'1360764691'
p305
tp306
a(S'Green Day'
p307
S'Basket Case'
p308
S'http://www.last.fm/music/Green+Day/_/Basket+Case'
p309
S'1360764508'
p310
tp311
a(S'Stone Temple Pilots'
p312
S'Army Ants'
p313
S'http://www.last.fm/music/Stone+Temple+Pilots/_/Army+Ants'
p314
S'1360764282'
p315
tp316
a(S'Twisted Sister'
p317
S'Come On Feel The Noise'
p318
S'http://www.last.fm/music/Twisted+Sister/_/Come+On+Feel+The+Noise'
p319
S'1360764021'
p320
tp321
a(S'The Temptations'
p322
S'Papa Was a Rolling Stone'
p323
S'http://www.last.fm/music/The+Temptations/_/Papa+Was+a+Rolling+Stone'
p324
S'1360763600'
p325
tp326
a(S'Queens of the Stone Age'
p327
S'No One Knows'
p328
S'http://www.last.fm/music/Queens+of+the+Stone+Age/_/No+One+Knows'
p329
S'1360763322'
p330
tp331
a(S'R.E.M.'
p332
S'Orange Crush'
p333
S'http://www.last.fm/music/R.E.M./_/Orange+Crush'
p334
S'1360763090'
p335
tp336
a(S'Alice in Chains'
p337
S'No Excuses'
p338
S'http://www.last.fm/music/Alice+in+Chains/_/No+Excuses'
p339
S'1360762834'
p340
tp341
a(S'Fleetwood Mac'
p342
S'The Chain'
p343
S'http://www.last.fm/music/Fleetwood+Mac/_/The+Chain'
p344
S'1360762565'
p345
tp346
a(S'R.E.M.'
p347
S'Losing My Religion'
p348
S'http://www.last.fm/music/R.E.M./_/Losing+My+Religion'
p349
S'1360762296'
p350
tp351
a(S'Tracy Chapman'
p352
S"Talkin' Bout a Revolution"
p353
S'http://www.last.fm/music/Tracy+Chapman/_/Talkin%27+Bout+a+Revolution'
p354
S'1360762136'
p355
tp356
a(S'Spin Doctors'
p357
S"Little Miss Can't Be Wrong"
p358
S'http://www.last.fm/music/Spin+Doctors/_/Little+Miss+Can%27t+Be+Wrong'
p359
S'1360761902'
p360
tp361
a(S'George Michael'
p362
S'Shoot The Dog (Explicit Album Version)'
p363
S'http://www.last.fm/music/George+Michael/_/Shoot+The+Dog+(Explicit+Album+Version)'
p364
S'1360761598'
p365
tp366
a(S'Green Day'
p367
S'She'
p368
S'http://www.last.fm/music/Green+Day/_/She'
p369
S'1360761443'
p370
tp371
a(S'Beastie Boys'
p372
S'Make Some Noise'
p373
S'http://www.last.fm/music/Beastie+Boys/_/Make+Some+Noise'
p374
S'1360759947'
p375
tp376
a(S'Silverchair'
p377
S'Tomorrow'
p378
S'http://www.last.fm/music/Silverchair/_/Tomorrow'
p379
S'1360759681'
p380
tp381
a(S'R.E.M.'
p382
S'The One I Love'
p383
S'http://www.last.fm/music/R.E.M./_/The+One+I+Love'
p384
S'1360759487'
p385
tp386
a(S'Steve Miller Band'
p387
S'Abracadabra'
p388
S'http://www.last.fm/music/Steve+Miller+Band/_/Abracadabra'
p389
S'1360759266'
p390
tp391
a(S'Soundgarden'
p392
S'Attrition'
p393
S'http://www.last.fm/music/Soundgarden/_/Attrition'
p394
S'1360759099'
p395
tp396
a(S'Green Day'
p397
S'Basket Case'
p398
S'http://www.last.fm/music/Green+Day/_/Basket+Case'
p399
S'1360758915'
p400
tp401
a(S'Stone Temple Pilots'
p402
S'Army Ants'
p403
S'http://www.last.fm/music/Stone+Temple+Pilots/_/Army+Ants'
p404
S'1360758689'
p405
tp406
a(S'Twisted Sister'
p407
S'Come On Feel The Noise'
p408
S'http://www.last.fm/music/Twisted+Sister/_/Come+On+Feel+The+Noise'
p409
S'1360758428'
p410
tp411
a(S'The Temptations'
p412
S'Papa Was a Rolling Stone'
p413
S'http://www.last.fm/music/The+Temptations/_/Papa+Was+a+Rolling+Stone'
p414
S'1360758008'
p415
tp416
a(S'Queens of the Stone Age'
p417
S'No One Knows'
p418
S'http://www.last.fm/music/Queens+of+the+Stone+Age/_/No+One+Knows'
p419
S'1360757729'
p420
tp421
a(S'R.E.M.'
p422
S'Orange Crush'
p423
S'http://www.last.fm/music/R.E.M./_/Orange+Crush'
p424
S'1360757498'
p425
tp426
a(S'Alice in Chains'
p427
S'No Excuses'
p428
S'http://www.last.fm/music/Alice+in+Chains/_/No+Excuses'
p429
S'1360757242'
p430
tp431
a(S'Fleetwood Mac'
p432
S'The Chain'
p433
S'http://www.last.fm/music/Fleetwood+Mac/_/The+Chain'
p434
S'1360756973'
p435
tp436
a(S'R.E.M.'
p437
S'Losing My Religion'
p438
S'http://www.last.fm/music/R.E.M./_/Losing+My+Religion'
p439
S'1360756704'
p440
tp441
a(S'Tracy Chapman'
p442
S"Talkin' Bout a Revolution"
p443
S'http://www.last.fm/music/Tracy+Chapman/_/Talkin%27+Bout+a+Revolution'
p444
S'1360756544'
p445
tp446
a(S'George Michael'
p447
S'Shoot The Dog (Explicit Album Version)'
p448
S'http://www.last.fm/music/George+Michael/_/Shoot+The+Dog+(Explicit+Album+Version)'
p449
S'1360756236'
p450
tp451
a(S'R.E.M.'
p452
S"What's the Frequency, Kenneth?"
p453
S'http://www.last.fm/music/R.E.M./_/What%27s+the+Frequency,+Kenneth%3F'
p454
S'1360755984'
p455
tp456
a(S'George Michael'
p457
S'Shoot The Dog (Explicit Album Version)'
p458
S'http://www.last.fm/music/George+Michael/_/Shoot+The+Dog+(Explicit+Album+Version)'
p459
S'1360755681'
p460
tp461
a(S'Soundgarden'
p462
S'Attrition'
p463
S'http://www.last.fm/music/Soundgarden/_/Attrition'
p464
S'1360349712'
p465
tp466
a(S'George Michael'
p467
S'Shoot The Dog (Explicit Album Version)'
p468
S'http://www.last.fm/music/George+Michael/_/Shoot+The+Dog+(Explicit+Album+Version)'
p469
S'1360349266'
p470
tp471
a(S'R.E.M.'
p472
S"What's the Frequency, Kenneth?"
p473
S'http://www.last.fm/music/R.E.M./_/What%27s+the+Frequency,+Kenneth%3F'
p474
S'1360348843'
p475
tp476
a(S'Garbage'
p477
S'Special'
p478
S'http://www.last.fm/music/Garbage/_/Special'
p479
S'1360348618'
p480
tp481
a(S'Beastie Boys'
p482
S'Make Some Noise'
p483
S'http://www.last.fm/music/Beastie+Boys/_/Make+Some+Noise'
p484
S'1360348222'
p485
tp486
a(S'Marvin Gaye'
p487
S'I Heard It Through the Grapevine'
p488
S'http://www.last.fm/music/Marvin+Gaye/_/I+Heard+It+Through+the+Grapevine'
p489
S'1360348013'
p490
tp491
a(S'Soundgarden'
p492
S'Attrition'
p493
S'http://www.last.fm/music/Soundgarden/_/Attrition'
p494
S'1360347846'
p495
tp496
a(S'George Michael'
p497
S'Shoot The Dog (Explicit Album Version)'
p498
S'http://www.last.fm/music/George+Michael/_/Shoot+The+Dog+(Explicit+Album+Version)'
p499
S'1360347204'
p500
tp501
a(S'R.E.M.'
p502
S"What's the Frequency, Kenneth?"
p503
S'http://www.last.fm/music/R.E.M./_/What%27s+the+Frequency,+Kenneth%3F'
p504
S'1360346963'
p505
tp506
a(S'Garbage'
p507
S'Special'
p508
S'http://www.last.fm/music/Garbage/_/Special'
p509
S'1360346739'
p510
tp511
a(S'Beastie Boys'
p512
S'Make Some Noise'
p513
S'http://www.last.fm/music/Beastie+Boys/_/Make+Some+Noise'
p514
S'1360346497'
p515
tp516
a(S'Marvin Gaye'
p517
S'I Heard It Through the Grapevine'
p518
S'http://www.last.fm/music/Marvin+Gaye/_/I+Heard+It+Through+the+Grapevine'
p519
S'1360346301'
p520
tp521
a(S'Soundgarden'
p522
S'Attrition'
p523
S'http://www.last.fm/music/Soundgarden/_/Attrition'
p524
S'1360346047'
p525
tp526
a(S'George Michael'
p527
S'Shoot The Dog (Explicit Album Version)'
p528
S'http://www.last.fm/music/George+Michael/_/Shoot+The+Dog+(Explicit+Album+Version)'
p529
S'1360345116'
p530
tp531
a(S'R.E.M.'
p532
S"What's the Frequency, Kenneth?"
p533
S'http://www.last.fm/music/R.E.M./_/What%27s+the+Frequency,+Kenneth%3F'
p534
S'1360344773'
p535
tp536
a(S'Garbage'
p537
S'Special'
p538
S'http://www.last.fm/music/Garbage/_/Special'
p539
S'1360344549'
p540
tp541
a(S'Beastie Boys'
p542
S'Make Some Noise'
p543
S'http://www.last.fm/music/Beastie+Boys/_/Make+Some+Noise'
p544
S'1360344339'
p545
tp546
a(S'Marvin Gaye'
p547
S'I Heard It Through the Grapevine'
p548
S'http://www.last.fm/music/Marvin+Gaye/_/I+Heard+It+Through+the+Grapevine'
p549
S'1360344142'
p550
tp551
a(S'Soundgarden'
p552
S'Attrition'
p553
S'http://www.last.fm/music/Soundgarden/_/Attrition'
p554
S'1360343042'
p555
tp556
a(S'George Michael'
p557
S'Shoot The Dog (Explicit Album Version)'
p558
S'http://www.last.fm/music/George+Michael/_/Shoot+The+Dog+(Explicit+Album+Version)'
p559
S'1360342738'
p560
tp561
a(S'R.E.M.'
p562
S"What's the Frequency, Kenneth?"
p563
S'http://www.last.fm/music/R.E.M./_/What%27s+the+Frequency,+Kenneth%3F'
p564
S'1360340092'
p565
tp566
a(S'Garbage'
p567
S'Special'
p568
S'http://www.last.fm/music/Garbage/_/Special'
p569
S'1360339588'
p570
tp571
a(S'Beastie Boys'
p572
S'Make Some Noise'
p573
S'http://www.last.fm/music/Beastie+Boys/_/Make+Some+Noise'
p574
S'1360338897'
p575
tp576
a(S'Marvin Gaye'
p577
S'I Heard It Through the Grapevine'
p578
S'http://www.last.fm/music/Marvin+Gaye/_/I+Heard+It+Through+the+Grapevine'
p579
S'1360338701'
p580
tp581
a(S'Soundgarden'
p582
S'Attrition'
p583
S'http://www.last.fm/music/Soundgarden/_/Attrition'
p584
S'1360338533'
p585
tp586
a(S'George Michael'
p587
S'Shoot The Dog (Explicit Album Version)'
p588
S'http://www.last.fm/music/George+Michael/_/Shoot+The+Dog+(Explicit+Album+Version)'
p589
S'1360338230'
p590
tp591
a(S'R.E.M.'
p592
S"What's the Frequency, Kenneth?"
p593
S'http://www.last.fm/music/R.E.M./_/What%27s+the+Frequency,+Kenneth%3F'
p594
S'1360337707'
p595
tp596
a(S'George Michael'
p597
S'Shoot The Dog (Explicit Album Version)'
p598
S'http://www.last.fm/music/George+Michael/_/Shoot+The+Dog+(Explicit+Album+Version)'
p599
S'1360322377'
p600
tp601
a(S'R.E.M.'
p602
S"What's the Frequency, Kenneth?"
p603
S'http://www.last.fm/music/R.E.M./_/What%27s+the+Frequency,+Kenneth%3F'
p604
S'1360322136'
p605
tp606
a(S'R.E.M.'
p607
S"What's the Frequency, Kenneth?"
p608
S'http://www.last.fm/music/R.E.M./_/What%27s+the+Frequency,+Kenneth%3F'
p609
S'1360262497'
p610
tp611
a(S'George Michael'
p612
S'Shoot The Dog (Explicit Album Version)'
p613
S'http://www.last.fm/music/George+Michael/_/Shoot+The+Dog+(Explicit+Album+Version)'
p614
S'1360261740'
p615
tp616
a(S'R.E.M.'
p617
S'Orange Crush'
p618
S'http://www.last.fm/music/R.E.M./_/Orange+Crush'
p619
S'1360261523'
p620
tp621
a(S'Marvin Gaye'
p622
S'I Heard It Through the Grapevine'
p623
S'http://www.last.fm/music/Marvin+Gaye/_/I+Heard+It+Through+the+Grapevine'
p624
S'1360261326'
p625
tp626
a(S'Jamiroquai'
p627
S"Time Won't Wait"
p628
S'http://www.last.fm/music/Jamiroquai/_/Time+Won%27t+Wait'
p629
S'1360261025'
p630
tp631
a(S'Beastie Boys'
p632
S'Make Some Noise'
p633
S'http://www.last.fm/music/Beastie+Boys/_/Make+Some+Noise'
p634
S'1360260715'
p635
tp636
a(S'Soundgarden'
p637
S"Eyelid's Mouth"
p638
S'http://www.last.fm/music/Soundgarden/_/Eyelid%27s+Mouth'
p639
S'1360260393'
p640
tp641
a(S'Chris Cornell'
p642
S'You Know My Name'
p643
S'http://www.last.fm/music/Chris+Cornell/_/You+Know+My+Name'
p644
S'1360260150'
p645
tp646
a(S'Journey'
p647
S'Separate Ways'
p648
S'http://www.last.fm/music/Journey/_/Separate+Ways'
p649
S'1360259807'
p650
tp651
a(S'R.E.M.'
p652
S"What's the Frequency, Kenneth?"
p653
S'http://www.last.fm/music/R.E.M./_/What%27s+the+Frequency,+Kenneth%3F'
p654
S'1360259566'
p655
tp656
a(S'Garbage'
p657
S'Special'
p658
S'http://www.last.fm/music/Garbage/_/Special'
p659
S'1360259342'
p660
tp661
a(S'George Michael'
p662
S'Shoot The Dog (Explicit Album Version)'
p663
S'http://www.last.fm/music/George+Michael/_/Shoot+The+Dog+(Explicit+Album+Version)'
p664
S'1360259013'
p665
tp666
a(S'Soundgarden'
p667
S'Attrition'
p668
S'http://www.last.fm/music/Soundgarden/_/Attrition'
p669
S'1360258845'
p670
tp671
a(S'Aretha Franklin'
p672
S'Rock Steady'
p673
S'http://www.last.fm/music/Aretha+Franklin/_/Rock+Steady'
p674
S'1360258626'
p675
tp676
a(S'The Temptations'
p677
S'Papa Was a Rolling Stone'
p678
S'http://www.last.fm/music/The+Temptations/_/Papa+Was+a+Rolling+Stone'
p679
S'1360258206'
p680
tp681
a(S'R.E.M.'
p682
S'Losing My Religion'
p683
S'http://www.last.fm/music/R.E.M./_/Losing+My+Religion'
p684
S'1360257937'
p685
tp686
a(S'Beastie Boys'
p687
S'Triple Trouble (Album Version)'
p688
S'http://www.last.fm/music/Beastie+Boys/_/Triple+Trouble+(Album+Version)'
p689
S'1360257772'
p690
tp691
a(S'The Stone Roses'
p692
S'Love Spreads'
p693
S'http://www.last.fm/music/The+Stone+Roses/_/Love+Spreads'
p694
S'1360257220'
p695
tp696
a(S'U2'
p697
S'Discoteque'
p698
S'http://www.last.fm/music/U2/_/Discoteque'
p699
S'1360256906'
p700
tp701
a(S'R.E.M.'
p702
S'Orange Crush'
p703
S'http://www.last.fm/music/R.E.M./_/Orange+Crush'
p704
S'1360256572'
p705
tp706
a(S'Marvin Gaye'
p707
S'I Heard It Through the Grapevine'
p708
S'http://www.last.fm/music/Marvin+Gaye/_/I+Heard+It+Through+the+Grapevine'
p709
S'1360256374'
p710
tp711
a(S'Jamiroquai'
p712
S"Time Won't Wait"
p713
S'http://www.last.fm/music/Jamiroquai/_/Time+Won%27t+Wait'
p714
S'1360256073'
p715
tp716
a(S'Beastie Boys'
p717
S'Make Some Noise'
p718
S'http://www.last.fm/music/Beastie+Boys/_/Make+Some+Noise'
p719
S'1360255862'
p720
tp721
a(S'Journey'
p722
S'Separate Ways'
p723
S'http://www.last.fm/music/Journey/_/Separate+Ways'
p724
S'1360255750'
p725
tp726
a(S'R.E.M.'
p727
S"What's the Frequency, Kenneth?"
p728
S'http://www.last.fm/music/R.E.M./_/What%27s+the+Frequency,+Kenneth%3F'
p729
S'1360255510'
p730
tp731
a(S'Journey'
p732
S'Separate Ways'
p733
S'http://www.last.fm/music/Journey/_/Separate+Ways'
p734
S'1360254590'
p735
tp736
a(S'R.E.M.'
p737
S"What's the Frequency, Kenneth?"
p738
S'http://www.last.fm/music/R.E.M./_/What%27s+the+Frequency,+Kenneth%3F'
p739
S'1360254350'
p740
tp741
a(S'Garbage'
p742
S'Special'
p743
S'http://www.last.fm/music/Garbage/_/Special'
p744
S'1360254126'
p745
tp746
a(S'Beastie Boys'
p747
S'Intergalactic'
p748
S'http://www.last.fm/music/Beastie+Boys/_/Intergalactic'
p749
S'1360253912'
p750
tp751
a(S'George Michael'
p752
S'Shoot The Dog (Explicit Album Version)'
p753
S'http://www.last.fm/music/George+Michael/_/Shoot+The+Dog+(Explicit+Album+Version)'
p754
S'1360253608'
p755
tp756
a(S'Soundgarden'
p757
S'Attrition'
p758
S'http://www.last.fm/music/Soundgarden/_/Attrition'
p759
S'1360253512'
p760
tp761
a(S'Aretha Franklin'
p762
S'Rock Steady'
p763
S'http://www.last.fm/music/Aretha+Franklin/_/Rock+Steady'
p764
S'1360253254'
p765
tp766
a(S'The Temptations'
p767
S'Papa Was a Rolling Stone'
p768
S'http://www.last.fm/music/The+Temptations/_/Papa+Was+a+Rolling+Stone'
p769
S'1360252834'
p770
tp771
a(S'R.E.M.'
p772
S'Losing My Religion'
p773
S'http://www.last.fm/music/R.E.M./_/Losing+My+Religion'
p774
S'1360250335'
p775
tp776
a(S'Beastie Boys'
p777
S'Triple Trouble (Album Version)'
p778
S'http://www.last.fm/music/Beastie+Boys/_/Triple+Trouble+(Album+Version)'
p779
S'1360250171'
p780
tp781
a(S'U2'
p782
S'Discoteque'
p783
S'http://www.last.fm/music/U2/_/Discoteque'
p784
S'1360250058'
p785
tp786
a(S'R.E.M.'
p787
S'Orange Crush'
p788
S'http://www.last.fm/music/R.E.M./_/Orange+Crush'
p789
S'1360244856'
p790
tp791
a(S'Beastie Boys'
p792
S'Make Some Noise'
p793
S'http://www.last.fm/music/Beastie+Boys/_/Make+Some+Noise'
p794
S'1360244626'
p795
tp796
a(S'R.E.M.'
p797
S"What's the Frequency, Kenneth?"
p798
S'http://www.last.fm/music/R.E.M./_/What%27s+the+Frequency,+Kenneth%3F'
p799
S'1360241959'
p800
tp801
a(S'R.E.M.'
p802
S"What's the Frequency, Kenneth?"
p803
S'http://www.last.fm/music/R.E.M./_/What%27s+the+Frequency,+Kenneth%3F'
p804
S'1360241708'
p805
tp806
a(S'George Michael'
p807
S'Shoot The Dog (Explicit Album Version)'
p808
S'http://www.last.fm/music/George+Michael/_/Shoot+The+Dog+(Explicit+Album+Version)'
p809
S'1360241100'
p810
tp811
a(S'U2'
p812
S'Discoteque'
p813
S'http://www.last.fm/music/U2/_/Discoteque'
p814
S'1360240735'
p815
tp816
a(S'Marvin Gaye'
p817
S'I Heard It Through the Grapevine'
p818
S'http://www.last.fm/music/Marvin+Gaye/_/I+Heard+It+Through+the+Grapevine'
p819
S'1360240538'
p820
tp821
a(S'Jamiroquai'
p822
S"Time Won't Wait"
p823
S'http://www.last.fm/music/Jamiroquai/_/Time+Won%27t+Wait'
p824
S'1360240237'
p825
tp826
a(S'R.E.M.'
p827
S'Imitation Of Life'
p828
S'http://www.last.fm/music/R.E.M./_/Imitation+Of+Life'
p829
S'1360240172'
p830
tp831
a(S'Beastie Boys'
p832
S'Make Some Noise'
p833
S'http://www.last.fm/music/Beastie+Boys/_/Make+Some+Noise'
p834
S'1360239884'
p835
tp836
a(S'Soundgarden'
p837
S"Eyelid's Mouth"
p838
S'http://www.last.fm/music/Soundgarden/_/Eyelid%27s+Mouth'
p839
S'1360239616'
p840
tp841
a(S'Chris Cornell'
p842
S'You Know My Name'
p843
S'http://www.last.fm/music/Chris+Cornell/_/You+Know+My+Name'
p844
S'1360239372'
p845
tp846
a(S'Journey'
p847
S'Separate Ways'
p848
S'http://www.last.fm/music/Journey/_/Separate+Ways'
p849
S'1360239044'
p850
tp851
a(S'R.E.M.'
p852
S"What's the Frequency, Kenneth?"
p853
S'http://www.last.fm/music/R.E.M./_/What%27s+the+Frequency,+Kenneth%3F'
p854
S'1360238566'
p855
tp856
a(S'Maroon 5'
p857
S'Goodnight Goodnight'
p858
S'http://www.last.fm/music/Maroon+5/_/Goodnight+Goodnight'
p859
S'1360238004'
p860
tp861
a(S'Garbage'
p862
S'Special'
p863
S'http://www.last.fm/music/Garbage/_/Special'
p864
S'1360237780'
p865
tp866
a(S'Beastie Boys'
p867
S'Intergalactic'
p868
S'http://www.last.fm/music/Beastie+Boys/_/Intergalactic'
p869
S'1360237569'
p870
tp871
a(S'R.E.M.'
p872
S'Orange Crush'
p873
S'http://www.last.fm/music/R.E.M./_/Orange+Crush'
p874
S'1360237338'
p875
tp876
a(S'Beastie Boys'
p877
S'High Plains Drifter'
p878
S'http://www.last.fm/music/Beastie+Boys/_/High+Plains+Drifter'
p879
S'1360237243'
p880
tp881
a(S'Soundgarden'
p882
S'Attrition'
p883
S'http://www.last.fm/music/Soundgarden/_/Attrition'
p884
S'1360237076'
p885
tp886
a(S'Aretha Franklin'
p887
S'Rock Steady'
p888
S'http://www.last.fm/music/Aretha+Franklin/_/Rock+Steady'
p889
S'1360236886'
p890
tp891
a(S'The Temptations'
p892
S'Papa Was a Rolling Stone'
p893
S'http://www.last.fm/music/The+Temptations/_/Papa+Was+a+Rolling+Stone'
p894
S'1360236462'
p895
tp896
a(S'R.E.M.'
p897
S'Losing My Religion'
p898
S'http://www.last.fm/music/R.E.M./_/Losing+My+Religion'
p899
S'1360235591'
p900
tp901
a(S'Beastie Boys'
p902
S'Triple Trouble (Album Version)'
p903
S'http://www.last.fm/music/Beastie+Boys/_/Triple+Trouble+(Album+Version)'
p904
S'1360235428'
p905
tp906
a(S'The Stone Roses'
p907
S'Love Spreads'
p908
S'http://www.last.fm/music/The+Stone+Roses/_/Love+Spreads'
p909
S'1360235079'
p910
tp911
a(S'Aretha Franklin'
p912
S'Rock Steady'
p913
S'http://www.last.fm/music/Aretha+Franklin/_/Rock+Steady'
p914
S'1360177277'
p915
tp916
a(S'The Stone Roses'
p917
S'Love Spreads'
p918
S'http://www.last.fm/music/The+Stone+Roses/_/Love+Spreads'
p919
S'1360176930'
p920
tp921
a(S'Maroon 5'
p922
S'Goodnight Goodnight'
p923
S'http://www.last.fm/music/Maroon+5/_/Goodnight+Goodnight'
p924
S'1360176613'
p925
tp926
a(S'Beastie Boys'
p927
S'Triple Trouble (Album Version)'
p928
S'http://www.last.fm/music/Beastie+Boys/_/Triple+Trouble+(Album+Version)'
p929
S'1360176449'
p930
tp931
a(S'Soundgarden'
p932
S'Attrition'
p933
S'http://www.last.fm/music/Soundgarden/_/Attrition'
p934
S'1360176263'
p935
tp936
a(S'Pearl Jam'
p937
S'State of Love and Trust'
p938
S'http://www.last.fm/music/Pearl+Jam/_/State+of+Love+and+Trust'
p939
S'1360175877'
p940
tp941
a(S'Pearl Jam'
p942
S'Rearviewmirror'
p943
S'http://www.last.fm/music/Pearl+Jam/_/Rearviewmirror'
p944
S'1360173579'
p945
tp946
a(S'The Temptations'
p947
S'Papa Was a Rolling Stone'
p948
S'http://www.last.fm/music/The+Temptations/_/Papa+Was+a+Rolling+Stone'
p949
S'1360173159'
p950
tp951
a(S'Steve Miller Band'
p952
S'Abracadabra'
p953
S'http://www.last.fm/music/Steve+Miller+Band/_/Abracadabra'
p954
S'1360172938'
p955
tp956
a(S'Fleetwood Mac'
p957
S'The Chain'
p958
S'http://www.last.fm/music/Fleetwood+Mac/_/The+Chain'
p959
S'1360172669'
p960
tp961
a(S'Aretha Franklin'
p962
S'Rock Steady'
p963
S'http://www.last.fm/music/Aretha+Franklin/_/Rock+Steady'
p964
S'1360172450'
p965
tp966
a(S'The Stone Roses'
p967
S'Love Spreads'
p968
S'http://www.last.fm/music/The+Stone+Roses/_/Love+Spreads'
p969
S'1360172103'
p970
tp971
a(S'Maroon 5'
p972
S'Goodnight Goodnight'
p973
S'http://www.last.fm/music/Maroon+5/_/Goodnight+Goodnight'
p974
S'1360171859'
p975
tp976
a(S'Beastie Boys'
p977
S'Triple Trouble (Album Version)'
p978
S'http://www.last.fm/music/Beastie+Boys/_/Triple+Trouble+(Album+Version)'
p979
S'1360171695'
p980
tp981
a(S'Soundgarden'
p982
S'Attrition'
p983
S'http://www.last.fm/music/Soundgarden/_/Attrition'
p984
S'1360171501'
p985
tp986
a(S'Pearl Jam'
p987
S'State of Love and Trust'
p988
S'http://www.last.fm/music/Pearl+Jam/_/State+of+Love+and+Trust'
p989
S'1360171273'
p990
tp991
a(S'Jamiroquai'
p992
S"Time Won't Wait"
p993
S'http://www.last.fm/music/Jamiroquai/_/Time+Won%27t+Wait'
p994
S'1360170972'
p995
tp996
a(S'Air Supply'
p997
S'Making Love Out of Nothing'
p998
S'http://www.last.fm/music/Air+Supply/_/Making+Love+Out+of+Nothing'
p999
S'1360170628'
p1000
tp1001
a.