(lp1
(S'Metallica'
p2
S'The Shortest Straw'
p3
S'http://www.last.fm/music/Metallica/_/The+Shortest+Straw'
p4
S'1347282702'
p5
tp6
a(S'Metallica'
p7
S'The Frayed Ends of Sanity'
p8
S'http://www.last.fm/music/Metallica/_/The+Frayed+Ends+of+Sanity'
p9
S'1347282088'
p10
tp11
a(S'Queen'
p12
S'Killer Queen'
p13
S'http://www.last.fm/music/Queen/_/Killer+Queen'
p14
S'1346969403'
p15
tp16
a(S'Queen'
p17
S'Sail Away Sweet Sister'
p18
S'http://www.last.fm/music/Queen/_/Sail+Away+Sweet+Sister'
p19
S'1346969190'
p20
tp21
a(S'Queen'
p22
S'Stone Cold Crazy'
p23
S'http://www.last.fm/music/Queen/_/Stone+Cold+Crazy'
p24
S'1346969053'
p25
tp26
a(S'Queen'
p27
S'White Queen (As It Began)'
p28
S'http://www.last.fm/music/Queen/_/White+Queen+(As+It+Began)'
p29
S'1346968777'
p30
tp31
a(S'Queen'
p32
S'Lily of the Valley'
p33
S'http://www.last.fm/music/Queen/_/Lily+of+the+Valley'
p34
S'1346968674'
p35
tp36
a(S'Queen'
p37
S'Cool Cat'
p38
S'http://www.last.fm/music/Queen/_/Cool+Cat'
p39
S'1346968460'
p40
tp41
a(S'Queen'
p42
S'Let Me Entertain You'
p43
S'http://www.last.fm/music/Queen/_/Let+Me+Entertain+You'
p44
S'1346968278'
p45
tp46
a(S'Queen'
p47
S'Tie Your Mother Down'
p48
S'http://www.last.fm/music/Queen/_/Tie+Your+Mother+Down'
p49
S'1346968032'
p50
tp51
a(S'Queen'
p52
S'Mother Love'
p53
S'http://www.last.fm/music/Queen/_/Mother+Love'
p54
S'1346967743'
p55
tp56
a(S'Queen'
p57
S'Headlong'
p58
S'http://www.last.fm/music/Queen/_/Headlong'
p59
S'1346967464'
p60
tp61
a(S'Queen'
p62
S'Lily of the Valley'
p63
S'http://www.last.fm/music/Queen/_/Lily+of+the+Valley'
p64
S'1346967361'
p65
tp66
a(S'Queen'
p67
S'Doing All Right'
p68
S'http://www.last.fm/music/Queen/_/Doing+All+Right'
p69
S'1346967111'
p70
tp71
a(S'Queen'
p72
S'Killer Queen'
p73
S'http://www.last.fm/music/Queen/_/Killer+Queen'
p74
S'1346966931'
p75
tp76
a(S'Queen'
p77
S'Pain Is So Close To Pleasure'
p78
S'http://www.last.fm/music/Queen/_/Pain+Is+So+Close+To+Pleasure'
p79
S'1346966669'
p80
tp81
a(S'Queen'
p82
S"Don't Stop Me Now"
p83
S'http://www.last.fm/music/Queen/_/Don%27t+Stop+Me+Now'
p84
S'1346966460'
p85
tp86
a(S'Queen'
p87
S'A Kind of Magic'
p88
S'http://www.last.fm/music/Queen/_/A+Kind+of+Magic'
p89
S'1346966195'
p90
tp91
a(S'Queen'
p92
S'We Are the Champions'
p93
S'http://www.last.fm/music/Queen/_/We+Are+the+Champions'
p94
S'1346966013'
p95
tp96
a(S'Queen'
p97
S'Radio Ga Ga'
p98
S'http://www.last.fm/music/Queen/_/Radio+Ga+Ga'
p99
S'1346965664'
p100
tp101
a(S'Queen'
p102
S'I Want It All'
p103
S'http://www.last.fm/music/Queen/_/I+Want+It+All'
p104
S'1346964826'
p105
tp106
a(S'Queen'
p107
S'Sail Away Sweet Sister'
p108
S'http://www.last.fm/music/Queen/_/Sail+Away+Sweet+Sister'
p109
S'1346964613'
p110
tp111
a(S'Queen'
p112
S'White Queen (As It Began)'
p113
S'http://www.last.fm/music/Queen/_/White+Queen+(As+It+Began)'
p114
S'1346964336'
p115
tp116
a(S'Queen'
p117
S"You Don't Fool Me (Album Version)"
p118
S'http://www.last.fm/music/Queen/_/You+Don%27t+Fool+Me+(Album+Version)'
p119
S'1346963780'
p120
tp121
a(S'Queen'
p122
S'Bohemian Rhapsody'
p123
S'http://www.last.fm/music/Queen/_/Bohemian+Rhapsody'
p124
S'1346963425'
p125
tp126
a(S'Queen'
p127
S'Stone Cold Crazy'
p128
S'http://www.last.fm/music/Queen/_/Stone+Cold+Crazy'
p129
S'1346963288'
p130
tp131
a(S'Queen'
p132
S'One Vision'
p133
S'http://www.last.fm/music/Queen/_/One+Vision'
p134
S'1346962977'
p135
tp136
a(S'Queen'
p137
S'Good Old-Fashioned Lover Boy'
p138
S'http://www.last.fm/music/Queen/_/Good+Old-Fashioned+Lover+Boy'
p139
S'1346962018'
p140
tp141
a(S'Queen'
p142
S"The Prophet's Song"
p143
S'http://www.last.fm/music/Queen/_/The+Prophet%27s+Song'
p144
S'1346958115'
p145
tp146
a(S'Queen'
p147
S'Let Me Live'
p148
S'http://www.last.fm/music/Queen/_/Let+Me+Live'
p149
S'1346957829'
p150
tp151
a(S'Queen'
p152
S'In the Lap of the Gods'
p153
S'http://www.last.fm/music/Queen/_/In+the+Lap+of+the+Gods'
p154
S'1346957627'
p155
tp156
a(S'Queen'
p157
S'Too Much Love Will Kill You'
p158
S'http://www.last.fm/music/Queen/_/Too+Much+Love+Will+Kill+You'
p159
S'1346957365'
p160
tp161
a(S'Queen'
p162
S'Too Much Love Will Kill You'
p163
S'http://www.last.fm/music/Queen/_/Too+Much+Love+Will+Kill+You'
p164
S'1346938635'
p165
tp166
a(S'Queen'
p167
S'Pain Is So Close To Pleasure'
p168
S'http://www.last.fm/music/Queen/_/Pain+Is+So+Close+To+Pleasure'
p169
S'1346938373'
p170
tp171
a(S'Queen'
p172
S'Lily of the Valley'
p173
S'http://www.last.fm/music/Queen/_/Lily+of+the+Valley'
p174
S'1346938270'
p175
tp176
a(S'Queen'
p177
S'I Want It All'
p178
S'http://www.last.fm/music/Queen/_/I+Want+It+All'
p179
S'1346935005'
p180
tp181
a(S'Queen'
p182
S'Let Me Entertain You'
p183
S'http://www.last.fm/music/Queen/_/Let+Me+Entertain+You'
p184
S'1346934823'
p185
tp186
a(S'Queen'
p187
S'In the Lap of the Gods'
p188
S'http://www.last.fm/music/Queen/_/In+the+Lap+of+the+Gods'
p189
S'1346934620'
p190
tp191
a(S'Metallica'
p192
S'The Day That Never Comes'
p193
S'http://www.last.fm/music/Metallica/_/The+Day+That+Never+Comes'
p194
S'1346868578'
p195
tp196
a(S'Metallica'
p197
S'Broken, Beat & Scarred'
p198
S'http://www.last.fm/music/Metallica/_/Broken,+Beat+&+Scarred'
p199
S'1346866938'
p200
tp201
a(S'Metallica'
p202
S'The End of the Line'
p203
S'http://www.last.fm/music/Metallica/_/The+End+of+the+Line'
p204
S'1346864820'
p205
tp206
a(S'Metallica'
p207
S'That Was Just Your Life'
p208
S'http://www.last.fm/music/Metallica/_/That+Was+Just+Your+Life'
p209
S'1346864392'
p210
tp211
a(S'Metallica'
p212
S'Dyers Eve'
p213
S'http://www.last.fm/music/Metallica/_/Dyers+Eve'
p214
S'1346864079'
p215
tp216
a(S'Metallica'
p217
S'The Frayed Ends of Sanity'
p218
S'http://www.last.fm/music/Metallica/_/The+Frayed+Ends+of+Sanity'
p219
S'1346863411'
p220
tp221
a(S'Metallica'
p222
S'Harvester of Sorrow'
p223
S'http://www.last.fm/music/Metallica/_/Harvester+of+Sorrow'
p224
S'1346853876'
p225
tp226
a(S'Metallica'
p227
S'The Shortest Straw'
p228
S'http://www.last.fm/music/Metallica/_/The+Shortest+Straw'
p229
S'1346853480'
p230
tp231
a(S'Metallica'
p232
S'Eye of the Beholder'
p233
S'http://www.last.fm/music/Metallica/_/Eye+of+the+Beholder'
p234
S'1346853082'
p235
tp236
a(S'Metallica'
p237
V\u2026and Justice for All
p238
S'http://www.last.fm/music/Metallica/_/%E2%80%A6and+Justice+for+All'
p239
S'1346851765'
p240
tp241
a(S'Metallica'
p242
S'Blackened'
p243
S'http://www.last.fm/music/Metallica/_/Blackened'
p244
S'1346851362'
p245
tp246
a(S'Dire Straits'
p247
S'Money for Nothing'
p248
S'http://www.last.fm/music/Dire+Straits/_/Money+for+Nothing'
p249
S'1346851090'
p250
tp251
a(S'Pearl Jam'
p252
S'Rearviewmirror'
p253
S'http://www.last.fm/music/Pearl+Jam/_/Rearviewmirror'
p254
S'1346850800'
p255
tp256
a(S'Alice Cooper'
p257
S'Burning Our Bed'
p258
S'http://www.last.fm/music/Alice+Cooper/_/Burning+Our+Bed'
p259
S'1346850525'
p260
tp261
a(S'Iron Maiden'
p262
S"Childhood's End"
p263
S'http://www.last.fm/music/Iron+Maiden/_/Childhood%27s+End'
p264
S'1346849705'
p265
tp266
a(S'Megadeth'
p267
S'Addicted to Chaos'
p268
S'http://www.last.fm/music/Megadeth/_/Addicted+to+Chaos'
p269
S'1346849378'
p270
tp271
a(S'Queen'
p272
S'Heaven for Everyone'
p273
S'http://www.last.fm/music/Queen/_/Heaven+for+Everyone'
p274
S'1346849117'
p275
tp276
a(S'Rage Against the Machine'
p277
S'Bullet in the Head'
p278
S'http://www.last.fm/music/Rage+Against+the+Machine/_/Bullet+in+the+Head'
p279
S'1346846987'
p280
tp281
a(S'Talk Show'
p282
S'Hide'
p283
S'http://www.last.fm/music/Talk+Show/_/Hide'
p284
S'1346846758'
p285
tp286
a(S'Pearl Jam'
p287
S'Go'
p288
S'http://www.last.fm/music/Pearl+Jam/_/Go'
p289
S'1346846560'
p290
tp291
a(S'Michael Jackson'
p292
S'Thriller'
p293
S'http://www.last.fm/music/Michael+Jackson/_/Thriller'
p294
S'1346846065'
p295
tp296
a(S'Velvet Revolver'
p297
S'You Got No Right'
p298
S'http://www.last.fm/music/Velvet+Revolver/_/You+Got+No+Right'
p299
S'1346845675'
p300
tp301
a(S'J.J. Cale & Eric Clapton'
p302
S'Missing Person'
p303
S'http://www.last.fm/music/J.J.+Cale+&+Eric+Clapton/_/Missing+Person'
p304
S'1346783179'
p305
tp306
a(S'Iron Maiden'
p307
S'Holy Smoke'
p308
S'http://www.last.fm/music/Iron+Maiden/_/Holy+Smoke'
p309
S'1346781934'
p310
tp311
a(S'Stone Temple Pilots'
p312
S'Sex & Violence'
p313
S'http://www.last.fm/music/Stone+Temple+Pilots/_/Sex+&+Violence'
p314
S'1346781743'
p315
tp316
a(S'Rage Against the Machine'
p317
S'Killing in the Name'
p318
S'http://www.last.fm/music/Rage+Against+the+Machine/_/Killing+in+the+Name'
p319
S'1346781429'
p320
tp321
a(S'Aerosmith'
p322
S'Drop Dead Gorgeous'
p323
S'http://www.last.fm/music/Aerosmith/_/Drop+Dead+Gorgeous'
p324
S'1346781060'
p325
tp326
a(S'Black Sabbath'
p327
S'Get a Grip'
p328
S'http://www.last.fm/music/Black+Sabbath/_/Get+a+Grip'
p329
S'1346780816'
p330
tp331
a(S'Megadeth'
p332
S'Seven'
p333
S'http://www.last.fm/music/Megadeth/_/Seven'
p334
S'1346763801'
p335
tp336
a(S'Iron Maiden'
p337
S'Iron Maiden'
p338
S'http://www.last.fm/music/Iron+Maiden/_/Iron+Maiden'
p339
S'1346763541'
p340
tp341
a(S'Led Zeppelin'
p342
S'Rock and Roll'
p343
S'http://www.last.fm/music/Led+Zeppelin/_/Rock+and+Roll'
p344
S'1346763320'
p345
tp346
a(S'Judas Priest'
p347
S'Jawbreaker (Live)'
p348
S'http://www.last.fm/music/Judas+Priest/_/Jawbreaker+(Live)'
p349
S'1346763077'
p350
tp351
a(S'Jamiroquai'
p352
S'Travelling Without Moving'
p353
S'http://www.last.fm/music/Jamiroquai/_/Travelling+Without+Moving'
p354
S'1346762857'
p355
tp356
a(S'Judas Priest'
p357
S'Electric Eye'
p358
S'http://www.last.fm/music/Judas+Priest/_/Electric+Eye'
p359
S'1346762638'
p360
tp361
a(S'Twisted Sister'
p362
S"Lookin' Out for #1"
p363
S'http://www.last.fm/music/Twisted+Sister/_/Lookin%27+Out+for+%231'
p364
S'1346762444'
p365
tp366
a(S'Alice Cooper'
p367
S'Side Show'
p368
S'http://www.last.fm/music/Alice+Cooper/_/Side+Show'
p369
S'1346762018'
p370
tp371
a(S'Metallica'
p372
S'Escape'
p373
S'http://www.last.fm/music/Metallica/_/Escape'
p374
S'1346701905'
p375
tp376
a(S'Megadeth'
p377
S'A Secret Place'
p378
S'http://www.last.fm/music/Megadeth/_/A+Secret+Place'
p379
S'1346701581'
p380
tp381
a(S'The Smiths'
p382
S'Panic'
p383
S'http://www.last.fm/music/The+Smiths/_/Panic'
p384
S'1346701440'
p385
tp386
a(S'Beastie Boys'
p387
S"So What'cha Want"
p388
S'http://www.last.fm/music/Beastie+Boys/_/So+What%27cha+Want'
p389
S'1346701221'
p390
tp391
a(S'Roxette'
p392
S'Listen to Your Heart'
p393
S'http://www.last.fm/music/Roxette/_/Listen+to+Your+Heart'
p394
S'1346700937'
p395
tp396
a(S'Def Leppard'
p397
S'Hysteria'
p398
S'http://www.last.fm/music/Def+Leppard/_/Hysteria'
p399
S'1346700448'
p400
tp401
a(S'Black Sabbath'
p402
S'Wheels of Confusion / The Straightener'
p403
S'http://www.last.fm/music/Black+Sabbath/_/Wheels+of+Confusion+%2F+The+Straightener'
p404
S'1346693998'
p405
tp406
a(S'Roxette'
p407
S'Queen of Rain'
p408
S'http://www.last.fm/music/Roxette/_/Queen+of+Rain'
p409
S'1346325690'
p410
tp411
a(S'Roxette'
p412
S'Small Talk'
p413
S'http://www.last.fm/music/Roxette/_/Small+Talk'
p414
S'1346325456'
p415
tp416
a(S'Roxette'
p417
S'Things Will Never Be the Same'
p418
S'http://www.last.fm/music/Roxette/_/Things+Will+Never+Be+the+Same'
p419
S'1346325190'
p420
tp421
a(S'Blues Traveler'
p422
S'Canadian Rose'
p423
S'http://www.last.fm/music/Blues+Traveler/_/Canadian+Rose'
p424
S'1346324918'
p425
tp426
a(S'Collective Soul'
p427
S'Why, Part 2'
p428
S'http://www.last.fm/music/Collective+Soul/_/Why,+Part+2'
p429
S'1346271812'
p430
tp431
a(S'Black Sabbath'
p432
S'Wheels of Confusion / The Straightener'
p433
S'http://www.last.fm/music/Black+Sabbath/_/Wheels+of+Confusion+%2F+The+Straightener'
p434
S'1346267800'
p435
tp436
a(S'Roxette'
p437
S'Small Talk'
p438
S'http://www.last.fm/music/Roxette/_/Small+Talk'
p439
S'1346257707'
p440
tp441
a(S'Bo Diddley'
p442
S'Can I Walk You Home'
p443
S'http://www.last.fm/music/Bo+Diddley/_/Can+I+Walk+You+Home'
p444
S'1346257387'
p445
tp446
a(S'Heart'
p447
S'Alone'
p448
S'http://www.last.fm/music/Heart/_/Alone'
p449
S'1346257171'
p450
tp451
a(S'Whitesnake'
p452
S'The Deeper The Love'
p453
S'http://www.last.fm/music/Whitesnake/_/The+Deeper+The+Love'
p454
S'1346241656'
p455
tp456
a(S'Alice Cooper'
p457
S'Burning Our Bed'
p458
S'http://www.last.fm/music/Alice+Cooper/_/Burning+Our+Bed'
p459
S'1346241381'
p460
tp461
a(S'Heart'
p462
S'Alone'
p463
S'http://www.last.fm/music/Heart/_/Alone'
p464
S'1346241162'
p465
tp466
a(S'Roxette'
p467
S'Listen to Your Heart'
p468
S'http://www.last.fm/music/Roxette/_/Listen+to+Your+Heart'
p469
S'1346240831'
p470
tp471
a(S'Roxette'
p472
S'Things Will Never Be the Same'
p473
S'http://www.last.fm/music/Roxette/_/Things+Will+Never+Be+the+Same'
p474
S'1346240565'
p475
tp476
a(S'Blues Traveler'
p477
S'Felicia'
p478
S'http://www.last.fm/music/Blues+Traveler/_/Felicia'
p479
S'1346240282'
p480
tp481
a(S'Black Sabbath'
p482
S'Get a Grip'
p483
S'http://www.last.fm/music/Black+Sabbath/_/Get+a+Grip'
p484
S'1346240042'
p485
tp486
a(S'Black Sabbath'
p487
S'Get a Grip'
p488
S'http://www.last.fm/music/Black+Sabbath/_/Get+a+Grip'
p489
S'1346239774'
p490
tp491
a(S'Joe Satriani'
p492
S'The Crush of Love'
p493
S'http://www.last.fm/music/Joe+Satriani/_/The+Crush+of+Love'
p494
S'1346239426'
p495
tp496
a(S'Black Sabbath'
p497
S'Planet Caravan'
p498
S'http://www.last.fm/music/Black+Sabbath/_/Planet+Caravan'
p499
S'1346238464'
p500
tp501
a(S'Black Sabbath'
p502
S'Wheels of Confusion / The Straightener'
p503
S'http://www.last.fm/music/Black+Sabbath/_/Wheels+of+Confusion+%2F+The+Straightener'
p504
S'1346237970'
p505
tp506
a(S'Chickenfoot'
p507
S'Sexy Little Thing'
p508
S'http://www.last.fm/music/Chickenfoot/_/Sexy+Little+Thing'
p509
S'1346237716'
p510
tp511
a(S'Blues Traveler'
p512
S'The Mountains Win Again'
p513
S'http://www.last.fm/music/Blues+Traveler/_/The+Mountains+Win+Again'
p514
S'1346193522'
p515
tp516
a(S'Alice Cooper'
p517
S'Might As Well Be on Mars'
p518
S'http://www.last.fm/music/Alice+Cooper/_/Might+As+Well+Be+on+Mars'
p519
S'1346193092'
p520
tp521
a(S'Collective Soul'
p522
S'Why, Part 2'
p523
S'http://www.last.fm/music/Collective+Soul/_/Why,+Part+2'
p524
S'1346171276'
p525
tp526
a(S'Alice Cooper'
p527
S'Wind Up Toy'
p528
S'http://www.last.fm/music/Alice+Cooper/_/Wind+Up+Toy'
p529
S'1346170936'
p530
tp531
a(S'Roxette'
p532
S'(Do You Get) Excited?'
p533
S'http://www.last.fm/music/Roxette/_/(Do+You+Get)+Excited%3F'
p534
S'1346170026'
p535
tp536
a(S'The Cult'
p537
S'Edie (Ciao Baby)'
p538
S'http://www.last.fm/music/The+Cult/_/Edie+(Ciao+Baby)'
p539
S'1346169785'
p540
tp541
a(S'Whitesnake'
p542
S'The Deeper The Love'
p543
S'http://www.last.fm/music/Whitesnake/_/The+Deeper+The+Love'
p544
S'1346169526'
p545
tp546
a(S'Black Sabbath'
p547
S'Sabbath Bloody Sabbath'
p548
S'http://www.last.fm/music/Black+Sabbath/_/Sabbath+Bloody+Sabbath'
p549
S'1346158307'
p550
tp551
a(S'Roxette'
p552
S'Things Will Never Be the Same'
p553
S'http://www.last.fm/music/Roxette/_/Things+Will+Never+Be+the+Same'
p554
S'1346158041'
p555
tp556
a(S'Roxette'
p557
S'Listen to Your Heart'
p558
S'http://www.last.fm/music/Roxette/_/Listen+to+Your+Heart'
p559
S'1346157342'
p560
tp561
a(S'Skid Row'
p562
S'I Remember You'
p563
S'http://www.last.fm/music/Skid+Row/_/I+Remember+You'
p564
S'1346157017'
p565
tp566
a(S'Black Sabbath'
p567
S'Spiral Architect'
p568
S'http://www.last.fm/music/Black+Sabbath/_/Spiral+Architect'
p569
S'1346156435'
p570
tp571
a(S'Bon Jovi'
p572
S'Born To Be My Baby'
p573
S'http://www.last.fm/music/Bon+Jovi/_/Born+To+Be+My+Baby'
p574
S'1346156155'
p575
tp576
a(S'Black Sabbath'
p577
S'Planet Caravan'
p578
S'http://www.last.fm/music/Black+Sabbath/_/Planet+Caravan'
p579
S'1346154413'
p580
tp581
a(S'Joe Satriani'
p582
S"Cryin'"
p583
S'http://www.last.fm/music/Joe+Satriani/_/Cryin%27'
p584
S'1346154027'
p585
tp586
a(S'Def Leppard'
p587
S'Hysteria'
p588
S'http://www.last.fm/music/Def+Leppard/_/Hysteria'
p589
S'1346153669'
p590
tp591
a(S'Joe Satriani'
p592
S'The Souls of Distortion'
p593
S'http://www.last.fm/music/Joe+Satriani/_/The+Souls+of+Distortion'
p594
S'1346153370'
p595
tp596
a(S'Atlantic Starr'
p597
S'Always'
p598
S'http://www.last.fm/music/Atlantic+Starr/_/Always'
p599
S'1346153056'
p600
tp601
a(S'Collective Soul'
p602
S'Precious Declaration'
p603
S'http://www.last.fm/music/Collective+Soul/_/Precious+Declaration'
p604
S'1346152836'
p605
tp606
a(S'Black Sabbath'
p607
S'Megalomania'
p608
S'http://www.last.fm/music/Black+Sabbath/_/Megalomania'
p609
S'1346151209'
p610
tp611
a(S'Starship'
p612
S'We Built This City'
p613
S'http://www.last.fm/music/Starship/_/We+Built+This+City'
p614
S'1346150918'
p615
tp616
a(S'Collective Soul'
p617
S'Perfect Day (feat. Elton John)'
p618
S'http://www.last.fm/music/Collective+Soul/_/Perfect+Day+(feat.+Elton+John)'
p619
S'1346150690'
p620
tp621
a(S'Black Sabbath'
p622
S'Wheels of Confusion / The Straightener'
p623
S'http://www.last.fm/music/Black+Sabbath/_/Wheels+of+Confusion+%2F+The+Straightener'
p624
S'1346150195'
p625
tp626
a(S'Starship'
p627
S"Nothing's Gonna Stop Us Now"
p628
S'http://www.last.fm/music/Starship/_/Nothing%27s+Gonna+Stop+Us+Now'
p629
S'1346068999'
p630
tp631
a(S'Blues Traveler'
p632
S'Look Around'
p633
S'http://www.last.fm/music/Blues+Traveler/_/Look+Around'
p634
S'1345837759'
p635
tp636
a(S'Roxette'
p637
S'Things Will Never Be the Same'
p638
S'http://www.last.fm/music/Roxette/_/Things+Will+Never+Be+the+Same'
p639
S'1345837493'
p640
tp641
a(S'Alice in Chains'
p642
S'Private Hell'
p643
S'http://www.last.fm/music/Alice+in+Chains/_/Private+Hell'
p644
S'1345837155'
p645
tp646
a(S'Black Sabbath'
p647
S'Wheels of Confusion / The Straightener'
p648
S'http://www.last.fm/music/Black+Sabbath/_/Wheels+of+Confusion+%2F+The+Straightener'
p649
S'1345835641'
p650
tp651
a(S'Roxette'
p652
S'(Do You Get) Excited?'
p653
S'http://www.last.fm/music/Roxette/_/(Do+You+Get)+Excited%3F'
p654
S'1345835384'
p655
tp656
a(S'Skid Row'
p657
S'I Remember You'
p658
S'http://www.last.fm/music/Skid+Row/_/I+Remember+You'
p659
S'1345835069'
p660
tp661
a(S'Heart'
p662
S'Alone'
p663
S'http://www.last.fm/music/Heart/_/Alone'
p664
S'1345834850'
p665
tp666
a(S'Def Leppard'
p667
S'Hysteria'
p668
S'http://www.last.fm/music/Def+Leppard/_/Hysteria'
p669
S'1345834495'
p670
tp671
a(S'Blues Traveler'
p672
S'Canadian Rose'
p673
S'http://www.last.fm/music/Blues+Traveler/_/Canadian+Rose'
p674
S'1345834223'
p675
tp676
a(S'Roxette'
p677
S'Things Will Never Be the Same'
p678
S'http://www.last.fm/music/Roxette/_/Things+Will+Never+Be+the+Same'
p679
S'1345832335'
p680
tp681
a(S'Roxette'
p682
S'Listen to Your Heart'
p683
S'http://www.last.fm/music/Roxette/_/Listen+to+Your+Heart'
p684
S'1345831496'
p685
tp686
a(S'Roxette'
p687
S'Small Talk'
p688
S'http://www.last.fm/music/Roxette/_/Small+Talk'
p689
S'1345831263'
p690
tp691
a(S'Black Sabbath'
p692
S'Sabbath Bloody Sabbath'
p693
S'http://www.last.fm/music/Black+Sabbath/_/Sabbath+Bloody+Sabbath'
p694
S'1345824662'
p695
tp696
a(S'Black Sabbath'
p697
S'The Wizard'
p698
S'http://www.last.fm/music/Black+Sabbath/_/The+Wizard'
p699
S'1345824397'
p700
tp701
a(S'Alice Cooper'
p702
S'Might As Well Be on Mars'
p703
S'http://www.last.fm/music/Alice+Cooper/_/Might+As+Well+Be+on+Mars'
p704
S'1345823935'
p705
tp706
a(S'Joe Satriani'
p707
S'Baroque'
p708
S'http://www.last.fm/music/Joe+Satriani/_/Baroque'
p709
S'1345823799'
p710
tp711
a(S'Bon Jovi'
p712
S'Born To Be My Baby'
p713
S'http://www.last.fm/music/Bon+Jovi/_/Born+To+Be+My+Baby'
p714
S'1345823518'
p715
tp716
a(S'Alice in Chains'
p717
S'Private Hell'
p718
S'http://www.last.fm/music/Alice+in+Chains/_/Private+Hell'
p719
S'1345823111'
p720
tp721
a(S'Black Sabbath'
p722
S'Spiral Architect'
p723
S'http://www.last.fm/music/Black+Sabbath/_/Spiral+Architect'
p724
S'1345814922'
p725
tp726
a(S'Black Sabbath'
p727
S'Megalomania'
p728
S'http://www.last.fm/music/Black+Sabbath/_/Megalomania'
p729
S'1345812334'
p730
tp731
a(S'Joe Satriani'
p732
S"Cryin'"
p733
S'http://www.last.fm/music/Joe+Satriani/_/Cryin%27'
p734
S'1345811948'
p735
tp736
a(S'Blues Traveler'
p737
S'Look Around'
p738
S'http://www.last.fm/music/Blues+Traveler/_/Look+Around'
p739
S'1345811606'
p740
tp741
a(S'Alice Cooper'
p742
S'Wind Up Toy'
p743
S'http://www.last.fm/music/Alice+Cooper/_/Wind+Up+Toy'
p744
S'1345811136'
p745
tp746
a(S'Roxette'
p747
S'Queen of Rain'
p748
S'http://www.last.fm/music/Roxette/_/Queen+of+Rain'
p749
S'1345810845'
p750
tp751
a(S'Atlantic Starr'
p752
S'Always'
p753
S'http://www.last.fm/music/Atlantic+Starr/_/Always'
p754
S'1345809898'
p755
tp756
a(S'Alice Cooper'
p757
S'Dangerous Tonight'
p758
S'http://www.last.fm/music/Alice+Cooper/_/Dangerous+Tonight'
p759
S'1345809616'
p760
tp761
a(S'Black Sabbath'
p762
S'Spiral Architect'
p763
S'http://www.last.fm/music/Black+Sabbath/_/Spiral+Architect'
p764
S'1345809286'
p765
tp766
a(S'Skid Row'
p767
S'I Remember You'
p768
S'http://www.last.fm/music/Skid+Row/_/I+Remember+You'
p769
S'1345808516'
p770
tp771
a(S'Roxette'
p772
S'Dangerous'
p773
S'http://www.last.fm/music/Roxette/_/Dangerous'
p774
S'1345808287'
p775
tp776
a(S'Black Sabbath'
p777
S'Sabbath Bloody Sabbath'
p778
S'http://www.last.fm/music/Black+Sabbath/_/Sabbath+Bloody+Sabbath'
p779
S'1345807941'
p780
tp781
a(S'Heart'
p782
S'Alone'
p783
S'http://www.last.fm/music/Heart/_/Alone'
p784
S'1345807722'
p785
tp786
a(S'Whitesnake'
p787
S'The Deeper The Love'
p788
S'http://www.last.fm/music/Whitesnake/_/The+Deeper+The+Love'
p789
S'1345807463'
p790
tp791
a(S'The Cult'
p792
S'Edie (Ciao Baby)'
p793
S'http://www.last.fm/music/The+Cult/_/Edie+(Ciao+Baby)'
p794
S'1345724397'
p795
tp796
a(S'Black Sabbath'
p797
S'Planet Caravan'
p798
S'http://www.last.fm/music/Black+Sabbath/_/Planet+Caravan'
p799
S'1345724122'
p800
tp801
a(S'Roxette'
p802
S'(Do You Get) Excited?'
p803
S'http://www.last.fm/music/Roxette/_/(Do+You+Get)+Excited%3F'
p804
S'1345670035'
p805
tp806
a(S'Joe Satriani'
p807
S'The Crush of Love'
p808
S'http://www.last.fm/music/Joe+Satriani/_/The+Crush+of+Love'
p809
S'1345669687'
p810
tp811
a(S'Roxette'
p812
S'Church of Your Heart'
p813
S'http://www.last.fm/music/Roxette/_/Church+of+Your+Heart'
p814
S'1345669484'
p815
tp816
a(S'Collective Soul'
p817
S'Precious Declaration'
p818
S'http://www.last.fm/music/Collective+Soul/_/Precious+Declaration'
p819
S'1345669265'
p820
tp821
a(S'Starship'
p822
S"Nothing's Gonna Stop Us Now"
p823
S'http://www.last.fm/music/Starship/_/Nothing%27s+Gonna+Stop+Us+Now'
p824
S'1345668586'
p825
tp826
a(S'Roxette'
p827
S'Perfect Day'
p828
S'http://www.last.fm/music/Roxette/_/Perfect+Day'
p829
S'1345668341'
p830
tp831
a(S'Def Leppard'
p832
S'Hysteria'
p833
S'http://www.last.fm/music/Def+Leppard/_/Hysteria'
p834
S'1345667986'
p835
tp836
a(S'Joe Satriani'
p837
S'All Alone (aka Left Alone)'
p838
S'http://www.last.fm/music/Joe+Satriani/_/All+Alone+(aka+Left+Alone)'
p839
S'1345667724'
p840
tp841
a(S'Whitesnake'
p842
S"Love Ain't No Stranger"
p843
S'http://www.last.fm/music/Whitesnake/_/Love+Ain%27t+No+Stranger'
p844
S'1345667472'
p845
tp846
a(S'Joe Satriani'
p847
S'Baroque'
p848
S'http://www.last.fm/music/Joe+Satriani/_/Baroque'
p849
S'1345667212'
p850
tp851
a(S'Collective Soul'
p852
S'Why, Part 2'
p853
S'http://www.last.fm/music/Collective+Soul/_/Why,+Part+2'
p854
S'1345666921'
p855
tp856
a(S'Black Sabbath'
p857
S'Megalomania'
p858
S'http://www.last.fm/music/Black+Sabbath/_/Megalomania'
p859
S'1345665202'
p860
tp861
a(S'Alice Cooper'
p862
S'Might As Well Be on Mars'
p863
S'http://www.last.fm/music/Alice+Cooper/_/Might+As+Well+Be+on+Mars'
p864
S'1345663099'
p865
tp866
a(S'Black Sabbath'
p867
S'The Wizard'
p868
S'http://www.last.fm/music/Black+Sabbath/_/The+Wizard'
p869
S'1345662705'
p870
tp871
a(S'Joe Satriani'
p872
S'The Souls of Distortion'
p873
S'http://www.last.fm/music/Joe+Satriani/_/The+Souls+of+Distortion'
p874
S'1345662384'
p875
tp876
a(S'Alice Cooper'
p877
S'Snakebite'
p878
S'http://www.last.fm/music/Alice+Cooper/_/Snakebite'
p879
S'1345662111'
p880
tp881
a(S'Whitesnake'
p882
S'Is This Love'
p883
S'http://www.last.fm/music/Whitesnake/_/Is+This+Love'
p884
S'1345661832'
p885
tp886
a(S'Blues Traveler'
p887
S'Felicia'
p888
S'http://www.last.fm/music/Blues+Traveler/_/Felicia'
p889
S'1345661549'
p890
tp891
a(S'Roxette'
p892
S'Small Talk'
p893
S'http://www.last.fm/music/Roxette/_/Small+Talk'
p894
S'1345661315'
p895
tp896
a(S'Alice Cooper'
p897
S"Love's a Loaded Gun"
p898
S'http://www.last.fm/music/Alice+Cooper/_/Love%27s+a+Loaded+Gun'
p899
S'1345660983'
p900
tp901
a(S'Starship'
p902
S'We Built This City'
p903
S'http://www.last.fm/music/Starship/_/We+Built+This+City'
p904
S'1345660691'
p905
tp906
a(S'Black Sabbath'
p907
S'Wheels of Confusion / The Straightener'
p908
S'http://www.last.fm/music/Black+Sabbath/_/Wheels+of+Confusion+%2F+The+Straightener'
p909
S'1345660368'
p910
tp911
a(S'Starship'
p912
S'We Built This City'
p913
S'http://www.last.fm/music/Starship/_/We+Built+This+City'
p914
S'1345660068'
p915
tp916
a(S'Blues Traveler'
p917
S'Look Around'
p918
S'http://www.last.fm/music/Blues+Traveler/_/Look+Around'
p919
S'1345659726'
p920
tp921
a(S'Roxette'
p922
S'Things Will Never Be the Same'
p923
S'http://www.last.fm/music/Roxette/_/Things+Will+Never+Be+the+Same'
p924
S'1345659460'
p925
tp926
a(S'Black Sabbath'
p927
S'Wheels of Confusion / The Straightener'
p928
S'http://www.last.fm/music/Black+Sabbath/_/Wheels+of+Confusion+%2F+The+Straightener'
p929
S'1345656682'
p930
tp931
a(S'Collective Soul'
p932
S'Shine'
p933
S'http://www.last.fm/music/Collective+Soul/_/Shine'
p934
S'1345656375'
p935
tp936
a(S'Bo Diddley'
p937
S'Can I Walk You Home'
p938
S'http://www.last.fm/music/Bo+Diddley/_/Can+I+Walk+You+Home'
p939
S'1345656054'
p940
tp941
a(S'Bon Jovi'
p942
S'Born To Be My Baby'
p943
S'http://www.last.fm/music/Bon+Jovi/_/Born+To+Be+My+Baby'
p944
S'1345655769'
p945
tp946
a(S'Black Sabbath'
p947
S'Get a Grip'
p948
S'http://www.last.fm/music/Black+Sabbath/_/Get+a+Grip'
p949
S'1345644239'
p950
tp951
a(S'Blues Traveler'
p952
S'Canadian Rose'
p953
S'http://www.last.fm/music/Blues+Traveler/_/Canadian+Rose'
p954
S'1345641271'
p955
tp956
a(S'Chickenfoot'
p957
S'Sexy Little Thing'
p958
S'http://www.last.fm/music/Chickenfoot/_/Sexy+Little+Thing'
p959
S'1345641018'
p960
tp961
a(S'Alice in Chains'
p962
S'Private Hell'
p963
S'http://www.last.fm/music/Alice+in+Chains/_/Private+Hell'
p964
S'1345640678'
p965
tp966
a(S'Audioslave'
p967
S'Shadow On The Sun'
p968
S'http://www.last.fm/music/Audioslave/_/Shadow+On+The+Sun'
p969
S'1345580359'
p970
tp971
a(S'Stone Temple Pilots'
p972
S'Silvergun Superman'
p973
S'http://www.last.fm/music/Stone+Temple+Pilots/_/Silvergun+Superman'
p974
S'1345580042'
p975
tp976
a(S'Stone Temple Pilots'
p977
S'Transmissions From a Lonely Room'
p978
S'http://www.last.fm/music/Stone+Temple+Pilots/_/Transmissions+From+a+Lonely+Room'
p979
S'1345579847'
p980
tp981
a(S'Stone Temple Pilots'
p982
S'Pruno'
p983
S'http://www.last.fm/music/Stone+Temple+Pilots/_/Pruno'
p984
S'1345579652'
p985
tp986
a(S'Beastie Boys'
p987
S"So What'cha Want"
p988
S'http://www.last.fm/music/Beastie+Boys/_/So+What%27cha+Want'
p989
S'1345578834'
p990
tp991
a(S'Army Of Anyone'
p992
S'Generation'
p993
S'http://www.last.fm/music/Army+Of+Anyone/_/Generation'
p994
S'1345578623'
p995
tp996
a(S'Metallica'
p997
S'For Whom the Bell Tolls'
p998
S'http://www.last.fm/music/Metallica/_/For+Whom+the+Bell+Tolls'
p999
S'1345578086'
p1000
tp1001
a.