(lp1
(S'Jamiroquai'
p2
S'Talulah'
p3
S'http://www.last.fm/music/Jamiroquai/_/Talulah'
p4
S'1232562949'
p5
tp6
a(S'Jamiroquai'
p7
S'World That He Wants'
p8
S'http://www.last.fm/music/Jamiroquai/_/World+That+He+Wants'
p9
S'1232562759'
p10
tp11
a(S'Jamiroquai'
p12
S"Time Won't Wait"
p13
S'http://www.last.fm/music/Jamiroquai/_/Time+Won%27t+Wait'
p14
S'1232562457'
p15
tp16
a(S'Jamiroquai'
p17
S'Electric Mistress'
p18
S'http://www.last.fm/music/Jamiroquai/_/Electric+Mistress'
p19
S'1232562223'
p20
tp21
a(S'Jamiroquai'
p22
S'Use the Force'
p23
S'http://www.last.fm/music/Jamiroquai/_/Use+the+Force'
p24
S'1232561983'
p25
tp26
a(S'Jamiroquai'
p27
S"(Don't) Give Hate a Chance"
p28
S'http://www.last.fm/music/Jamiroquai/_/(Don%27t)+Give+Hate+a+Chance'
p29
S'1232561683'
p30
tp31
a(S'Jamiroquai'
p32
S"Stop Don't Panic"
p33
S'http://www.last.fm/music/Jamiroquai/_/Stop+Don%27t+Panic'
p34
S'1232561407'
p35
tp36
a(S'Jamiroquai'
p37
S'Love Foolosophy'
p38
S'http://www.last.fm/music/Jamiroquai/_/Love+Foolosophy'
p39
S'1232561179'
p40
tp41
a(S'Jamiroquai'
p42
S'Seven Days in Sunny June'
p43
S'http://www.last.fm/music/Jamiroquai/_/Seven+Days+in+Sunny+June'
p44
S'1232560941'
p45
tp46
a(S'Jamiroquai'
p47
S'Main Vein'
p48
S'http://www.last.fm/music/Jamiroquai/_/Main+Vein'
p49
S'1232560635'
p50
tp51
a(S'Jamiroquai'
p52
S'Picture of My Life'
p53
S'http://www.last.fm/music/Jamiroquai/_/Picture+of+My+Life'
p54
S'1232560250'
p55
tp56
a(S'Jamiroquai'
p57
S'Canned Head (7"Edit)'
p58
S'http://www.last.fm/music/Jamiroquai/_/Canned+Head+(7%22Edit)'
p59
S'1232560025'
p60
tp61
a(S'Jamiroquai'
p62
S'Virtual Insanity'
p63
S'http://www.last.fm/music/Jamiroquai/_/Virtual+Insanity'
p64
S'1232559683'
p65
tp66
a(S'Jamiroquai'
p67
S'Little L'
p68
S'http://www.last.fm/music/Jamiroquai/_/Little+L'
p69
S'1232559386'
p70
tp71
a(S'Jamiroquai'
p72
S'Starchild'
p73
S'http://www.last.fm/music/Jamiroquai/_/Starchild'
p74
S'1232556747'
p75
tp76
a(S'Jamiroquai'
p77
S'Alright'
p78
S'http://www.last.fm/music/Jamiroquai/_/Alright'
p79
S'1232556482'
p80
tp81
a(S'Jamiroquai'
p82
S'You Give Me Something'
p83
S'http://www.last.fm/music/Jamiroquai/_/You+Give+Me+Something'
p84
S'1232556194'
p85
tp86
a(S'Jamiroquai'
p87
S'Virtual Insanity'
p88
S'http://www.last.fm/music/Jamiroquai/_/Virtual+Insanity'
p89
S'1232555334'
p90
tp91
a(S'Jamiroquai'
p92
S'Electric Mistress'
p93
S'http://www.last.fm/music/Jamiroquai/_/Electric+Mistress'
p94
S'1232555100'
p95
tp96
a(S'Jamiroquai'
p97
S'Dynamite'
p98
S'http://www.last.fm/music/Jamiroquai/_/Dynamite'
p99
S'1232554728'
p100
tp101
a(S'Jamiroquai'
p102
S'Dynamite'
p103
S'http://www.last.fm/music/Jamiroquai/_/Dynamite'
p104
S'1232544000'
p105
tp106
a(S'Jamiroquai'
p107
S"Time Won't Wait"
p108
S'http://www.last.fm/music/Jamiroquai/_/Time+Won%27t+Wait'
p109
S'1232543712'
p110
tp111
a(S'Jamiroquai'
p112
S'High Times'
p113
S'http://www.last.fm/music/Jamiroquai/_/High+Times'
p114
S'1232543353'
p115
tp116
a(S'Jamiroquai'
p117
S'You Give Me Something'
p118
S'http://www.last.fm/music/Jamiroquai/_/You+Give+Me+Something'
p119
S'1232543148'
p120
tp121
a(S'Jamiroquai'
p122
S'Electric Mistress'
p123
S'http://www.last.fm/music/Jamiroquai/_/Electric+Mistress'
p124
S'1232542896'
p125
tp126
a(S'Jamiroquai'
p127
S'Dynamite'
p128
S'http://www.last.fm/music/Jamiroquai/_/Dynamite'
p129
S'1232542427'
p130
tp131
a(S'Jamiroquai'
p132
S'Bonus Track'
p133
S'http://www.last.fm/music/Jamiroquai/_/Bonus+Track'
p134
S'1232541998'
p135
tp136
a(S'Jamiroquai'
p137
S"(Don't) Give Hate a Chance"
p138
S'http://www.last.fm/music/Jamiroquai/_/(Don%27t)+Give+Hate+a+Chance'
p139
S'1232541698'
p140
tp141
a(S'Jamiroquai'
p142
S'Love Footosophy (Twin Club Mix)'
p143
S'http://www.last.fm/music/Jamiroquai/_/Love+Footosophy+(Twin+Club+Mix)'
p144
S'1232541283'
p145
tp146
a(S'Jamiroquai'
p147
S'World That He Wants'
p148
S'http://www.last.fm/music/Jamiroquai/_/World+That+He+Wants'
p149
S'1232541093'
p150
tp151
a(S'Jamiroquai'
p152
S'Alright'
p153
S'http://www.last.fm/music/Jamiroquai/_/Alright'
p154
S'1232540828'
p155
tp156
a(S'Jamiroquai'
p157
S'Picture of My Life'
p158
S'http://www.last.fm/music/Jamiroquai/_/Picture+of+My+Life'
p159
S'1232540558'
p160
tp161
a(S'Jamiroquai'
p162
S'Love Foolosophy'
p163
S'http://www.last.fm/music/Jamiroquai/_/Love+Foolosophy'
p164
S'1232540330'
p165
tp166
a(S'Jamiroquai'
p167
S'Feels Just Like It Should'
p168
S'http://www.last.fm/music/Jamiroquai/_/Feels+Just+Like+It+Should'
p169
S'1232539124'
p170
tp171
a(S'Jamiroquai'
p172
S'Black Crow'
p173
S'http://www.last.fm/music/Jamiroquai/_/Black+Crow'
p174
S'1232538879'
p175
tp176
a(S'Jamiroquai'
p177
S'Hot Tequila Brown'
p178
S'http://www.last.fm/music/Jamiroquai/_/Hot+Tequila+Brown'
p179
S'1232538175'
p180
tp181
a(S'Jamiroquai'
p182
S'Canned Head (7"Edit)'
p183
S'http://www.last.fm/music/Jamiroquai/_/Canned+Head+(7%22Edit)'
p184
S'1232537950'
p185
tp186
a(S'Jamiroquai'
p187
S'Little L'
p188
S'http://www.last.fm/music/Jamiroquai/_/Little+L'
p189
S'1232537653'
p190
tp191
a(S'Jamiroquai'
p192
S'Corner of the Earth'
p193
S'http://www.last.fm/music/Jamiroquai/_/Corner+of+the+Earth'
p194
S'1232537311'
p195
tp196
a(S'Jamiroquai'
p197
S'Love Blind'
p198
S'http://www.last.fm/music/Jamiroquai/_/Love+Blind'
p199
S'1232537098'
p200
tp201
a(S'Jamiroquai'
p202
S'You Give Me Something'
p203
S'http://www.last.fm/music/Jamiroquai/_/You+Give+Me+Something'
p204
S'1232536893'
p205
tp206
a(S'Jamiroquai'
p207
S'Seven Days in Sunny June'
p208
S'http://www.last.fm/music/Jamiroquai/_/Seven+Days+in+Sunny+June'
p209
S'1232536655'
p210
tp211
a(S'Jamiroquai'
p212
S'Talulah'
p213
S'http://www.last.fm/music/Jamiroquai/_/Talulah'
p214
S'1232490439'
p215
tp216
a(S'Jamiroquai'
p217
S'Seven Days in Sunny June'
p218
S'http://www.last.fm/music/Jamiroquai/_/Seven+Days+in+Sunny+June'
p219
S'1232490201'
p220
tp221
a(S'Jamiroquai'
p222
S'Alright'
p223
S'http://www.last.fm/music/Jamiroquai/_/Alright'
p224
S'1232489936'
p225
tp226
a(S'Jamiroquai'
p227
S'Use the Force'
p228
S'http://www.last.fm/music/Jamiroquai/_/Use+the+Force'
p229
S'1232489695'
p230
tp231
a(S'Jamiroquai'
p232
S'Dynamite'
p233
S'http://www.last.fm/music/Jamiroquai/_/Dynamite'
p234
S'1232489211'
p235
tp236
a(S'Jamiroquai'
p237
S'You Give Me Something'
p238
S'http://www.last.fm/music/Jamiroquai/_/You+Give+Me+Something'
p239
S'1232489000'
p240
tp241
a(S'Jamiroquai'
p242
S'Dynamite'
p243
S'http://www.last.fm/music/Jamiroquai/_/Dynamite'
p244
S'1232488442'
p245
tp246
a(S'Jamiroquai'
p247
S'Seven Days in Sunny June'
p248
S'http://www.last.fm/music/Jamiroquai/_/Seven+Days+in+Sunny+June'
p249
S'1232488203'
p250
tp251
a(S'Jamiroquai'
p252
S'You Give Me Something'
p253
S'http://www.last.fm/music/Jamiroquai/_/You+Give+Me+Something'
p254
S'1232487987'
p255
tp256
a(S'Jamiroquai'
p257
S"(Don't) Give Hate a Chance"
p258
S'http://www.last.fm/music/Jamiroquai/_/(Don%27t)+Give+Hate+a+Chance'
p259
S'1232487654'
p260
tp261
a(S'Jamiroquai'
p262
S'Everyday'
p263
S'http://www.last.fm/music/Jamiroquai/_/Everyday'
p264
S'1232487385'
p265
tp266
a(S'Jamiroquai'
p267
S'Love Blind'
p268
S'http://www.last.fm/music/Jamiroquai/_/Love+Blind'
p269
S'1232487173'
p270
tp271
a(S'Jamiroquai'
p272
S'Hot Tequila Brown'
p273
S'http://www.last.fm/music/Jamiroquai/_/Hot+Tequila+Brown'
p274
S'1232486898'
p275
tp276
a(S'Jamiroquai'
p277
S'Love Footosophy (Twin Club Mix)'
p278
S'http://www.last.fm/music/Jamiroquai/_/Love+Footosophy+(Twin+Club+Mix)'
p279
S'1232486483'
p280
tp281
a(S'Jamiroquai'
p282
S'Love Foolosophy'
p283
S'http://www.last.fm/music/Jamiroquai/_/Love+Foolosophy'
p284
S'1232486255'
p285
tp286
a(S'Jamiroquai'
p287
S'Black Crow'
p288
S'http://www.last.fm/music/Jamiroquai/_/Black+Crow'
p289
S'1232486011'
p290
tp291
a(S'Jamiroquai'
p292
S'World That He Wants'
p293
S'http://www.last.fm/music/Jamiroquai/_/World+That+He+Wants'
p294
S'1232485820'
p295
tp296
a(S'Jamiroquai'
p297
S'You Give Me Something'
p298
S'http://www.last.fm/music/Jamiroquai/_/You+Give+Me+Something'
p299
S'1232485614'
p300
tp301
a(S'Jamiroquai'
p302
S'You Give Me Something'
p303
S'http://www.last.fm/music/Jamiroquai/_/You+Give+Me+Something'
p304
S'1232485365'
p305
tp306
a(S'Jamiroquai'
p307
S'Picture of My Life'
p308
S'http://www.last.fm/music/Jamiroquai/_/Picture+of+My+Life'
p309
S'1232485050'
p310
tp311
a(S'Jamiroquai'
p312
S'Corner of the Earth'
p313
S'http://www.last.fm/music/Jamiroquai/_/Corner+of+the+Earth'
p314
S'1232484708'
p315
tp316
a(S'Jamiroquai'
p317
S'Alright'
p318
S'http://www.last.fm/music/Jamiroquai/_/Alright'
p319
S'1232483216'
p320
tp321
a(S'Jamiroquai'
p322
S'2001'
p323
S'http://www.last.fm/music/Jamiroquai/_/2001'
p324
S'1232482898'
p325
tp326
a(S'Jamiroquai'
p327
S'Little L'
p328
S'http://www.last.fm/music/Jamiroquai/_/Little+L'
p329
S'1232482600'
p330
tp331
a(S'Jamiroquai'
p332
S'Feels Just Like It Should'
p333
S'http://www.last.fm/music/Jamiroquai/_/Feels+Just+Like+It+Should'
p334
S'1232480054'
p335
tp336
a(S'Jamiroquai'
p337
S'Starchild'
p338
S'http://www.last.fm/music/Jamiroquai/_/Starchild'
p339
S'1232479743'
p340
tp341
a(S'Jamiroquai'
p342
S'High Times'
p343
S'http://www.last.fm/music/Jamiroquai/_/High+Times'
p344
S'1232479288'
p345
tp346
a(S'Jamiroquai'
p347
S'Main Vein'
p348
S'http://www.last.fm/music/Jamiroquai/_/Main+Vein'
p349
S'1232478963'
p350
tp351
a(S'Jamiroquai'
p352
S'Electric Mistress'
p353
S'http://www.last.fm/music/Jamiroquai/_/Electric+Mistress'
p354
S'1232478728'
p355
tp356
a(S'Jamiroquai'
p357
S'You Give Me Something (Full International Mix)'
p358
S'http://www.last.fm/music/Jamiroquai/_/You+Give+Me+Something+(Full+International+Mix)'
p359
S'1232365244'
p360
tp361
a(S'Jamiroquai'
p362
S'Seven Days in Sunny June'
p363
S'http://www.last.fm/music/Jamiroquai/_/Seven+Days+in+Sunny+June'
p364
S'1232365006'
p365
tp366
a(S'Jamiroquai'
p367
S'Virtual Insanity'
p368
S'http://www.last.fm/music/Jamiroquai/_/Virtual+Insanity'
p369
S'1232364623'
p370
tp371
a(S'Jamiroquai'
p372
S'Picture of My Life'
p373
S'http://www.last.fm/music/Jamiroquai/_/Picture+of+My+Life'
p374
S'1232364326'
p375
tp376
a(S'Jamiroquai'
p377
S'Black Devil Car'
p378
S'http://www.last.fm/music/Jamiroquai/_/Black+Devil+Car'
p379
S'1232364010'
p380
tp381
a(S'Jamiroquai'
p382
S'Talulah'
p383
S'http://www.last.fm/music/Jamiroquai/_/Talulah'
p384
S'1232363552'
p385
tp386
a(S'Jamiroquai'
p387
S'Main Vein'
p388
S'http://www.last.fm/music/Jamiroquai/_/Main+Vein'
p389
S'1232363247'
p390
tp391
a(S'Jamiroquai'
p392
S'Love Foolosophy'
p393
S'http://www.last.fm/music/Jamiroquai/_/Love+Foolosophy'
p394
S'1232363019'
p395
tp396
a(S'Jamiroquai'
p397
S'You Give Me Something'
p398
S'http://www.last.fm/music/Jamiroquai/_/You+Give+Me+Something'
p399
S'1232362802'
p400
tp401
a(S'Jamiroquai'
p402
S'You Give Me Something'
p403
S'http://www.last.fm/music/Jamiroquai/_/You+Give+Me+Something'
p404
S'1232303142'
p405
tp406
a(S'Jamiroquai'
p407
S'Main Vein'
p408
S'http://www.last.fm/music/Jamiroquai/_/Main+Vein'
p409
S'1232302837'
p410
tp411
a(S'Jamiroquai'
p412
S'Space Cowboy'
p413
S'http://www.last.fm/music/Jamiroquai/_/Space+Cowboy'
p414
S'1232302452'
p415
tp416
a(S'Jamiroquai'
p417
S'When You Gonna Learn (digerido)'
p418
S'http://www.last.fm/music/Jamiroquai/_/When+You+Gonna+Learn+(digerido)'
p419
S'1232302222'
p420
tp421
a(S'Jamiroquai'
p422
S'You Give Me Something'
p423
S'http://www.last.fm/music/Jamiroquai/_/You+Give+Me+Something'
p424
S'1232301606'
p425
tp426
a(S'Jamiroquai'
p427
S'Planet Home'
p428
S'http://www.last.fm/music/Jamiroquai/_/Planet+Home'
p429
S'1232291466'
p430
tp431
a(S'Jamiroquai'
p432
S'Space Cowboy'
p433
S'http://www.last.fm/music/Jamiroquai/_/Space+Cowboy'
p434
S'1232291248'
p435
tp436
a(S'Jamiroquai'
p437
S'Hot Tequila Brown'
p438
S'http://www.last.fm/music/Jamiroquai/_/Hot+Tequila+Brown'
p439
S'1232290972'
p440
tp441
a(S'Jamiroquai'
p442
S'Electric Mistress'
p443
S'http://www.last.fm/music/Jamiroquai/_/Electric+Mistress'
p444
S'1232290738'
p445
tp446
a(S'Jamiroquai'
p447
S'Starchild'
p448
S'http://www.last.fm/music/Jamiroquai/_/Starchild'
p449
S'1232290428'
p450
tp451
a(S'Jamiroquai'
p452
S'Black Crow'
p453
S'http://www.last.fm/music/Jamiroquai/_/Black+Crow'
p454
S'1232290183'
p455
tp456
a(S'Jamiroquai'
p457
S'Picture of My Life'
p458
S'http://www.last.fm/music/Jamiroquai/_/Picture+of+My+Life'
p459
S'1232289803'
p460
tp461
a(S'Jamiroquai'
p462
S'Little L'
p463
S'http://www.last.fm/music/Jamiroquai/_/Little+L'
p464
S'1232289173'
p465
tp466
a(S'Jamiroquai'
p467
S'Love Foolosophy'
p468
S'http://www.last.fm/music/Jamiroquai/_/Love+Foolosophy'
p469
S'1232288945'
p470
tp471
a(S'Jamiroquai'
p472
S'Seven Days in Sunny June'
p473
S'http://www.last.fm/music/Jamiroquai/_/Seven+Days+in+Sunny+June'
p474
S'1232288707'
p475
tp476
a(S'Jamiroquai'
p477
S'Cosmic Girl'
p478
S'http://www.last.fm/music/Jamiroquai/_/Cosmic+Girl'
p479
S'1232288464'
p480
tp481
a(S'Jamiroquai'
p482
S'Falling'
p483
S'http://www.last.fm/music/Jamiroquai/_/Falling'
p484
S'1232288240'
p485
tp486
a(S'Jamiroquai'
p487
S'Butterfly'
p488
S'http://www.last.fm/music/Jamiroquai/_/Butterfly'
p489
S'1232287973'
p490
tp491
a(S'Jamiroquai'
p492
S'Planet Home'
p493
S'http://www.last.fm/music/Jamiroquai/_/Planet+Home'
p494
S'1232287690'
p495
tp496
a(S'Jamiroquai'
p497
S'Hot Tequila Brown'
p498
S'http://www.last.fm/music/Jamiroquai/_/Hot+Tequila+Brown'
p499
S'1232287414'
p500
tp501
a(S'Jamiroquai'
p502
S'Black Crow'
p503
S'http://www.last.fm/music/Jamiroquai/_/Black+Crow'
p504
S'1232287169'
p505
tp506
a(S'Jamiroquai'
p507
S'Talulah'
p508
S'http://www.last.fm/music/Jamiroquai/_/Talulah'
p509
S'1232286805'
p510
tp511
a(S'Jamiroquai'
p512
S'You Give Me Something'
p513
S'http://www.last.fm/music/Jamiroquai/_/You+Give+Me+Something'
p514
S'1232285813'
p515
tp516
a(S'Jamiroquai'
p517
S'Electric Mistress'
p518
S'http://www.last.fm/music/Jamiroquai/_/Electric+Mistress'
p519
S'1232285580'
p520
tp521
a(S'Jamiroquai'
p522
S'You Give Me Something'
p523
S'http://www.last.fm/music/Jamiroquai/_/You+Give+Me+Something'
p524
S'1232221524'
p525
tp526
a(S'Jamiroquai'
p527
S'Little L'
p528
S'http://www.last.fm/music/Jamiroquai/_/Little+L'
p529
S'1232221226'
p530
tp531
a(S'Jamiroquai'
p532
S'Love Foolosophy'
p533
S'http://www.last.fm/music/Jamiroquai/_/Love+Foolosophy'
p534
S'1232220998'
p535
tp536
a(S'Jamiroquai'
p537
S'Electric Mistress'
p538
S'http://www.last.fm/music/Jamiroquai/_/Electric+Mistress'
p539
S'1232220764'
p540
tp541
a(S'Jamiroquai'
p542
S'Love Blind'
p543
S'http://www.last.fm/music/Jamiroquai/_/Love+Blind'
p544
S'1232220552'
p545
tp546
a(S'Jamiroquai'
p547
S'You Give Me Something'
p548
S'http://www.last.fm/music/Jamiroquai/_/You+Give+Me+Something'
p549
S'1232220347'
p550
tp551
a(S'AC/DC'
p552
S'Rock N Roll Train'
p553
S'http://www.last.fm/music/AC%2FDC/_/Rock+N+Roll+Train'
p554
S'1232216764'
p555
tp556
a(S'Jamiroquai'
p557
S'High Times'
p558
S'http://www.last.fm/music/Jamiroquai/_/High+Times'
p559
S'1232216406'
p560
tp561
a(S'Jamiroquai'
p562
S'Picture of My Life'
p563
S'http://www.last.fm/music/Jamiroquai/_/Picture+of+My+Life'
p564
S'1232216025'
p565
tp566
a(S'Jamiroquai'
p567
S'Cosmic Girl'
p568
S'http://www.last.fm/music/Jamiroquai/_/Cosmic+Girl'
p569
S'1232215782'
p570
tp571
a(S'Jamiroquai'
p572
S'Dynamite'
p573
S'http://www.last.fm/music/Jamiroquai/_/Dynamite'
p574
S'1232215487'
p575
tp576
a(S'Jamiroquai'
p577
S'Destitute Illusions'
p578
S'http://www.last.fm/music/Jamiroquai/_/Destitute+Illusions'
p579
S'1232215148'
p580
tp581
a(S'Jamiroquai'
p582
S'When You Gonna Learn'
p583
S'http://www.last.fm/music/Jamiroquai/_/When+You+Gonna+Learn'
p584
S'1232214918'
p585
tp586
a(S'Jamiroquai'
p587
S'Space Cowboy'
p588
S'http://www.last.fm/music/Jamiroquai/_/Space+Cowboy'
p589
S'1232214700'
p590
tp591
a(S'Jamiroquai'
p592
S'Electric Mistress'
p593
S'http://www.last.fm/music/Jamiroquai/_/Electric+Mistress'
p594
S'1232214466'
p595
tp596
a(S'Jamiroquai'
p597
S'Love Foolosophy'
p598
S'http://www.last.fm/music/Jamiroquai/_/Love+Foolosophy'
p599
S'1232214238'
p600
tp601
a(S'Jamiroquai'
p602
S'Starchild'
p603
S'http://www.last.fm/music/Jamiroquai/_/Starchild'
p604
S'1232213927'
p605
tp606
a(S'Jamiroquai'
p607
S'Little L'
p608
S'http://www.last.fm/music/Jamiroquai/_/Little+L'
p609
S'1232213631'
p610
tp611
a(S'Jamiroquai'
p612
S'You Give Me Something'
p613
S'http://www.last.fm/music/Jamiroquai/_/You+Give+Me+Something'
p614
S'1232213196'
p615
tp616
a(S'Jamiroquai'
p617
S'Little L (Bob Sinclair Mix)'
p618
S'http://www.last.fm/music/Jamiroquai/_/Little+L+(Bob+Sinclair+Mix)'
p619
S'1232212951'
p620
tp621
a(S'Jamiroquai'
p622
S'Seven Days in Sunny June'
p623
S'http://www.last.fm/music/Jamiroquai/_/Seven+Days+in+Sunny+June'
p624
S'1232212714'
p625
tp626
a(S'Jamiroquai'
p627
S'Picture of My Life'
p628
S'http://www.last.fm/music/Jamiroquai/_/Picture+of+My+Life'
p629
S'1232207675'
p630
tp631
a(S'Jamiroquai'
p632
S'2001'
p633
S'http://www.last.fm/music/Jamiroquai/_/2001'
p634
S'1232207358'
p635
tp636
a(S'Jamiroquai'
p637
S'Little L'
p638
S'http://www.last.fm/music/Jamiroquai/_/Little+L'
p639
S'1232207060'
p640
tp641
a(S'Jamiroquai'
p642
S'Love Foolosophy'
p643
S'http://www.last.fm/music/Jamiroquai/_/Love+Foolosophy'
p644
S'1232206226'
p645
tp646
a(S'Jamiroquai'
p647
S'Little L'
p648
S'http://www.last.fm/music/Jamiroquai/_/Little+L'
p649
S'1232205929'
p650
tp651
a(S'Jamiroquai'
p652
S'You Give Me Something'
p653
S'http://www.last.fm/music/Jamiroquai/_/You+Give+Me+Something'
p654
S'1232205724'
p655
tp656
a(S'Judas Priest'
p657
S'Out in the Cold'
p658
S'http://www.last.fm/music/Judas+Priest/_/Out+in+the+Cold'
p659
S'1231953921'
p660
tp661
a(S'Pantera'
p662
S'Shattered'
p663
S'http://www.last.fm/music/Pantera/_/Shattered'
p664
S'1231953719'
p665
tp666
a(S'Megadeth'
p667
S'Diadems'
p668
S'http://www.last.fm/music/Megadeth/_/Diadems'
p669
S'1231953484'
p670
tp671
a(S'AC/DC'
p672
S'Stormy May Day'
p673
S'http://www.last.fm/music/AC%2FDC/_/Stormy+May+Day'
p674
S'1231953293'
p675
tp676
a(S'Jamiroquai'
p677
S'Seven Days in Sunny June'
p678
S'http://www.last.fm/music/Jamiroquai/_/Seven+Days+in+Sunny+June'
p679
S'1231953051'
p680
tp681
a(S'AC/DC'
p682
S'War Machine'
p683
S'http://www.last.fm/music/AC%2FDC/_/War+Machine'
p684
S'1231952862'
p685
tp686
a(S'AC/DC'
p687
S'Money Made'
p688
S'http://www.last.fm/music/AC%2FDC/_/Money+Made'
p689
S'1231952606'
p690
tp691
a(S'Metallica'
p692
S'Cure'
p693
S'http://www.last.fm/music/Metallica/_/Cure'
p694
S'1231952294'
p695
tp696
a(S'Jamiroquai'
p697
S'Space Cowboy'
p698
S'http://www.last.fm/music/Jamiroquai/_/Space+Cowboy'
p699
S'1231952076'
p700
tp701
a(S'Jerry Cantrell'
p702
S'Settling Down'
p703
S'http://www.last.fm/music/Jerry+Cantrell/_/Settling+Down'
p704
S'1231951706'
p705
tp706
a(S'Megadeth'
p707
S'A Secret Place'
p708
S'http://www.last.fm/music/Megadeth/_/A+Secret+Place'
p709
S'1231951381'
p710
tp711
a(S'Diamond Head'
p712
S'Calling Out'
p713
S'http://www.last.fm/music/Diamond+Head/_/Calling+Out'
p714
S'1231951153'
p715
tp716
a(S'Megadeth'
p717
S'Addicted to Chaos'
p718
S'http://www.last.fm/music/Megadeth/_/Addicted+to+Chaos'
p719
S'1231950628'
p720
tp721
a(S'Megadeth'
p722
S'Addicted to Chaos'
p723
S'http://www.last.fm/music/Megadeth/_/Addicted+to+Chaos'
p724
S'1231940762'
p725
tp726
a(S'Pantera'
p727
S'Fucking Hostile'
p728
S'http://www.last.fm/music/Pantera/_/Fucking+Hostile'
p729
S'1231940593'
p730
tp731
a(S'Megadeth'
p732
S'Symphony of Destruction'
p733
S'http://www.last.fm/music/Megadeth/_/Symphony+of+Destruction'
p734
S'1231940353'
p735
tp736
a(S'Jerry Cantrell'
p737
S'Satisfy'
p738
S'http://www.last.fm/music/Jerry+Cantrell/_/Satisfy'
p739
S'1231940138'
p740
tp741
a(S'Megadeth'
p742
S'Elysian Fields'
p743
S'http://www.last.fm/music/Megadeth/_/Elysian+Fields'
p744
S'1231939895'
p745
tp746
a(S'Jamiroquai'
p747
S'When You Gonna Learn'
p748
S'http://www.last.fm/music/Jamiroquai/_/When+You+Gonna+Learn'
p749
S'1231939665'
p750
tp751
a(S'Jamiroquai'
p752
S'Love Foolosophy'
p753
S'http://www.last.fm/music/Jamiroquai/_/Love+Foolosophy'
p754
S'1231939437'
p755
tp756
a(S'Megadeth'
p757
S'The Disintegrators'
p758
S'http://www.last.fm/music/Megadeth/_/The+Disintegrators'
p759
S'1231939253'
p760
tp761
a(S'Metallica'
p762
S'2 X 4'
p763
S'http://www.last.fm/music/Metallica/_/2+X+4'
p764
S'1231938923'
p765
tp766
a(S'Megadeth'
p767
S'Wanderlust'
p768
S'http://www.last.fm/music/Megadeth/_/Wanderlust'
p769
S'1231938575'
p770
tp771
a(S'Metallica'
p772
S'The Outlaw Torn'
p773
S'http://www.last.fm/music/Metallica/_/The+Outlaw+Torn'
p774
S'1231937987'
p775
tp776
a(S'Alice Cooper'
p777
S"I'm Your Gun"
p778
S'http://www.last.fm/music/Alice+Cooper/_/I%27m+Your+Gun'
p779
S'1231937758'
p780
tp781
a(S'Jerry Cantrell'
p782
S'Dickeye'
p783
S'http://www.last.fm/music/Jerry+Cantrell/_/Dickeye'
p784
S'1231937455'
p785
tp786
a(S'AC/DC'
p787
S'Decibel'
p788
S'http://www.last.fm/music/AC%2FDC/_/Decibel'
p789
S'1231937241'
p790
tp791
a(S'Pantera'
p792
S'Cemetery Gates'
p793
S'http://www.last.fm/music/Pantera/_/Cemetery+Gates'
p794
S'1231936818'
p795
tp796
a(S'Jamiroquai'
p797
S'Little L'
p798
S'http://www.last.fm/music/Jamiroquai/_/Little+L'
p799
S'1231936579'
p800
tp801
a(S'Jamiroquai'
p802
S'Little L'
p803
S'http://www.last.fm/music/Jamiroquai/_/Little+L'
p804
S'1231936428'
p805
tp806
a(S'Corrosion of Conformity'
p807
S'Clean My Wounds'
p808
S'http://www.last.fm/music/Corrosion+of+Conformity/_/Clean+My+Wounds'
p809
S'1231936215'
p810
tp811
a(S'AC/DC'
p812
S'Rock N Roll Train'
p813
S'http://www.last.fm/music/AC%2FDC/_/Rock+N+Roll+Train'
p814
S'1231935954'
p815
tp816
a(S'Pantera'
p817
S'Mouth for War'
p818
S'http://www.last.fm/music/Pantera/_/Mouth+for+War'
p819
S'1231935717'
p820
tp821
a(S'Megadeth'
p822
S'Killing Is My Business... and Business Is Good!'
p823
S'http://www.last.fm/music/Megadeth/_/Killing+Is+My+Business...+and+Business+Is+Good!'
p824
S'1231935530'
p825
tp826
a(S'Alice Cooper'
p827
S'Poison'
p828
S'http://www.last.fm/music/Alice+Cooper/_/Poison'
p829
S'1231935260'
p830
tp831
a(S'Jerry Cantrell'
p832
S'Satisfy'
p833
S'http://www.last.fm/music/Jerry+Cantrell/_/Satisfy'
p834
S'1231877156'
p835
tp836
a(S'Jamiroquai'
p837
S'Seven Days in Sunny June'
p838
S'http://www.last.fm/music/Jamiroquai/_/Seven+Days+in+Sunny+June'
p839
S'1231876914'
p840
tp841
a(S'Jerry Cantrell'
p842
S'Keep The Light On'
p843
S'http://www.last.fm/music/Jerry+Cantrell/_/Keep+The+Light+On'
p844
S'1231876627'
p845
tp846
a(S'AC/DC'
p847
S'War Machine'
p848
S'http://www.last.fm/music/AC%2FDC/_/War+Machine'
p849
S'1231876437'
p850
tp851
a(S'Megadeth'
p852
S'Elysian Fields'
p853
S'http://www.last.fm/music/Megadeth/_/Elysian+Fields'
p854
S'1231876194'
p855
tp856
a(S'Corrosion of Conformity'
p857
S'Clean My Wounds'
p858
S'http://www.last.fm/music/Corrosion+of+Conformity/_/Clean+My+Wounds'
p859
S'1231875981'
p860
tp861
a(S'Megadeth'
p862
S'Killing Is My Business... and Business Is Good!'
p863
S'http://www.last.fm/music/Megadeth/_/Killing+Is+My+Business...+and+Business+Is+Good!'
p864
S'1231875793'
p865
tp866
a(S'AC/DC'
p867
S"Spoilin' For A Fight"
p868
S'http://www.last.fm/music/AC%2FDC/_/Spoilin%27+For+A+Fight'
p869
S'1231875596'
p870
tp871
a(S'Megadeth'
p872
S'Wanderlust'
p873
S'http://www.last.fm/music/Megadeth/_/Wanderlust'
p874
S'1231875248'
p875
tp876
a(S'Pantera'
p877
S'Fucking Hostile'
p878
S'http://www.last.fm/music/Pantera/_/Fucking+Hostile'
p879
S'1231875079'
p880
tp881
a(S'Jamiroquai'
p882
S'Love Foolosophy'
p883
S'http://www.last.fm/music/Jamiroquai/_/Love+Foolosophy'
p884
S'1231873709'
p885
tp886
a(S'Diamond Head'
p887
S'Nothing to Lose'
p888
S'http://www.last.fm/music/Diamond+Head/_/Nothing+to+Lose'
p889
S'1231873437'
p890
tp891
a(S'Metallica'
p892
S'The House Jack Built'
p893
S'http://www.last.fm/music/Metallica/_/The+House+Jack+Built'
p894
S'1231873037'
p895
tp896
a(S'Megadeth'
p897
S'Addicted to Chaos'
p898
S'http://www.last.fm/music/Megadeth/_/Addicted+to+Chaos'
p899
S'1231872710'
p900
tp901
a(S'Megadeth'
p902
S'Breadline'
p903
S'http://www.last.fm/music/Megadeth/_/Breadline'
p904
S'1231864174'
p905
tp906
a(S'Metallica'
p907
S'King Nothing'
p908
S'http://www.last.fm/music/Metallica/_/King+Nothing'
p909
S'1231863845'
p910
tp911
a(S'Megadeth'
p912
S'Symphony of Destruction'
p913
S'http://www.last.fm/music/Megadeth/_/Symphony+of+Destruction'
p914
S'1231863604'
p915
tp916
a(S'AC/DC'
p917
S'Stormy May Day'
p918
S'http://www.last.fm/music/AC%2FDC/_/Stormy+May+Day'
p919
S'1231862979'
p920
tp921
a(S'AC/DC'
p922
S'Money Made'
p923
S'http://www.last.fm/music/AC%2FDC/_/Money+Made'
p924
S'1231862724'
p925
tp926
a(S'Megadeth'
p927
S'A Secret Place'
p928
S'http://www.last.fm/music/Megadeth/_/A+Secret+Place'
p929
S'1231862399'
p930
tp931
a(S'Pantera'
p932
S'Shattered'
p933
S'http://www.last.fm/music/Pantera/_/Shattered'
p934
S'1231862197'
p935
tp936
a(S'Megadeth'
p937
S'Addicted to Chaos'
p938
S'http://www.last.fm/music/Megadeth/_/Addicted+to+Chaos'
p939
S'1231861243'
p940
tp941
a(S'Megadeth'
p942
S'Breadline'
p943
S'http://www.last.fm/music/Megadeth/_/Breadline'
p944
S'1231860866'
p945
tp946
a(S'Alice Cooper'
p947
S'Bed of Nails'
p948
S'http://www.last.fm/music/Alice+Cooper/_/Bed+of+Nails'
p949
S'1231860605'
p950
tp951
a(S'Jamiroquai'
p952
S'Little L'
p953
S'http://www.last.fm/music/Jamiroquai/_/Little+L'
p954
S'1231860366'
p955
tp956
a(S'Metallica'
p957
S'The House Jack Built'
p958
S'http://www.last.fm/music/Metallica/_/The+House+Jack+Built'
p959
S'1231859966'
p960
tp961
a(S'Diamond Head'
p962
S'Nothing to Lose'
p963
S'http://www.last.fm/music/Diamond+Head/_/Nothing+to+Lose'
p964
S'1231855648'
p965
tp966
a(S'Jamiroquai'
p967
S'Seven Days in Sunny June'
p968
S'http://www.last.fm/music/Jamiroquai/_/Seven+Days+in+Sunny+June'
p969
S'1231855372'
p970
tp971
a(S'Corrosion of Conformity'
p972
S'Clean My Wounds'
p973
S'http://www.last.fm/music/Corrosion+of+Conformity/_/Clean+My+Wounds'
p974
S'1231855159'
p975
tp976
a(S'AC/DC'
p977
S'Decibel'
p978
S'http://www.last.fm/music/AC%2FDC/_/Decibel'
p979
S'1231854945'
p980
tp981
a(S'Pantera'
p982
S'Cemetery Gates'
p983
S'http://www.last.fm/music/Pantera/_/Cemetery+Gates'
p984
S'1231854522'
p985
tp986
a(S'Pantera'
p987
S'Cowboys from Hell'
p988
S'http://www.last.fm/music/Pantera/_/Cowboys+from+Hell'
p989
S'1231854275'
p990
tp991
a(S'Judas Priest'
p992
S'Out in the Cold'
p993
S'http://www.last.fm/music/Judas+Priest/_/Out+in+the+Cold'
p994
S'1231853674'
p995
tp996
a(S'Pantera'
p997
S'Fucking Hostile'
p998
S'http://www.last.fm/music/Pantera/_/Fucking+Hostile'
p999
S'1231853566'
p1000
tp1001
a.