(lp1
(S'Live'
p2
S'Lightning Crashes'
p3
S'http://www.last.fm/music/Live/_/Lightning+Crashes'
p4
S'1275482566'
p5
tp6
a(S'Stone Temple Pilots'
p7
S'Huckleberry Crumble'
p8
S'http://www.last.fm/music/Stone+Temple+Pilots/_/Huckleberry+Crumble'
p9
S'1275482241'
p10
tp11
a(S'Stone Temple Pilots'
p12
S'Take a Load Off'
p13
S'http://www.last.fm/music/Stone+Temple+Pilots/_/Take+a+Load+Off'
p14
S'1275482038'
p15
tp16
a(S'Them Crooked Vultures'
p17
S'Mind Eraser, No Chaser'
p18
S'http://www.last.fm/music/Them+Crooked+Vultures/_/Mind+Eraser,+No+Chaser'
p19
S'1275457627'
p20
tp21
a(S'Jamiroquai'
p22
S'2001'
p23
S'http://www.last.fm/music/Jamiroquai/_/2001'
p24
S'1275457367'
p25
tp26
a(S'Iron Maiden'
p27
S'Drifter'
p28
S'http://www.last.fm/music/Iron+Maiden/_/Drifter'
p29
S'1275457039'
p30
tp31
a(S'Stone Temple Pilots'
p32
S'"Unglued"'
p33
S'http://www.last.fm/music/Stone+Temple+Pilots/_/%22Unglued%22'
p34
S'1275456750'
p35
tp36
a(S'Nirvana'
p37
S'About a Girl'
p38
S'http://www.last.fm/music/Nirvana/_/About+a+Girl'
p39
S'1275456596'
p40
tp41
a(S'Ozzy Osbourne'
p42
S'The Ultimate Sin'
p43
S'http://www.last.fm/music/Ozzy+Osbourne/_/The+Ultimate+Sin'
p44
S'1275456378'
p45
tp46
a(S'Ozzy Osbourne'
p47
S'Shot in the Dark'
p48
S'http://www.last.fm/music/Ozzy+Osbourne/_/Shot+in+the+Dark'
p49
S'1275456147'
p50
tp51
a(S'Bee Gees'
p52
S'E.S.P.'
p53
S'http://www.last.fm/music/Bee+Gees/_/E.S.P.'
p54
S'1275455889'
p55
tp56
a(S'Bee Gees'
p57
S'E.S.P.'
p58
S'http://www.last.fm/music/Bee+Gees/_/E.S.P.'
p59
S'1275455619'
p60
tp61
a(S'Alice Cooper'
p62
S'Snakebite'
p63
S'http://www.last.fm/music/Alice+Cooper/_/Snakebite'
p64
S'1275455249'
p65
tp66
a(S'Nirvana'
p67
S"Jesus Doesn't Want Me For A Sunbeam"
p68
S'http://www.last.fm/music/Nirvana/_/Jesus+Doesn%27t+Want+Me+For+A+Sunbeam'
p69
S'1275454972'
p70
tp71
a(S'Them Crooked Vultures'
p72
S'Dead End Friends'
p73
S'http://www.last.fm/music/Them+Crooked+Vultures/_/Dead+End+Friends'
p74
S'1275454681'
p75
tp76
a(S'Lynyrd Skynyrd'
p77
S'Mean Streets'
p78
S'http://www.last.fm/music/Lynyrd+Skynyrd/_/Mean+Streets'
p79
S'1275454481'
p80
tp81
a(S'Live'
p82
S'Out To Dry'
p83
S'http://www.last.fm/music/Live/_/Out+To+Dry'
p84
S'1275454190'
p85
tp86
a(S'Soundgarden'
p87
S'Fell on Black Days'
p88
S'http://www.last.fm/music/Soundgarden/_/Fell+on+Black+Days'
p89
S'1275453990'
p90
tp91
a(S'Lynyrd Skynyrd'
p92
S'Preacher Man'
p93
S'http://www.last.fm/music/Lynyrd+Skynyrd/_/Preacher+Man'
p94
S'1275453707'
p95
tp96
a(S'Live'
p97
S'Iris'
p98
S'http://www.last.fm/music/Live/_/Iris'
p99
S'1275453375'
p100
tp101
a(S'Garbage'
p102
S'Special'
p103
S'http://www.last.fm/music/Garbage/_/Special'
p104
S'1275453136'
p105
tp106
a(S'Stone Temple Pilots'
p107
S'Hickory Dichotomy'
p108
S'http://www.last.fm/music/Stone+Temple+Pilots/_/Hickory+Dichotomy'
p109
S'1275452912'
p110
tp111
a(S'ZZ Top'
p112
S'Hairdresser'
p113
S'http://www.last.fm/music/ZZ+Top/_/Hairdresser'
p114
S'1275452676'
p115
tp116
a(S'Live'
p117
S'All I Need'
p118
S'http://www.last.fm/music/Live/_/All+I+Need'
p119
S'1275452446'
p120
tp121
a(S'Jamiroquai'
p122
S'Starchild'
p123
S'http://www.last.fm/music/Jamiroquai/_/Starchild'
p124
S'1275452253'
p125
tp126
a(S'Live'
p127
S'The Dam At Otter Creek'
p128
S'http://www.last.fm/music/Live/_/The+Dam+At+Otter+Creek'
p129
S'1275451942'
p130
tp131
a(S'Live'
p132
S'Pain Lies On The Riverside'
p133
S'http://www.last.fm/music/Live/_/Pain+Lies+On+The+Riverside'
p134
S'1275451658'
p135
tp136
a(S'Metallica'
p137
S'Hit the Lights'
p138
S'http://www.last.fm/music/Metallica/_/Hit+the+Lights'
p139
S'1275451330'
p140
tp141
a(S'Audioslave'
p142
S'Sound Of A Gun'
p143
S'http://www.last.fm/music/Audioslave/_/Sound+Of+A+Gun'
p144
S'1275451073'
p145
tp146
a(S'Them Crooked Vultures'
p147
S'Mind Eraser, No Chaser'
p148
S'http://www.last.fm/music/Them+Crooked+Vultures/_/Mind+Eraser,+No+Chaser'
p149
S'1275450804'
p150
tp151
a(S'Ozzy Osbourne'
p152
S'Denial'
p153
S'http://www.last.fm/music/Ozzy+Osbourne/_/Denial'
p154
S'1275450546'
p155
tp156
a(S'Ozzy Osbourne'
p157
S'The Ultimate Sin'
p158
S'http://www.last.fm/music/Ozzy+Osbourne/_/The+Ultimate+Sin'
p159
S'1275450211'
p160
tp161
a(S'Stone Temple Pilots'
p162
S'Take a Load Off'
p163
S'http://www.last.fm/music/Stone+Temple+Pilots/_/Take+a+Load+Off'
p164
S'1275449965'
p165
tp166
a(S'Chris Cornell'
p167
S'Climbing Up The Walls'
p168
S'http://www.last.fm/music/Chris+Cornell/_/Climbing+Up+The+Walls'
p169
S'1275449763'
p170
tp171
a(S'Queen'
p172
S'Scandal'
p173
S'http://www.last.fm/music/Queen/_/Scandal'
p174
S'1275449465'
p175
tp176
a(S'Metallica'
p177
S"Don't Tread on Me"
p178
S'http://www.last.fm/music/Metallica/_/Don%27t+Tread+on+Me'
p179
S'1275449180'
p180
tp181
a(S'Iron Maiden'
p182
S'Drifter'
p183
S'http://www.last.fm/music/Iron+Maiden/_/Drifter'
p184
S'1275448940'
p185
tp186
a(S'Stone Temple Pilots'
p187
S'"Unglued"'
p188
S'http://www.last.fm/music/Stone+Temple+Pilots/_/%22Unglued%22'
p189
S'1275448652'
p190
tp191
a(S'Nirvana'
p192
S'About a Girl'
p193
S'http://www.last.fm/music/Nirvana/_/About+a+Girl'
p194
S'1275448498'
p195
tp196
a(S'Ozzy Osbourne'
p197
S'The Ultimate Sin'
p198
S'http://www.last.fm/music/Ozzy+Osbourne/_/The+Ultimate+Sin'
p199
S'1275448216'
p200
tp201
a(S'Blues Traveler'
p202
S'Business As Usual'
p203
S'http://www.last.fm/music/Blues+Traveler/_/Business+As+Usual'
p204
S'1275447976'
p205
tp206
a(S'Alice Cooper'
p207
S'Hell Is Living Without You'
p208
S'http://www.last.fm/music/Alice+Cooper/_/Hell+Is+Living+Without+You'
p209
S'1275447658'
p210
tp211
a(S'Live'
p212
S'Meltdown'
p213
S'http://www.last.fm/music/Live/_/Meltdown'
p214
S'1275447407'
p215
tp216
a(S'Alice in Chains'
p217
S'Man in the Box'
p218
S'http://www.last.fm/music/Alice+in+Chains/_/Man+in+the+Box'
p219
S'1275447165'
p220
tp221
a(S'Queen'
p222
S'Put Out The Fire'
p223
S'http://www.last.fm/music/Queen/_/Put+Out+The+Fire'
p224
S'1275446878'
p225
tp226
a(S'Ozzy Osbourne'
p227
S'Shot in the Dark'
p228
S'http://www.last.fm/music/Ozzy+Osbourne/_/Shot+in+the+Dark'
p229
S'1275446679'
p230
tp231
a(S'Iron Maiden'
p232
S'Heaven Can Wait'
p233
S'http://www.last.fm/music/Iron+Maiden/_/Heaven+Can+Wait'
p234
S'1275446413'
p235
tp236
a(S'Stone Temple Pilots'
p237
S'Between the Lines'
p238
S'http://www.last.fm/music/Stone+Temple+Pilots/_/Between+the+Lines'
p239
S'1275445969'
p240
tp241
a(S'Alice in Chains'
p242
S'Man in the Box'
p243
S'http://www.last.fm/music/Alice+in+Chains/_/Man+in+the+Box'
p244
S'1275445799'
p245
tp246
a(S'Queen'
p247
S'Put Out The Fire'
p248
S'http://www.last.fm/music/Queen/_/Put+Out+The+Fire'
p249
S'1275427771'
p250
tp251
a(S'Ozzy Osbourne'
p252
S'Shot in the Dark'
p253
S'http://www.last.fm/music/Ozzy+Osbourne/_/Shot+in+the+Dark'
p254
S'1275427572'
p255
tp256
a(S'Them Crooked Vultures'
p257
S'Mind Eraser, No Chaser'
p258
S'http://www.last.fm/music/Them+Crooked+Vultures/_/Mind+Eraser,+No+Chaser'
p259
S'1275427303'
p260
tp261
a(S'Velvet Revolver'
p262
S'Gas and a Dollar Laugh'
p263
S'http://www.last.fm/music/Velvet+Revolver/_/Gas+and+a+Dollar+Laugh'
p264
S'1275427044'
p265
tp266
a(S'Stone Temple Pilots'
p267
S'Transmissions From a Lonely Room'
p268
S'http://www.last.fm/music/Stone+Temple+Pilots/_/Transmissions+From+a+Lonely+Room'
p269
S'1275426845'
p270
tp271
a(S'Stone Temple Pilots'
p272
S'Pruno'
p273
S'http://www.last.fm/music/Stone+Temple+Pilots/_/Pruno'
p274
S'1275426614'
p275
tp276
a(S'Alice Cooper'
p277
S'Bad Place Alone'
p278
S'http://www.last.fm/music/Alice+Cooper/_/Bad+Place+Alone'
p279
S'1275426312'
p280
tp281
a(S'Metallica'
p282
S'Nothing Else Matters'
p283
S'http://www.last.fm/music/Metallica/_/Nothing+Else+Matters'
p284
S'1275425992'
p285
tp286
a(S'Daft Punk'
p287
S'Digital Love'
p288
S'http://www.last.fm/music/Daft+Punk/_/Digital+Love'
p289
S'1275425315'
p290
tp291
a(S'Daft Punk'
p292
S'High Life'
p293
S'http://www.last.fm/music/Daft+Punk/_/High+Life'
p294
S'1275425017'
p295
tp296
a(S'Live'
p297
S'Deep Enough'
p298
S'http://www.last.fm/music/Live/_/Deep+Enough'
p299
S'1275424868'
p300
tp301
a(S'Lynyrd Skynyrd'
p302
S'That Smell'
p303
S'http://www.last.fm/music/Lynyrd+Skynyrd/_/That+Smell'
p304
S'1275424668'
p305
tp306
a(S'ZZ Top'
p307
S'World of Swirl'
p308
S'http://www.last.fm/music/ZZ+Top/_/World+of+Swirl'
p309
S'1275424317'
p310
tp311
a(S'Nirvana'
p312
S'Stain'
p313
S'http://www.last.fm/music/Nirvana/_/Stain'
p314
S'1275424068'
p315
tp316
a(S'Judas Priest'
p317
S'Turbo Lover'
p318
S'http://www.last.fm/music/Judas+Priest/_/Turbo+Lover'
p319
S'1275423908'
p320
tp321
a(S'Stone Temple Pilots'
p322
S'Take a Load Off'
p323
S'http://www.last.fm/music/Stone+Temple+Pilots/_/Take+a+Load+Off'
p324
S'1275423555'
p325
tp326
a(S'Alice in Chains'
p327
S'Them Bones'
p328
S'http://www.last.fm/music/Alice+in+Chains/_/Them+Bones'
p329
S'1275423318'
p330
tp331
a(S'Live'
p332
S'Like A Soldier'
p333
S'http://www.last.fm/music/Live/_/Like+A+Soldier'
p334
S'1275423132'
p335
tp336
a(S'The Cult'
p337
S'Rain'
p338
S'http://www.last.fm/music/The+Cult/_/Rain'
p339
S'1275422939'
p340
tp341
a(S'Black Sabbath'
p342
S'Hole in the Sky'
p343
S'http://www.last.fm/music/Black+Sabbath/_/Hole+in+the+Sky'
p344
S'1275422703'
p345
tp346
a(S'Queen'
p347
S'Back Chat'
p348
S'http://www.last.fm/music/Queen/_/Back+Chat'
p349
S'1275422432'
p350
tp351
a(S'Alice Cooper'
p352
S'Spark In The Dark'
p353
S'http://www.last.fm/music/Alice+Cooper/_/Spark+In+The+Dark'
p354
S'1275422156'
p355
tp356
a(S'Iron Maiden'
p357
S'Heaven Can Wait'
p358
S'http://www.last.fm/music/Iron+Maiden/_/Heaven+Can+Wait'
p359
S'1275421924'
p360
tp361
a(S'Stone Temple Pilots'
p362
S'Between the Lines'
p363
S'http://www.last.fm/music/Stone+Temple+Pilots/_/Between+the+Lines'
p364
S'1275421480'
p365
tp366
a(S'Ozzy Osbourne'
p367
S'Civilize the Universe'
p368
S'http://www.last.fm/music/Ozzy+Osbourne/_/Civilize+the+Universe'
p369
S'1275421296'
p370
tp371
a(S'AC/DC'
p372
S'Soul Stripper'
p373
S'http://www.last.fm/music/AC%2FDC/_/Soul+Stripper'
p374
S'1275421006'
p375
tp376
a(S'Live'
p377
S'Out To Dry'
p378
S'http://www.last.fm/music/Live/_/Out+To+Dry'
p379
S'1275420605'
p380
tp381
a(S'Soundgarden'
p382
S'Fell on Black Days'
p383
S'http://www.last.fm/music/Soundgarden/_/Fell+on+Black+Days'
p384
S'1275420404'
p385
tp386
a(S'Lynyrd Skynyrd'
p387
S'Preacher Man'
p388
S'http://www.last.fm/music/Lynyrd+Skynyrd/_/Preacher+Man'
p389
S'1275420121'
p390
tp391
a(S'Alice in Chains'
p392
S'Man in the Box'
p393
S'http://www.last.fm/music/Alice+in+Chains/_/Man+in+the+Box'
p394
S'1275419829'
p395
tp396
a(S'Ozzy Osbourne'
p397
S'Shot in the Dark'
p398
S'http://www.last.fm/music/Ozzy+Osbourne/_/Shot+in+the+Dark'
p399
S'1275419535'
p400
tp401
a(S'Ozzy Osbourne'
p402
S'Never Know Why'
p403
S'http://www.last.fm/music/Ozzy+Osbourne/_/Never+Know+Why'
p404
S'1275419240'
p405
tp406
a(S'Alice in Chains'
p407
S'Black Gives Way to Blue'
p408
S'http://www.last.fm/music/Alice+in+Chains/_/Black+Gives+Way+to+Blue'
p409
S'1275418972'
p410
tp411
a(S'Black Sabbath'
p412
S'N.I.B.'
p413
S'http://www.last.fm/music/Black+Sabbath/_/N.I.B.'
p414
S'1275418789'
p415
tp416
a(S'Alice in Chains'
p417
S'Would?'
p418
S'http://www.last.fm/music/Alice+in+Chains/_/Would%3F'
p419
S'1275418422'
p420
tp421
a(S'Daft Punk'
p422
S'One More Time'
p423
S'http://www.last.fm/music/Daft+Punk/_/One+More+Time'
p424
S'1275418214'
p425
tp426
a(S'Queens of the Stone Age'
p427
S'Make It Wit Chu'
p428
S'http://www.last.fm/music/Queens+of+the+Stone+Age/_/Make+It+Wit+Chu'
p429
S'1275416559'
p430
tp431
a(S'Alice in Chains'
p432
S'We Die Young (Demo)'
p433
S'http://www.last.fm/music/Alice+in+Chains/_/We+Die+Young+(Demo)'
p434
S'1275416268'
p435
tp436
a(S'Nirvana'
p437
S'Plateau'
p438
S'http://www.last.fm/music/Nirvana/_/Plateau'
p439
S'1275415248'
p440
tp441
a(S'Metallica'
p442
S'Through the Never'
p443
S'http://www.last.fm/music/Metallica/_/Through+the+Never'
p444
S'1275415030'
p445
tp446
a(S'Velvet Revolver'
p447
S'Superhuman'
p448
S'http://www.last.fm/music/Velvet+Revolver/_/Superhuman'
p449
S'1275414786'
p450
tp451
a(S'Soundgarden'
p452
S'Limo Wreck'
p453
S'http://www.last.fm/music/Soundgarden/_/Limo+Wreck'
p454
S'1275413921'
p455
tp456
a(S'Nirvana'
p457
S'About a Girl'
p458
S'http://www.last.fm/music/Nirvana/_/About+a+Girl'
p459
S'1275413574'
p460
tp461
a(S'Foreigner'
p462
S'That Was Yesterday'
p463
S'http://www.last.fm/music/Foreigner/_/That+Was+Yesterday'
p464
S'1275413397'
p465
tp466
a(S'Jerry Cantrell'
p467
S'Satisfy'
p468
S'http://www.last.fm/music/Jerry+Cantrell/_/Satisfy'
p469
S'1275413171'
p470
tp471
a(S'Stone Temple Pilots'
p472
S'Hazy Daze'
p473
S'http://www.last.fm/music/Stone+Temple+Pilots/_/Hazy+Daze'
p474
S'1275412957'
p475
tp476
a(S'Audioslave'
p477
S'Wide Awake'
p478
S'http://www.last.fm/music/Audioslave/_/Wide+Awake'
p479
S'1275412778'
p480
tp481
a(S'Live'
p482
S'The Distance'
p483
S'http://www.last.fm/music/Live/_/The+Distance'
p484
S'1275412455'
p485
tp486
a(S'Nirvana'
p487
S'Lounge Act'
p488
S'http://www.last.fm/music/Nirvana/_/Lounge+Act'
p489
S'1275412213'
p490
tp491
a(S'Ozzy Osbourne'
p492
S'Denial'
p493
S'http://www.last.fm/music/Ozzy+Osbourne/_/Denial'
p494
S'1275412057'
p495
tp496
a(S'Live'
p497
S'Out To Dry'
p498
S'http://www.last.fm/music/Live/_/Out+To+Dry'
p499
S'1275411695'
p500
tp501
a(S'Soundgarden'
p502
S'Fell on Black Days'
p503
S'http://www.last.fm/music/Soundgarden/_/Fell+on+Black+Days'
p504
S'1275411495'
p505
tp506
a(S'Lynyrd Skynyrd'
p507
S'Preacher Man'
p508
S'http://www.last.fm/music/Lynyrd+Skynyrd/_/Preacher+Man'
p509
S'1275411089'
p510
tp511
a(S'Stone Temple Pilots'
p512
S'And So I Know'
p513
S'http://www.last.fm/music/Stone+Temple+Pilots/_/And+So+I+Know'
p514
S'1275410801'
p515
tp516
a(S'Live'
p517
S'Mother Earth Is A Vicious Crowd'
p518
S'http://www.last.fm/music/Live/_/Mother+Earth+Is+A+Vicious+Crowd'
p519
S'1275410562'
p520
tp521
a(S'Black Sabbath'
p522
S'A National Acrobat'
p523
S'http://www.last.fm/music/Black+Sabbath/_/A+National+Acrobat'
p524
S'1275406001'
p525
tp526
a(S'Black Sabbath'
p527
S'Evil Woman'
p528
S'http://www.last.fm/music/Black+Sabbath/_/Evil+Woman'
p529
S'1275405624'
p530
tp531
a(S'Iron Maiden'
p532
S'Murders In the Rue Morgue'
p533
S'http://www.last.fm/music/Iron+Maiden/_/Murders+In+the+Rue+Morgue'
p534
S'1275405419'
p535
tp536
a(S'Nirvana'
p537
S'(New Wave) Polly'
p538
S'http://www.last.fm/music/Nirvana/_/(New+Wave)+Polly'
p539
S'1275405129'
p540
tp541
a(S'Stone Temple Pilots'
p542
S'Huckleberry Crumble'
p543
S'http://www.last.fm/music/Stone+Temple+Pilots/_/Huckleberry+Crumble'
p544
S'1275405018'
p545
tp546
a(S'Live'
p547
S'Iris'
p548
S'http://www.last.fm/music/Live/_/Iris'
p549
S'1275404800'
p550
tp551
a(S'Garbage'
p552
S'Special'
p553
S'http://www.last.fm/music/Garbage/_/Special'
p554
S'1275404561'
p555
tp556
a(S'Stone Temple Pilots'
p557
S'Hickory Dichotomy'
p558
S'http://www.last.fm/music/Stone+Temple+Pilots/_/Hickory+Dichotomy'
p559
S'1275404337'
p560
tp561
a(S'Stone Temple Pilots'
p562
S'Take a Load Off'
p563
S'http://www.last.fm/music/Stone+Temple+Pilots/_/Take+a+Load+Off'
p564
S'1275404127'
p565
tp566
a(S'Live'
p567
S'Night of Nights'
p568
S'http://www.last.fm/music/Live/_/Night+of+Nights'
p569
S'1275403909'
p570
tp571
a(S'Alice in Chains'
p572
S'Frogs'
p573
S'http://www.last.fm/music/Alice+in+Chains/_/Frogs'
p574
S'1275403696'
p575
tp576
a(S'Blues Traveler'
p577
S'Business As Usual'
p578
S'http://www.last.fm/music/Blues+Traveler/_/Business+As+Usual'
p579
S'1275402557'
p580
tp581
a(S'Alice Cooper'
p582
S'Hell Is Living Without You'
p583
S'http://www.last.fm/music/Alice+Cooper/_/Hell+Is+Living+Without+You'
p584
S'1275402239'
p585
tp586
a(S'Live'
p587
S'Meltdown'
p588
S'http://www.last.fm/music/Live/_/Meltdown'
p589
S'1275401988'
p590
tp591
a(S'Alice in Chains'
p592
S'Man in the Box'
p593
S'http://www.last.fm/music/Alice+in+Chains/_/Man+in+the+Box'
p594
S'1275401735'
p595
tp596
a(S'Ozzy Osbourne'
p597
S'Shot in the Dark'
p598
S'http://www.last.fm/music/Ozzy+Osbourne/_/Shot+in+the+Dark'
p599
S'1275401432'
p600
tp601
a(S'Queen'
p602
S'Back Chat'
p603
S'http://www.last.fm/music/Queen/_/Back+Chat'
p604
S'1275399420'
p605
tp606
a(S'Alice Cooper'
p607
S'Spark In The Dark'
p608
S'http://www.last.fm/music/Alice+Cooper/_/Spark+In+The+Dark'
p609
S'1275399144'
p610
tp611
a(S'Iron Maiden'
p612
S'Heaven Can Wait'
p613
S'http://www.last.fm/music/Iron+Maiden/_/Heaven+Can+Wait'
p614
S'1275398911'
p615
tp616
a(S'Stone Temple Pilots'
p617
S'Between the Lines'
p618
S'http://www.last.fm/music/Stone+Temple+Pilots/_/Between+the+Lines'
p619
S'1275398467'
p620
tp621
a(S'Ozzy Osbourne'
p622
S'Secret Loser'
p623
S'http://www.last.fm/music/Ozzy+Osbourne/_/Secret+Loser'
p624
S'1275346880'
p625
tp626
a(S'Bee Gees'
p627
S'E.S.P.'
p628
S'http://www.last.fm/music/Bee+Gees/_/E.S.P.'
p629
S'1275346482'
p630
tp631
a(S'Stone Temple Pilots'
p632
S'Take a Load Off'
p633
S'http://www.last.fm/music/Stone+Temple+Pilots/_/Take+a+Load+Off'
p634
S'1275346140'
p635
tp636
a(S'Ozzy Osbourne'
p637
S'The Ultimate Sin'
p638
S'http://www.last.fm/music/Ozzy+Osbourne/_/The+Ultimate+Sin'
p639
S'1275345808'
p640
tp641
a(S'Ozzy Osbourne'
p642
S'Shot in the Dark'
p643
S'http://www.last.fm/music/Ozzy+Osbourne/_/Shot+in+the+Dark'
p644
S'1275345584'
p645
tp646
a(S'Ozzy Osbourne'
p647
S"You're No Different"
p648
S'http://www.last.fm/music/Ozzy+Osbourne/_/You%27re+No+Different'
p649
S'1275345426'
p650
tp651
a(S'The Cult'
p652
S'Rain'
p653
S'http://www.last.fm/music/The+Cult/_/Rain'
p654
S'1275345114'
p655
tp656
a(S'Alice in Chains'
p657
S'What The Hell Have I'
p658
S'http://www.last.fm/music/Alice+in+Chains/_/What+The+Hell+Have+I'
p659
S'1275344852'
p660
tp661
a(S'Soundgarden'
p662
S'Slaves & Bulldozers'
p663
S'http://www.last.fm/music/Soundgarden/_/Slaves+&+Bulldozers'
p664
S'1275344605'
p665
tp666
a(S'Stone Temple Pilots'
p667
S'Bi-Polar Bear'
p668
S'http://www.last.fm/music/Stone+Temple+Pilots/_/Bi-Polar+Bear'
p669
S'1275344187'
p670
tp671
a(S'Ozzy Osbourne'
p672
S'The Ultimate Sin'
p673
S'http://www.last.fm/music/Ozzy+Osbourne/_/The+Ultimate+Sin'
p674
S'1275343881'
p675
tp676
a(S'Queens of the Stone Age'
p677
S'Six Shooter'
p678
S'http://www.last.fm/music/Queens+of+the+Stone+Age/_/Six+Shooter'
p679
S'1275343658'
p680
tp681
a(S'Ozzy Osbourne'
p682
S'Mr. Tinkertrain'
p683
S'http://www.last.fm/music/Ozzy+Osbourne/_/Mr.+Tinkertrain'
p684
S'1275343585'
p685
tp686
a(S'Ozzy Osbourne'
p687
S'Shot in the Dark'
p688
S'http://www.last.fm/music/Ozzy+Osbourne/_/Shot+in+the+Dark'
p689
S'1275343187'
p690
tp691
a(S'Alice Cooper'
p692
S'Perfect'
p693
S'http://www.last.fm/music/Alice+Cooper/_/Perfect'
p694
S'1275342228'
p695
tp696
a(S'Stone Temple Pilots'
p697
S'Bagman'
p698
S'http://www.last.fm/music/Stone+Temple+Pilots/_/Bagman'
p699
S'1275342017'
p700
tp701
a(S'Ozzy Osbourne'
p702
S'Denial'
p703
S'http://www.last.fm/music/Ozzy+Osbourne/_/Denial'
p704
S'1275341852'
p705
tp706
a(S'Ozzy Osbourne'
p707
S'Shot in the Dark'
p708
S'http://www.last.fm/music/Ozzy+Osbourne/_/Shot+in+the+Dark'
p709
S'1275341530'
p710
tp711
a(S'Black Sabbath'
p712
S'The Warning'
p713
S'http://www.last.fm/music/Black+Sabbath/_/The+Warning'
p714
S'1275341184'
p715
tp716
a(S'Audioslave'
p717
S'The Worm'
p718
S'http://www.last.fm/music/Audioslave/_/The+Worm'
p719
S'1275340470'
p720
tp721
a(S'Stone Temple Pilots'
p722
S'Art School Girl'
p723
S'http://www.last.fm/music/Stone+Temple+Pilots/_/Art+School+Girl'
p724
S'1275340233'
p725
tp726
a(S'Live'
p727
S'Feel The Quiet River Rage'
p728
S'http://www.last.fm/music/Live/_/Feel+The+Quiet+River+Rage'
p729
S'1275340017'
p730
tp731
a(S'Jamiroquai'
p732
S'Love Foolosophy'
p733
S'http://www.last.fm/music/Jamiroquai/_/Love+Foolosophy'
p734
S'1275339741'
p735
tp736
a(S'Jamiroquai'
p737
S'You Give Me Something'
p738
S'http://www.last.fm/music/Jamiroquai/_/You+Give+Me+Something'
p739
S'1275339512'
p740
tp741
a(S'Alice in Chains'
p742
S'Angry Chair'
p743
S'http://www.last.fm/music/Alice+in+Chains/_/Angry+Chair'
p744
S'1275339284'
p745
tp746
a(S'Ozzy Osbourne'
p747
S'Secret Loser'
p748
S'http://www.last.fm/music/Ozzy+Osbourne/_/Secret+Loser'
p749
S'1275338996'
p750
tp751
a(S'Rainbow'
p752
S"If You Don't Like Rock 'n' Roll"
p753
S'http://www.last.fm/music/Rainbow/_/If+You+Don%27t+Like+Rock+%27n%27+Roll'
p754
S'1275338747'
p755
tp756
a(S'KC and The Sunshine Band'
p757
S'Boogie Shoes'
p758
S'http://www.last.fm/music/KC+and+The+Sunshine+Band/_/Boogie+Shoes'
p759
S'1275338646'
p760
tp761
a(S'Diamond Head'
p762
S'Muddy Waters'
p763
S'http://www.last.fm/music/Diamond+Head/_/Muddy+Waters'
p764
S'1275338516'
p765
tp766
a(S'Soundgarden'
p767
S'Room a Thousand Years Wide'
p768
S'http://www.last.fm/music/Soundgarden/_/Room+a+Thousand+Years+Wide'
p769
S'1275338229'
p770
tp771
a(S'Iron Maiden'
p772
S'Deja Vu'
p773
S'http://www.last.fm/music/Iron+Maiden/_/Deja+Vu'
p774
S'1275337643'
p775
tp776
a(S'Queen'
p777
S'More Of That Jazz'
p778
S'http://www.last.fm/music/Queen/_/More+Of+That+Jazz'
p779
S'1275337347'
p780
tp781
a(S'Queens of the Stone Age'
p782
S'Misfit Love'
p783
S'http://www.last.fm/music/Queens+of+the+Stone+Age/_/Misfit+Love'
p784
S'1275333933'
p785
tp786
a(S'Yes'
p787
S'Changes'
p788
S'http://www.last.fm/music/Yes/_/Changes'
p789
S'1275333585'
p790
tp791
a(S'Army Of Anyone'
p792
S'Generation'
p793
S'http://www.last.fm/music/Army+Of+Anyone/_/Generation'
p794
S'1275332266'
p795
tp796
a(S'Audioslave'
p797
S'Show Me How To Live'
p798
S'http://www.last.fm/music/Audioslave/_/Show+Me+How+To+Live'
p799
S'1275332045'
p800
tp801
a(S'Ozzy Osbourne'
p802
S"My Jekyll Doesn't Hide"
p803
S'http://www.last.fm/music/Ozzy+Osbourne/_/My+Jekyll+Doesn%27t+Hide'
p804
S'1275331767'
p805
tp806
a(S'Jerry Cantrell'
p807
S'Cold Piece'
p808
S'http://www.last.fm/music/Jerry+Cantrell/_/Cold+Piece'
p809
S'1275331281'
p810
tp811
a(S'Muddy Waters'
p812
S"Baby Please Don't Go"
p813
S'http://www.last.fm/music/Muddy+Waters/_/Baby+Please+Don%27t+Go'
p814
S'1275330775'
p815
tp816
a(S'Iron Maiden'
p817
S'Wrathchild'
p818
S'http://www.last.fm/music/Iron+Maiden/_/Wrathchild'
p819
S'1275330579'
p820
tp821
a(S'Them Crooked Vultures'
p822
S'Mind Eraser, No Chaser'
p823
S'http://www.last.fm/music/Them+Crooked+Vultures/_/Mind+Eraser,+No+Chaser'
p824
S'1275330405'
p825
tp826
a(S'Velvet Revolver'
p827
S'She Builds Quick Machines'
p828
S'http://www.last.fm/music/Velvet+Revolver/_/She+Builds+Quick+Machines'
p829
S'1275330158'
p830
tp831
a(S'Stone Temple Pilots'
p832
S'Sin'
p833
S'http://www.last.fm/music/Stone+Temple+Pilots/_/Sin'
p834
S'1275329412'
p835
tp836
a(S'Alice Cooper'
p837
S'Die For You'
p838
S'http://www.last.fm/music/Alice+Cooper/_/Die+For+You'
p839
S'1275329041'
p840
tp841
a(S'Queen'
p842
S'Cool Cat'
p843
S'http://www.last.fm/music/Queen/_/Cool+Cat'
p844
S'1275328780'
p845
tp846
a(S'Ozzy Osbourne'
p847
S'Trap Door'
p848
S'http://www.last.fm/music/Ozzy+Osbourne/_/Trap+Door'
p849
S'1275328567'
p850
tp851
a(S'The Cult'
p852
S'She Sells Sanctuary'
p853
S'http://www.last.fm/music/The+Cult/_/She+Sells+Sanctuary'
p854
S'1275328320'
p855
tp856
a(S'Soundgarden'
p857
S'Mind Riot'
p858
S'http://www.last.fm/music/Soundgarden/_/Mind+Riot'
p859
S'1275327957'
p860
tp861
a(S'The Rolling Stones'
p862
S'Happy'
p863
S'http://www.last.fm/music/The+Rolling+Stones/_/Happy'
p864
S'1275327668'
p865
tp866
a(S'Alice in Chains'
p867
S'We Die Young'
p868
S'http://www.last.fm/music/Alice+in+Chains/_/We+Die+Young'
p869
S'1275327457'
p870
tp871
a(S'Alice in Chains'
p872
S'Check My Brain'
p873
S'http://www.last.fm/music/Alice+in+Chains/_/Check+My+Brain'
p874
S'1275327304'
p875
tp876
a(S'Stone Temple Pilots'
p877
S'Between the Lines'
p878
S'http://www.last.fm/music/Stone+Temple+Pilots/_/Between+the+Lines'
p879
S'1275326006'
p880
tp881
a(S'Stone Temple Pilots'
p882
S'Take a Load Off'
p883
S'http://www.last.fm/music/Stone+Temple+Pilots/_/Take+a+Load+Off'
p884
S'1275325827'
p885
tp886
a(S'Audioslave'
p887
S'Exploder'
p888
S'http://www.last.fm/music/Audioslave/_/Exploder'
p889
S'1275325520'
p890
tp891
a(S'Blues Traveler'
p892
S'Most Precarious'
p893
S'http://www.last.fm/music/Blues+Traveler/_/Most+Precarious'
p894
S'1275325326'
p895
tp896
a(S'Nirvana'
p897
S'All Apologies'
p898
S'http://www.last.fm/music/Nirvana/_/All+Apologies'
p899
S'1275325118'
p900
tp901
a(S'Audioslave'
p902
S'Be Yourself'
p903
S'http://www.last.fm/music/Audioslave/_/Be+Yourself'
p904
S'1275324855'
p905
tp906
a(S'Stone Temple Pilots'
p907
S'And So I Know'
p908
S'http://www.last.fm/music/Stone+Temple+Pilots/_/And+So+I+Know'
p909
S'1275324573'
p910
tp911
a(S'Blues Traveler'
p912
S'Look Around'
p913
S'http://www.last.fm/music/Blues+Traveler/_/Look+Around'
p914
S'1275324336'
p915
tp916
a(S'Metallica'
p917
S'The God That Failed'
p918
S'http://www.last.fm/music/Metallica/_/The+God+That+Failed'
p919
S'1275323994'
p920
tp921
a(S'ZZ Top'
p922
S'Everything'
p923
S'http://www.last.fm/music/ZZ+Top/_/Everything'
p924
S'1275323685'
p925
tp926
a(S'Daft Punk'
p927
S"Rollin' & Scratchin'"
p928
S'http://www.last.fm/music/Daft+Punk/_/Rollin%27+&+Scratchin%27'
p929
S'1275323451'
p930
tp931
a(S'Live'
p932
S"The Dolphin's Cry"
p933
S'http://www.last.fm/music/Live/_/The+Dolphin%27s+Cry'
p934
S'1275323002'
p935
tp936
a(S'Shemekia Copeland'
p937
S'Ghetto Child'
p938
S'http://www.last.fm/music/Shemekia+Copeland/_/Ghetto+Child'
p939
S'1275322737'
p940
tp941
a(S'Alice Cooper'
p942
S'Sideshow'
p943
S'http://www.last.fm/music/Alice+Cooper/_/Sideshow'
p944
S'1275322490'
p945
tp946
a(S'Alice in Chains'
p947
S'Sickman'
p948
S'http://www.last.fm/music/Alice+in+Chains/_/Sickman'
p949
S'1275322091'
p950
tp951
a(S'Soundgarden'
p952
S'Black Hole Sun'
p953
S'http://www.last.fm/music/Soundgarden/_/Black+Hole+Sun'
p954
S'1275321761'
p955
tp956
a(S'Nirvana'
p957
S'The Man Who Sold the World'
p958
S'http://www.last.fm/music/Nirvana/_/The+Man+Who+Sold+the+World'
p959
S'1275321443'
p960
tp961
a(S'The Rolling Stones'
p962
S'Sway'
p963
S'http://www.last.fm/music/The+Rolling+Stones/_/Sway'
p964
S'1275321182'
p965
tp966
a(S'Blues Traveler'
p967
S'Fallible'
p968
S'http://www.last.fm/music/Blues+Traveler/_/Fallible'
p969
S'1275320950'
p970
tp971
a(S'Garbage'
p972
S'Only Happy When It Rains'
p973
S'http://www.last.fm/music/Garbage/_/Only+Happy+When+It+Rains'
p974
S'1275320663'
p975
tp976
a(S'The Rolling Stones'
p977
S'Soul Survivor'
p978
S'http://www.last.fm/music/The+Rolling+Stones/_/Soul+Survivor'
p979
S'1275320420'
p980
tp981
a(S'Live'
p982
S'Run Away'
p983
S'http://www.last.fm/music/Live/_/Run+Away'
p984
S'1275320191'
p985
tp986
a(S'Alice in Chains'
p987
S'Am I Inside'
p988
S'http://www.last.fm/music/Alice+in+Chains/_/Am+I+Inside'
p989
S'1275319958'
p990
tp991
a(S'Alice in Chains'
p992
S'Junkhead'
p993
S'http://www.last.fm/music/Alice+in+Chains/_/Junkhead'
p994
S'1275319566'
p995
tp996
a(S'Yes'
p997
S'Changes'
p998
S'http://www.last.fm/music/Yes/_/Changes'
p999
S'1275319205'
p1000
tp1001
a.