(lp1
(S'R.E.M.'
p2
S'Losing My Religion'
p3
S'http://www.last.fm/music/R.E.M./_/Losing+My+Religion'
p4
S'1365170650'
p5
tp6
a(S'Scorpions'
p7
S'Alien Nation'
p8
S'http://www.last.fm/music/Scorpions/_/Alien+Nation'
p9
S'1365170347'
p10
tp11
a(S'Soundgarden'
p12
S'Let Me Drown'
p13
S'http://www.last.fm/music/Soundgarden/_/Let+Me+Drown'
p14
S'1365170114'
p15
tp16
a(S'Scorpions'
p17
S'Big City Nights'
p18
S'http://www.last.fm/music/Scorpions/_/Big+City+Nights'
p19
S'1365169852'
p20
tp21
a(S'Slash feat. Alice Cooper & Nicole Scherzinger'
p22
S"Baby Can't Drive"
p23
S'http://www.last.fm/music/Slash+feat.+Alice+Cooper+&+Nicole+Scherzinger/_/Baby+Can%27t+Drive'
p24
S'1365169660'
p25
tp26
a(S'Scorpions'
p27
S'Big City Nights'
p28
S'http://www.last.fm/music/Scorpions/_/Big+City+Nights'
p29
S'1365169407'
p30
tp31
a(S'Genesis'
p32
S"I Can't Dance"
p33
S'http://www.last.fm/music/Genesis/_/I+Can%27t+Dance'
p34
S'1365169165'
p35
tp36
a(S'Super Furry Animals'
p37
S'Bad Behaviour'
p38
S'http://www.last.fm/music/Super+Furry+Animals/_/Bad+Behaviour'
p39
S'1365168899'
p40
tp41
a(S'Black Sabbath'
p42
S'Iron Man'
p43
S'http://www.last.fm/music/Black+Sabbath/_/Iron+Man'
p44
S'1365168541'
p45
tp46
a(S'Stone Temple Pilots'
p47
S"Trippin' on a Hole in a Paper Heart"
p48
S'http://www.last.fm/music/Stone+Temple+Pilots/_/Trippin%27+on+a+Hole+in+a+Paper+Heart'
p49
S'1365168363'
p50
tp51
a(S'Soundgarden'
p52
S"Eyelid's Mouth"
p53
S'http://www.last.fm/music/Soundgarden/_/Eyelid%27s+Mouth'
p54
S'1365168082'
p55
tp56
a(S'Stone Temple Pilots'
p57
S'Take a Load Off'
p58
S'http://www.last.fm/music/Stone+Temple+Pilots/_/Take+a+Load+Off'
p59
S'1365167890'
p60
tp61
a(S'Linkin Park'
p62
S'Lost in the Echo'
p63
S'http://www.last.fm/music/Linkin+Park/_/Lost+in+the+Echo'
p64
S'1365167684'
p65
tp66
a(S'Linkin Park'
p67
S'Castle of Glass'
p68
S'http://www.last.fm/music/Linkin+Park/_/Castle+of+Glass'
p69
S'1365167478'
p70
tp71
a(S'Stone Temple Pilots'
p72
S'Huckleberry Crumble'
p73
S'http://www.last.fm/music/Stone+Temple+Pilots/_/Huckleberry+Crumble'
p74
S'1365167285'
p75
tp76
a(S'Stone Temple Pilots'
p77
S'Sex Type Thing'
p78
S'http://www.last.fm/music/Stone+Temple+Pilots/_/Sex+Type+Thing'
p79
S'1365167066'
p80
tp81
a(S'Oasis'
p82
S'Acquiesce'
p83
S'http://www.last.fm/music/Oasis/_/Acquiesce'
p84
S'1365166800'
p85
tp86
a(S'Slash'
p87
S'Paradise City (feat. Fergie & Cypress Hill) (Uk Bonus Track)'
p88
S'http://www.last.fm/music/Slash/_/Paradise+City+(feat.+Fergie+&+Cypress+Hill)+(Uk+Bonus+Track)'
p89
S'1365106978'
p90
tp91
a(S'Oasis'
p92
S'Acquiesce'
p93
S'http://www.last.fm/music/Oasis/_/Acquiesce'
p94
S'1365106290'
p95
tp96
a(S'Scorpions'
p97
S'Big City Nights'
p98
S'http://www.last.fm/music/Scorpions/_/Big+City+Nights'
p99
S'1365105578'
p100
tp101
a(S'Slash'
p102
S'Paradise City (feat. Fergie & Cypress Hill) (Uk Bonus Track)'
p103
S'http://www.last.fm/music/Slash/_/Paradise+City+(feat.+Fergie+&+Cypress+Hill)+(Uk+Bonus+Track)'
p104
S'1365105058'
p105
tp106
a(S'Oasis'
p107
S'Acquiesce'
p108
S'http://www.last.fm/music/Oasis/_/Acquiesce'
p109
S'1365104350'
p110
tp111
a(S'Oasis'
p112
S'Acquiesce'
p113
S'http://www.last.fm/music/Oasis/_/Acquiesce'
p114
S'1365102811'
p115
tp116
a(S'Slash'
p117
S'Paradise City (feat. Fergie & Cypress Hill) (Uk Bonus Track)'
p118
S'http://www.last.fm/music/Slash/_/Paradise+City+(feat.+Fergie+&+Cypress+Hill)+(Uk+Bonus+Track)'
p119
S'1365102033'
p120
tp121
a(S'Oasis'
p122
S'Acquiesce'
p123
S'http://www.last.fm/music/Oasis/_/Acquiesce'
p124
S'1365100813'
p125
tp126
a(S'Slash'
p127
S'Paradise City (feat. Fergie & Cypress Hill) (Uk Bonus Track)'
p128
S'http://www.last.fm/music/Slash/_/Paradise+City+(feat.+Fergie+&+Cypress+Hill)+(Uk+Bonus+Track)'
p129
S'1365100243'
p130
tp131
a(S'Oasis'
p132
S'Acquiesce'
p133
S'http://www.last.fm/music/Oasis/_/Acquiesce'
p134
S'1365094419'
p135
tp136
a(S'Slash'
p137
S'Paradise City (feat. Fergie & Cypress Hill) (Uk Bonus Track)'
p138
S'http://www.last.fm/music/Slash/_/Paradise+City+(feat.+Fergie+&+Cypress+Hill)+(Uk+Bonus+Track)'
p139
S'1365093321'
p140
tp141
a(S'Oasis'
p142
S'Acquiesce'
p143
S'http://www.last.fm/music/Oasis/_/Acquiesce'
p144
S'1365093052'
p145
tp146
a(S'Slash'
p147
S'Paradise City (feat. Fergie & Cypress Hill) (Uk Bonus Track)'
p148
S'http://www.last.fm/music/Slash/_/Paradise+City+(feat.+Fergie+&+Cypress+Hill)+(Uk+Bonus+Track)'
p149
S'1365091875'
p150
tp151
a(S'Oasis'
p152
S'Acquiesce'
p153
S'http://www.last.fm/music/Oasis/_/Acquiesce'
p154
S'1365091606'
p155
tp156
a(S'Slash'
p157
S'Paradise City (feat. Fergie & Cypress Hill) (Uk Bonus Track)'
p158
S'http://www.last.fm/music/Slash/_/Paradise+City+(feat.+Fergie+&+Cypress+Hill)+(Uk+Bonus+Track)'
p159
S'1365088108'
p160
tp161
a(S'Oasis'
p162
S'Acquiesce'
p163
S'http://www.last.fm/music/Oasis/_/Acquiesce'
p164
S'1365087839'
p165
tp166
a(S'Slash'
p167
S'Paradise City (feat. Fergie & Cypress Hill) (Uk Bonus Track)'
p168
S'http://www.last.fm/music/Slash/_/Paradise+City+(feat.+Fergie+&+Cypress+Hill)+(Uk+Bonus+Track)'
p169
S'1365086758'
p170
tp171
a(S'Oasis'
p172
S'Acquiesce'
p173
S'http://www.last.fm/music/Oasis/_/Acquiesce'
p174
S'1365086488'
p175
tp176
a(S'Slash'
p177
S'Paradise City (feat. Fergie & Cypress Hill) (Uk Bonus Track)'
p178
S'http://www.last.fm/music/Slash/_/Paradise+City+(feat.+Fergie+&+Cypress+Hill)+(Uk+Bonus+Track)'
p179
S'1365085407'
p180
tp181
a(S'Oasis'
p182
S'Acquiesce'
p183
S'http://www.last.fm/music/Oasis/_/Acquiesce'
p184
S'1365085138'
p185
tp186
a(S'Slash'
p187
S'Paradise City (feat. Fergie & Cypress Hill) (Uk Bonus Track)'
p188
S'http://www.last.fm/music/Slash/_/Paradise+City+(feat.+Fergie+&+Cypress+Hill)+(Uk+Bonus+Track)'
p189
S'1365084061'
p190
tp191
a(S'Oasis'
p192
S'Acquiesce'
p193
S'http://www.last.fm/music/Oasis/_/Acquiesce'
p194
S'1365083792'
p195
tp196
a(S'Slash'
p197
S'Paradise City (feat. Fergie & Cypress Hill) (Uk Bonus Track)'
p198
S'http://www.last.fm/music/Slash/_/Paradise+City+(feat.+Fergie+&+Cypress+Hill)+(Uk+Bonus+Track)'
p199
S'1365082710'
p200
tp201
a(S'Oasis'
p202
S'Acquiesce'
p203
S'http://www.last.fm/music/Oasis/_/Acquiesce'
p204
S'1365082441'
p205
tp206
a(S'Oasis'
p207
S'Wonderwall'
p208
S'http://www.last.fm/music/Oasis/_/Wonderwall'
p209
S'1365082132'
p210
tp211
a(S'Black Sabbath'
p212
S'Paranoid'
p213
S'http://www.last.fm/music/Black+Sabbath/_/Paranoid'
p214
S'1365008115'
p215
tp216
a(S'Scorpions'
p217
S'Big City Nights'
p218
S'http://www.last.fm/music/Scorpions/_/Big+City+Nights'
p219
S'1365007865'
p220
tp221
a(S'Soundgarden'
p222
S'Attrition'
p223
S'http://www.last.fm/music/Soundgarden/_/Attrition'
p224
S'1365007633'
p225
tp226
a(S'Stone Temple Pilots'
p227
S'Transmissions From a Lonely Room'
p228
S'http://www.last.fm/music/Stone+Temple+Pilots/_/Transmissions+From+a+Lonely+Room'
p229
S'1365007436'
p230
tp231
a(S'Scorpions'
p232
S'Alien Nation'
p233
S'http://www.last.fm/music/Scorpions/_/Alien+Nation'
p234
S'1365007133'
p235
tp236
a(S'Stone Temple Pilots'
p237
S'Still Remains'
p238
S'http://www.last.fm/music/Stone+Temple+Pilots/_/Still+Remains'
p239
S'1365006899'
p240
tp241
a(S'Stone Temple Pilots'
p242
S'Big Bang Baby'
p243
S'http://www.last.fm/music/Stone+Temple+Pilots/_/Big+Bang+Baby'
p244
S'1365006694'
p245
tp246
a(S'Stone Temple Pilots'
p247
S'Crackerman'
p248
S'http://www.last.fm/music/Stone+Temple+Pilots/_/Crackerman'
p249
S'1365006502'
p250
tp251
a(S'Slash Feat. Cypress Hill & Fergie'
p252
S'Paradise City'
p253
S'http://www.last.fm/music/Slash+Feat.+Cypress+Hill+&+Fergie/_/Paradise+City'
p254
S'1365006186'
p255
tp256
a(S'Black Sabbath'
p257
S'Iron Man'
p258
S'http://www.last.fm/music/Black+Sabbath/_/Iron+Man'
p259
S'1364937871'
p260
tp261
a(S'Linkin Park'
p262
S'Castle of Glass'
p263
S'http://www.last.fm/music/Linkin+Park/_/Castle+of+Glass'
p264
S'1364937665'
p265
tp266
a(S'Slash feat. Alice Cooper & Nicole Scherzinger'
p267
S"Baby Can't Drive"
p268
S'http://www.last.fm/music/Slash+feat.+Alice+Cooper+&+Nicole+Scherzinger/_/Baby+Can%27t+Drive'
p269
S'1364937464'
p270
tp271
a(S'Soundgarden'
p272
S'Superunknown'
p273
S'http://www.last.fm/music/Soundgarden/_/Superunknown'
p274
S'1364937157'
p275
tp276
a(S'Stone Temple Pilots'
p277
S'Seven Caged Tigers'
p278
S'http://www.last.fm/music/Stone+Temple+Pilots/_/Seven+Caged+Tigers'
p279
S'1364936899'
p280
tp281
a(S'Linkin Park'
p282
S'Lies Greed Misery'
p283
S'http://www.last.fm/music/Linkin+Park/_/Lies+Greed+Misery'
p284
S'1364936751'
p285
tp286
a(S'Soundgarden'
p287
S'Attrition'
p288
S'http://www.last.fm/music/Soundgarden/_/Attrition'
p289
S'1364936577'
p290
tp291
a(S'Black Sabbath'
p292
S'Paranoid'
p293
S'http://www.last.fm/music/Black+Sabbath/_/Paranoid'
p294
S'1364936404'
p295
tp296
a(S'Scorpions'
p297
S'Alien Nation'
p298
S'http://www.last.fm/music/Scorpions/_/Alien+Nation'
p299
S'1364936101'
p300
tp301
a(S'Led Zeppelin'
p302
S'Dancing Days'
p303
S'http://www.last.fm/music/Led+Zeppelin/_/Dancing+Days'
p304
S'1364935877'
p305
tp306
a(S'Scorpions'
p307
S'Wind of Change'
p308
S'http://www.last.fm/music/Scorpions/_/Wind+of+Change'
p309
S'1364935564'
p310
tp311
a(S'Soundgarden'
p312
S"Eyelid's Mouth"
p313
S'http://www.last.fm/music/Soundgarden/_/Eyelid%27s+Mouth'
p314
S'1364935284'
p315
tp316
a(S'Stone Temple Pilots'
p317
S'Pruno'
p318
S'http://www.last.fm/music/Stone+Temple+Pilots/_/Pruno'
p319
S'1364935088'
p320
tp321
a(S'R.E.M.'
p322
S'Losing My Religion'
p323
S'http://www.last.fm/music/R.E.M./_/Losing+My+Religion'
p324
S'1364934818'
p325
tp326
a(S'Slash'
p327
S'Apocalyptic Love'
p328
S'http://www.last.fm/music/Slash/_/Apocalyptic+Love'
p329
S'1364934609'
p330
tp331
a(S'Soundgarden'
p332
S'Rowing'
p333
S'http://www.last.fm/music/Soundgarden/_/Rowing'
p334
S'1364933953'
p335
tp336
a(S'Stone Temple Pilots'
p337
S'Too Cool Queenie'
p338
S'http://www.last.fm/music/Stone+Temple+Pilots/_/Too+Cool+Queenie'
p339
S'1364933785'
p340
tp341
a(S'Soundgarden'
p342
S'Taree'
p343
S'http://www.last.fm/music/Soundgarden/_/Taree'
p344
S'1364933567'
p345
tp346
a(S'Slash'
p347
S"You're a Lie"
p348
S'http://www.last.fm/music/Slash/_/You%27re+a+Lie'
p349
S'1364933335'
p350
tp351
a(S'Stone Temple Pilots'
p352
S'Vasoline'
p353
S'http://www.last.fm/music/Stone+Temple+Pilots/_/Vasoline'
p354
S'1364933157'
p355
tp356
a(S'Super Furry Animals'
p357
S'Bad Behaviour'
p358
S'http://www.last.fm/music/Super+Furry+Animals/_/Bad+Behaviour'
p359
S'1364932890'
p360
tp361
a(S'Stone Temple Pilots'
p362
S'Sex Type Thing'
p363
S'http://www.last.fm/music/Stone+Temple+Pilots/_/Sex+Type+Thing'
p364
S'1364932671'
p365
tp366
a(S'Super Furry Animals'
p367
S'Golden Retriever'
p368
S'http://www.last.fm/music/Super+Furry+Animals/_/Golden+Retriever'
p369
S'1364932522'
p370
tp371
a(S'Stone Temple Pilots'
p372
S'Transmissions From a Lonely Room'
p373
S'http://www.last.fm/music/Stone+Temple+Pilots/_/Transmissions+From+a+Lonely+Room'
p374
S'1364932326'
p375
tp376
a(S'Soundgarden'
p377
S'By Crooked Steps'
p378
S'http://www.last.fm/music/Soundgarden/_/By+Crooked+Steps'
p379
S'1364929202'
p380
tp381
a(S'Concrete Blonde'
p382
S'Heal It Up'
p383
S'http://www.last.fm/music/Concrete+Blonde/_/Heal+It+Up'
p384
S'1364928940'
p385
tp386
a(S'Stone Temple Pilots'
p387
S'Still Remains'
p388
S'http://www.last.fm/music/Stone+Temple+Pilots/_/Still+Remains'
p389
S'1364928644'
p390
tp391
a(S'Stone Temple Pilots'
p392
S'Big Bang Baby'
p393
S'http://www.last.fm/music/Stone+Temple+Pilots/_/Big+Bang+Baby'
p394
S'1364928439'
p395
tp396
a(S'Stone Temple Pilots'
p397
S'Crackerman'
p398
S'http://www.last.fm/music/Stone+Temple+Pilots/_/Crackerman'
p399
S'1364928244'
p400
tp401
a(S'Slash Feat. Cypress Hill & Fergie'
p402
S'Paradise City'
p403
S'http://www.last.fm/music/Slash+Feat.+Cypress+Hill+&+Fergie/_/Paradise+City'
p404
S'1364927928'
p405
tp406
a(S'R.E.M.'
p407
S"What's the Frequency, Kenneth?"
p408
S'http://www.last.fm/music/R.E.M./_/What%27s+the+Frequency,+Kenneth%3F'
p409
S'1364927685'
p410
tp411
a(S'Soundgarden'
p412
S'Let Me Drown'
p413
S'http://www.last.fm/music/Soundgarden/_/Let+Me+Drown'
p414
S'1364912308'
p415
tp416
a(S'Linkin Park'
p417
S'Lost in the Echo'
p418
S'http://www.last.fm/music/Linkin+Park/_/Lost+in+the+Echo'
p419
S'1364912103'
p420
tp421
a(S'Soundgarden'
p422
S'A Thousand Days Before'
p423
S'http://www.last.fm/music/Soundgarden/_/A+Thousand+Days+Before'
p424
S'1364911839'
p425
tp426
a(S'Stone Temple Pilots'
p427
S'First Kiss on Mars'
p428
S'http://www.last.fm/music/Stone+Temple+Pilots/_/First+Kiss+on+Mars'
p429
S'1364911654'
p430
tp431
a(S'Stone Temple Pilots'
p432
S'Huckleberry Crumble'
p433
S'http://www.last.fm/music/Stone+Temple+Pilots/_/Huckleberry+Crumble'
p434
S'1364911462'
p435
tp436
a(S'Black Sabbath'
p437
S'Wheels of Confusion / The Straightener'
p438
S'http://www.last.fm/music/Black+Sabbath/_/Wheels+of+Confusion+%2F+The+Straightener'
p439
S'1364910966'
p440
tp441
a(S'Stone Temple Pilots'
p442
S"Trippin' on a Hole in a Paper Heart"
p443
S'http://www.last.fm/music/Stone+Temple+Pilots/_/Trippin%27+on+a+Hole+in+a+Paper+Heart'
p444
S'1364910788'
p445
tp446
a(S'Stone Temple Pilots'
p447
S'Hickory Dichotomy'
p448
S'http://www.last.fm/music/Stone+Temple+Pilots/_/Hickory+Dichotomy'
p449
S'1364910585'
p450
tp451
a(S'Slash feat. Myles Kennedy'
p452
S'Back From Cali'
p453
S'http://www.last.fm/music/Slash+feat.+Myles+Kennedy/_/Back+From+Cali'
p454
S'1364910367'
p455
tp456
a(S'Slash'
p457
S"You're a Lie"
p458
S'http://www.last.fm/music/Slash/_/You%27re+a+Lie'
p459
S'1364826064'
p460
tp461
a(S'Slash feat. Myles Kennedy'
p462
S'Back From Cali'
p463
S'http://www.last.fm/music/Slash+feat.+Myles+Kennedy/_/Back+From+Cali'
p464
S'1364825847'
p465
tp466
a(S'Scorpions'
p467
S'Alien Nation'
p468
S'http://www.last.fm/music/Scorpions/_/Alien+Nation'
p469
S'1364825544'
p470
tp471
a(S'Soundgarden'
p472
S'Taree'
p473
S'http://www.last.fm/music/Soundgarden/_/Taree'
p474
S'1364825325'
p475
tp476
a(S'Black Sabbath'
p477
S'Megalomania'
p478
S'http://www.last.fm/music/Black+Sabbath/_/Megalomania'
p479
S'1364824743'
p480
tp481
a(S'Super Furry Animals'
p482
S'Golden Retriever'
p483
S'http://www.last.fm/music/Super+Furry+Animals/_/Golden+Retriever'
p484
S'1364824594'
p485
tp486
a(S'Soundgarden'
p487
S'Fresh Tendrils'
p488
S'http://www.last.fm/music/Soundgarden/_/Fresh+Tendrils'
p489
S'1364824147'
p490
tp491
a(S'Slash feat. Myles Kennedy'
p492
S'Back From Cali'
p493
S'http://www.last.fm/music/Slash+feat.+Myles+Kennedy/_/Back+From+Cali'
p494
S'1364823929'
p495
tp496
a(S'R.E.M.'
p497
S"What's the Frequency, Kenneth?"
p498
S'http://www.last.fm/music/R.E.M./_/What%27s+the+Frequency,+Kenneth%3F'
p499
S'1364823687'
p500
tp501
a(S'Eric Clapton'
p502
S'Stone Free'
p503
S'http://www.last.fm/music/Eric+Clapton/_/Stone+Free'
p504
S'1362791021'
p505
tp506
a(S'Soundgarden'
p507
S'Attrition'
p508
S'http://www.last.fm/music/Soundgarden/_/Attrition'
p509
S'1362790854'
p510
tp511
a(S'Concrete Blonde'
p512
S'Heal It Up'
p513
S'http://www.last.fm/music/Concrete+Blonde/_/Heal+It+Up'
p514
S'1362790593'
p515
tp516
a(S'Velvet Revolver'
p517
S'Dirty Little Thing'
p518
S'http://www.last.fm/music/Velvet+Revolver/_/Dirty+Little+Thing'
p519
S'1362790354'
p520
tp521
a(S'Soundgarden'
p522
S"Eyelid's Mouth"
p523
S'http://www.last.fm/music/Soundgarden/_/Eyelid%27s+Mouth'
p524
S'1362790086'
p525
tp526
a(S'R.E.M.'
p527
S"What's the Frequency, Kenneth?"
p528
S'http://www.last.fm/music/R.E.M./_/What%27s+the+Frequency,+Kenneth%3F'
p529
S'1362789846'
p530
tp531
a(S'Velvet Revolver'
p532
S'She Builds Quick Machines'
p533
S'http://www.last.fm/music/Velvet+Revolver/_/She+Builds+Quick+Machines'
p534
S'1362789602'
p535
tp536
a(S'Bad Religion'
p537
S'A Walk'
p538
S'http://www.last.fm/music/Bad+Religion/_/A+Walk'
p539
S'1362789473'
p540
tp541
a(S'Scorpions'
p542
S'Big City Nights'
p543
S'http://www.last.fm/music/Scorpions/_/Big+City+Nights'
p544
S'1362789224'
p545
tp546
a(S'Led Zeppelin'
p547
S'Houses Of The Holy'
p548
S'http://www.last.fm/music/Led+Zeppelin/_/Houses+Of+The+Holy'
p549
S'1362788980'
p550
tp551
a(S'Eric Clapton'
p552
S'Stone Free'
p553
S'http://www.last.fm/music/Eric+Clapton/_/Stone+Free'
p554
S'1362788713'
p555
tp556
a(S'Soundgarden'
p557
S'Attrition'
p558
S'http://www.last.fm/music/Soundgarden/_/Attrition'
p559
S'1362788546'
p560
tp561
a(S'Concrete Blonde'
p562
S'Heal It Up'
p563
S'http://www.last.fm/music/Concrete+Blonde/_/Heal+It+Up'
p564
S'1362788285'
p565
tp566
a(S'Velvet Revolver'
p567
S'Dirty Little Thing'
p568
S'http://www.last.fm/music/Velvet+Revolver/_/Dirty+Little+Thing'
p569
S'1362788047'
p570
tp571
a(S'Soundgarden'
p572
S"Eyelid's Mouth"
p573
S'http://www.last.fm/music/Soundgarden/_/Eyelid%27s+Mouth'
p574
S'1362787779'
p575
tp576
a(S'R.E.M.'
p577
S"What's the Frequency, Kenneth?"
p578
S'http://www.last.fm/music/R.E.M./_/What%27s+the+Frequency,+Kenneth%3F'
p579
S'1362787539'
p580
tp581
a(S'Velvet Revolver'
p582
S'She Builds Quick Machines'
p583
S'http://www.last.fm/music/Velvet+Revolver/_/She+Builds+Quick+Machines'
p584
S'1362787295'
p585
tp586
a(S'Bad Religion'
p587
S'A Walk'
p588
S'http://www.last.fm/music/Bad+Religion/_/A+Walk'
p589
S'1362787104'
p590
tp591
a(S'Scorpions'
p592
S'Big City Nights'
p593
S'http://www.last.fm/music/Scorpions/_/Big+City+Nights'
p594
S'1362786855'
p595
tp596
a(S'Led Zeppelin'
p597
S'Houses Of The Holy'
p598
S'http://www.last.fm/music/Led+Zeppelin/_/Houses+Of+The+Holy'
p599
S'1362786611'
p600
tp601
a(S'Eric Clapton'
p602
S'Stone Free'
p603
S'http://www.last.fm/music/Eric+Clapton/_/Stone+Free'
p604
S'1362786344'
p605
tp606
a(S'Soundgarden'
p607
S'Attrition'
p608
S'http://www.last.fm/music/Soundgarden/_/Attrition'
p609
S'1362786177'
p610
tp611
a(S'Concrete Blonde'
p612
S'Heal It Up'
p613
S'http://www.last.fm/music/Concrete+Blonde/_/Heal+It+Up'
p614
S'1362785916'
p615
tp616
a(S'Velvet Revolver'
p617
S'Dirty Little Thing'
p618
S'http://www.last.fm/music/Velvet+Revolver/_/Dirty+Little+Thing'
p619
S'1362785678'
p620
tp621
a(S'R.E.M.'
p622
S"What's the Frequency, Kenneth?"
p623
S'http://www.last.fm/music/R.E.M./_/What%27s+the+Frequency,+Kenneth%3F'
p624
S'1362785169'
p625
tp626
a(S'Velvet Revolver'
p627
S'She Builds Quick Machines'
p628
S'http://www.last.fm/music/Velvet+Revolver/_/She+Builds+Quick+Machines'
p629
S'1362784813'
p630
tp631
a(S'Bad Religion'
p632
S'A Walk'
p633
S'http://www.last.fm/music/Bad+Religion/_/A+Walk'
p634
S'1362784686'
p635
tp636
a(S'Scorpions'
p637
S'Big City Nights'
p638
S'http://www.last.fm/music/Scorpions/_/Big+City+Nights'
p639
S'1362784505'
p640
tp641
a(S'Led Zeppelin'
p642
S'Houses Of The Holy'
p643
S'http://www.last.fm/music/Led+Zeppelin/_/Houses+Of+The+Holy'
p644
S'1362784192'
p645
tp646
a(S'Eric Clapton'
p647
S'Stone Free'
p648
S'http://www.last.fm/music/Eric+Clapton/_/Stone+Free'
p649
S'1362783926'
p650
tp651
a(S'Soundgarden'
p652
S'Attrition'
p653
S'http://www.last.fm/music/Soundgarden/_/Attrition'
p654
S'1362783759'
p655
tp656
a(S'Concrete Blonde'
p657
S'Heal It Up'
p658
S'http://www.last.fm/music/Concrete+Blonde/_/Heal+It+Up'
p659
S'1362783268'
p660
tp661
a(S'Velvet Revolver'
p662
S'Dirty Little Thing'
p663
S'http://www.last.fm/music/Velvet+Revolver/_/Dirty+Little+Thing'
p664
S'1362783030'
p665
tp666
a(S'Soundgarden'
p667
S"Eyelid's Mouth"
p668
S'http://www.last.fm/music/Soundgarden/_/Eyelid%27s+Mouth'
p669
S'1362782762'
p670
tp671
a(S'R.E.M.'
p672
S"What's the Frequency, Kenneth?"
p673
S'http://www.last.fm/music/R.E.M./_/What%27s+the+Frequency,+Kenneth%3F'
p674
S'1362782522'
p675
tp676
a(S'Velvet Revolver'
p677
S'She Builds Quick Machines'
p678
S'http://www.last.fm/music/Velvet+Revolver/_/She+Builds+Quick+Machines'
p679
S'1362782278'
p680
tp681
a(S'Bad Religion'
p682
S'A Walk'
p683
S'http://www.last.fm/music/Bad+Religion/_/A+Walk'
p684
S'1362782149'
p685
tp686
a(S'Scorpions'
p687
S'Big City Nights'
p688
S'http://www.last.fm/music/Scorpions/_/Big+City+Nights'
p689
S'1362781943'
p690
tp691
a(S'Bad Religion'
p692
S'A Walk'
p693
S'http://www.last.fm/music/Bad+Religion/_/A+Walk'
p694
S'1362767042'
p695
tp696
a(S'Scorpions'
p697
S'Big City Nights'
p698
S'http://www.last.fm/music/Scorpions/_/Big+City+Nights'
p699
S'1362766885'
p700
tp701
a(S'Velvet Revolver'
p702
S'Dirty Little Thing'
p703
S'http://www.last.fm/music/Velvet+Revolver/_/Dirty+Little+Thing'
p704
S'1362766554'
p705
tp706
a(S'Velvet Revolver'
p707
S'She Builds Quick Machines'
p708
S'http://www.last.fm/music/Velvet+Revolver/_/She+Builds+Quick+Machines'
p709
S'1362766311'
p710
tp711
a(S'Led Zeppelin'
p712
S'Houses Of The Holy'
p713
S'http://www.last.fm/music/Led+Zeppelin/_/Houses+Of+The+Holy'
p714
S'1362766068'
p715
tp716
a(S'R.E.M.'
p717
S"What's the Frequency, Kenneth?"
p718
S'http://www.last.fm/music/R.E.M./_/What%27s+the+Frequency,+Kenneth%3F'
p719
S'1362765827'
p720
tp721
a(S'Concrete Blonde'
p722
S'Heal It Up'
p723
S'http://www.last.fm/music/Concrete+Blonde/_/Heal+It+Up'
p724
S'1362765566'
p725
tp726
a(S'Soundgarden'
p727
S"Eyelid's Mouth"
p728
S'http://www.last.fm/music/Soundgarden/_/Eyelid%27s+Mouth'
p729
S'1362765297'
p730
tp731
a(S'Eric Clapton'
p732
S'Stone Free'
p733
S'http://www.last.fm/music/Eric+Clapton/_/Stone+Free'
p734
S'1362764997'
p735
tp736
a(S'Soundgarden'
p737
S'Attrition'
p738
S'http://www.last.fm/music/Soundgarden/_/Attrition'
p739
S'1362764830'
p740
tp741
a(S'Bad Religion'
p742
S'A Walk'
p743
S'http://www.last.fm/music/Bad+Religion/_/A+Walk'
p744
S'1362764673'
p745
tp746
a(S'Scorpions'
p747
S'Big City Nights'
p748
S'http://www.last.fm/music/Scorpions/_/Big+City+Nights'
p749
S'1362764529'
p750
tp751
a(S'Velvet Revolver'
p752
S'Dirty Little Thing'
p753
S'http://www.last.fm/music/Velvet+Revolver/_/Dirty+Little+Thing'
p754
S'1362764185'
p755
tp756
a(S'Velvet Revolver'
p757
S'She Builds Quick Machines'
p758
S'http://www.last.fm/music/Velvet+Revolver/_/She+Builds+Quick+Machines'
p759
S'1362763941'
p760
tp761
a(S'Led Zeppelin'
p762
S'Houses Of The Holy'
p763
S'http://www.last.fm/music/Led+Zeppelin/_/Houses+Of+The+Holy'
p764
S'1362763698'
p765
tp766
a(S'R.E.M.'
p767
S"What's the Frequency, Kenneth?"
p768
S'http://www.last.fm/music/R.E.M./_/What%27s+the+Frequency,+Kenneth%3F'
p769
S'1362763458'
p770
tp771
a(S'Concrete Blonde'
p772
S'Heal It Up'
p773
S'http://www.last.fm/music/Concrete+Blonde/_/Heal+It+Up'
p774
S'1362763197'
p775
tp776
a(S'Scorpions'
p777
S'Big City Nights'
p778
S'http://www.last.fm/music/Scorpions/_/Big+City+Nights'
p779
S'1362762736'
p780
tp781
a(S'Velvet Revolver'
p782
S'Dirty Little Thing'
p783
S'http://www.last.fm/music/Velvet+Revolver/_/Dirty+Little+Thing'
p784
S'1362762419'
p785
tp786
a(S'Velvet Revolver'
p787
S'She Builds Quick Machines'
p788
S'http://www.last.fm/music/Velvet+Revolver/_/She+Builds+Quick+Machines'
p789
S'1362761911'
p790
tp791
a(S'Led Zeppelin'
p792
S'Houses Of The Holy'
p793
S'http://www.last.fm/music/Led+Zeppelin/_/Houses+Of+The+Holy'
p794
S'1362761631'
p795
tp796
a(S'R.E.M.'
p797
S"What's the Frequency, Kenneth?"
p798
S'http://www.last.fm/music/R.E.M./_/What%27s+the+Frequency,+Kenneth%3F'
p799
S'1362761389'
p800
tp801
a(S'Concrete Blonde'
p802
S'Heal It Up'
p803
S'http://www.last.fm/music/Concrete+Blonde/_/Heal+It+Up'
p804
S'1362761128'
p805
tp806
a(S'Scorpions'
p807
S'Big City Nights'
p808
S'http://www.last.fm/music/Scorpions/_/Big+City+Nights'
p809
S'1362760916'
p810
tp811
a(S'Velvet Revolver'
p812
S'Dirty Little Thing'
p813
S'http://www.last.fm/music/Velvet+Revolver/_/Dirty+Little+Thing'
p814
S'1362760641'
p815
tp816
a(S'Velvet Revolver'
p817
S'She Builds Quick Machines'
p818
S'http://www.last.fm/music/Velvet+Revolver/_/She+Builds+Quick+Machines'
p819
S'1362760199'
p820
tp821
a(S'Led Zeppelin'
p822
S'Houses Of The Holy'
p823
S'http://www.last.fm/music/Led+Zeppelin/_/Houses+Of+The+Holy'
p824
S'1362759956'
p825
tp826
a(S'R.E.M.'
p827
S"What's the Frequency, Kenneth?"
p828
S'http://www.last.fm/music/R.E.M./_/What%27s+the+Frequency,+Kenneth%3F'
p829
S'1362759655'
p830
tp831
a(S'Concrete Blonde'
p832
S'Heal It Up'
p833
S'http://www.last.fm/music/Concrete+Blonde/_/Heal+It+Up'
p834
S'1362759394'
p835
tp836
a(S'Scorpions'
p837
S'Big City Nights'
p838
S'http://www.last.fm/music/Scorpions/_/Big+City+Nights'
p839
S'1362759357'
p840
tp841
a(S'Velvet Revolver'
p842
S'Dirty Little Thing'
p843
S'http://www.last.fm/music/Velvet+Revolver/_/Dirty+Little+Thing'
p844
S'1362758392'
p845
tp846
a(S'Velvet Revolver'
p847
S'She Builds Quick Machines'
p848
S'http://www.last.fm/music/Velvet+Revolver/_/She+Builds+Quick+Machines'
p849
S'1362758148'
p850
tp851
a(S'Led Zeppelin'
p852
S'Houses Of The Holy'
p853
S'http://www.last.fm/music/Led+Zeppelin/_/Houses+Of+The+Holy'
p854
S'1362757854'
p855
tp856
a(S'R.E.M.'
p857
S"What's the Frequency, Kenneth?"
p858
S'http://www.last.fm/music/R.E.M./_/What%27s+the+Frequency,+Kenneth%3F'
p859
S'1362757590'
p860
tp861
a(S'Concrete Blonde'
p862
S'Heal It Up'
p863
S'http://www.last.fm/music/Concrete+Blonde/_/Heal+It+Up'
p864
S'1362757329'
p865
tp866
a(S'Concrete Blonde'
p867
S'Heal It Up'
p868
S'http://www.last.fm/music/Concrete+Blonde/_/Heal+It+Up'
p869
S'1362749001'
p870
tp871
a(S'Concrete Blonde'
p872
S'Heal It Up'
p873
S'http://www.last.fm/music/Concrete+Blonde/_/Heal+It+Up'
p874
S'1362688150'
p875
tp876
a(S'R.E.M.'
p877
S"What's the Frequency, Kenneth?"
p878
S'http://www.last.fm/music/R.E.M./_/What%27s+the+Frequency,+Kenneth%3F'
p879
S'1362687909'
p880
tp881
a(S'Scorpions'
p882
S'Big City Nights'
p883
S'http://www.last.fm/music/Scorpions/_/Big+City+Nights'
p884
S'1362687742'
p885
tp886
a(S'The Cult'
p887
S'Cult-Love-07-Hollow Man'
p888
S'http://www.last.fm/music/The+Cult/_/Cult-Love-07-Hollow+Man'
p889
S'1362687374'
p890
tp891
a(S'Led Zeppelin'
p892
S'Houses Of The Holy'
p893
S'http://www.last.fm/music/Led+Zeppelin/_/Houses+Of+The+Holy'
p894
S'1362687132'
p895
tp896
a(S'Soundgarden'
p897
S'Let Me Drown'
p898
S'http://www.last.fm/music/Soundgarden/_/Let+Me+Drown'
p899
S'1362680873'
p900
tp901
a(S'Foo Fighters'
p902
S'Dear Rosemary'
p903
S'http://www.last.fm/music/Foo+Fighters/_/Dear+Rosemary'
p904
S'1362680606'
p905
tp906
a(S'Audioslave'
p907
S'Like A Stone'
p908
S'http://www.last.fm/music/Audioslave/_/Like+A+Stone'
p909
S'1362680311'
p910
tp911
a(S'Audioslave'
p912
S'Wide Awake'
p913
S'http://www.last.fm/music/Audioslave/_/Wide+Awake'
p914
S'1362680046'
p915
tp916
a(S'Stone Temple Pilots'
p917
S'Vasoline'
p918
S'http://www.last.fm/music/Stone+Temple+Pilots/_/Vasoline'
p919
S'1362679868'
p920
tp921
a(S'Alice in Chains'
p922
S'Private Hell'
p923
S'http://www.last.fm/music/Alice+in+Chains/_/Private+Hell'
p924
S'1362679528'
p925
tp926
a(S'Nirvana'
p927
S'On a Plain'
p928
S'http://www.last.fm/music/Nirvana/_/On+a+Plain'
p929
S'1362679303'
p930
tp931
a(S'Army Of Anyone'
p932
S'Generation'
p933
S'http://www.last.fm/music/Army+Of+Anyone/_/Generation'
p934
S'1362679091'
p935
tp936
a(S'Pearl Jam'
p937
S'Leash'
p938
S'http://www.last.fm/music/Pearl+Jam/_/Leash'
p939
S'1362678901'
p940
tp941
a(S'Stone Temple Pilots'
p942
S'Seven Caged Tigers'
p943
S'http://www.last.fm/music/Stone+Temple+Pilots/_/Seven+Caged+Tigers'
p944
S'1362678644'
p945
tp946
a(S'Alice in Chains'
p947
S'Heaven Beside You'
p948
S'http://www.last.fm/music/Alice+in+Chains/_/Heaven+Beside+You'
p949
S'1362678315'
p950
tp951
a(S'Velvet Revolver'
p952
S'Superhuman'
p953
S'http://www.last.fm/music/Velvet+Revolver/_/Superhuman'
p954
S'1362678058'
p955
tp956
a(S'Soundgarden'
p957
S'Hands All Over'
p958
S'http://www.last.fm/music/Soundgarden/_/Hands+All+Over'
p959
S'1362677698'
p960
tp961
a(S'Stone Temple Pilots'
p962
S'Bi-Polar Bear'
p963
S'http://www.last.fm/music/Stone+Temple+Pilots/_/Bi-Polar+Bear'
p964
S'1362677392'
p965
tp966
a(S'Mother Love Bone'
p967
S'Come Bite The Apple'
p968
S'http://www.last.fm/music/Mother+Love+Bone/_/Come+Bite+The+Apple'
p969
S'1362677064'
p970
tp971
a(S'Soundgarden'
p972
S'Tighter & Tighter'
p973
S'http://www.last.fm/music/Soundgarden/_/Tighter+&+Tighter'
p974
S'1362676698'
p975
tp976
a(S'Stone Temple Pilots'
p977
S'Transmissions From a Lonely Room'
p978
S'http://www.last.fm/music/Stone+Temple+Pilots/_/Transmissions+From+a+Lonely+Room'
p979
S'1362676501'
p980
tp981
a(S'Them Crooked Vultures'
p982
S'Mind Eraser, No Chaser'
p983
S'http://www.last.fm/music/Them+Crooked+Vultures/_/Mind+Eraser,+No+Chaser'
p984
S'1362676253'
p985
tp986
a(S'Audioslave'
p987
S'I Am The Highway'
p988
S'http://www.last.fm/music/Audioslave/_/I+Am+The+Highway'
p989
S'1362675918'
p990
tp991
a(S'Foo Fighters'
p992
S'Arlandria'
p993
S'http://www.last.fm/music/Foo+Fighters/_/Arlandria'
p994
S'1362675650'
p995
tp996
a(S'Alice in Chains'
p997
S'Sea of Sorrow'
p998
S'http://www.last.fm/music/Alice+in+Chains/_/Sea+of+Sorrow'
p999
S'1362675300'
p1000
tp1001
a.