(lp1
(S'Alice Cooper'
p2
S'Bed of Nails'
p3
S'http://www.last.fm/music/Alice+Cooper/_/Bed+of+Nails'
p4
S'1341248221'
p5
tp6
a(S'The Smiths'
p7
S'Ask'
p8
S'http://www.last.fm/music/The+Smiths/_/Ask'
p9
S'1341248018'
p10
tp11
a(S'Stone Temple Pilots'
p12
S'Silvergun Superman'
p13
S'http://www.last.fm/music/Stone+Temple+Pilots/_/Silvergun+Superman'
p14
S'1341247673'
p15
tp16
a(S'ZZ Top'
p17
S"What's Up With That"
p18
S'http://www.last.fm/music/ZZ+Top/_/What%27s+Up+With+That'
p19
S'1341247353'
p20
tp21
a(S'Soundgarden'
p22
S'Fresh Tendrils'
p23
S'http://www.last.fm/music/Soundgarden/_/Fresh+Tendrils'
p24
S'1341247083'
p25
tp26
a(S'The Smiths'
p27
S'There Is a Light That Never Goes Out'
p28
S'http://www.last.fm/music/The+Smiths/_/There+Is+a+Light+That+Never+Goes+Out'
p29
S'1341246808'
p30
tp31
a(S'Stone Temple Pilots'
p32
S'Still Remains'
p33
S'http://www.last.fm/music/Stone+Temple+Pilots/_/Still+Remains'
p34
S'1341246434'
p35
tp36
a(S'The Smiths'
p37
S'There Is a Light That Never Goes Out'
p38
S'http://www.last.fm/music/The+Smiths/_/There+Is+a+Light+That+Never+Goes+Out'
p39
S'1341246189'
p40
tp41
a(S'Alice in Chains'
p42
S'All Secrets Known'
p43
S'http://www.last.fm/music/Alice+in+Chains/_/All+Secrets+Known'
p44
S'1341245907'
p45
tp46
a(S'Army Of Anyone'
p47
S'A Better Place'
p48
S'http://www.last.fm/music/Army+Of+Anyone/_/A+Better+Place'
p49
S'1341245608'
p50
tp51
a(S'Stone Temple Pilots'
p52
S'Lady Picture Show'
p53
S'http://www.last.fm/music/Stone+Temple+Pilots/_/Lady+Picture+Show'
p54
S'1341245358'
p55
tp56
a(S'Stevie Ray Vaughan and Double Trouble'
p57
S'Change It'
p58
S'http://www.last.fm/music/Stevie+Ray+Vaughan+and+Double+Trouble/_/Change+It'
p59
S'1341245044'
p60
tp61
a(S'Stone Temple Pilots'
p62
S'Peacoat'
p63
S'http://www.last.fm/music/Stone+Temple+Pilots/_/Peacoat'
p64
S'1341237794'
p65
tp66
a(S'Soundgarden'
p67
S'The Day I Tried to Live'
p68
S'http://www.last.fm/music/Soundgarden/_/The+Day+I+Tried+to+Live'
p69
S'1341236040'
p70
tp71
a(S'Stone Temple Pilots'
p72
S'Sex Type Thing'
p73
S'http://www.last.fm/music/Stone+Temple+Pilots/_/Sex+Type+Thing'
p74
S'1341235821'
p75
tp76
a(S'Soundgarden'
p77
S'Room a Thousand Years Wide'
p78
S'http://www.last.fm/music/Soundgarden/_/Room+a+Thousand+Years+Wide'
p79
S'1341235575'
p80
tp81
a(S'Audioslave'
p82
S'Be Yourself'
p83
S'http://www.last.fm/music/Audioslave/_/Be+Yourself'
p84
S'1341235296'
p85
tp86
a(S'Stevie Ray Vaughan and Double Trouble'
p87
S'Mary Had A Little Lamb'
p88
S'http://www.last.fm/music/Stevie+Ray+Vaughan+and+Double+Trouble/_/Mary+Had+A+Little+Lamb'
p89
S'1341235041'
p90
tp91
a(S'The Smiths'
p92
S"Heaven Knows I'm Miserable Now"
p93
S'http://www.last.fm/music/The+Smiths/_/Heaven+Knows+I%27m+Miserable+Now'
p94
S'1341234825'
p95
tp96
a(S'Stone Temple Pilots'
p97
S'Bi-Polar Bear'
p98
S'http://www.last.fm/music/Stone+Temple+Pilots/_/Bi-Polar+Bear'
p99
S'1341234501'
p100
tp101
a(S'Beastie Boys'
p102
S"So What'cha Want"
p103
S'http://www.last.fm/music/Beastie+Boys/_/So+What%27cha+Want'
p104
S'1341234283'
p105
tp106
a(S'Beastie Boys'
p107
S"So What'cha Want"
p108
S'http://www.last.fm/music/Beastie+Boys/_/So+What%27cha+Want'
p109
S'1341009440'
p110
tp111
a(S'Army Of Anyone'
p112
S'Generation'
p113
S'http://www.last.fm/music/Army+Of+Anyone/_/Generation'
p114
S'1341009219'
p115
tp116
a(S'Army Of Anyone'
p117
S'Generation'
p118
S'http://www.last.fm/music/Army+Of+Anyone/_/Generation'
p119
S'1341009004'
p120
tp121
a(S'Stevie Ray Vaughan and Double Trouble'
p122
S'Mary Had A Little Lamb'
p123
S'http://www.last.fm/music/Stevie+Ray+Vaughan+and+Double+Trouble/_/Mary+Had+A+Little+Lamb'
p124
S'1341008749'
p125
tp126
a(S'Beastie Boys'
p127
S"So What'cha Want"
p128
S'http://www.last.fm/music/Beastie+Boys/_/So+What%27cha+Want'
p129
S'1341008444'
p130
tp131
a(S'Stevie Ray Vaughan and Double Trouble'
p132
S'Mary Had A Little Lamb'
p133
S'http://www.last.fm/music/Stevie+Ray+Vaughan+and+Double+Trouble/_/Mary+Had+A+Little+Lamb'
p134
S'1341007419'
p135
tp136
a(S'Beastie Boys'
p137
S"So What'cha Want"
p138
S'http://www.last.fm/music/Beastie+Boys/_/So+What%27cha+Want'
p139
S'1341007202'
p140
tp141
a(S'Stevie Ray Vaughan and Double Trouble'
p142
S'Mary Had A Little Lamb'
p143
S'http://www.last.fm/music/Stevie+Ray+Vaughan+and+Double+Trouble/_/Mary+Had+A+Little+Lamb'
p144
S'1341006962'
p145
tp146
a(S'Beastie Boys'
p147
S"So What'cha Want"
p148
S'http://www.last.fm/music/Beastie+Boys/_/So+What%27cha+Want'
p149
S'1341006745'
p150
tp151
a(S'Beastie Boys'
p152
S"So What'cha Want"
p153
S'http://www.last.fm/music/Beastie+Boys/_/So+What%27cha+Want'
p154
S'1341006521'
p155
tp156
a(S'Stevie Ray Vaughan and Double Trouble'
p157
S'Mary Had A Little Lamb'
p158
S'http://www.last.fm/music/Stevie+Ray+Vaughan+and+Double+Trouble/_/Mary+Had+A+Little+Lamb'
p159
S'1341006371'
p160
tp161
a(S'Beastie Boys'
p162
S"So What'cha Want"
p163
S'http://www.last.fm/music/Beastie+Boys/_/So+What%27cha+Want'
p164
S'1341006153'
p165
tp166
a(S'Beastie Boys'
p167
S"So What'cha Want"
p168
S'http://www.last.fm/music/Beastie+Boys/_/So+What%27cha+Want'
p169
S'1341005932'
p170
tp171
a(S'Stevie Ray Vaughan and Double Trouble'
p172
S'Mary Had A Little Lamb'
p173
S'http://www.last.fm/music/Stevie+Ray+Vaughan+and+Double+Trouble/_/Mary+Had+A+Little+Lamb'
p174
S'1341005794'
p175
tp176
a(S'Beastie Boys'
p177
S"So What'cha Want"
p178
S'http://www.last.fm/music/Beastie+Boys/_/So+What%27cha+Want'
p179
S'1341005577'
p180
tp181
a(S'Beastie Boys'
p182
S"So What'cha Want"
p183
S'http://www.last.fm/music/Beastie+Boys/_/So+What%27cha+Want'
p184
S'1341005325'
p185
tp186
a(S'Stevie Ray Vaughan and Double Trouble'
p187
S'Mary Had A Little Lamb'
p188
S'http://www.last.fm/music/Stevie+Ray+Vaughan+and+Double+Trouble/_/Mary+Had+A+Little+Lamb'
p189
S'1341003992'
p190
tp191
a(S'Beastie Boys'
p192
S"So What'cha Want"
p193
S'http://www.last.fm/music/Beastie+Boys/_/So+What%27cha+Want'
p194
S'1341003774'
p195
tp196
a(S'Beastie Boys'
p197
S"So What'cha Want"
p198
S'http://www.last.fm/music/Beastie+Boys/_/So+What%27cha+Want'
p199
S'1340993570'
p200
tp201
a(S'Army Of Anyone'
p202
S'Generation'
p203
S'http://www.last.fm/music/Army+Of+Anyone/_/Generation'
p204
S'1340989746'
p205
tp206
a(S'Stevie Ray Vaughan and Double Trouble'
p207
S'Mary Had A Little Lamb'
p208
S'http://www.last.fm/music/Stevie+Ray+Vaughan+and+Double+Trouble/_/Mary+Had+A+Little+Lamb'
p209
S'1340988998'
p210
tp211
a(S'Beastie Boys'
p212
S"So What'cha Want"
p213
S'http://www.last.fm/music/Beastie+Boys/_/So+What%27cha+Want'
p214
S'1340988781'
p215
tp216
a(S'Beastie Boys'
p217
S"So What'cha Want"
p218
S'http://www.last.fm/music/Beastie+Boys/_/So+What%27cha+Want'
p219
S'1340988506'
p220
tp221
a(S'The Smiths'
p222
S'Panic'
p223
S'http://www.last.fm/music/The+Smiths/_/Panic'
p224
S'1340912531'
p225
tp226
a(S'Katy Perry'
p227
S'Teenage Dream'
p228
S'http://www.last.fm/music/Katy+Perry/_/Teenage+Dream'
p229
S'1340912303'
p230
tp231
a(S'Beastie Boys'
p232
S"So What'cha Want"
p233
S'http://www.last.fm/music/Beastie+Boys/_/So+What%27cha+Want'
p234
S'1340912086'
p235
tp236
a(S'Stone Temple Pilots'
p237
S'Hickory Dichotomy'
p238
S'http://www.last.fm/music/Stone+Temple+Pilots/_/Hickory+Dichotomy'
p239
S'1340911872'
p240
tp241
a(S'ZZ Top'
p242
S'Cherry Red'
p243
S'http://www.last.fm/music/ZZ+Top/_/Cherry+Red'
p244
S'1340911593'
p245
tp246
a(S'Soundgarden'
p247
S'Room a Thousand Years Wide'
p248
S'http://www.last.fm/music/Soundgarden/_/Room+a+Thousand+Years+Wide'
p249
S'1340911347'
p250
tp251
a(S'Stone Temple Pilots'
p252
S'Sex Type Thing'
p253
S'http://www.last.fm/music/Stone+Temple+Pilots/_/Sex+Type+Thing'
p254
S'1340911124'
p255
tp256
a(S'Skid Row'
p257
S'Into Another'
p258
S'http://www.last.fm/music/Skid+Row/_/Into+Another'
p259
S'1340910882'
p260
tp261
a(S'Soundgarden'
p262
S'Searching With My Good Eye Closed'
p263
S'http://www.last.fm/music/Soundgarden/_/Searching+With+My+Good+Eye+Closed'
p264
S'1340910490'
p265
tp266
a(S'Soundgarden'
p267
S'Let Me Drown'
p268
S'http://www.last.fm/music/Soundgarden/_/Let+Me+Drown'
p269
S'1340910259'
p270
tp271
a(S'Beastie Boys'
p272
S'Triple Trouble'
p273
S'http://www.last.fm/music/Beastie+Boys/_/Triple+Trouble'
p274
S'1340910095'
p275
tp276
a(S'Soundgarden'
p277
S'Let Me Drown'
p278
S'http://www.last.fm/music/Soundgarden/_/Let+Me+Drown'
p279
S'1340909800'
p280
tp281
a(S'Beastie Boys'
p282
S'Triple Trouble'
p283
S'http://www.last.fm/music/Beastie+Boys/_/Triple+Trouble'
p284
S'1340909637'
p285
tp286
a(S'Beastie Boys'
p287
S'Triple Trouble'
p288
S'http://www.last.fm/music/Beastie+Boys/_/Triple+Trouble'
p289
S'1340909470'
p290
tp291
a(S'Army Of Anyone'
p292
S'Non Stop'
p293
S'http://www.last.fm/music/Army+Of+Anyone/_/Non+Stop'
p294
S'1340909105'
p295
tp296
a(S'Alice in Chains'
p297
S'Down in a Hole'
p298
S'http://www.last.fm/music/Alice+in+Chains/_/Down+in+a+Hole'
p299
S'1340908496'
p300
tp301
a(S'Soundgarden'
p302
S'Mind Riot'
p303
S'http://www.last.fm/music/Soundgarden/_/Mind+Riot'
p304
S'1340908207'
p305
tp306
a(S'Katy Perry'
p307
S'Circle the Drain'
p308
S'http://www.last.fm/music/Katy+Perry/_/Circle+the+Drain'
p309
S'1340907882'
p310
tp311
a(S'Stevie Wonder'
p312
S'Higher Ground'
p313
S'http://www.last.fm/music/Stevie+Wonder/_/Higher+Ground'
p314
S'1340907518'
p315
tp316
a(S'ZZ Top'
p317
S'Hairdresser'
p318
S'http://www.last.fm/music/ZZ+Top/_/Hairdresser'
p319
S'1340907289'
p320
tp321
a(S'Beastie Boys'
p322
S'Intergalactic'
p323
S'http://www.last.fm/music/Beastie+Boys/_/Intergalactic'
p324
S'1340907057'
p325
tp326
a(S'Soundgarden'
p327
S'Fresh Tendrils'
p328
S'http://www.last.fm/music/Soundgarden/_/Fresh+Tendrils'
p329
S'1340906801'
p330
tp331
a(S'The Smiths'
p332
S'The Boy With The Thorn In His Side'
p333
S'http://www.last.fm/music/The+Smiths/_/The+Boy+With+The+Thorn+In+His+Side'
p334
S'1340906603'
p335
tp336
a(S'Stone Temple Pilots'
p337
S'Peacoat'
p338
S'http://www.last.fm/music/Stone+Temple+Pilots/_/Peacoat'
p339
S'1340906376'
p340
tp341
a(S'Stone Temple Pilots'
p342
S'Still Remains'
p343
S'http://www.last.fm/music/Stone+Temple+Pilots/_/Still+Remains'
p344
S'1340906163'
p345
tp346
a(S'Audioslave'
p347
S'Somedays'
p348
S'http://www.last.fm/music/Audioslave/_/Somedays'
p349
S'1340905950'
p350
tp351
a(S'Alice in Chains'
p352
S'Them Bones'
p353
S'http://www.last.fm/music/Alice+in+Chains/_/Them+Bones'
p354
S'1340905800'
p355
tp356
a(S'Stevie Ray Vaughan and Double Trouble'
p357
S'Change It'
p358
S'http://www.last.fm/music/Stevie+Ray+Vaughan+and+Double+Trouble/_/Change+It'
p359
S'1340905495'
p360
tp361
a(S'Stone Temple Pilots'
p362
S'First Kiss on Mars'
p363
S'http://www.last.fm/music/Stone+Temple+Pilots/_/First+Kiss+on+Mars'
p364
S'1340905312'
p365
tp366
a(S'The Smiths'
p367
S'Panic'
p368
S'http://www.last.fm/music/The+Smiths/_/Panic'
p369
S'1340905072'
p370
tp371
a(S'Katy Perry'
p372
S'Teenage Dream'
p373
S'http://www.last.fm/music/Katy+Perry/_/Teenage+Dream'
p374
S'1340904489'
p375
tp376
a(S'Beastie Boys'
p377
S"So What'cha Want"
p378
S'http://www.last.fm/music/Beastie+Boys/_/So+What%27cha+Want'
p379
S'1340904271'
p380
tp381
a(S'Beastie Boys'
p382
S"So What'cha Want"
p383
S'http://www.last.fm/music/Beastie+Boys/_/So+What%27cha+Want'
p384
S'1340904040'
p385
tp386
a(S'Katy Perry'
p387
S'Teenage Dream'
p388
S'http://www.last.fm/music/Katy+Perry/_/Teenage+Dream'
p389
S'1340901510'
p390
tp391
a(S'Beastie Boys'
p392
S"So What'cha Want"
p393
S'http://www.last.fm/music/Beastie+Boys/_/So+What%27cha+Want'
p394
S'1340899792'
p395
tp396
a(S'Soundgarden'
p397
S'Limo Wreck'
p398
S'http://www.last.fm/music/Soundgarden/_/Limo+Wreck'
p399
S'1340888440'
p400
tp401
a(S'Stevie Wonder'
p402
S'Higher Ground'
p403
S'http://www.last.fm/music/Stevie+Wonder/_/Higher+Ground'
p404
S'1340888253'
p405
tp406
a(S'Beastie Boys'
p407
S"So What'cha Want"
p408
S'http://www.last.fm/music/Beastie+Boys/_/So+What%27cha+Want'
p409
S'1340888035'
p410
tp411
a(S'Stevie Wonder'
p412
S'Higher Ground'
p413
S'http://www.last.fm/music/Stevie+Wonder/_/Higher+Ground'
p414
S'1340887840'
p415
tp416
a(S'Beastie Boys'
p417
S"So What'cha Want"
p418
S'http://www.last.fm/music/Beastie+Boys/_/So+What%27cha+Want'
p419
S'1340887623'
p420
tp421
a(S'Beastie Boys'
p422
S"So What'cha Want"
p423
S'http://www.last.fm/music/Beastie+Boys/_/So+What%27cha+Want'
p424
S'1340887347'
p425
tp426
a(S'Beastie Boys'
p427
S"So What'cha Want"
p428
S'http://www.last.fm/music/Beastie+Boys/_/So+What%27cha+Want'
p429
S'1340883569'
p430
tp431
a(S'Stevie Wonder'
p432
S'Higher Ground'
p433
S'http://www.last.fm/music/Stevie+Wonder/_/Higher+Ground'
p434
S'1340883471'
p435
tp436
a(S'Beastie Boys'
p437
S"So What'cha Want"
p438
S'http://www.last.fm/music/Beastie+Boys/_/So+What%27cha+Want'
p439
S'1340881739'
p440
tp441
a(S'Them Crooked Vultures'
p442
S'Dead End Friends'
p443
S'http://www.last.fm/music/Them+Crooked+Vultures/_/Dead+End+Friends'
p444
S'1340827567'
p445
tp446
a(S'Stone Temple Pilots'
p447
S'Seven Caged Tigers'
p448
S'http://www.last.fm/music/Stone+Temple+Pilots/_/Seven+Caged+Tigers'
p449
S'1340827310'
p450
tp451
a(S'Beastie Boys'
p452
S'Intergalactic'
p453
S'http://www.last.fm/music/Beastie+Boys/_/Intergalactic'
p454
S'1340827078'
p455
tp456
a(S'Beastie Boys'
p457
S'Sabotage'
p458
S'http://www.last.fm/music/Beastie+Boys/_/Sabotage'
p459
S'1340826900'
p460
tp461
a(S'Beastie Boys'
p462
S"So What'cha Want"
p463
S'http://www.last.fm/music/Beastie+Boys/_/So+What%27cha+Want'
p464
S'1340826683'
p465
tp466
a(S'Beastie Boys'
p467
S"So What'cha Want"
p468
S'http://www.last.fm/music/Beastie+Boys/_/So+What%27cha+Want'
p469
S'1340826173'
p470
tp471
a(S'Beastie Boys'
p472
S"So What'cha Want"
p473
S'http://www.last.fm/music/Beastie+Boys/_/So+What%27cha+Want'
p474
S'1340825926'
p475
tp476
a(S'Beastie Boys'
p477
S'Intergalactic'
p478
S'http://www.last.fm/music/Beastie+Boys/_/Intergalactic'
p479
S'1340825700'
p480
tp481
a(S'Beastie Boys'
p482
S'Sabotage'
p483
S'http://www.last.fm/music/Beastie+Boys/_/Sabotage'
p484
S'1340825521'
p485
tp486
a(S'Beastie Boys'
p487
S"So What'cha Want"
p488
S'http://www.last.fm/music/Beastie+Boys/_/So+What%27cha+Want'
p489
S'1340825304'
p490
tp491
a(S'Stevie Wonder'
p492
S'Part Time Lover'
p493
S'http://www.last.fm/music/Stevie+Wonder/_/Part+Time+Lover'
p494
S'1340824598'
p495
tp496
a(S'The Smiths'
p497
S'Bigmouth Strikes Again'
p498
S'http://www.last.fm/music/The+Smiths/_/Bigmouth+Strikes+Again'
p499
S'1340824404'
p500
tp501
a(S'Stevie Wonder'
p502
S"Signed, Sealed, Delivered, I'm Yours"
p503
S'http://www.last.fm/music/Stevie+Wonder/_/Signed,+Sealed,+Delivered,+I%27m+Yours'
p504
S'1340824246'
p505
tp506
a(S'Stone Temple Pilots'
p507
S'Too Cool Queenie'
p508
S'http://www.last.fm/music/Stone+Temple+Pilots/_/Too+Cool+Queenie'
p509
S'1340824079'
p510
tp511
a(S'Stone Temple Pilots'
p512
S'Adhesive'
p513
S'http://www.last.fm/music/Stone+Temple+Pilots/_/Adhesive'
p514
S'1340823744'
p515
tp516
a(S'Soundgarden'
p517
S'Jesus Christ Pose'
p518
S'http://www.last.fm/music/Soundgarden/_/Jesus+Christ+Pose'
p519
S'1340823393'
p520
tp521
a(S'Them Crooked Vultures'
p522
S'New Fang'
p523
S'http://www.last.fm/music/Them+Crooked+Vultures/_/New+Fang'
p524
S'1340823165'
p525
tp526
a(S'Stevie Wonder'
p527
S'Superstition'
p528
S'http://www.last.fm/music/Stevie+Wonder/_/Superstition'
p529
S'1340807755'
p530
tp531
a(S'Alice in Chains'
p532
S'Down in a Hole'
p533
S'http://www.last.fm/music/Alice+in+Chains/_/Down+in+a+Hole'
p534
S'1340807417'
p535
tp536
a(S'Beastie Boys'
p537
S'Triple Trouble'
p538
S'http://www.last.fm/music/Beastie+Boys/_/Triple+Trouble'
p539
S'1340807254'
p540
tp541
a(S'Soundgarden'
p542
S'Searching With My Good Eye Closed'
p543
S'http://www.last.fm/music/Soundgarden/_/Searching+With+My+Good+Eye+Closed'
p544
S'1340806863'
p545
tp546
a(S'Beastie Boys'
p547
S'Paul Revere'
p548
S'http://www.last.fm/music/Beastie+Boys/_/Paul+Revere'
p549
S'1340806642'
p550
tp551
a(S'Alice in Chains'
p552
S'Check My Brain'
p553
S'http://www.last.fm/music/Alice+in+Chains/_/Check+My+Brain'
p554
S'1340806407'
p555
tp556
a(S'Stone Temple Pilots'
p557
S'Lady Picture Show'
p558
S'http://www.last.fm/music/Stone+Temple+Pilots/_/Lady+Picture+Show'
p559
S'1340806158'
p560
tp561
a(S'Stone Temple Pilots'
p562
S"Trippin' on a Hole in a Paper Heart"
p563
S'http://www.last.fm/music/Stone+Temple+Pilots/_/Trippin%27+on+a+Hole+in+a+Paper+Heart'
p564
S'1340805981'
p565
tp566
a(S'Beastie Boys'
p567
S"So What'cha Want"
p568
S'http://www.last.fm/music/Beastie+Boys/_/So+What%27cha+Want'
p569
S'1340805764'
p570
tp571
a(S'Beastie Boys'
p572
S'Paul Revere'
p573
S'http://www.last.fm/music/Beastie+Boys/_/Paul+Revere'
p574
S'1340805522'
p575
tp576
a(S'Alice in Chains'
p577
S'Check My Brain'
p578
S'http://www.last.fm/music/Alice+in+Chains/_/Check+My+Brain'
p579
S'1340805284'
p580
tp581
a(S'Stone Temple Pilots'
p582
S'Lady Picture Show'
p583
S'http://www.last.fm/music/Stone+Temple+Pilots/_/Lady+Picture+Show'
p584
S'1340805035'
p585
tp586
a(S'Stone Temple Pilots'
p587
S"Trippin' on a Hole in a Paper Heart"
p588
S'http://www.last.fm/music/Stone+Temple+Pilots/_/Trippin%27+on+a+Hole+in+a+Paper+Heart'
p589
S'1340804858'
p590
tp591
a(S'Beastie Boys'
p592
S"So What'cha Want"
p593
S'http://www.last.fm/music/Beastie+Boys/_/So+What%27cha+Want'
p594
S'1340804641'
p595
tp596
a(S'Stone Temple Pilots'
p597
S"Trippin' on a Hole in a Paper Heart"
p598
S'http://www.last.fm/music/Stone+Temple+Pilots/_/Trippin%27+on+a+Hole+in+a+Paper+Heart'
p599
S'1340802758'
p600
tp601
a(S'Beastie Boys'
p602
S"So What'cha Want"
p603
S'http://www.last.fm/music/Beastie+Boys/_/So+What%27cha+Want'
p604
S'1340802541'
p605
tp606
a(S'Skid Row'
p607
S'Into Another'
p608
S'http://www.last.fm/music/Skid+Row/_/Into+Another'
p609
S'1340802121'
p610
tp611
a(S'The Smiths'
p612
S'The Boy With The Thorn In His Side'
p613
S'http://www.last.fm/music/The+Smiths/_/The+Boy+With+The+Thorn+In+His+Side'
p614
S'1340801923'
p615
tp616
a(S'Audioslave'
p617
S'Shape Of Things To Come'
p618
S'http://www.last.fm/music/Audioslave/_/Shape+Of+Things+To+Come'
p619
S'1340800909'
p620
tp621
a(S'Beastie Boys'
p622
S'Sabotage'
p623
S'http://www.last.fm/music/Beastie+Boys/_/Sabotage'
p624
S'1340800731'
p625
tp626
a(S'Stone Temple Pilots'
p627
S'Huckleberry Crumble'
p628
S'http://www.last.fm/music/Stone+Temple+Pilots/_/Huckleberry+Crumble'
p629
S'1340800540'
p630
tp631
a(S'The Smiths'
p632
S'Panic'
p633
S'http://www.last.fm/music/The+Smiths/_/Panic'
p634
S'1340800399'
p635
tp636
a(S'ZZ Top'
p637
S'Cherry Red'
p638
S'http://www.last.fm/music/ZZ+Top/_/Cherry+Red'
p639
S'1340800094'
p640
tp641
a(S'Katy Perry'
p642
S'If You Can Afford Me'
p643
S'http://www.last.fm/music/Katy+Perry/_/If+You+Can+Afford+Me'
p644
S'1340799895'
p645
tp646
a(S'Soundgarden'
p647
S'Superunknown'
p648
S'http://www.last.fm/music/Soundgarden/_/Superunknown'
p649
S'1340798179'
p650
tp651
a(S'Katy Perry'
p652
S'Teenage Dream'
p653
S'http://www.last.fm/music/Katy+Perry/_/Teenage+Dream'
p654
S'1340797951'
p655
tp656
a(S'Katy Perry'
p657
S'Circle the Drain'
p658
S'http://www.last.fm/music/Katy+Perry/_/Circle+the+Drain'
p659
S'1340797678'
p660
tp661
a(S'The Smiths'
p662
S"Heaven Knows I'm Miserable Now"
p663
S'http://www.last.fm/music/The+Smiths/_/Heaven+Knows+I%27m+Miserable+Now'
p664
S'1340754172'
p665
tp666
a(S'Soundgarden'
p667
S'Limo Wreck'
p668
S'http://www.last.fm/music/Soundgarden/_/Limo+Wreck'
p669
S'1340753825'
p670
tp671
a(S'Soundgarden'
p672
S'The Day I Tried to Live'
p673
S'http://www.last.fm/music/Soundgarden/_/The+Day+I+Tried+to+Live'
p674
S'1340753505'
p675
tp676
a(S'Stone Temple Pilots'
p677
S'Sex Type Thing'
p678
S'http://www.last.fm/music/Stone+Temple+Pilots/_/Sex+Type+Thing'
p679
S'1340753287'
p680
tp681
a(S'Soundgarden'
p682
S'Mind Riot'
p683
S'http://www.last.fm/music/Soundgarden/_/Mind+Riot'
p684
S'1340752997'
p685
tp686
a(S'Stone Temple Pilots'
p687
S'Bi-Polar Bear'
p688
S'http://www.last.fm/music/Stone+Temple+Pilots/_/Bi-Polar+Bear'
p689
S'1340752692'
p690
tp691
a(S'Stone Temple Pilots'
p692
S'Hickory Dichotomy'
p693
S'http://www.last.fm/music/Stone+Temple+Pilots/_/Hickory+Dichotomy'
p694
S'1340752490'
p695
tp696
a(S'ZZ Top'
p697
S'Vincent Price Blues'
p698
S'http://www.last.fm/music/ZZ+Top/_/Vincent+Price+Blues'
p699
S'1340752126'
p700
tp701
a(S'Soundgarden'
p702
S'Fresh Tendrils'
p703
S'http://www.last.fm/music/Soundgarden/_/Fresh+Tendrils'
p704
S'1340751870'
p705
tp706
a(S'The Smiths'
p707
S'Ask'
p708
S'http://www.last.fm/music/The+Smiths/_/Ask'
p709
S'1340751672'
p710
tp711
a(S'Beastie Boys'
p712
S'Intergalactic'
p713
S'http://www.last.fm/music/Beastie+Boys/_/Intergalactic'
p714
S'1340751441'
p715
tp716
a(S'Stone Temple Pilots'
p717
S'Peacoat'
p718
S'http://www.last.fm/music/Stone+Temple+Pilots/_/Peacoat'
p719
S'1340751232'
p720
tp721
a(S'Stone Temple Pilots'
p722
S'Between the Lines'
p723
S'http://www.last.fm/music/Stone+Temple+Pilots/_/Between+the+Lines'
p724
S'1340751061'
p725
tp726
a(S'ZZ Top'
p727
S'Black Fly'
p728
S'http://www.last.fm/music/ZZ+Top/_/Black+Fly'
p729
S'1340750836'
p730
tp731
a(S'Stone Temple Pilots'
p732
S'First Kiss on Mars'
p733
S'http://www.last.fm/music/Stone+Temple+Pilots/_/First+Kiss+on+Mars'
p734
S'1340750649'
p735
tp736
a(S'Stone Temple Pilots'
p737
S'Silvergun Superman'
p738
S'http://www.last.fm/music/Stone+Temple+Pilots/_/Silvergun+Superman'
p739
S'1340750307'
p740
tp741
a(S'Alice in Chains'
p742
S'All Secrets Known'
p743
S'http://www.last.fm/music/Alice+in+Chains/_/All+Secrets+Known'
p744
S'1340750024'
p745
tp746
a(S'Army Of Anyone'
p747
S'Generation'
p748
S'http://www.last.fm/music/Army+Of+Anyone/_/Generation'
p749
S'1340749813'
p750
tp751
a(S'Soundgarden'
p752
S'Drawing Flies'
p753
S'http://www.last.fm/music/Soundgarden/_/Drawing+Flies'
p754
S'1340749667'
p755
tp756
a(S'Them Crooked Vultures'
p757
S'Gunman'
p758
S'http://www.last.fm/music/Them+Crooked+Vultures/_/Gunman'
p759
S'1340749380'
p760
tp761
a(S'Soundgarden'
p762
S'Rusty Cage'
p763
S'http://www.last.fm/music/Soundgarden/_/Rusty+Cage'
p764
S'1340730500'
p765
tp766
a(S'Stone Temple Pilots'
p767
S'Peacoat'
p768
S'http://www.last.fm/music/Stone+Temple+Pilots/_/Peacoat'
p769
S'1340730290'
p770
tp771
a(S'Talk Show'
p772
S'Hello Hello'
p773
S'http://www.last.fm/music/Talk+Show/_/Hello+Hello'
p774
S'1340730113'
p775
tp776
a(S'Stone Temple Pilots'
p777
S'Silvergun Superman'
p778
S'http://www.last.fm/music/Stone+Temple+Pilots/_/Silvergun+Superman'
p779
S'1340729797'
p780
tp781
a(S'Stone Temple Pilots'
p782
S'Between the Lines'
p783
S'http://www.last.fm/music/Stone+Temple+Pilots/_/Between+the+Lines'
p784
S'1340728321'
p785
tp786
a(S'Beastie Boys'
p787
S'Fight for Your Right'
p788
S'http://www.last.fm/music/Beastie+Boys/_/Fight+for+Your+Right'
p789
S'1340728158'
p790
tp791
a(S'Soundgarden'
p792
S'Outshined'
p793
S'http://www.last.fm/music/Soundgarden/_/Outshined'
p794
S'1340727794'
p795
tp796
a(S'Stevie Wonder'
p797
S"I Ain't Gonna Stand For It"
p798
S'http://www.last.fm/music/Stevie+Wonder/_/I+Ain%27t+Gonna+Stand+For+It'
p799
S'1340727518'
p800
tp801
a(S'Stone Temple Pilots'
p802
S'Seven Caged Tigers'
p803
S'http://www.last.fm/music/Stone+Temple+Pilots/_/Seven+Caged+Tigers'
p804
S'1340727251'
p805
tp806
a(S'Beastie Boys'
p807
S'Triple Trouble'
p808
S'http://www.last.fm/music/Beastie+Boys/_/Triple+Trouble'
p809
S'1340718568'
p810
tp811
a(S'Beastie Boys'
p812
S'Triple Trouble'
p813
S'http://www.last.fm/music/Beastie+Boys/_/Triple+Trouble'
p814
S'1340718320'
p815
tp816
a(S'The Smiths'
p817
S'The Boy With The Thorn In His Side'
p818
S'http://www.last.fm/music/The+Smiths/_/The+Boy+With+The+Thorn+In+His+Side'
p819
S'1340718120'
p820
tp821
a(S'Soundgarden'
p822
S'My Wave'
p823
S'http://www.last.fm/music/Soundgarden/_/My+Wave'
p824
S'1340717809'
p825
tp826
a(S'Them Crooked Vultures'
p827
S'New Fang'
p828
S'http://www.last.fm/music/Them+Crooked+Vultures/_/New+Fang'
p829
S'1340717581'
p830
tp831
a(S'Alice in Chains'
p832
S'All Secrets Known'
p833
S'http://www.last.fm/music/Alice+in+Chains/_/All+Secrets+Known'
p834
S'1340713461'
p835
tp836
a(S'Stone Temple Pilots'
p837
S'Lady Picture Show'
p838
S'http://www.last.fm/music/Stone+Temple+Pilots/_/Lady+Picture+Show'
p839
S'1340712438'
p840
tp841
a(S'Audioslave'
p842
S'Be Yourself'
p843
S'http://www.last.fm/music/Audioslave/_/Be+Yourself'
p844
S'1340712159'
p845
tp846
a(S'ZZ Top'
p847
S"What's Up With That"
p848
S'http://www.last.fm/music/ZZ+Top/_/What%27s+Up+With+That'
p849
S'1340711838'
p850
tp851
a(S'Stevie Ray Vaughan and Double Trouble'
p852
S'Voodoo Chile (Slight Return)'
p853
S'http://www.last.fm/music/Stevie+Ray+Vaughan+and+Double+Trouble/_/Voodoo+Chile+(Slight+Return)'
p854
S'1340711261'
p855
tp856
a(S'Beastie Boys'
p857
S'Paul Revere'
p858
S'http://www.last.fm/music/Beastie+Boys/_/Paul+Revere'
p859
S'1340711040'
p860
tp861
a(S'Soundgarden'
p862
S'Fell on Black Days'
p863
S'http://www.last.fm/music/Soundgarden/_/Fell+on+Black+Days'
p864
S'1340710758'
p865
tp866
a(S'Stevie Wonder'
p867
S'Higher Ground'
p868
S'http://www.last.fm/music/Stevie+Wonder/_/Higher+Ground'
p869
S'1340710570'
p870
tp871
a(S'Stevie Ray Vaughan and Double Trouble'
p872
S"I'm Leaving You (Commit a Crime)"
p873
S'http://www.last.fm/music/Stevie+Ray+Vaughan+and+Double+Trouble/_/I%27m+Leaving+You+(Commit+a+Crime)'
p874
S'1340709771'
p875
tp876
a(S'Beastie Boys'
p877
S'Intergalactic'
p878
S'http://www.last.fm/music/Beastie+Boys/_/Intergalactic'
p879
S'1340709540'
p880
tp881
a(S'Audioslave'
p882
S'Shape Of Things To Come'
p883
S'http://www.last.fm/music/Audioslave/_/Shape+Of+Things+To+Come'
p884
S'1340709265'
p885
tp886
a(S'Soundgarden'
p887
S'Let Me Drown'
p888
S'http://www.last.fm/music/Soundgarden/_/Let+Me+Drown'
p889
S'1340709033'
p890
tp891
a(S'Army Of Anyone'
p892
S'Non Stop'
p893
S'http://www.last.fm/music/Army+Of+Anyone/_/Non+Stop'
p894
S'1340708795'
p895
tp896
a(S'Soundgarden'
p897
S'Superunknown'
p898
S'http://www.last.fm/music/Soundgarden/_/Superunknown'
p899
S'1340708489'
p900
tp901
a(S'ZZ Top'
p902
S'Cherry Red'
p903
S'http://www.last.fm/music/ZZ+Top/_/Cherry+Red'
p904
S'1340708210'
p905
tp906
a(S'Soundgarden'
p907
S'The Day I Tried to Live'
p908
S'http://www.last.fm/music/Soundgarden/_/The+Day+I+Tried+to+Live'
p909
S'1340707890'
p910
tp911
a(S'Stone Temple Pilots'
p912
S'Too Cool Queenie'
p913
S'http://www.last.fm/music/Stone+Temple+Pilots/_/Too+Cool+Queenie'
p914
S'1340707723'
p915
tp916
a(S'Soundgarden'
p917
S'Holy Water'
p918
S'http://www.last.fm/music/Soundgarden/_/Holy+Water'
p919
S'1340707416'
p920
tp921
a(S'Stevie Ray Vaughan and Double Trouble'
p922
S'Change It'
p923
S'http://www.last.fm/music/Stevie+Ray+Vaughan+and+Double+Trouble/_/Change+It'
p924
S'1340707006'
p925
tp926
a(S'Alice in Chains'
p927
S'Check My Brain'
p928
S'http://www.last.fm/music/Alice+in+Chains/_/Check+My+Brain'
p929
S'1340633609'
p930
tp931
a(S'The Smiths'
p932
S'Panic'
p933
S'http://www.last.fm/music/The+Smiths/_/Panic'
p934
S'1340633469'
p935
tp936
a(S'Soundgarden'
p937
S'Fresh Tendrils'
p938
S'http://www.last.fm/music/Soundgarden/_/Fresh+Tendrils'
p939
S'1340633213'
p940
tp941
a(S'Stone Temple Pilots'
p942
S'Between the Lines'
p943
S'http://www.last.fm/music/Stone+Temple+Pilots/_/Between+the+Lines'
p944
S'1340633042'
p945
tp946
a(S'ZZ Top'
p947
S'Pincushion'
p948
S'http://www.last.fm/music/ZZ+Top/_/Pincushion'
p949
S'1340632769'
p950
tp951
a(S'Stevie Ray Vaughan and Double Trouble'
p952
S'Superstition'
p953
S'http://www.last.fm/music/Stevie+Ray+Vaughan+and+Double+Trouble/_/Superstition'
p954
S'1340632485'
p955
tp956
a(S'Stone Temple Pilots'
p957
S'Hickory Dichotomy'
p958
S'http://www.last.fm/music/Stone+Temple+Pilots/_/Hickory+Dichotomy'
p959
S'1340632283'
p960
tp961
a(S'Army Of Anyone'
p962
S'Non Stop'
p963
S'http://www.last.fm/music/Army+Of+Anyone/_/Non+Stop'
p964
S'1340632045'
p965
tp966
a(S'Army Of Anyone'
p967
S'Generation'
p968
S'http://www.last.fm/music/Army+Of+Anyone/_/Generation'
p969
S'1340631833'
p970
tp971
a(S'Stone Temple Pilots'
p972
S'Peacoat'
p973
S'http://www.last.fm/music/Stone+Temple+Pilots/_/Peacoat'
p974
S'1340631624'
p975
tp976
a(S'Army Of Anyone'
p977
S'Generation'
p978
S'http://www.last.fm/music/Army+Of+Anyone/_/Generation'
p979
S'1340631493'
p980
tp981
a(S'Stone Temple Pilots'
p982
S'Peacoat'
p983
S'http://www.last.fm/music/Stone+Temple+Pilots/_/Peacoat'
p984
S'1340631283'
p985
tp986
a(S'Army Of Anyone'
p987
S'Non Stop'
p988
S'http://www.last.fm/music/Army+Of+Anyone/_/Non+Stop'
p989
S'1340630973'
p990
tp991
a(S'Army Of Anyone'
p992
S'Generation'
p993
S'http://www.last.fm/music/Army+Of+Anyone/_/Generation'
p994
S'1340630762'
p995
tp996
a(S'Stone Temple Pilots'
p997
S'Peacoat'
p998
S'http://www.last.fm/music/Stone+Temple+Pilots/_/Peacoat'
p999
S'1340630552'
p1000
tp1001
a.