(lp1
(S'Atreyu'
p2
S'Becoming the Bull'
p3
S'http://www.last.fm/music/Atreyu/_/Becoming+the+Bull'
p4
S'1256730148'
p5
tp6
a(S'Atreyu'
p7
S'Becoming the Bull'
p8
S'http://www.last.fm/music/Atreyu/_/Becoming+the+Bull'
p9
S'1256663511'
p10
tp11
a(S'Jamiroquai'
p12
S'Little L'
p13
S'http://www.last.fm/music/Jamiroquai/_/Little+L'
p14
S'1256663153'
p15
tp16
a(S'Jamiroquai'
p17
S'Seven Days in Sunny June'
p18
S'http://www.last.fm/music/Jamiroquai/_/Seven+Days+in+Sunny+June'
p19
S'1256662915'
p20
tp21
a(S'Jamiroquai'
p22
S'Electric Mistress'
p23
S'http://www.last.fm/music/Jamiroquai/_/Electric+Mistress'
p24
S'1256662681'
p25
tp26
a(S'Jamiroquai'
p27
S'Dynamite'
p28
S'http://www.last.fm/music/Jamiroquai/_/Dynamite'
p29
S'1256662386'
p30
tp31
a(S'Jamiroquai'
p32
S'Love Foolosophy'
p33
S'http://www.last.fm/music/Jamiroquai/_/Love+Foolosophy'
p34
S'1256662158'
p35
tp36
a(S'Jamiroquai'
p37
S'You Give Me Something'
p38
S'http://www.last.fm/music/Jamiroquai/_/You+Give+Me+Something'
p39
S'1256661953'
p40
tp41
a(S'Jamiroquai'
p42
S'Little L'
p43
S'http://www.last.fm/music/Jamiroquai/_/Little+L'
p44
S'1256661655'
p45
tp46
a(S'Jamiroquai'
p47
S'Seven Days in Sunny June'
p48
S'http://www.last.fm/music/Jamiroquai/_/Seven+Days+in+Sunny+June'
p49
S'1256661417'
p50
tp51
a(S'Jamiroquai'
p52
S'You Give Me Something'
p53
S'http://www.last.fm/music/Jamiroquai/_/You+Give+Me+Something'
p54
S'1256661212'
p55
tp56
a(S'Jamiroquai'
p57
S'Dynamite'
p58
S'http://www.last.fm/music/Jamiroquai/_/Dynamite'
p59
S'1256660917'
p60
tp61
a(S'Jamiroquai'
p62
S'Little L'
p63
S'http://www.last.fm/music/Jamiroquai/_/Little+L'
p64
S'1256660620'
p65
tp66
a(S'Jamiroquai'
p67
S'Love Foolosophy'
p68
S'http://www.last.fm/music/Jamiroquai/_/Love+Foolosophy'
p69
S'1256660392'
p70
tp71
a(S'Jamiroquai'
p72
S'Electric Mistress'
p73
S'http://www.last.fm/music/Jamiroquai/_/Electric+Mistress'
p74
S'1256660158'
p75
tp76
a(S'Atreyu'
p77
S'Becoming the Bull'
p78
S'http://www.last.fm/music/Atreyu/_/Becoming+the+Bull'
p79
S'1256659921'
p80
tp81
a(S'Atreyu'
p82
S'Becoming the Bull'
p83
S'http://www.last.fm/music/Atreyu/_/Becoming+the+Bull'
p84
S'1256650882'
p85
tp86
a(S'Jupiter One'
p87
S'Countdown'
p88
S'http://www.last.fm/music/Jupiter+One/_/Countdown'
p89
S'1256650639'
p90
tp91
a(S'Atreyu'
p92
S'Becoming the Bull'
p93
S'http://www.last.fm/music/Atreyu/_/Becoming+the+Bull'
p94
S'1256650409'
p95
tp96
a(S'Airbourne'
p97
S'Cheap Wine & Cheaper Women'
p98
S'http://www.last.fm/music/Airbourne/_/Cheap+Wine+&+Cheaper+Women'
p99
S'1256648643'
p100
tp101
a(S'Airbourne'
p102
S"What's Eatin' You"
p103
S'http://www.last.fm/music/Airbourne/_/What%27s+Eatin%27+You'
p104
S'1256648522'
p105
tp106
a(S'Atreyu'
p107
S'Becoming the Bull'
p108
S'http://www.last.fm/music/Atreyu/_/Becoming+the+Bull'
p109
S'1256648301'
p110
tp111
a(S'Airbourne'
p112
S"What's Eatin' You"
p113
S'http://www.last.fm/music/Airbourne/_/What%27s+Eatin%27+You'
p114
S'1256648056'
p115
tp116
a(S'Atreyu'
p117
S'Becoming the Bull'
p118
S'http://www.last.fm/music/Atreyu/_/Becoming+the+Bull'
p119
S'1256647835'
p120
tp121
a(S'From Autumn To Ashes'
p122
S'Daylight Slaving'
p123
S'http://www.last.fm/music/From+Autumn+To+Ashes/_/Daylight+Slaving'
p124
S'1256647436'
p125
tp126
a(S'Jupiter One'
p127
S'Countdown'
p128
S'http://www.last.fm/music/Jupiter+One/_/Countdown'
p129
S'1256647048'
p130
tp131
a(S'Atreyu'
p132
S'Becoming the Bull'
p133
S'http://www.last.fm/music/Atreyu/_/Becoming+the+Bull'
p134
S'1256646810'
p135
tp136
a(S'Atreyu'
p137
S'Becoming the Bull'
p138
S'http://www.last.fm/music/Atreyu/_/Becoming+the+Bull'
p139
S'1256646579'
p140
tp141
a(S'Atreyu'
p142
S'Becoming the Bull'
p143
S'http://www.last.fm/music/Atreyu/_/Becoming+the+Bull'
p144
S'1256646351'
p145
tp146
a(S'Atreyu'
p147
S'Becoming the Bull'
p148
S'http://www.last.fm/music/Atreyu/_/Becoming+the+Bull'
p149
S'1256645960'
p150
tp151
a(S'Atreyu'
p152
S'Becoming the Bull'
p153
S'http://www.last.fm/music/Atreyu/_/Becoming+the+Bull'
p154
S'1256645532'
p155
tp156
a(S'Atreyu'
p157
S'Becoming the Bull'
p158
S'http://www.last.fm/music/Atreyu/_/Becoming+the+Bull'
p159
S'1256644771'
p160
tp161
a(S'Atreyu'
p162
S'Becoming the Bull'
p163
S'http://www.last.fm/music/Atreyu/_/Becoming+the+Bull'
p164
S'1256644321'
p165
tp166
a(S'Alice in Chains'
p167
S'Lesson Learned'
p168
S'http://www.last.fm/music/Alice+in+Chains/_/Lesson+Learned'
p169
S'1256641086'
p170
tp171
a(S'Alice in Chains'
p172
S'When the Sun Rose Again'
p173
S'http://www.last.fm/music/Alice+in+Chains/_/When+the+Sun+Rose+Again'
p174
S'1256640846'
p175
tp176
a(S'Alice in Chains'
p177
S'Private Hell'
p178
S'http://www.last.fm/music/Alice+in+Chains/_/Private+Hell'
p179
S'1256640507'
p180
tp181
a(S'Alice in Chains'
p182
S'All Secrets Known'
p183
S'http://www.last.fm/music/Alice+in+Chains/_/All+Secrets+Known'
p184
S'1256640225'
p185
tp186
a(S'Alice in Chains'
p187
S'When the Sun Rose Again'
p188
S'http://www.last.fm/music/Alice+in+Chains/_/When+the+Sun+Rose+Again'
p189
S'1256639985'
p190
tp191
a(S'Alice in Chains'
p192
S'A Looking in View'
p193
S'http://www.last.fm/music/Alice+in+Chains/_/A+Looking+in+View'
p194
S'1256639558'
p195
tp196
a(S'Alice in Chains'
p197
S'Check My Brain'
p198
S'http://www.last.fm/music/Alice+in+Chains/_/Check+My+Brain'
p199
S'1256639321'
p200
tp201
a(S'Alice in Chains'
p202
S'Your Decision'
p203
S'http://www.last.fm/music/Alice+in+Chains/_/Your+Decision'
p204
S'1256639038'
p205
tp206
a(S'Alice in Chains'
p207
S'Take Her Out'
p208
S'http://www.last.fm/music/Alice+in+Chains/_/Take+Her+Out'
p209
S'1256638797'
p210
tp211
a(S'Alice in Chains'
p212
S'All Secrets Known'
p213
S'http://www.last.fm/music/Alice+in+Chains/_/All+Secrets+Known'
p214
S'1256638435'
p215
tp216
a(S'Alice in Chains'
p217
S'Private Hell'
p218
S'http://www.last.fm/music/Alice+in+Chains/_/Private+Hell'
p219
S'1256638096'
p220
tp221
a(S'Alice in Chains'
p222
S'Lesson Learned'
p223
S'http://www.last.fm/music/Alice+in+Chains/_/Lesson+Learned'
p224
S'1256637840'
p225
tp226
a(S'Alice in Chains'
p227
S'Acid Bubble'
p228
S'http://www.last.fm/music/Alice+in+Chains/_/Acid+Bubble'
p229
S'1256637424'
p230
tp231
a(S'Atreyu'
p232
S'Becoming the Bull'
p233
S'http://www.last.fm/music/Atreyu/_/Becoming+the+Bull'
p234
S'1256637190'
p235
tp236
a(S'Airbourne'
p237
S"Runnin' Wild"
p238
S'http://www.last.fm/music/Airbourne/_/Runnin%27+Wild'
p239
S'1256636967'
p240
tp241
a(S'Atreyu'
p242
S'Becoming the Bull'
p243
S'http://www.last.fm/music/Atreyu/_/Becoming+the+Bull'
p244
S'1256636612'
p245
tp246
a(S'From Autumn To Ashes'
p247
S'Daylight Slaving'
p248
S'http://www.last.fm/music/From+Autumn+To+Ashes/_/Daylight+Slaving'
p249
S'1256636240'
p250
tp251
a(S'Atreyu'
p252
S'Becoming the Bull'
p253
S'http://www.last.fm/music/Atreyu/_/Becoming+the+Bull'
p254
S'1256635558'
p255
tp256
a(S'Jupiter One'
p257
S'Countdown'
p258
S'http://www.last.fm/music/Jupiter+One/_/Countdown'
p259
S'1255971695'
p260
tp261
a(S'Atreyu'
p262
S'Becoming the Bull'
p263
S'http://www.last.fm/music/Atreyu/_/Becoming+the+Bull'
p264
S'1255971468'
p265
tp266
a(S'Airbourne'
p267
S"Runnin' Wild"
p268
S'http://www.last.fm/music/Airbourne/_/Runnin%27+Wild'
p269
S'1255971249'
p270
tp271
a(S'From Autumn To Ashes'
p272
S'Daylight Slaving'
p273
S'http://www.last.fm/music/From+Autumn+To+Ashes/_/Daylight+Slaving'
p274
S'1255971046'
p275
tp276
a(S'Alice in Chains'
p277
S'Lesson Learned'
p278
S'http://www.last.fm/music/Alice+in+Chains/_/Lesson+Learned'
p279
S'1255970508'
p280
tp281
a(S'Alice in Chains'
p282
S'Private Hell'
p283
S'http://www.last.fm/music/Alice+in+Chains/_/Private+Hell'
p284
S'1255970169'
p285
tp286
a(S'Alice in Chains'
p287
S'Check My Brain'
p288
S'http://www.last.fm/music/Alice+in+Chains/_/Check+My+Brain'
p289
S'1255969913'
p290
tp291
a(S'Alice in Chains'
p292
S'When the Sun Rose Again'
p293
S'http://www.last.fm/music/Alice+in+Chains/_/When+the+Sun+Rose+Again'
p294
S'1255450663'
p295
tp296
a(S'Alice in Chains'
p297
S'Black Gives Way to Blue'
p298
S'http://www.last.fm/music/Alice+in+Chains/_/Black+Gives+Way+to+Blue'
p299
S'1255450480'
p300
tp301
a(S'Alice in Chains'
p302
S'Acid Bubble'
p303
S'http://www.last.fm/music/Alice+in+Chains/_/Acid+Bubble'
p304
S'1255450064'
p305
tp306
a(S'Alice in Chains'
p307
S'Lesson Learned'
p308
S'http://www.last.fm/music/Alice+in+Chains/_/Lesson+Learned'
p309
S'1255449807'
p310
tp311
a(S'Alice in Chains'
p312
S'Check My Brain'
p313
S'http://www.last.fm/music/Alice+in+Chains/_/Check+My+Brain'
p314
S'1255449569'
p315
tp316
a(S'Alice in Chains'
p317
S'Private Hell'
p318
S'http://www.last.fm/music/Alice+in+Chains/_/Private+Hell'
p319
S'1255449232'
p320
tp321
a(S'Alice in Chains'
p322
S'Private Hell'
p323
S'http://www.last.fm/music/Alice+in+Chains/_/Private+Hell'
p324
S'1255443507'
p325
tp326
a(S'Alice in Chains'
p327
S'Check My Brain'
p328
S'http://www.last.fm/music/Alice+in+Chains/_/Check+My+Brain'
p329
S'1255442274'
p330
tp331
a(S'Alice in Chains'
p332
S'All Secrets Known'
p333
S'http://www.last.fm/music/Alice+in+Chains/_/All+Secrets+Known'
p334
S'1255441991'
p335
tp336
a(S'Alice in Chains'
p337
S'Last of my Kind'
p338
S'http://www.last.fm/music/Alice+in+Chains/_/Last+of+my+Kind'
p339
S'1255441638'
p340
tp341
a(S'Alice in Chains'
p342
S'Take Her Out'
p343
S'http://www.last.fm/music/Alice+in+Chains/_/Take+Her+Out'
p344
S'1255441398'
p345
tp346
a(S'Alice in Chains'
p347
S'A Looking in View'
p348
S'http://www.last.fm/music/Alice+in+Chains/_/A+Looking+in+View'
p349
S'1255440972'
p350
tp351
a(S'Alice in Chains'
p352
S'When the Sun Rose Again'
p353
S'http://www.last.fm/music/Alice+in+Chains/_/When+the+Sun+Rose+Again'
p354
S'1255440732'
p355
tp356
a(S'Alice in Chains'
p357
S'Your Decision'
p358
S'http://www.last.fm/music/Alice+in+Chains/_/Your+Decision'
p359
S'1255440449'
p360
tp361
a(S'Alice in Chains'
p362
S'Lesson Learned'
p363
S'http://www.last.fm/music/Alice+in+Chains/_/Lesson+Learned'
p364
S'1255440192'
p365
tp366
a(S'Alice in Chains'
p367
S'Black Gives Way to Blue'
p368
S'http://www.last.fm/music/Alice+in+Chains/_/Black+Gives+Way+to+Blue'
p369
S'1255439987'
p370
tp371
a(S'Atreyu'
p372
S'Becoming the Bull'
p373
S'http://www.last.fm/music/Atreyu/_/Becoming+the+Bull'
p374
S'1255439030'
p375
tp376
a(S'Alice in Chains'
p377
S'Private Hell'
p378
S'http://www.last.fm/music/Alice+in+Chains/_/Private+Hell'
p379
S'1255438691'
p380
tp381
a(S'Atreyu'
p382
S'Becoming the Bull'
p383
S'http://www.last.fm/music/Atreyu/_/Becoming+the+Bull'
p384
S'1255410177'
p385
tp386
a(S'Alice in Chains'
p387
S'Take Her Out'
p388
S'http://www.last.fm/music/Alice+in+Chains/_/Take+Her+Out'
p389
S'1254594298'
p390
tp391
a(S'Alice in Chains'
p392
S'Private Hell'
p393
S'http://www.last.fm/music/Alice+in+Chains/_/Private+Hell'
p394
S'1254593854'
p395
tp396
a(S'Alice in Chains'
p397
S'Last of my Kind'
p398
S'http://www.last.fm/music/Alice+in+Chains/_/Last+of+my+Kind'
p399
S'1254578505'
p400
tp401
a(S'Alice in Chains'
p402
S'Check My Brain'
p403
S'http://www.last.fm/music/Alice+in+Chains/_/Check+My+Brain'
p404
S'1254578267'
p405
tp406
a(S'Alice in Chains'
p407
S'A Looking in View'
p408
S'http://www.last.fm/music/Alice+in+Chains/_/A+Looking+in+View'
p409
S'1254576572'
p410
tp411
a(S'Alice in Chains'
p412
S'Private Hell'
p413
S'http://www.last.fm/music/Alice+in+Chains/_/Private+Hell'
p414
S'1254576233'
p415
tp416
a(S'Alice in Chains'
p417
S'Take Her Out'
p418
S'http://www.last.fm/music/Alice+in+Chains/_/Take+Her+Out'
p419
S'1254575993'
p420
tp421
a(S'Alice in Chains'
p422
S'Lesson Learned'
p423
S'http://www.last.fm/music/Alice+in+Chains/_/Lesson+Learned'
p424
S'1254575530'
p425
tp426
a(S'Alice in Chains'
p427
S'Your Decision'
p428
S'http://www.last.fm/music/Alice+in+Chains/_/Your+Decision'
p429
S'1254511020'
p430
tp431
a(S'Alice in Chains'
p432
S'Black Gives Way to Blue'
p433
S'http://www.last.fm/music/Alice+in+Chains/_/Black+Gives+Way+to+Blue'
p434
S'1254510836'
p435
tp436
a(S'Alice in Chains'
p437
S'Check My Brain'
p438
S'http://www.last.fm/music/Alice+in+Chains/_/Check+My+Brain'
p439
S'1254510598'
p440
tp441
a(S'Alice in Chains'
p442
S'When the Sun Rose Again'
p443
S'http://www.last.fm/music/Alice+in+Chains/_/When+the+Sun+Rose+Again'
p444
S'1254510358'
p445
tp446
a(S'Alice in Chains'
p447
S'All Secrets Known'
p448
S'http://www.last.fm/music/Alice+in+Chains/_/All+Secrets+Known'
p449
S'1254510076'
p450
tp451
a(S'Alice in Chains'
p452
S'Private Hell'
p453
S'http://www.last.fm/music/Alice+in+Chains/_/Private+Hell'
p454
S'1254509737'
p455
tp456
a(S'Alice in Chains'
p457
S'Take Her Out'
p458
S'http://www.last.fm/music/Alice+in+Chains/_/Take+Her+Out'
p459
S'1254509497'
p460
tp461
a(S'Alice in Chains'
p462
S'Lesson Learned'
p463
S'http://www.last.fm/music/Alice+in+Chains/_/Lesson+Learned'
p464
S'1254509240'
p465
tp466
a(S'Alice in Chains'
p467
S'Your Decision'
p468
S'http://www.last.fm/music/Alice+in+Chains/_/Your+Decision'
p469
S'1254508957'
p470
tp471
a(S'Alice in Chains'
p472
S'Check My Brain'
p473
S'http://www.last.fm/music/Alice+in+Chains/_/Check+My+Brain'
p474
S'1254508719'
p475
tp476
a(S'Alice in Chains'
p477
S'A Looking in View'
p478
S'http://www.last.fm/music/Alice+in+Chains/_/A+Looking+in+View'
p479
S'1254508293'
p480
tp481
a(S'Alice in Chains'
p482
S'Last of my Kind'
p483
S'http://www.last.fm/music/Alice+in+Chains/_/Last+of+my+Kind'
p484
S'1254507940'
p485
tp486
a(S'Alice in Chains'
p487
S'Private Hell'
p488
S'http://www.last.fm/music/Alice+in+Chains/_/Private+Hell'
p489
S'1254507602'
p490
tp491
a(S'Alice in Chains'
p492
S'Acid Bubble'
p493
S'http://www.last.fm/music/Alice+in+Chains/_/Acid+Bubble'
p494
S'1254507186'
p495
tp496
a(S'Alice in Chains'
p497
S'All Secrets Known'
p498
S'http://www.last.fm/music/Alice+in+Chains/_/All+Secrets+Known'
p499
S'1254506904'
p500
tp501
a(S'Alice in Chains'
p502
S'When the Sun Rose Again'
p503
S'http://www.last.fm/music/Alice+in+Chains/_/When+the+Sun+Rose+Again'
p504
S'1254506663'
p505
tp506
a(S'Alice in Chains'
p507
S'Take Her Out'
p508
S'http://www.last.fm/music/Alice+in+Chains/_/Take+Her+Out'
p509
S'1254506423'
p510
tp511
a(S'Alice in Chains'
p512
S'Black Gives Way to Blue'
p513
S'http://www.last.fm/music/Alice+in+Chains/_/Black+Gives+Way+to+Blue'
p514
S'1254506240'
p515
tp516
a(S'Alice in Chains'
p517
S'Take Her Out'
p518
S'http://www.last.fm/music/Alice+in+Chains/_/Take+Her+Out'
p519
S'1254505999'
p520
tp521
a(S'Alice in Chains'
p522
S'Black Gives Way to Blue'
p523
S'http://www.last.fm/music/Alice+in+Chains/_/Black+Gives+Way+to+Blue'
p524
S'1254505816'
p525
tp526
a(S'Alice in Chains'
p527
S'Your Decision'
p528
S'http://www.last.fm/music/Alice+in+Chains/_/Your+Decision'
p529
S'1254505533'
p530
tp531
a(S'Alice in Chains'
p532
S'Lesson Learned'
p533
S'http://www.last.fm/music/Alice+in+Chains/_/Lesson+Learned'
p534
S'1254505276'
p535
tp536
a(S'Alice in Chains'
p537
S'Check My Brain'
p538
S'http://www.last.fm/music/Alice+in+Chains/_/Check+My+Brain'
p539
S'1254505038'
p540
tp541
a(S'Alice in Chains'
p542
S'Last of my Kind'
p543
S'http://www.last.fm/music/Alice+in+Chains/_/Last+of+my+Kind'
p544
S'1254504685'
p545
tp546
a(S'Alice in Chains'
p547
S'All Secrets Known'
p548
S'http://www.last.fm/music/Alice+in+Chains/_/All+Secrets+Known'
p549
S'1254504403'
p550
tp551
a(S'Alice in Chains'
p552
S'A Looking in View'
p553
S'http://www.last.fm/music/Alice+in+Chains/_/A+Looking+in+View'
p554
S'1254503977'
p555
tp556
a(S'Alice in Chains'
p557
S'Acid Bubble'
p558
S'http://www.last.fm/music/Alice+in+Chains/_/Acid+Bubble'
p559
S'1254503561'
p560
tp561
a(S'Alice in Chains'
p562
S'Private Hell'
p563
S'http://www.last.fm/music/Alice+in+Chains/_/Private+Hell'
p564
S'1254503223'
p565
tp566
a(S'Alice in Chains'
p567
S'When the Sun Rose Again'
p568
S'http://www.last.fm/music/Alice+in+Chains/_/When+the+Sun+Rose+Again'
p569
S'1254502982'
p570
tp571
a(S'Alice in Chains'
p572
S'When the Sun Rose Again'
p573
S'http://www.last.fm/music/Alice+in+Chains/_/When+the+Sun+Rose+Again'
p574
S'1254502742'
p575
tp576
a(S'Alice in Chains'
p577
S'Take Her Out'
p578
S'http://www.last.fm/music/Alice+in+Chains/_/Take+Her+Out'
p579
S'1254502502'
p580
tp581
a(S'Alice in Chains'
p582
S'Private Hell'
p583
S'http://www.last.fm/music/Alice+in+Chains/_/Private+Hell'
p584
S'1254502164'
p585
tp586
a(S'Alice in Chains'
p587
S'Check My Brain'
p588
S'http://www.last.fm/music/Alice+in+Chains/_/Check+My+Brain'
p589
S'1254501926'
p590
tp591
a(S'Alice in Chains'
p592
S'A Looking in View'
p593
S'http://www.last.fm/music/Alice+in+Chains/_/A+Looking+in+View'
p594
S'1254500262'
p595
tp596
a(S'Alice in Chains'
p597
S'Last of my Kind'
p598
S'http://www.last.fm/music/Alice+in+Chains/_/Last+of+my+Kind'
p599
S'1254499909'
p600
tp601
a(S'Alice in Chains'
p602
S'Your Decision'
p603
S'http://www.last.fm/music/Alice+in+Chains/_/Your+Decision'
p604
S'1254498731'
p605
tp606
a(S'Alice in Chains'
p607
S'Lesson Learned'
p608
S'http://www.last.fm/music/Alice+in+Chains/_/Lesson+Learned'
p609
S'1254498474'
p610
tp611
a(S'Alice in Chains'
p612
S'Acid Bubble'
p613
S'http://www.last.fm/music/Alice+in+Chains/_/Acid+Bubble'
p614
S'1254498214'
p615
tp616
a(S'Alice in Chains'
p617
S'Take Her Out'
p618
S'http://www.last.fm/music/Alice+in+Chains/_/Take+Her+Out'
p619
S'1254497974'
p620
tp621
a(S'Alice in Chains'
p622
S'Black Gives Way to Blue'
p623
S'http://www.last.fm/music/Alice+in+Chains/_/Black+Gives+Way+to+Blue'
p624
S'1254497790'
p625
tp626
a(S'Alice in Chains'
p627
S'Your Decision'
p628
S'http://www.last.fm/music/Alice+in+Chains/_/Your+Decision'
p629
S'1254497507'
p630
tp631
a(S'Alice in Chains'
p632
S'When the Sun Rose Again'
p633
S'http://www.last.fm/music/Alice+in+Chains/_/When+the+Sun+Rose+Again'
p634
S'1254497267'
p635
tp636
a(S'Alice in Chains'
p637
S'All Secrets Known'
p638
S'http://www.last.fm/music/Alice+in+Chains/_/All+Secrets+Known'
p639
S'1254496984'
p640
tp641
a(S'Alice in Chains'
p642
S'Last of my Kind'
p643
S'http://www.last.fm/music/Alice+in+Chains/_/Last+of+my+Kind'
p644
S'1254496631'
p645
tp646
a(S'Alice in Chains'
p647
S'Lesson Learned'
p648
S'http://www.last.fm/music/Alice+in+Chains/_/Lesson+Learned'
p649
S'1254496375'
p650
tp651
a(S'Alice in Chains'
p652
S'Acid Bubble'
p653
S'http://www.last.fm/music/Alice+in+Chains/_/Acid+Bubble'
p654
S'1254495959'
p655
tp656
a(S'Alice in Chains'
p657
S'Check My Brain'
p658
S'http://www.last.fm/music/Alice+in+Chains/_/Check+My+Brain'
p659
S'1254495721'
p660
tp661
a(S'Alice in Chains'
p662
S'Private Hell'
p663
S'http://www.last.fm/music/Alice+in+Chains/_/Private+Hell'
p664
S'1254495382'
p665
tp666
a(S'Alice in Chains'
p667
S'A Looking in View'
p668
S'http://www.last.fm/music/Alice+in+Chains/_/A+Looking+in+View'
p669
S'1254494957'
p670
tp671
a(S'Alice in Chains'
p672
S'Private Hell'
p673
S'http://www.last.fm/music/Alice+in+Chains/_/Private+Hell'
p674
S'1254494618'
p675
tp676
a(S'Alice in Chains'
p677
S'Lesson Learned'
p678
S'http://www.last.fm/music/Alice+in+Chains/_/Lesson+Learned'
p679
S'1254494361'
p680
tp681
a(S'Alice in Chains'
p682
S'Last of my Kind'
p683
S'http://www.last.fm/music/Alice+in+Chains/_/Last+of+my+Kind'
p684
S'1254494008'
p685
tp686
a(S'Alice in Chains'
p687
S'Take Her Out'
p688
S'http://www.last.fm/music/Alice+in+Chains/_/Take+Her+Out'
p689
S'1254493768'
p690
tp691
a(S'Alice in Chains'
p692
S'Acid Bubble'
p693
S'http://www.last.fm/music/Alice+in+Chains/_/Acid+Bubble'
p694
S'1254493352'
p695
tp696
a(S'Alice in Chains'
p697
S'Your Decision'
p698
S'http://www.last.fm/music/Alice+in+Chains/_/Your+Decision'
p699
S'1254493069'
p700
tp701
a(S'Alice in Chains'
p702
S'Check My Brain'
p703
S'http://www.last.fm/music/Alice+in+Chains/_/Check+My+Brain'
p704
S'1254492831'
p705
tp706
a(S'Alice in Chains'
p707
S'A Looking in View'
p708
S'http://www.last.fm/music/Alice+in+Chains/_/A+Looking+in+View'
p709
S'1254492405'
p710
tp711
a(S'Alice in Chains'
p712
S'When the Sun Rose Again'
p713
S'http://www.last.fm/music/Alice+in+Chains/_/When+the+Sun+Rose+Again'
p714
S'1254492165'
p715
tp716
a(S'Alice in Chains'
p717
S'Black Gives Way to Blue'
p718
S'http://www.last.fm/music/Alice+in+Chains/_/Black+Gives+Way+to+Blue'
p719
S'1254491982'
p720
tp721
a(S'Alice in Chains'
p722
S'All Secrets Known'
p723
S'http://www.last.fm/music/Alice+in+Chains/_/All+Secrets+Known'
p724
S'1254491699'
p725
tp726
a(S'Alice in Chains'
p727
S'Take Her Out'
p728
S'http://www.last.fm/music/Alice+in+Chains/_/Take+Her+Out'
p729
S'1254491459'
p730
tp731
a(S'Alice in Chains'
p732
S'Black Gives Way to Blue'
p733
S'http://www.last.fm/music/Alice+in+Chains/_/Black+Gives+Way+to+Blue'
p734
S'1254491276'
p735
tp736
a(S'Alice in Chains'
p737
S'All Secrets Known'
p738
S'http://www.last.fm/music/Alice+in+Chains/_/All+Secrets+Known'
p739
S'1254490993'
p740
tp741
a(S'Alice in Chains'
p742
S'Your Decision'
p743
S'http://www.last.fm/music/Alice+in+Chains/_/Your+Decision'
p744
S'1254490710'
p745
tp746
a(S'Alice in Chains'
p747
S'Private Hell'
p748
S'http://www.last.fm/music/Alice+in+Chains/_/Private+Hell'
p749
S'1254490372'
p750
tp751
a(S'Alice in Chains'
p752
S'Lesson Learned'
p753
S'http://www.last.fm/music/Alice+in+Chains/_/Lesson+Learned'
p754
S'1254490115'
p755
tp756
a(S'Alice in Chains'
p757
S'A Looking in View'
p758
S'http://www.last.fm/music/Alice+in+Chains/_/A+Looking+in+View'
p759
S'1254489689'
p760
tp761
a(S'Alice in Chains'
p762
S'Last of my Kind'
p763
S'http://www.last.fm/music/Alice+in+Chains/_/Last+of+my+Kind'
p764
S'1254489336'
p765
tp766
a(S'Alice in Chains'
p767
S'Acid Bubble'
p768
S'http://www.last.fm/music/Alice+in+Chains/_/Acid+Bubble'
p769
S'1254488920'
p770
tp771
a(S'Alice in Chains'
p772
S'Check My Brain'
p773
S'http://www.last.fm/music/Alice+in+Chains/_/Check+My+Brain'
p774
S'1254488682'
p775
tp776
a(S'Alice in Chains'
p777
S'When the Sun Rose Again'
p778
S'http://www.last.fm/music/Alice+in+Chains/_/When+the+Sun+Rose+Again'
p779
S'1254488442'
p780
tp781
a(S'Alice in Chains'
p782
S'Private Hell'
p783
S'http://www.last.fm/music/Alice+in+Chains/_/Private+Hell'
p784
S'1254488103'
p785
tp786
a(S'Alice in Chains'
p787
S'Lesson Learned'
p788
S'http://www.last.fm/music/Alice+in+Chains/_/Lesson+Learned'
p789
S'1254487847'
p790
tp791
a(S'Alice in Chains'
p792
S'Your Decision'
p793
S'http://www.last.fm/music/Alice+in+Chains/_/Your+Decision'
p794
S'1254487393'
p795
tp796
a(S'Alice in Chains'
p797
S'Check My Brain'
p798
S'http://www.last.fm/music/Alice+in+Chains/_/Check+My+Brain'
p799
S'1254487156'
p800
tp801
a(S'Alice in Chains'
p802
S'Black Gives Way to Blue'
p803
S'http://www.last.fm/music/Alice+in+Chains/_/Black+Gives+Way+to+Blue'
p804
S'1254486972'
p805
tp806
a(S'Alice in Chains'
p807
S'A Looking in View'
p808
S'http://www.last.fm/music/Alice+in+Chains/_/A+Looking+in+View'
p809
S'1254486546'
p810
tp811
a(S'Alice in Chains'
p812
S'When the Sun Rose Again'
p813
S'http://www.last.fm/music/Alice+in+Chains/_/When+the+Sun+Rose+Again'
p814
S'1254486306'
p815
tp816
a(S'Alice in Chains'
p817
S'All Secrets Known'
p818
S'http://www.last.fm/music/Alice+in+Chains/_/All+Secrets+Known'
p819
S'1254486066'
p820
tp821
a(S'Alice in Chains'
p822
S'Lesson Learned'
p823
S'http://www.last.fm/music/Alice+in+Chains/_/Lesson+Learned'
p824
S'1254483928'
p825
tp826
a(S'Alice in Chains'
p827
S'Private Hell'
p828
S'http://www.last.fm/music/Alice+in+Chains/_/Private+Hell'
p829
S'1254483590'
p830
tp831
a(S'Alice in Chains'
p832
S'Check My Brain'
p833
S'http://www.last.fm/music/Alice+in+Chains/_/Check+My+Brain'
p834
S'1254483352'
p835
tp836
a(S'Alice in Chains'
p837
S'A Looking in View'
p838
S'http://www.last.fm/music/Alice+in+Chains/_/A+Looking+in+View'
p839
S'1254482926'
p840
tp841
a(S'Alice in Chains'
p842
S'Black Gives Way to Blue'
p843
S'http://www.last.fm/music/Alice+in+Chains/_/Black+Gives+Way+to+Blue'
p844
S'1254482743'
p845
tp846
a(S'Alice in Chains'
p847
S'All Secrets Known'
p848
S'http://www.last.fm/music/Alice+in+Chains/_/All+Secrets+Known'
p849
S'1254482460'
p850
tp851
a(S'Alice in Chains'
p852
S'Take Her Out'
p853
S'http://www.last.fm/music/Alice+in+Chains/_/Take+Her+Out'
p854
S'1254482220'
p855
tp856
a(S'Army Of Anyone'
p857
S'Non Stop'
p858
S'http://www.last.fm/music/Army+Of+Anyone/_/Non+Stop'
p859
S'1251724214'
p860
tp861
a(S'Velvet Revolver'
p862
S'Spectacle'
p863
S'http://www.last.fm/music/Velvet+Revolver/_/Spectacle'
p864
S'1251723992'
p865
tp866
a(S'Whitesnake'
p867
S'Too Many Tears'
p868
S'http://www.last.fm/music/Whitesnake/_/Too+Many+Tears'
p869
S'1251723647'
p870
tp871
a(S'Alice Cooper'
p872
S"Nothing's Free"
p873
S'http://www.last.fm/music/Alice+Cooper/_/Nothing%27s+Free'
p874
S'1251723346'
p875
tp876
a(S'Velvet Revolver'
p877
S'She Builds Quick Machines'
p878
S'http://www.last.fm/music/Velvet+Revolver/_/She+Builds+Quick+Machines'
p879
S'1251723103'
p880
tp881
a(S'Judas Priest'
p882
S'Worth Fighting For'
p883
S'http://www.last.fm/music/Judas+Priest/_/Worth+Fighting+For'
p884
S'1251722844'
p885
tp886
a(S'Velvet Revolver'
p887
S'Slither'
p888
S'http://www.last.fm/music/Velvet+Revolver/_/Slither'
p889
S'1251722595'
p890
tp891
a(S'Metallica'
p892
S'The House Jack Built'
p893
S'http://www.last.fm/music/Metallica/_/The+House+Jack+Built'
p894
S'1251722195'
p895
tp896
a(S'Judas Priest'
p897
S'Diamonds and Rust'
p898
S'http://www.last.fm/music/Judas+Priest/_/Diamonds+and+Rust'
p899
S'1251721988'
p900
tp901
a(S'Mother Love Bone'
p902
S'Heartshine'
p903
S'http://www.last.fm/music/Mother+Love+Bone/_/Heartshine'
p904
S'1251721710'
p905
tp906
a(S'Jerry Cantrell'
p907
S'Keep The Light On'
p908
S'http://www.last.fm/music/Jerry+Cantrell/_/Keep+The+Light+On'
p909
S'1251721424'
p910
tp911
a(S'Megadeth'
p912
S'Addicted to Chaos'
p913
S'http://www.last.fm/music/Megadeth/_/Addicted+to+Chaos'
p914
S'1251721097'
p915
tp916
a(S'Whitesnake'
p917
S'Deeper The Love'
p918
S'http://www.last.fm/music/Whitesnake/_/Deeper+The+Love'
p919
S'1251720834'
p920
tp921
a(S'Metallica'
p922
S'Thorn Within'
p923
S'http://www.last.fm/music/Metallica/_/Thorn+Within'
p924
S'1251480967'
p925
tp926
a(S'Alice in Chains'
p927
S'Man in the Box'
p928
S'http://www.last.fm/music/Alice+in+Chains/_/Man+in+the+Box'
p929
S'1251480680'
p930
tp931
a(S'Judas Priest'
p932
S'Turbo Lover'
p933
S'http://www.last.fm/music/Judas+Priest/_/Turbo+Lover'
p934
S'1251480347'
p935
tp936
a(S'Metallica'
p937
S'Of Wolf and Man'
p938
S'http://www.last.fm/music/Metallica/_/Of+Wolf+and+Man'
p939
S'1251480090'
p940
tp941
a(S'Stone Temple Pilots'
p942
S"Trippin' on a Hole in a Paper Heart"
p943
S'http://www.last.fm/music/Stone+Temple+Pilots/_/Trippin%27+on+a+Hole+in+a+Paper+Heart'
p944
S'1251124826'
p945
tp946
a(S'Velvet Revolver'
p947
S'Let It Roll'
p948
S'http://www.last.fm/music/Velvet+Revolver/_/Let+It+Roll'
p949
S'1251124674'
p950
tp951
a(S'Talk Show'
p952
S'John'
p953
S'http://www.last.fm/music/Talk+Show/_/John'
p954
S'1251124492'
p955
tp956
a(S'Velvet Revolver'
p957
S'She Builds Quick Machines'
p958
S'http://www.last.fm/music/Velvet+Revolver/_/She+Builds+Quick+Machines'
p959
S'1251124248'
p960
tp961
a(S'Jerry Cantrell'
p962
S'Keep The Light On'
p963
S'http://www.last.fm/music/Jerry+Cantrell/_/Keep+The+Light+On'
p964
S'1251123962'
p965
tp966
a(S'Kiss'
p967
S'Naked City'
p968
S'http://www.last.fm/music/Kiss/_/Naked+City'
p969
S'1251123730'
p970
tp971
a(S'ZZ Top'
p972
S'Black Fly'
p973
S'http://www.last.fm/music/ZZ+Top/_/Black+Fly'
p974
S'1251123517'
p975
tp976
a(S'Megadeth'
p977
S'Addicted to Chaos'
p978
S'http://www.last.fm/music/Megadeth/_/Addicted+to+Chaos'
p979
S'1251123191'
p980
tp981
a(S'ZZ Top'
p982
S"She's Just Killing Me"
p983
S'http://www.last.fm/music/ZZ+Top/_/She%27s+Just+Killing+Me'
p984
S'1251122893'
p985
tp986
a(S'Velvet Revolver'
p987
S'Spectacle'
p988
S'http://www.last.fm/music/Velvet+Revolver/_/Spectacle'
p989
S'1251122672'
p990
tp991
a(S'Scorpions'
p992
S'Rock You Like a Hurricane'
p993
S'http://www.last.fm/music/Scorpions/_/Rock+You+Like+a+Hurricane'
p994
S'1251122419'
p995
tp996
a(S'Mother Love Bone'
p997
S'Heartshine'
p998
S'http://www.last.fm/music/Mother+Love+Bone/_/Heartshine'
p999
S'1251122141'
p1000
tp1001
a.