(lp1
(S'Stone Temple Pilots'
p2
S'Peacoat'
p3
S'http://www.last.fm/music/Stone+Temple+Pilots/_/Peacoat'
p4
S'1276205361'
p5
tp6
a(S'The Rolling Stones'
p7
S'Moonlight Mile'
p8
S'http://www.last.fm/music/The+Rolling+Stones/_/Moonlight+Mile'
p9
S'1276205137'
p10
tp11
a(S'Queens of the Stone Age'
p12
S'Hidden Track'
p13
S'http://www.last.fm/music/Queens+of+the+Stone+Age/_/Hidden+Track'
p14
S'1276204836'
p15
tp16
a(S'The Cult'
p17
S'Sun King'
p18
S'http://www.last.fm/music/The+Cult/_/Sun+King'
p19
S'1276204802'
p20
tp21
a(S'Soundgarden'
p22
S'Mind Riot'
p23
S'http://www.last.fm/music/Soundgarden/_/Mind+Riot'
p24
S'1276204434'
p25
tp26
a(S'Alice Cooper'
p27
S"This Maniac's in Love With You"
p28
S'http://www.last.fm/music/Alice+Cooper/_/This+Maniac%27s+in+Love+With+You'
p29
S'1276204144'
p30
tp31
a(S'Queens of the Stone Age'
p32
S'In My Head'
p33
S'http://www.last.fm/music/Queens+of+the+Stone+Age/_/In+My+Head'
p34
S'1276203916'
p35
tp36
a(S'Nirvana'
p37
S'Plateau'
p38
S'http://www.last.fm/music/Nirvana/_/Plateau'
p39
S'1276203675'
p40
tp41
a(S'Alice in Chains'
p42
S'Rotten Apple'
p43
S'http://www.last.fm/music/Alice+in+Chains/_/Rotten+Apple'
p44
S'1276203402'
p45
tp46
a(S'ZZ Top'
p47
S'Cover Your Rig'
p48
S'http://www.last.fm/music/ZZ+Top/_/Cover+Your+Rig'
p49
S'1276202983'
p50
tp51
a(S'Ozzy Osbourne'
p52
S'Secret Loser'
p53
S'http://www.last.fm/music/Ozzy+Osbourne/_/Secret+Loser'
p54
S'1276202621'
p55
tp56
a(S'Queens of the Stone Age'
p57
S'In My Head'
p58
S'http://www.last.fm/music/Queens+of+the+Stone+Age/_/In+My+Head'
p59
S'1276202363'
p60
tp61
a(S'Nirvana'
p62
S'Plateau'
p63
S'http://www.last.fm/music/Nirvana/_/Plateau'
p64
S'1276199985'
p65
tp66
a(S'Judas Priest'
p67
S'Turbo Lover'
p68
S'http://www.last.fm/music/Judas+Priest/_/Turbo+Lover'
p69
S'1276199718'
p70
tp71
a(S'Queens of the Stone Age'
p72
S'Misfit Love'
p73
S'http://www.last.fm/music/Queens+of+the+Stone+Age/_/Misfit+Love'
p74
S'1276199385'
p75
tp76
a(S'Live'
p77
S'T.B.D.'
p78
S'http://www.last.fm/music/Live/_/T.B.D.'
p79
S'1276199029'
p80
tp81
a(S'Velvet Revolver'
p82
S'Do It For The Kids'
p83
S'http://www.last.fm/music/Velvet+Revolver/_/Do+It+For+The+Kids'
p84
S'1276198825'
p85
tp86
a(S'Alice in Chains'
p87
S'Rooster'
p88
S'http://www.last.fm/music/Alice+in+Chains/_/Rooster'
p89
S'1276198575'
p90
tp91
a(S'Alice in Chains'
p92
S'Rooster'
p93
S'http://www.last.fm/music/Alice+in+Chains/_/Rooster'
p94
S'1276198200'
p95
tp96
a(S'Jerry Cantrell'
p97
S'Dickeye'
p98
S'http://www.last.fm/music/Jerry+Cantrell/_/Dickeye'
p99
S'1276197819'
p100
tp101
a(S'Ozzy Osbourne'
p102
S'Secret Loser'
p103
S'http://www.last.fm/music/Ozzy+Osbourne/_/Secret+Loser'
p104
S'1276197506'
p105
tp106
a(S'Nirvana'
p107
S'Plateau'
p108
S'http://www.last.fm/music/Nirvana/_/Plateau'
p109
S'1276197173'
p110
tp111
a(S'Nirvana'
p112
S'Lake Of Fire'
p113
S'http://www.last.fm/music/Nirvana/_/Lake+Of+Fire'
p114
S'1276196955'
p115
tp116
a(S'Nirvana'
p117
S'Oh Me'
p118
S'http://www.last.fm/music/Nirvana/_/Oh+Me'
p119
S'1276196415'
p120
tp121
a(S'Nirvana'
p122
S'Plateau'
p123
S'http://www.last.fm/music/Nirvana/_/Plateau'
p124
S'1276196209'
p125
tp126
a(S'Nirvana'
p127
S'Plateau'
p128
S'http://www.last.fm/music/Nirvana/_/Plateau'
p129
S'1276196000'
p130
tp131
a(S'Nirvana'
p132
S'Something in the Way'
p133
S'http://www.last.fm/music/Nirvana/_/Something+in+the+Way'
p134
S'1276195862'
p135
tp136
a(S'Nirvana'
p137
S'On a Plain'
p138
S'http://www.last.fm/music/Nirvana/_/On+a+Plain'
p139
S'1276195620'
p140
tp141
a(S'Nirvana'
p142
S'Polly'
p143
S'http://www.last.fm/music/Nirvana/_/Polly'
p144
S'1276195396'
p145
tp146
a(S'Nirvana'
p147
S'Dumb'
p148
S'http://www.last.fm/music/Nirvana/_/Dumb'
p149
S'1276195200'
p150
tp151
a(S'Nirvana'
p152
S'Pennyroyal Tea'
p153
S'http://www.last.fm/music/Nirvana/_/Pennyroyal+Tea'
p154
S'1276195027'
p155
tp156
a(S'Nirvana'
p157
S'The Man Who Sold the World'
p158
S'http://www.last.fm/music/Nirvana/_/The+Man+Who+Sold+the+World'
p159
S'1276194806'
p160
tp161
a(S'Nirvana'
p162
S"Jesus Doesn't Want Me For A Sunbeam"
p163
S'http://www.last.fm/music/Nirvana/_/Jesus+Doesn%27t+Want+Me+For+A+Sunbeam'
p164
S'1276194545'
p165
tp166
a(S'Nirvana'
p167
S'Come as You Are'
p168
S'http://www.last.fm/music/Nirvana/_/Come+as+You+Are'
p169
S'1276194268'
p170
tp171
a(S'Nirvana'
p172
S'About a Girl'
p173
S'http://www.last.fm/music/Nirvana/_/About+a+Girl'
p174
S'1276194014'
p175
tp176
a(S'Stone Temple Pilots'
p177
S'First Kiss on Mars'
p178
S'http://www.last.fm/music/Stone+Temple+Pilots/_/First+Kiss+on+Mars'
p179
S'1276193782'
p180
tp181
a(S'Stone Temple Pilots'
p182
S'Hickory Dichotomy'
p183
S'http://www.last.fm/music/Stone+Temple+Pilots/_/Hickory+Dichotomy'
p184
S'1276193545'
p185
tp186
a(S'Bee Gees'
p187
S'E.S.P.'
p188
S'http://www.last.fm/music/Bee+Gees/_/E.S.P.'
p189
S'1276193279'
p190
tp191
a(S'Stone Temple Pilots'
p192
S'Peacoat'
p193
S'http://www.last.fm/music/Stone+Temple+Pilots/_/Peacoat'
p194
S'1276192931'
p195
tp196
a(S'Ozzy Osbourne'
p197
S'Secret Loser'
p198
S'http://www.last.fm/music/Ozzy+Osbourne/_/Secret+Loser'
p199
S'1276192700'
p200
tp201
a(S'Live'
p202
S'The Dam At Otter Creek'
p203
S'http://www.last.fm/music/Live/_/The+Dam+At+Otter+Creek'
p204
S'1276192410'
p205
tp206
a(S'Live'
p207
S'Out To Dry'
p208
S'http://www.last.fm/music/Live/_/Out+To+Dry'
p209
S'1276191104'
p210
tp211
a(S'Jamiroquai'
p212
S'2001'
p213
S'http://www.last.fm/music/Jamiroquai/_/2001'
p214
S'1276190904'
p215
tp216
a(S'The Cult'
p217
S'Love Removal Machine'
p218
S'http://www.last.fm/music/The+Cult/_/Love+Removal+Machine'
p219
S'1276190587'
p220
tp221
a(S'Ozzy Osbourne'
p222
S'No More Tears'
p223
S'http://www.last.fm/music/Ozzy+Osbourne/_/No+More+Tears'
p224
S'1276190329'
p225
tp226
a(S'Stone Temple Pilots'
p227
S'Huckleberry Crumble'
p228
S'http://www.last.fm/music/Stone+Temple+Pilots/_/Huckleberry+Crumble'
p229
S'1276189840'
p230
tp231
a(S'Blues Traveler'
p232
S'Psycho Joe'
p233
S'http://www.last.fm/music/Blues+Traveler/_/Psycho+Joe'
p234
S'1276189533'
p235
tp236
a(S'Ozzy Osbourne'
p237
S'The Ultimate Sin'
p238
S'http://www.last.fm/music/Ozzy+Osbourne/_/The+Ultimate+Sin'
p239
S'1276189298'
p240
tp241
a(S'Black Sabbath'
p242
S'Supernaut'
p243
S'http://www.last.fm/music/Black+Sabbath/_/Supernaut'
p244
S'1276189074'
p245
tp246
a(S'Ozzy Osbourne'
p247
S'Secret Loser'
p248
S'http://www.last.fm/music/Ozzy+Osbourne/_/Secret+Loser'
p249
S'1276188843'
p250
tp251
a(S'Ozzy Osbourne'
p252
S'Secret Loser'
p253
S'http://www.last.fm/music/Ozzy+Osbourne/_/Secret+Loser'
p254
S'1276188412'
p255
tp256
a(S'Black Sabbath'
p257
S'Supernaut'
p258
S'http://www.last.fm/music/Black+Sabbath/_/Supernaut'
p259
S'1276188264'
p260
tp261
a(S'Ozzy Osbourne'
p262
S'Secret Loser'
p263
S'http://www.last.fm/music/Ozzy+Osbourne/_/Secret+Loser'
p264
S'1276188029'
p265
tp266
a(S'Stone Temple Pilots'
p267
S'Huckleberry Crumble'
p268
S'http://www.last.fm/music/Stone+Temple+Pilots/_/Huckleberry+Crumble'
p269
S'1276187773'
p270
tp271
a(S'Ozzy Osbourne'
p272
S'Secret Loser'
p273
S'http://www.last.fm/music/Ozzy+Osbourne/_/Secret+Loser'
p274
S'1276183492'
p275
tp276
a(S'Blues Traveler'
p277
S'Psycho Joe'
p278
S'http://www.last.fm/music/Blues+Traveler/_/Psycho+Joe'
p279
S'1276182963'
p280
tp281
a(S'Ozzy Osbourne'
p282
S'The Ultimate Sin'
p283
S'http://www.last.fm/music/Ozzy+Osbourne/_/The+Ultimate+Sin'
p284
S'1276182727'
p285
tp286
a(S'Ozzy Osbourne'
p287
S'Shot in the Dark'
p288
S'http://www.last.fm/music/Ozzy+Osbourne/_/Shot+in+the+Dark'
p289
S'1276182496'
p290
tp291
a(S'Black Sabbath'
p292
S'Supernaut'
p293
S'http://www.last.fm/music/Black+Sabbath/_/Supernaut'
p294
S'1276182239'
p295
tp296
a(S'Ozzy Osbourne'
p297
S'Secret Loser'
p298
S'http://www.last.fm/music/Ozzy+Osbourne/_/Secret+Loser'
p299
S'1276182012'
p300
tp301
a(S'Led Zeppelin'
p302
S'What Is and What Should Never Be'
p303
S'http://www.last.fm/music/Led+Zeppelin/_/What+Is+and+What+Should+Never+Be'
p304
S'1276181355'
p305
tp306
a(S'Alice in Chains'
p307
S'Grind'
p308
S'http://www.last.fm/music/Alice+in+Chains/_/Grind'
p309
S'1276180304'
p310
tp311
a(S'Army Of Anyone'
p312
S'Leave It'
p313
S'http://www.last.fm/music/Army+Of+Anyone/_/Leave+It'
p314
S'1276180018'
p315
tp316
a(S'Live'
p317
S'Brothers Unaware'
p318
S'http://www.last.fm/music/Live/_/Brothers+Unaware'
p319
S'1276179747'
p320
tp321
a(S'Alice in Chains'
p322
S'Acid Bubble'
p323
S'http://www.last.fm/music/Alice+in+Chains/_/Acid+Bubble'
p324
S'1276179462'
p325
tp326
a(S'Live'
p327
S'White, Discussion'
p328
S'http://www.last.fm/music/Live/_/White,+Discussion'
p329
S'1276179008'
p330
tp331
a(S'Iron Maiden'
p332
S'Only the Good Die Young'
p333
S'http://www.last.fm/music/Iron+Maiden/_/Only+the+Good+Die+Young'
p334
S'1276178640'
p335
tp336
a(S'Live'
p337
S'She'
p338
S'http://www.last.fm/music/Live/_/She'
p339
S'1276178358'
p340
tp341
a(S'Stone Temple Pilots'
p342
S'Regeneration'
p343
S'http://www.last.fm/music/Stone+Temple+Pilots/_/Regeneration'
p344
S'1276178197'
p345
tp346
a(S'Nirvana'
p347
S'Dive'
p348
S'http://www.last.fm/music/Nirvana/_/Dive'
p349
S'1276177861'
p350
tp351
a(S'Iron Maiden'
p352
S'Sea of Madness'
p353
S'http://www.last.fm/music/Iron+Maiden/_/Sea+of+Madness'
p354
S'1276177604'
p355
tp356
a(S'Velvet Revolver'
p357
S'Sucker Train Blues'
p358
S'http://www.last.fm/music/Velvet+Revolver/_/Sucker+Train+Blues'
p359
S'1276177246'
p360
tp361
a(S'ZZ Top'
p362
S'Lizard Life'
p363
S'http://www.last.fm/music/ZZ+Top/_/Lizard+Life'
p364
S'1276176953'
p365
tp366
a(S'The Cult'
p367
S'Wild Flower'
p368
S'http://www.last.fm/music/The+Cult/_/Wild+Flower'
p369
S'1276176643'
p370
tp371
a(S'Alice in Chains'
p372
S'We Die Young (Demo)'
p373
S'http://www.last.fm/music/Alice+in+Chains/_/We+Die+Young+(Demo)'
p374
S'1276175165'
p375
tp376
a(S'Stone Temple Pilots'
p377
S'Peacoat'
p378
S'http://www.last.fm/music/Stone+Temple+Pilots/_/Peacoat'
p379
S'1276175013'
p380
tp381
a(S'Audioslave'
p382
S'Dandelion'
p383
S'http://www.last.fm/music/Audioslave/_/Dandelion'
p384
S'1276120067'
p385
tp386
a(S'Ozzy Osbourne'
p387
S'A.V.H.'
p388
S'http://www.last.fm/music/Ozzy+Osbourne/_/A.V.H.'
p389
S'1276119789'
p390
tp391
a(S'Velvet Revolver'
p392
S'Get Out The Door'
p393
S'http://www.last.fm/music/Velvet+Revolver/_/Get+Out+The+Door'
p394
S'1276119536'
p395
tp396
a(S'Queens of the Stone Age'
p397
S'Song For The Deaf'
p398
S'http://www.last.fm/music/Queens+of+the+Stone+Age/_/Song+For+The+Deaf'
p399
S'1276119338'
p400
tp401
a(S'Ozzy Osbourne'
p402
S'Time After Time'
p403
S'http://www.last.fm/music/Ozzy+Osbourne/_/Time+After+Time'
p404
S'1276117586'
p405
tp406
a(S'Alice in Chains'
p407
S'Would?'
p408
S'http://www.last.fm/music/Alice+in+Chains/_/Would%3F'
p409
S'1276117289'
p410
tp411
a(S'Bon Jovi'
p412
S'Runaway'
p413
S'http://www.last.fm/music/Bon+Jovi/_/Runaway'
p414
S'1276117065'
p415
tp416
a(S'Stone Temple Pilots'
p417
S'Sin'
p418
S'http://www.last.fm/music/Stone+Temple+Pilots/_/Sin'
p419
S'1276116831'
p420
tp421
a(S'Diamond Head'
p422
S'This Planet and Me'
p423
S'http://www.last.fm/music/Diamond+Head/_/This+Planet+and+Me'
p424
S'1276116466'
p425
tp426
a(S'Stone Temple Pilots'
p427
S'Ride the Cliche'
p428
S'http://www.last.fm/music/Stone+Temple+Pilots/_/Ride+the+Cliche'
p429
S'1276116169'
p430
tp431
a(S'Metallica'
p432
S'Motorbreath'
p433
S'http://www.last.fm/music/Metallica/_/Motorbreath'
p434
S'1276115971'
p435
tp436
a(S'Stone Temple Pilots'
p437
S'Huckleberry Crumble'
p438
S'http://www.last.fm/music/Stone+Temple+Pilots/_/Huckleberry+Crumble'
p439
S'1276115777'
p440
tp441
a(S'Audioslave'
p442
S'Jewel Of The Summertime'
p443
S'http://www.last.fm/music/Audioslave/_/Jewel+Of+The+Summertime'
p444
S'1276115581'
p445
tp446
a(S'Alice in Chains'
p447
S'All Secrets Known'
p448
S'http://www.last.fm/music/Alice+in+Chains/_/All+Secrets+Known'
p449
S'1276115406'
p450
tp451
a(S'Lynyrd Skynyrd'
p452
S'Preacher Man'
p453
S'http://www.last.fm/music/Lynyrd+Skynyrd/_/Preacher+Man'
p454
S'1276115124'
p455
tp456
a(S'Audioslave'
p457
S'One And The Same'
p458
S'http://www.last.fm/music/Audioslave/_/One+And+The+Same'
p459
S'1276114800'
p460
tp461
a(S'Soundgarden'
p462
S'Kickstand'
p463
S'http://www.last.fm/music/Soundgarden/_/Kickstand'
p464
S'1276114585'
p465
tp466
a(S'Live'
p467
S'Sparkle'
p468
S'http://www.last.fm/music/Live/_/Sparkle'
p469
S'1276114490'
p470
tp471
a(S'Stone Temple Pilots'
p472
S'Regeneration'
p473
S'http://www.last.fm/music/Stone+Temple+Pilots/_/Regeneration'
p474
S'1276114216'
p475
tp476
a(S'Nirvana'
p477
S'Lounge Act'
p478
S'http://www.last.fm/music/Nirvana/_/Lounge+Act'
p479
S'1276113885'
p480
tp481
a(S'Live'
p482
S'Deep Enough'
p483
S'http://www.last.fm/music/Live/_/Deep+Enough'
p484
S'1276113724'
p485
tp486
a(S'Jerry Cantrell'
p487
S'Jesus Hands'
p488
S'http://www.last.fm/music/Jerry+Cantrell/_/Jesus+Hands'
p489
S'1276113525'
p490
tp491
a(S'Shemekia Copeland'
p492
S"Big Lovin' Woman"
p493
S'http://www.last.fm/music/Shemekia+Copeland/_/Big+Lovin%27+Woman'
p494
S'1276113188'
p495
tp496
a(S'Foreigner'
p497
S'Blue Morning, Blue Day'
p498
S'http://www.last.fm/music/Foreigner/_/Blue+Morning,+Blue+Day'
p499
S'1276112964'
p500
tp501
a(S'Jerry Cantrell'
p502
S'Cold Piece'
p503
S'http://www.last.fm/music/Jerry+Cantrell/_/Cold+Piece'
p504
S'1276112777'
p505
tp506
a(S'Iron Maiden'
p507
S'Sea of Madness'
p508
S'http://www.last.fm/music/Iron+Maiden/_/Sea+of+Madness'
p509
S'1276112272'
p510
tp511
a(S'Stone Temple Pilots'
p512
S'First Kiss on Mars'
p513
S'http://www.last.fm/music/Stone+Temple+Pilots/_/First+Kiss+on+Mars'
p514
S'1276111030'
p515
tp516
a(S'Alice in Chains'
p517
S"Don't Follow"
p518
S'http://www.last.fm/music/Alice+in+Chains/_/Don%27t+Follow'
p519
S'1276110846'
p520
tp521
a(S'Stone Temple Pilots'
p522
S'Between the Lines'
p523
S'http://www.last.fm/music/Stone+Temple+Pilots/_/Between+the+Lines'
p524
S'1276110584'
p525
tp526
a(S'Alice Cooper'
p527
S'Snakebite'
p528
S'http://www.last.fm/music/Alice+Cooper/_/Snakebite'
p529
S'1276110351'
p530
tp531
a(S'Alice in Chains'
p532
S'Brush Away'
p533
S'http://www.last.fm/music/Alice+in+Chains/_/Brush+Away'
p534
S'1276110042'
p535
tp536
a(S'Stone Temple Pilots'
p537
S'Peacoat'
p538
S'http://www.last.fm/music/Stone+Temple+Pilots/_/Peacoat'
p539
S'1276109823'
p540
tp541
a(S'Stone Temple Pilots'
p542
S'Fast as I Can'
p543
S'http://www.last.fm/music/Stone+Temple+Pilots/_/Fast+as+I+Can'
p544
S'1276109614'
p545
tp546
a(S'Alice in Chains'
p547
S'I Stay Away'
p548
S'http://www.last.fm/music/Alice+in+Chains/_/I+Stay+Away'
p549
S'1276109459'
p550
tp551
a(S'Ozzy Osbourne'
p552
S"I Don't Wanna Stop"
p553
S'http://www.last.fm/music/Ozzy+Osbourne/_/I+Don%27t+Wanna+Stop'
p554
S'1276109165'
p555
tp556
a(S'Jamiroquai'
p557
S'Picture of My Life'
p558
S'http://www.last.fm/music/Jamiroquai/_/Picture+of+My+Life'
p559
S'1276108915'
p560
tp561
a(S'Live'
p562
S'Top'
p563
S'http://www.last.fm/music/Live/_/Top'
p564
S'1276108606'
p565
tp566
a(S'Ozzy Osbourne'
p567
S'Denial'
p568
S'http://www.last.fm/music/Ozzy+Osbourne/_/Denial'
p569
S'1276108443'
p570
tp571
a(S'Audioslave'
p572
S'Show Me How To Live'
p573
S'http://www.last.fm/music/Audioslave/_/Show+Me+How+To+Live'
p574
S'1276106710'
p575
tp576
a(S'Daft Punk'
p577
S'Veridis Quo'
p578
S'http://www.last.fm/music/Daft+Punk/_/Veridis+Quo'
p579
S'1276106432'
p580
tp581
a(S'Queens of the Stone Age'
p582
S'Better Living Through Chemistry'
p583
S'http://www.last.fm/music/Queens+of+the+Stone+Age/_/Better+Living+Through+Chemistry'
p584
S'1276106091'
p585
tp586
a(S'Stone Temple Pilots'
p587
S'Pruno'
p588
S'http://www.last.fm/music/Stone+Temple+Pilots/_/Pruno'
p589
S'1276105742'
p590
tp591
a(S'Bee Gees'
p592
S'E.S.P.'
p593
S'http://www.last.fm/music/Bee+Gees/_/E.S.P.'
p594
S'1276105547'
p595
tp596
a(S'Audioslave'
p597
S'Getaway Car'
p598
S'http://www.last.fm/music/Audioslave/_/Getaway+Car'
p599
S'1276096382'
p600
tp601
a(S'Velvet Revolver'
p602
S'Gas and a Dollar Laugh'
p603
S'http://www.last.fm/music/Velvet+Revolver/_/Gas+and+a+Dollar+Laugh'
p604
S'1276096083'
p605
tp606
a(S'The Cult'
p607
S'Earth Mofo'
p608
S'http://www.last.fm/music/The+Cult/_/Earth+Mofo'
p609
S'1276095885'
p610
tp611
a(S'Stone Temple Pilots'
p612
S'Meat Plow'
p613
S'http://www.last.fm/music/Stone+Temple+Pilots/_/Meat+Plow'
p614
S'1276095603'
p615
tp616
a(S'Velvet Revolver'
p617
S"Don't Drop That Dime"
p618
S'http://www.last.fm/music/Velvet+Revolver/_/Don%27t+Drop+That+Dime'
p619
S'1276095386'
p620
tp621
a(S'Alice Cooper'
p622
S"The Song That Didn't Rhyme"
p623
S'http://www.last.fm/music/Alice+Cooper/_/The+Song+That+Didn%27t+Rhyme'
p624
S'1276095146'
p625
tp626
a(S'The Cult'
p627
S'Heart of Soul'
p628
S'http://www.last.fm/music/The+Cult/_/Heart+of+Soul'
p629
S'1276094949'
p630
tp631
a(S'Daft Punk'
p632
S'Harder, Better, Faster, Stronger'
p633
S'http://www.last.fm/music/Daft+Punk/_/Harder,+Better,+Faster,+Stronger'
p634
S'1276094675'
p635
tp636
a(S'Live'
p637
S'What Are We Fighting For?'
p638
S'http://www.last.fm/music/Live/_/What+Are+We+Fighting+For%3F'
p639
S'1276094436'
p640
tp641
a(S'Live'
p642
S'Mirror Song'
p643
S'http://www.last.fm/music/Live/_/Mirror+Song'
p644
S'1276094234'
p645
tp646
a(S'Alice in Chains'
p647
S'Check My Brain'
p648
S'http://www.last.fm/music/Alice+in+Chains/_/Check+My+Brain'
p649
S'1276094016'
p650
tp651
a(S'Blues Traveler'
p652
S'Look Around'
p653
S'http://www.last.fm/music/Blues+Traveler/_/Look+Around'
p654
S'1276093778'
p655
tp656
a(S'Judas Priest'
p657
S'Hot for Love'
p658
S'http://www.last.fm/music/Judas+Priest/_/Hot+for+Love'
p659
S'1276093432'
p660
tp661
a(S'Live'
p662
S'Run Away'
p663
S'http://www.last.fm/music/Live/_/Run+Away'
p664
S'1276093180'
p665
tp666
a(S'The Cult'
p667
S'Edie (Ciao Baby)'
p668
S'http://www.last.fm/music/The+Cult/_/Edie+(Ciao+Baby)'
p669
S'1276092947'
p670
tp671
a(S'Tavares'
p672
S'More Than a Woman'
p673
S'http://www.last.fm/music/Tavares/_/More+Than+a+Woman'
p674
S'1276092698'
p675
tp676
a(S'Live'
p677
S'Voodoo Lady'
p678
S'http://www.last.fm/music/Live/_/Voodoo+Lady'
p679
S'1276092566'
p680
tp681
a(S'Alice in Chains'
p682
S'Get Born Again'
p683
S'http://www.last.fm/music/Alice+in+Chains/_/Get+Born+Again'
p684
S'1276092306'
p685
tp686
a(S'Queen'
p687
S'In Only Seven Days'
p688
S'http://www.last.fm/music/Queen/_/In+Only+Seven+Days'
p689
S'1276091936'
p690
tp691
a(S'Stone Temple Pilots'
p692
S'Take a Load Off'
p693
S'http://www.last.fm/music/Stone+Temple+Pilots/_/Take+a+Load+Off'
p694
S'1276091796'
p695
tp696
a(S'Alice in Chains'
p697
S'Rain When I Die'
p698
S'http://www.last.fm/music/Alice+in+Chains/_/Rain+When+I+Die'
p699
S'1276091605'
p700
tp701
a(S'Audioslave'
p702
S'The Worm'
p703
S'http://www.last.fm/music/Audioslave/_/The+Worm'
p704
S'1276091227'
p705
tp706
a(S'Live'
p707
S'Sweet Release'
p708
S'http://www.last.fm/music/Live/_/Sweet+Release'
p709
S'1276090989'
p710
tp711
a(S'Blues Traveler'
p712
S'The Good, the Bad, and the Ugly'
p713
S'http://www.last.fm/music/Blues+Traveler/_/The+Good,+the+Bad,+and+the+Ugly'
p714
S'1276090806'
p715
tp716
a(S'Ozzy Osbourne'
p717
S'Shot in the Dark'
p718
S'http://www.last.fm/music/Ozzy+Osbourne/_/Shot+in+the+Dark'
p719
S'1276090691'
p720
tp721
a(S'Alice Cooper'
p722
S'Dirty Dreams'
p723
S'http://www.last.fm/music/Alice+Cooper/_/Dirty+Dreams'
p724
S'1275971660'
p725
tp726
a(S'Alice Cooper'
p727
S'Dangerous Tonight'
p728
S'http://www.last.fm/music/Alice+Cooper/_/Dangerous+Tonight'
p729
S'1275970406'
p730
tp731
a(S'Ozzy Osbourne'
p732
S'Denial'
p733
S'http://www.last.fm/music/Ozzy+Osbourne/_/Denial'
p734
S'1275970124'
p735
tp736
a(S'Jamiroquai'
p737
S'Little L'
p738
S'http://www.last.fm/music/Jamiroquai/_/Little+L'
p739
S'1275969674'
p740
tp741
a(S'Metallica'
p742
S"Don't Tread on Me"
p743
S'http://www.last.fm/music/Metallica/_/Don%27t+Tread+on+Me'
p744
S'1275969376'
p745
tp746
a(S'Bo Diddley'
p747
S'That Mule'
p748
S'http://www.last.fm/music/Bo+Diddley/_/That+Mule'
p749
S'1275969136'
p750
tp751
a(S'Nirvana'
p752
S'Dumb'
p753
S'http://www.last.fm/music/Nirvana/_/Dumb'
p754
S'1275968713'
p755
tp756
a(S'AC/DC'
p757
S'Soul Stripper'
p758
S'http://www.last.fm/music/AC%2FDC/_/Soul+Stripper'
p759
S'1275968561'
p760
tp761
a(S'Alice in Chains'
p762
S'Rain When I Die'
p763
S'http://www.last.fm/music/Alice+in+Chains/_/Rain+When+I+Die'
p764
S'1275968144'
p765
tp766
a(S'Blues Traveler'
p767
S'The Gunfighter'
p768
S'http://www.last.fm/music/Blues+Traveler/_/The+Gunfighter'
p769
S'1275967531'
p770
tp771
a(S'Black Sabbath'
p772
S'Walk Away'
p773
S'http://www.last.fm/music/Black+Sabbath/_/Walk+Away'
p774
S'1275967234'
p775
tp776
a(S'Velvet Revolver'
p777
S"Can't Get It Out Of My Head"
p778
S'http://www.last.fm/music/Velvet+Revolver/_/Can%27t+Get+It+Out+Of+My+Head'
p779
S'1275966974'
p780
tp781
a(S'Velvet Revolver'
p782
S'Money'
p783
S'http://www.last.fm/music/Velvet+Revolver/_/Money'
p784
S'1275966736'
p785
tp786
a(S'Ozzy Osbourne'
p787
S"Rock 'n' Roll Rebel"
p788
S'http://www.last.fm/music/Ozzy+Osbourne/_/Rock+%27n%27+Roll+Rebel'
p789
S'1275966393'
p790
tp791
a(S'Live'
p792
S'Run Away'
p793
S'http://www.last.fm/music/Live/_/Run+Away'
p794
S'1275966044'
p795
tp796
a(S'Audioslave'
p797
S'Like A Stone'
p798
S'http://www.last.fm/music/Audioslave/_/Like+A+Stone'
p799
S'1275965795'
p800
tp801
a(S'Led Zeppelin'
p802
S'Moby Dick'
p803
S'http://www.last.fm/music/Led+Zeppelin/_/Moby+Dick'
p804
S'1275965482'
p805
tp806
a(S'Them Crooked Vultures'
p807
S'Gunman'
p808
S'http://www.last.fm/music/Them+Crooked+Vultures/_/Gunman'
p809
S'1275965316'
p810
tp811
a(S'Alice in Chains'
p812
S'Swing on This'
p813
S'http://www.last.fm/music/Alice+in+Chains/_/Swing+on+This'
p814
S'1275959774'
p815
tp816
a(S'Nirvana'
p817
S'Breed'
p818
S'http://www.last.fm/music/Nirvana/_/Breed'
p819
S'1275959529'
p820
tp821
a(S'Nirvana'
p822
S'Polly'
p823
S'http://www.last.fm/music/Nirvana/_/Polly'
p824
S'1275959340'
p825
tp826
a(S'Rainbow'
p827
S'Man on the Silver Mountain'
p828
S'http://www.last.fm/music/Rainbow/_/Man+on+the+Silver+Mountain'
p829
S'1275959164'
p830
tp831
a(S'Black Sabbath'
p832
S'Planet Caravan'
p833
S'http://www.last.fm/music/Black+Sabbath/_/Planet+Caravan'
p834
S'1275958873'
p835
tp836
a(S'Black Sabbath'
p837
S'The Writ'
p838
S'http://www.last.fm/music/Black+Sabbath/_/The+Writ'
p839
S'1275958598'
p840
tp841
a(S'Queens of the Stone Age'
p842
S'The Lost Art of Keeping a Secret'
p843
S'http://www.last.fm/music/Queens+of+the+Stone+Age/_/The+Lost+Art+of+Keeping+a+Secret'
p844
S'1275958176'
p845
tp846
a(S'Jamiroquai'
p847
S'Main Vein'
p848
S'http://www.last.fm/music/Jamiroquai/_/Main+Vein'
p849
S'1275957961'
p850
tp851
a(S'Queen'
p852
S'Cool Cat'
p853
S'http://www.last.fm/music/Queen/_/Cool+Cat'
p854
S'1275957655'
p855
tp856
a(S'Live'
p857
S'The Dam At Otter Creek'
p858
S'http://www.last.fm/music/Live/_/The+Dam+At+Otter+Creek'
p859
S'1275957446'
p860
tp861
a(S'Daft Punk'
p862
S'Indo Silver Club'
p863
S'http://www.last.fm/music/Daft+Punk/_/Indo+Silver+Club'
p864
S'1275957163'
p865
tp866
a(S'Jamiroquai'
p867
S'You Give Me Something'
p868
S'http://www.last.fm/music/Jamiroquai/_/You+Give+Me+Something'
p869
S'1275956896'
p870
tp871
a(S'Stone Temple Pilots'
p872
S'Interstate Love Song'
p873
S'http://www.last.fm/music/Stone+Temple+Pilots/_/Interstate+Love+Song'
p874
S'1275956655'
p875
tp876
a(S'Alice in Chains'
p877
S'Rooster (Live)'
p878
S'http://www.last.fm/music/Alice+in+Chains/_/Rooster+(Live)'
p879
S'1275956460'
p880
tp881
a(S'Stone Temple Pilots'
p882
S'Bagman'
p883
S'http://www.last.fm/music/Stone+Temple+Pilots/_/Bagman'
p884
S'1275956046'
p885
tp886
a(S'The Cult'
p887
S'Revolution'
p888
S'http://www.last.fm/music/The+Cult/_/Revolution'
p889
S'1275954144'
p890
tp891
a(S'Black Sabbath'
p892
S'Wheels of Confusion'
p893
S'http://www.last.fm/music/Black+Sabbath/_/Wheels+of+Confusion'
p894
S'1275953887'
p895
tp896
a(S'Alice Cooper'
p897
S'Trash'
p898
S'http://www.last.fm/music/Alice+Cooper/_/Trash'
p899
S'1275953385'
p900
tp901
a(S'Alice Cooper'
p902
S'Poison'
p903
S'http://www.last.fm/music/Alice+Cooper/_/Poison'
p904
S'1275953182'
p905
tp906
a(S'The Rolling Stones'
p907
S'Happy'
p908
S'http://www.last.fm/music/The+Rolling+Stones/_/Happy'
p909
S'1275952913'
p910
tp911
a(S'Queen'
p912
S'More Of That Jazz'
p913
S'http://www.last.fm/music/Queen/_/More+Of+That+Jazz'
p914
S'1275952728'
p915
tp916
a(S'Foreigner'
p917
S"I Don't Want to Live Without You"
p918
S'http://www.last.fm/music/Foreigner/_/I+Don%27t+Want+to+Live+Without+You'
p919
S'1275952521'
p920
tp921
a(S'Live'
p922
S'We Walk In The Dream'
p923
S'http://www.last.fm/music/Live/_/We+Walk+In+The+Dream'
p924
S'1275952230'
p925
tp926
a(S'ZZ Top'
p927
S'Breakaway'
p928
S'http://www.last.fm/music/ZZ+Top/_/Breakaway'
p929
S'1275951968'
p930
tp931
a(S'Audioslave'
p932
S'Somedays'
p933
S'http://www.last.fm/music/Audioslave/_/Somedays'
p934
S'1275951575'
p935
tp936
a(S'Daft Punk'
p937
S'High Life'
p938
S'http://www.last.fm/music/Daft+Punk/_/High+Life'
p939
S'1275951363'
p940
tp941
a(S'Velvet Revolver'
p942
S'Headspace'
p943
S'http://www.last.fm/music/Velvet+Revolver/_/Headspace'
p944
S'1275951158'
p945
tp946
a(S'Ozzy Osbourne'
p947
S"Don't Blame Me (Bonus Track)"
p948
S'http://www.last.fm/music/Ozzy+Osbourne/_/Don%27t+Blame+Me+(Bonus+Track)'
p949
S'1275950910'
p950
tp951
a(S'Metallica'
p952
S'Of Wolf and Man'
p953
S'http://www.last.fm/music/Metallica/_/Of+Wolf+and+Man'
p954
S'1275950604'
p955
tp956
a(S'Alice Cooper'
p957
S"I'm So Angry"
p958
S'http://www.last.fm/music/Alice+Cooper/_/I%27m+So+Angry'
p959
S'1275950348'
p960
tp961
a(S'Queens of the Stone Age'
p962
S'In the Fade'
p963
S'http://www.last.fm/music/Queens+of+the+Stone+Age/_/In+the+Fade'
p964
S'1275950157'
p965
tp966
a(S'Queens of the Stone Age'
p967
S'Go With the Flow'
p968
S'http://www.last.fm/music/Queens+of+the+Stone+Age/_/Go+With+the+Flow'
p969
S'1275949916'
p970
tp971
a(S'Stone Temple Pilots'
p972
S'Adhesive'
p973
S'http://www.last.fm/music/Stone+Temple+Pilots/_/Adhesive'
p974
S'1275949728'
p975
tp976
a(S'Black Sabbath'
p977
S'Heaven and Hell'
p978
S'http://www.last.fm/music/Black+Sabbath/_/Heaven+and+Hell'
p979
S'1275949465'
p980
tp981
a(S'Soundgarden'
p982
S'Somewhere'
p983
S'http://www.last.fm/music/Soundgarden/_/Somewhere'
p984
S'1275949224'
p985
tp986
a(S'Them Crooked Vultures'
p987
S'Gunman'
p988
S'http://www.last.fm/music/Them+Crooked+Vultures/_/Gunman'
p989
S'1275947830'
p990
tp991
a(S'Soundgarden'
p992
S'4th of July'
p993
S'http://www.last.fm/music/Soundgarden/_/4th+of+July'
p994
S'1275947544'
p995
tp996
a(S'Stone Temple Pilots'
p997
S'Huckleberry Crumble'
p998
S'http://www.last.fm/music/Stone+Temple+Pilots/_/Huckleberry+Crumble'
p999
S'1275947234'
p1000
tp1001
a.