(lp1
(S'Iommi'
p2
S'Black Oblivion'
p3
S'http://www.last.fm/music/Iommi/_/Black+Oblivion'
p4
S'1240927260'
p5
tp6
a(S'Metallica'
p7
S'All Nightmare Long'
p8
S'http://www.last.fm/music/Metallica/_/All+Nightmare+Long'
p9
S'1240926783'
p10
tp11
a(S'Ozzy Osbourne'
p12
S'The Almighty Dollar'
p13
S'http://www.last.fm/music/Ozzy+Osbourne/_/The+Almighty+Dollar'
p14
S'1240925329'
p15
tp16
a(S'Alice in Chains'
p17
S'Grind'
p18
S'http://www.last.fm/music/Alice+in+Chains/_/Grind'
p19
S'1240925043'
p20
tp21
a(S'Alice in Chains'
p22
S'Swing on This'
p23
S'http://www.last.fm/music/Alice+in+Chains/_/Swing+on+This'
p24
S'1240924799'
p25
tp26
a(S'Megadeth'
p27
S'The Disintegrators'
p28
S'http://www.last.fm/music/Megadeth/_/The+Disintegrators'
p29
S'1240924614'
p30
tp31
a(S'Live'
p32
S"The Dolphin's Cry"
p33
S'http://www.last.fm/music/Live/_/The+Dolphin%27s+Cry'
p34
S'1240924350'
p35
tp36
a(S'Metallica'
p37
S'All Nightmare Long'
p38
S'http://www.last.fm/music/Metallica/_/All+Nightmare+Long'
p39
S'1240923873'
p40
tp41
a(S'Live'
p42
S'Lighthouse'
p43
S'http://www.last.fm/music/Live/_/Lighthouse'
p44
S'1240923496'
p45
tp46
a(S'Jerry Cantrell'
p47
S'Satisfy'
p48
S'http://www.last.fm/music/Jerry+Cantrell/_/Satisfy'
p49
S'1240923281'
p50
tp51
a(S'Roxette'
p52
S'Listen to Your Heart'
p53
S'http://www.last.fm/music/Roxette/_/Listen+to+Your+Heart'
p54
S'1240922970'
p55
tp56
a(S'Yes'
p57
S'Changes'
p58
S'http://www.last.fm/music/Yes/_/Changes'
p59
S'1240922590'
p60
tp61
a(S'Iommi'
p62
S'Flame On'
p63
S'http://www.last.fm/music/Iommi/_/Flame+On'
p64
S'1240922242'
p65
tp66
a(S'AC/DC'
p67
S'Rocking All the Way'
p68
S'http://www.last.fm/music/AC%2FDC/_/Rocking+All+the+Way'
p69
S'1240922039'
p70
tp71
a(S'Stone Temple Pilots'
p72
S'Press Play'
p73
S'http://www.last.fm/music/Stone+Temple+Pilots/_/Press+Play'
p74
S'1240921958'
p75
tp76
a(S'Diamond Head'
p77
S'Lost at Sea'
p78
S'http://www.last.fm/music/Diamond+Head/_/Lost+at+Sea'
p79
S'1240921719'
p80
tp81
a(S'ZZ Top'
p82
S'Loaded'
p83
S'http://www.last.fm/music/ZZ+Top/_/Loaded'
p84
S'1240921491'
p85
tp86
a(S'Iommi'
p87
S'Patterns'
p88
S'http://www.last.fm/music/Iommi/_/Patterns'
p89
S'1240921231'
p90
tp91
a(S'Metallica'
p92
S'The Day That Never Comes'
p93
S'http://www.last.fm/music/Metallica/_/The+Day+That+Never+Comes'
p94
S'1240920754'
p95
tp96
a(S'Live'
p97
S'Lighthouse'
p98
S'http://www.last.fm/music/Live/_/Lighthouse'
p99
S'1240920566'
p100
tp101
a(S'Jerry Cantrell'
p102
S'Satisfy'
p103
S'http://www.last.fm/music/Jerry+Cantrell/_/Satisfy'
p104
S'1240920352'
p105
tp106
a(S'Roxette'
p107
S'Listen to Your Heart'
p108
S'http://www.last.fm/music/Roxette/_/Listen+to+Your+Heart'
p109
S'1240920041'
p110
tp111
a(S'Yes'
p112
S'Changes'
p113
S'http://www.last.fm/music/Yes/_/Changes'
p114
S'1240919285'
p115
tp116
a(S'Jamiroquai'
p117
S'Love Blind'
p118
S'http://www.last.fm/music/Jamiroquai/_/Love+Blind'
p119
S'1240873181'
p120
tp121
a(S'Stone Temple Pilots'
p122
S'Meat Plow'
p123
S'http://www.last.fm/music/Stone+Temple+Pilots/_/Meat+Plow'
p124
S'1240872964'
p125
tp126
a(S'Pantera'
p127
S'Clash With Reality'
p128
S'http://www.last.fm/music/Pantera/_/Clash+With+Reality'
p129
S'1240872648'
p130
tp131
a(S'Jerry Cantrell'
p132
S'Jesus Hands'
p133
S'http://www.last.fm/music/Jerry+Cantrell/_/Jesus+Hands'
p134
S'1240872311'
p135
tp136
a(S'Alice Cooper'
p137
S'Why Trust You'
p138
S'http://www.last.fm/music/Alice+Cooper/_/Why+Trust+You'
p139
S'1240872118'
p140
tp141
a(S'Ozzy Osbourne'
p142
S"Countdown's Begun"
p143
S'http://www.last.fm/music/Ozzy+Osbourne/_/Countdown%27s+Begun'
p144
S'1240871824'
p145
tp146
a(S'Alice Cooper'
p147
S'Trash'
p148
S'http://www.last.fm/music/Alice+Cooper/_/Trash'
p149
S'1240871585'
p150
tp151
a(S'Alice in Chains'
p152
S'Brother'
p153
S'http://www.last.fm/music/Alice+in+Chains/_/Brother'
p154
S'1240871317'
p155
tp156
a(S'Megadeth'
p157
S'Wanderlust'
p158
S'http://www.last.fm/music/Megadeth/_/Wanderlust'
p159
S'1240870969'
p160
tp161
a(S'Pantera'
p162
S'This Love'
p163
S'http://www.last.fm/music/Pantera/_/This+Love'
p164
S'1240870576'
p165
tp166
a(S'Yes'
p167
S'Changes'
p168
S'http://www.last.fm/music/Yes/_/Changes'
p169
S'1240870196'
p170
tp171
a(S'Yes'
p172
S'Changes'
p173
S'http://www.last.fm/music/Yes/_/Changes'
p174
S'1240835869'
p175
tp176
a(S'Yes'
p177
S'Changes'
p178
S'http://www.last.fm/music/Yes/_/Changes'
p179
S'1240835159'
p180
tp181
a(S'Yes'
p182
S'Changes'
p183
S'http://www.last.fm/music/Yes/_/Changes'
p184
S'1240834208'
p185
tp186
a(S'Yes'
p187
S'Changes'
p188
S'http://www.last.fm/music/Yes/_/Changes'
p189
S'1240682927'
p190
tp191
a(S'Peter Frampton'
p192
S'Breaking All The Rules'
p193
S'http://www.last.fm/music/Peter+Frampton/_/Breaking+All+The+Rules'
p194
S'1240682420'
p195
tp196
a(S'Roxette'
p197
S'Spending My Time'
p198
S'http://www.last.fm/music/Roxette/_/Spending+My+Time'
p199
S'1240682132'
p200
tp201
a(S'Live'
p202
S'Where Fishes Go'
p203
S'http://www.last.fm/music/Live/_/Where+Fishes+Go'
p204
S'1240681861'
p205
tp206
a(S'Iron Maiden'
p207
S'The Clansman'
p208
S'http://www.last.fm/music/Iron+Maiden/_/The+Clansman'
p209
S'1240681289'
p210
tp211
a(S'Alice in Chains'
p212
S"I Can't Remember"
p213
S'http://www.last.fm/music/Alice+in+Chains/_/I+Can%27t+Remember'
p214
S'1240681066'
p215
tp216
a(S'Survivor'
p217
S'Burning Heart'
p218
S'http://www.last.fm/music/Survivor/_/Burning+Heart'
p219
S'1240680832'
p220
tp221
a(S'Pantera'
p222
S'Shattered'
p223
S'http://www.last.fm/music/Pantera/_/Shattered'
p224
S'1240680630'
p225
tp226
a(S'Megadeth'
p227
S'The Killing Road'
p228
S'http://www.last.fm/music/Megadeth/_/The+Killing+Road'
p229
S'1240680299'
p230
tp231
a(S'Jerry Cantrell'
p232
S'Devil By His Side'
p233
S'http://www.last.fm/music/Jerry+Cantrell/_/Devil+By+His+Side'
p234
S'1240680010'
p235
tp236
a(S'Alice in Chains'
p237
S'Grind'
p238
S'http://www.last.fm/music/Alice+in+Chains/_/Grind'
p239
S'1240679724'
p240
tp241
a(S'Iommi'
p242
S'Into The Night'
p243
S'http://www.last.fm/music/Iommi/_/Into+The+Night'
p244
S'1240679423'
p245
tp246
a(S'Megadeth'
p247
S'Addicted to Chaos'
p248
S'http://www.last.fm/music/Megadeth/_/Addicted+to+Chaos'
p249
S'1240679096'
p250
tp251
a(S'Iommi'
p252
S'Black Oblivion'
p253
S'http://www.last.fm/music/Iommi/_/Black+Oblivion'
p254
S'1240678791'
p255
tp256
a(S'Yes'
p257
S'Changes'
p258
S'http://www.last.fm/music/Yes/_/Changes'
p259
S'1240677844'
p260
tp261
a(S'Yes'
p262
S'Changes'
p263
S'http://www.last.fm/music/Yes/_/Changes'
p264
S'1240677251'
p265
tp266
a(S'Jamiroquai'
p267
S'Main Vein'
p268
S'http://www.last.fm/music/Jamiroquai/_/Main+Vein'
p269
S'1240603409'
p270
tp271
a(S'New Model Army'
p272
S'51st State'
p273
S'http://www.last.fm/music/New+Model+Army/_/51st+State'
p274
S'1240603254'
p275
tp276
a(S'Iron Maiden'
p277
S'Sea of Madness'
p278
S'http://www.last.fm/music/Iron+Maiden/_/Sea+of+Madness'
p279
S'1240602912'
p280
tp281
a(S'Stone Temple Pilots'
p282
S'Ride the Cliche'
p283
S'http://www.last.fm/music/Stone+Temple+Pilots/_/Ride+the+Cliche'
p284
S'1240602543'
p285
tp286
a(S'Metallica'
p287
S'2 X 4'
p288
S'http://www.last.fm/music/Metallica/_/2+X+4'
p289
S'1240602213'
p290
tp291
a(S'Pantera'
p292
S'Shattered'
p293
S'http://www.last.fm/music/Pantera/_/Shattered'
p294
S'1240602011'
p295
tp296
a(S'Jethro Tull'
p297
S'Aqualung'
p298
S'http://www.last.fm/music/Jethro+Tull/_/Aqualung'
p299
S'1240599540'
p300
tp301
a(S'Roxette'
p302
S'(Do You Get) Excited'
p303
S'http://www.last.fm/music/Roxette/_/(Do+You+Get)+Excited'
p304
S'1240599283'
p305
tp306
a(S'Jerry Cantrell'
p307
S'Keep The Light On'
p308
S'http://www.last.fm/music/Jerry+Cantrell/_/Keep+The+Light+On'
p309
S'1240598996'
p310
tp311
a(S'Iron Maiden'
p312
S'Chains of Misery'
p313
S'http://www.last.fm/music/Iron+Maiden/_/Chains+of+Misery'
p314
S'1240598773'
p315
tp316
a(S'Pantera'
p317
S'Cowboys from Hell'
p318
S'http://www.last.fm/music/Pantera/_/Cowboys+from+Hell'
p319
S'1240598516'
p320
tp321
a(S'Alice Cooper'
p322
S"I'm Your Gun"
p323
S'http://www.last.fm/music/Alice+Cooper/_/I%27m+Your+Gun'
p324
S'1240598262'
p325
tp326
a(S'Diamond Head'
p327
S"What's in Your Head?"
p328
S'http://www.last.fm/music/Diamond+Head/_/What%27s+in+Your+Head%3F'
p329
S'1240598009'
p330
tp331
a(S'Jerry Cantrell'
p332
S'Hurt A Long Time'
p333
S'http://www.last.fm/music/Jerry+Cantrell/_/Hurt+A+Long+Time'
p334
S'1240597669'
p335
tp336
a(S'AC/DC'
p337
S'Rock N Roll Train'
p338
S'http://www.last.fm/music/AC%2FDC/_/Rock+N+Roll+Train'
p339
S'1240597408'
p340
tp341
a(S'Megadeth'
p342
S'A Tout le Monde'
p343
S'http://www.last.fm/music/Megadeth/_/A+Tout+le+Monde'
p344
S'1240597139'
p345
tp346
a(S'Live'
p347
S'Tired of "Me"'
p348
S'http://www.last.fm/music/Live/_/Tired+of+%22Me%22'
p349
S'1240596914'
p350
tp351
a(S'Jennifer Hanson'
p352
S'Baby I Was Wrong'
p353
S'http://www.last.fm/music/Jennifer+Hanson/_/Baby+I+Was+Wrong'
p354
S'1240596649'
p355
tp356
a(S'Corrosion of Conformity'
p357
S'Clean My Wounds'
p358
S'http://www.last.fm/music/Corrosion+of+Conformity/_/Clean+My+Wounds'
p359
S'1240596417'
p360
tp361
a(S'Jerry Cantrell'
p362
S'Cut You In'
p363
S'http://www.last.fm/music/Jerry+Cantrell/_/Cut+You+In'
p364
S'1240596216'
p365
tp366
a(S'Iron Maiden'
p367
S'Public Enema Number One'
p368
S'http://www.last.fm/music/Iron+Maiden/_/Public+Enema+Number+One'
p369
S'1240595962'
p370
tp371
a(S'The Bar-Kays'
p372
S'Too Hot To Stop'
p373
S'http://www.last.fm/music/The+Bar-Kays/_/Too+Hot+To+Stop'
p374
S'1240595654'
p375
tp376
a(S'Kiss'
p377
S'Naked City'
p378
S'http://www.last.fm/music/Kiss/_/Naked+City'
p379
S'1240595427'
p380
tp381
a(S'Judas Priest'
p382
S"You've Got Another Thing Comin'"
p383
S'http://www.last.fm/music/Judas+Priest/_/You%27ve+Got+Another+Thing+Comin%27'
p384
S'1240594665'
p385
tp386
a(S'Alice in Chains'
p387
S"It Ain't Like That"
p388
S'http://www.last.fm/music/Alice+in+Chains/_/It+Ain%27t+Like+That'
p389
S'1240594357'
p390
tp391
a(S'Ozzy Osbourne'
p392
S'The Almighty Dollar'
p393
S'http://www.last.fm/music/Ozzy+Osbourne/_/The+Almighty+Dollar'
p394
S'1240593939'
p395
tp396
a(S'Megadeth'
p397
S'Diadems'
p398
S'http://www.last.fm/music/Megadeth/_/Diadems'
p399
S'1240593704'
p400
tp401
a(S'Joan Jett and the Blackhearts'
p402
S"I Love Rock 'n' Roll"
p403
S'http://www.last.fm/music/Joan+Jett+and+the+Blackhearts/_/I+Love+Rock+%27n%27+Roll'
p404
S'1240593495'
p405
tp406
a(S'Joan Jett and the Blackhearts'
p407
S'I Hate Myself for Loving You'
p408
S'http://www.last.fm/music/Joan+Jett+and+the+Blackhearts/_/I+Hate+Myself+for+Loving+You'
p409
S'1240593248'
p410
tp411
a(S'Tonic'
p412
S'If You Could Only See'
p413
S'http://www.last.fm/music/Tonic/_/If+You+Could+Only+See'
p414
S'1240592984'
p415
tp416
a(S'Stone Temple Pilots'
p417
S'Seven Caged Tigers'
p418
S'http://www.last.fm/music/Stone+Temple+Pilots/_/Seven+Caged+Tigers'
p419
S'1240585665'
p420
tp421
a(S'Iommi'
p422
S'Saviour of the Real'
p423
S'http://www.last.fm/music/Iommi/_/Saviour+of+the+Real'
p424
S'1240585417'
p425
tp426
a(S'Iommi'
p427
S'Goodbye Lament'
p428
S'http://www.last.fm/music/Iommi/_/Goodbye+Lament'
p429
S'1240585200'
p430
tp431
a(S'Dio'
p432
S'Rainbow in the Dark'
p433
S'http://www.last.fm/music/Dio/_/Rainbow+in+the+Dark'
p434
S'1240584951'
p435
tp436
a(S'Soundgarden'
p437
S'Drawing Flies'
p438
S'http://www.last.fm/music/Soundgarden/_/Drawing+Flies'
p439
S'1240521966'
p440
tp441
a(S'Kiss'
p442
S"Strutter '78"
p443
S'http://www.last.fm/music/Kiss/_/Strutter+%2778'
p444
S'1240521742'
p445
tp446
a(S'Live'
p447
S'Run To The Water'
p448
S'http://www.last.fm/music/Live/_/Run+To+The+Water'
p449
S'1240521292'
p450
tp451
a(S'Iron Maiden'
p452
S'Public Enema Number One'
p453
S'http://www.last.fm/music/Iron+Maiden/_/Public+Enema+Number+One'
p454
S'1240521038'
p455
tp456
a(S'Kiss'
p457
S"Heaven's On Fire"
p458
S'http://www.last.fm/music/Kiss/_/Heaven%27s+On+Fire'
p459
S'1240520836'
p460
tp461
a(S'The Bar-Kays'
p462
S'Too Hot To Stop'
p463
S'http://www.last.fm/music/The+Bar-Kays/_/Too+Hot+To+Stop'
p464
S'1240520442'
p465
tp466
a(S'Alice Cooper'
p467
S'Bed of Nails'
p468
S'http://www.last.fm/music/Alice+Cooper/_/Bed+of+Nails'
p469
S'1240505669'
p470
tp471
a(S'Alice in Chains'
p472
S'I Know Somethin (Bout You)'
p473
S'http://www.last.fm/music/Alice+in+Chains/_/I+Know+Somethin+(Bout+You)'
p474
S'1240505396'
p475
tp476
a(S'Cypress Hill'
p477
S'Insane in the Brain'
p478
S'http://www.last.fm/music/Cypress+Hill/_/Insane+in+the+Brain'
p479
S'1240505183'
p480
tp481
a(S'Corrosion of Conformity'
p482
S'Clean My Wounds'
p483
S'http://www.last.fm/music/Corrosion+of+Conformity/_/Clean+My+Wounds'
p484
S'1240490232'
p485
tp486
a(S'ZZ Top'
p487
S'Zipper Job'
p488
S'http://www.last.fm/music/ZZ+Top/_/Zipper+Job'
p489
S'1240489977'
p490
tp491
a(S'Pantera'
p492
S'Cowboys from Hell'
p493
S'http://www.last.fm/music/Pantera/_/Cowboys+from+Hell'
p494
S'1240489730'
p495
tp496
a(S'Stone Temple Pilots'
p497
S'Daisy'
p498
S'http://www.last.fm/music/Stone+Temple+Pilots/_/Daisy'
p499
S'1240489591'
p500
tp501
a(S'Stone Temple Pilots'
p502
S'Meat Plow'
p503
S'http://www.last.fm/music/Stone+Temple+Pilots/_/Meat+Plow'
p504
S'1240489375'
p505
tp506
a(S'Judas Priest'
p507
S'Diamonds and Rust'
p508
S'http://www.last.fm/music/Judas+Priest/_/Diamonds+and+Rust'
p509
S'1240489167'
p510
tp511
a(S'Scorpions'
p512
S'Still Loving You'
p513
S'http://www.last.fm/music/Scorpions/_/Still+Loving+You'
p514
S'1240488827'
p515
tp516
a(S'ZZ Top'
p517
S'Rhythmeen'
p518
S'http://www.last.fm/music/ZZ+Top/_/Rhythmeen'
p519
S'1240488540'
p520
tp521
a(S'Yes'
p522
S'Owner of a Lonely Heart'
p523
S'http://www.last.fm/music/Yes/_/Owner+of+a+Lonely+Heart'
p524
S'1240488276'
p525
tp526
a(S'Stone Temple Pilots'
p527
S'Lady Picture Show'
p528
S'http://www.last.fm/music/Stone+Temple+Pilots/_/Lady+Picture+Show'
p529
S'1240433950'
p530
tp531
a(S'Stone Temple Pilots'
p532
S'Big Bang Baby'
p533
S'http://www.last.fm/music/Stone+Temple+Pilots/_/Big+Bang+Baby'
p534
S'1240433747'
p535
tp536
a(S'Stone Temple Pilots'
p537
S'Tumble in the Rough'
p538
S'http://www.last.fm/music/Stone+Temple+Pilots/_/Tumble+in+the+Rough'
p539
S'1240433548'
p540
tp541
a(S'Stone Temple Pilots'
p542
S"Pop's Love Suicide"
p543
S'http://www.last.fm/music/Stone+Temple+Pilots/_/Pop%27s+Love+Suicide'
p544
S'1240433325'
p545
tp546
a(S'Stone Temple Pilots'
p547
S'Press Play'
p548
S'http://www.last.fm/music/Stone+Temple+Pilots/_/Press+Play'
p549
S'1240433244'
p550
tp551
a(S'Stone Temple Pilots'
p552
S'Kitchenware & Candybars'
p553
S'http://www.last.fm/music/Stone+Temple+Pilots/_/Kitchenware+&+Candybars'
p554
S'1240432758'
p555
tp556
a(S'Stone Temple Pilots'
p557
S'Army Ants'
p558
S'http://www.last.fm/music/Stone+Temple+Pilots/_/Army+Ants'
p559
S'1240432531'
p560
tp561
a(S'Stone Temple Pilots'
p562
S'"Unglued"'
p563
S'http://www.last.fm/music/Stone+Temple+Pilots/_/%22Unglued%22'
p564
S'1240432377'
p565
tp566
a(S'Stone Temple Pilots'
p567
S'Big Empty'
p568
S'http://www.last.fm/music/Stone+Temple+Pilots/_/Big+Empty'
p569
S'1240432082'
p570
tp571
a(S'Stone Temple Pilots'
p572
S'Silvergun Superman'
p573
S'http://www.last.fm/music/Stone+Temple+Pilots/_/Silvergun+Superman'
p574
S'1240431766'
p575
tp576
a(S'Stone Temple Pilots'
p577
S'Pretty Penny'
p578
S'http://www.last.fm/music/Stone+Temple+Pilots/_/Pretty+Penny'
p579
S'1240431544'
p580
tp581
a(S'Stone Temple Pilots'
p582
S'Still Remains'
p583
S'http://www.last.fm/music/Stone+Temple+Pilots/_/Still+Remains'
p584
S'1240431331'
p585
tp586
a(S'Stone Temple Pilots'
p587
S'Interstate Love Song'
p588
S'http://www.last.fm/music/Stone+Temple+Pilots/_/Interstate+Love+Song'
p589
S'1240431137'
p590
tp591
a(S'Stone Temple Pilots'
p592
S'Lounge Fly'
p593
S'http://www.last.fm/music/Stone+Temple+Pilots/_/Lounge+Fly'
p594
S'1240430818'
p595
tp596
a(S'Stone Temple Pilots'
p597
S'Vasoline'
p598
S'http://www.last.fm/music/Stone+Temple+Pilots/_/Vasoline'
p599
S'1240430641'
p600
tp601
a(S'Stone Temple Pilots'
p602
S'Meat Plow'
p603
S'http://www.last.fm/music/Stone+Temple+Pilots/_/Meat+Plow'
p604
S'1240430424'
p605
tp606
a(S'Soundgarden'
p607
S'New Damage'
p608
S'http://www.last.fm/music/Soundgarden/_/New+Damage'
p609
S'1240430083'
p610
tp611
a(S'Soundgarden'
p612
S'Holy Water'
p613
S'http://www.last.fm/music/Soundgarden/_/Holy+Water'
p614
S'1240429776'
p615
tp616
a(S'Soundgarden'
p617
S'Drawing Flies'
p618
S'http://www.last.fm/music/Soundgarden/_/Drawing+Flies'
p619
S'1240429630'
p620
tp621
a(S'Soundgarden'
p622
S'Mind Riot'
p623
S'http://www.last.fm/music/Soundgarden/_/Mind+Riot'
p624
S'1240429340'
p625
tp626
a(S'Soundgarden'
p627
S'Room a Thousand Years Wide'
p628
S'http://www.last.fm/music/Soundgarden/_/Room+a+Thousand+Years+Wide'
p629
S'1240429094'
p630
tp631
a(S'Soundgarden'
p632
S'Searching With My Good Eye Closed'
p633
S'http://www.last.fm/music/Soundgarden/_/Searching+With+My+Good+Eye+Closed'
p634
S'1240428703'
p635
tp636
a(S'Soundgarden'
p637
S'Somewhere'
p638
S'http://www.last.fm/music/Soundgarden/_/Somewhere'
p639
S'1240428442'
p640
tp641
a(S'Soundgarden'
p642
S'Face Pollution'
p643
S'http://www.last.fm/music/Soundgarden/_/Face+Pollution'
p644
S'1240428298'
p645
tp646
a(S'Soundgarden'
p647
S'Jesus Christ Pose'
p648
S'http://www.last.fm/music/Soundgarden/_/Jesus+Christ+Pose'
p649
S'1240427948'
p650
tp651
a(S'Soundgarden'
p652
S'Slaves & Bulldozers'
p653
S'http://www.last.fm/music/Soundgarden/_/Slaves+&+Bulldozers'
p654
S'1240427532'
p655
tp656
a(S'Soundgarden'
p657
S'Outshined'
p658
S'http://www.last.fm/music/Soundgarden/_/Outshined'
p659
S'1240427222'
p660
tp661
a(S'Soundgarden'
p662
S'Rusty Cage'
p663
S'http://www.last.fm/music/Soundgarden/_/Rusty+Cage'
p664
S'1240426955'
p665
tp666
a(S'Rage Against the Machine'
p667
S'Wake Up'
p668
S'http://www.last.fm/music/Rage+Against+the+Machine/_/Wake+Up'
p669
S'1240426591'
p670
tp671
a(S'Rage Against the Machine'
p672
S'Bullet In The Head (Live)'
p673
S'http://www.last.fm/music/Rage+Against+the+Machine/_/Bullet+In+The+Head+(Live)'
p674
S'1240426261'
p675
tp676
a(S'Rage Against the Machine'
p677
S'No Shelter'
p678
S'http://www.last.fm/music/Rage+Against+the+Machine/_/No+Shelter'
p679
S'1240426018'
p680
tp681
a(S'Placebo'
p682
S'Every You Every Me'
p683
S'http://www.last.fm/music/Placebo/_/Every+You+Every+Me'
p684
S'1240425804'
p685
tp686
a(S'Placebo'
p687
S"You Don't Care About Us"
p688
S'http://www.last.fm/music/Placebo/_/You+Don%27t+Care+About+Us'
p689
S'1240425565'
p690
tp691
a(S'Placebo'
p692
S'Brick Shithouse'
p693
S'http://www.last.fm/music/Placebo/_/Brick+Shithouse'
p694
S'1240425367'
p695
tp696
a(S'Placebo'
p697
S'Pure Morning'
p698
S'http://www.last.fm/music/Placebo/_/Pure+Morning'
p699
S'1240425112'
p700
tp701
a(S'Pantera'
p702
S'Hollow'
p703
S'http://www.last.fm/music/Pantera/_/Hollow'
p704
S'1240424767'
p705
tp706
a(S'Pantera'
p707
S'By Demons Be Driven'
p708
S'http://www.last.fm/music/Pantera/_/By+Demons+Be+Driven'
p709
S'1240424486'
p710
tp711
a(S'Pantera'
p712
S'Regular People (Conceit)'
p713
S'http://www.last.fm/music/Pantera/_/Regular+People+(Conceit)'
p714
S'1240424159'
p715
tp716
a(S'Pantera'
p717
S'Live in a Hole'
p718
S'http://www.last.fm/music/Pantera/_/Live+in+a+Hole'
p719
S'1240423858'
p720
tp721
a(S'Pantera'
p722
S'No Good (Attack the Radical)'
p723
S'http://www.last.fm/music/Pantera/_/No+Good+(Attack+the+Radical)'
p724
S'1240423569'
p725
tp726
a(S'Pantera'
p727
S'Rise'
p728
S'http://www.last.fm/music/Pantera/_/Rise'
p729
S'1240423292'
p730
tp731
a(S'Pantera'
p732
S'This Love'
p733
S'http://www.last.fm/music/Pantera/_/This+Love'
p734
S'1240422899'
p735
tp736
a(S'Pantera'
p737
S'Fucking Hostile'
p738
S'http://www.last.fm/music/Pantera/_/Fucking+Hostile'
p739
S'1240422731'
p740
tp741
a(S'Pantera'
p742
S'Walk'
p743
S'http://www.last.fm/music/Pantera/_/Walk'
p744
S'1240422416'
p745
tp746
a(S'Pantera'
p747
S'A New Level'
p748
S'http://www.last.fm/music/Pantera/_/A+New+Level'
p749
S'1240422178'
p750
tp751
a(S'Pantera'
p752
S'Mouth for War'
p753
S'http://www.last.fm/music/Pantera/_/Mouth+for+War'
p754
S'1240421942'
p755
tp756
a(S'Pantera'
p757
S'The Art of Shredding'
p758
S'http://www.last.fm/music/Pantera/_/The+Art+of+Shredding'
p759
S'1240421681'
p760
tp761
a(S'Pantera'
p762
S'The Sleep'
p763
S'http://www.last.fm/music/Pantera/_/The+Sleep'
p764
S'1240421335'
p765
tp766
a(S'Pantera'
p767
S'Message in Blood'
p768
S'http://www.last.fm/music/Pantera/_/Message+in+Blood'
p769
S'1240421024'
p770
tp771
a(S'Pantera'
p772
S'Medicine Man'
p773
S'http://www.last.fm/music/Pantera/_/Medicine+Man'
p774
S'1240420710'
p775
tp776
a(S'Pantera'
p777
S'Clash With Reality'
p778
S'http://www.last.fm/music/Pantera/_/Clash+With+Reality'
p779
S'1240420393'
p780
tp781
a(S'Pantera'
p782
S'Shattered'
p783
S'http://www.last.fm/music/Pantera/_/Shattered'
p784
S'1240420191'
p785
tp786
a(S'Pantera'
p787
S'Domination'
p788
S'http://www.last.fm/music/Pantera/_/Domination'
p789
S'1240419887'
p790
tp791
a(S'Pantera'
p792
S'Cemetery Gates'
p793
S'http://www.last.fm/music/Pantera/_/Cemetery+Gates'
p794
S'1240419464'
p795
tp796
a(S'Pantera'
p797
S'Heresy'
p798
S'http://www.last.fm/music/Pantera/_/Heresy'
p799
S'1240419177'
p800
tp801
a(S'Pantera'
p802
S'Psycho Holiday'
p803
S'http://www.last.fm/music/Pantera/_/Psycho+Holiday'
p804
S'1240418858'
p805
tp806
a(S'Pantera'
p807
S'Primal Concrete Sledge'
p808
S'http://www.last.fm/music/Pantera/_/Primal+Concrete+Sledge'
p809
S'1240418725'
p810
tp811
a(S'Pantera'
p812
S'Cowboys from Hell'
p813
S'http://www.last.fm/music/Pantera/_/Cowboys+from+Hell'
p814
S'1240418478'
p815
tp816
a(S'Metallica'
p817
S'Hero of the Day'
p818
S'http://www.last.fm/music/Metallica/_/Hero+of+the+Day'
p819
S'1240418347'
p820
tp821
a(S'Metallica'
p822
S'King Nothing'
p823
S'http://www.last.fm/music/Metallica/_/King+Nothing'
p824
S'1240418017'
p825
tp826
a(S'Metallica'
p827
S'Until It Sleeps'
p828
S'http://www.last.fm/music/Metallica/_/Until+It+Sleeps'
p829
S'1240417745'
p830
tp831
a(S'Metallica'
p832
S'The House Jack Built'
p833
S'http://www.last.fm/music/Metallica/_/The+House+Jack+Built'
p834
S'1240417340'
p835
tp836
a(S'Metallica'
p837
S'2 X 4'
p838
S'http://www.last.fm/music/Metallica/_/2+X+4'
p839
S'1240416186'
p840
tp841
a(S'Metallica'
p842
S"Ain't My Bitch"
p843
S'http://www.last.fm/music/Metallica/_/Ain%27t+My+Bitch'
p844
S'1240415881'
p845
tp846
a(S'Metallica'
p847
S'King Nothing'
p848
S'http://www.last.fm/music/Metallica/_/King+Nothing'
p849
S'1240414814'
p850
tp851
a(S'Metallica'
p852
S'Until It Sleeps'
p853
S'http://www.last.fm/music/Metallica/_/Until+It+Sleeps'
p854
S'1240414543'
p855
tp856
a(S'Metallica'
p857
S'The House Jack Built'
p858
S'http://www.last.fm/music/Metallica/_/The+House+Jack+Built'
p859
S'1240414142'
p860
tp861
a(S'Metallica'
p862
S'2 X 4'
p863
S'http://www.last.fm/music/Metallica/_/2+X+4'
p864
S'1240413812'
p865
tp866
a(S'Metallica'
p867
S"Ain't My Bitch"
p868
S'http://www.last.fm/music/Metallica/_/Ain%27t+My+Bitch'
p869
S'1240413506'
p870
tp871
a(S'Metallica'
p872
S'My Apocalypse'
p873
S'http://www.last.fm/music/Metallica/_/My+Apocalypse'
p874
S'1240413205'
p875
tp876
a(S'Metallica'
p877
S'Suicide And Redemption'
p878
S'http://www.last.fm/music/Metallica/_/Suicide+And+Redemption'
p879
S'1240412608'
p880
tp881
a(S'Metallica'
p882
S'The Judas Kiss'
p883
S'http://www.last.fm/music/Metallica/_/The+Judas+Kiss'
p884
S'1240412127'
p885
tp886
a(S'Metallica'
p887
S'The Unforgiven III'
p888
S'http://www.last.fm/music/Metallica/_/The+Unforgiven+III'
p889
S'1240411660'
p890
tp891
a(S'Metallica'
p892
S'Cyanide'
p893
S'http://www.last.fm/music/Metallica/_/Cyanide'
p894
S'1240411261'
p895
tp896
a(S'Metallica'
p897
S'All Nightmare Long'
p898
S'http://www.last.fm/music/Metallica/_/All+Nightmare+Long'
p899
S'1240410784'
p900
tp901
a(S'Metallica'
p902
S'The Day That Never Comes'
p903
S'http://www.last.fm/music/Metallica/_/The+Day+That+Never+Comes'
p904
S'1240410308'
p905
tp906
a(S'Metallica'
p907
S'Broken, Beat And Scarred'
p908
S'http://www.last.fm/music/Metallica/_/Broken,+Beat+And+Scarred'
p909
S'1240409922'
p910
tp911
a(S'Metallica'
p912
S'The End of the Line'
p913
S'http://www.last.fm/music/Metallica/_/The+End+of+the+Line'
p914
S'1240409450'
p915
tp916
a(S'Metallica'
p917
S'That Was Just Your Life'
p918
S'http://www.last.fm/music/Metallica/_/That+Was+Just+Your+Life'
p919
S'1240409021'
p920
tp921
a(S'Megadeth'
p922
S'Victory'
p923
S'http://www.last.fm/music/Megadeth/_/Victory'
p924
S'1240408755'
p925
tp926
a(S'Megadeth'
p927
S'Black Curtains'
p928
S'http://www.last.fm/music/Megadeth/_/Black+Curtains'
p929
S'1240408536'
p930
tp931
a(S'Megadeth'
p932
S'I Thought I Knew It All'
p933
S'http://www.last.fm/music/Megadeth/_/I+Thought+I+Knew+It+All'
p934
S'1240408311'
p935
tp936
a(S'Megadeth'
p937
S'Youthanasia'
p938
S'http://www.last.fm/music/Megadeth/_/Youthanasia'
p939
S'1240408062'
p940
tp941
a(S'Megadeth'
p942
S'Family Tree'
p943
S'http://www.last.fm/music/Megadeth/_/Family+Tree'
p944
S'1240407814'
p945
tp946
a(S'Megadeth'
p947
S'Blood of Heroes'
p948
S'http://www.last.fm/music/Megadeth/_/Blood+of+Heroes'
p949
S'1240406091'
p950
tp951
a(S'Megadeth'
p952
S'The Killing Road'
p953
S'http://www.last.fm/music/Megadeth/_/The+Killing+Road'
p954
S'1240405853'
p955
tp956
a(S'Megadeth'
p957
S'Elysian Fields'
p958
S'http://www.last.fm/music/Megadeth/_/Elysian+Fields'
p959
S'1240405609'
p960
tp961
a(S'Megadeth'
p962
S'A Tout le Monde'
p963
S'http://www.last.fm/music/Megadeth/_/A+Tout+le+Monde'
p964
S'1240405342'
p965
tp966
a(S'Megadeth'
p967
S'Addicted to Chaos'
p968
S'http://www.last.fm/music/Megadeth/_/Addicted+to+Chaos'
p969
S'1240405015'
p970
tp971
a(S'Megadeth'
p972
S'Train of Consequences'
p973
S'http://www.last.fm/music/Megadeth/_/Train+of+Consequences'
p974
S'1240404809'
p975
tp976
a(S'Megadeth'
p977
S'Reckoning Day'
p978
S'http://www.last.fm/music/Megadeth/_/Reckoning+Day'
p979
S'1240404534'
p980
tp981
a(S'Megadeth'
p982
S'Sleepwalker'
p983
S'http://www.last.fm/music/Megadeth/_/Sleepwalker'
p984
S'1240404180'
p985
tp986
a(S'Megadeth'
p987
S"Crush 'em"
p988
S'http://www.last.fm/music/Megadeth/_/Crush+%27em'
p989
S'1240403886'
p990
tp991
a(S'Megadeth'
p992
S'Wanderlust'
p993
S'http://www.last.fm/music/Megadeth/_/Wanderlust'
p994
S'1240403538'
p995
tp996
a(S'Megadeth'
p997
S'Breadline'
p998
S'http://www.last.fm/music/Megadeth/_/Breadline'
p999
S'1240403265'
p1000
tp1001
a.