(lp1
(S'Bad Religion'
p2
S'Stranger Than Fiction'
p3
S'http://www.last.fm/music/Bad+Religion/_/Stranger+Than+Fiction'
p4
S'1270494681'
p5
tp6
a(S'Them Crooked Vultures'
p7
S'Gunman'
p8
S'http://www.last.fm/music/Them+Crooked+Vultures/_/Gunman'
p9
S'1270494394'
p10
tp11
a(S'Velvet Revolver'
p12
S'Headspace'
p13
S'http://www.last.fm/music/Velvet+Revolver/_/Headspace'
p14
S'1270494171'
p15
tp16
a(S'Soundgarden'
p17
S'Superunknown'
p18
S'http://www.last.fm/music/Soundgarden/_/Superunknown'
p19
S'1270493865'
p20
tp21
a(S'Pearl Jam'
p22
S'Go'
p23
S'http://www.last.fm/music/Pearl+Jam/_/Go'
p24
S'1270493672'
p25
tp26
a(S'Stone Temple Pilots'
p27
S'Still Remains'
p28
S'http://www.last.fm/music/Stone+Temple+Pilots/_/Still+Remains'
p29
S'1270493459'
p30
tp31
a(S'Them Crooked Vultures'
p32
S'Dead End Friends'
p33
S'http://www.last.fm/music/Them+Crooked+Vultures/_/Dead+End+Friends'
p34
S'1270493264'
p35
tp36
a(S'Alice in Chains'
p37
S'Right Turn'
p38
S'http://www.last.fm/music/Alice+in+Chains/_/Right+Turn'
p39
S'1270493066'
p40
tp41
a(S'Stone Temple Pilots'
p42
S'Adhesive'
p43
S'http://www.last.fm/music/Stone+Temple+Pilots/_/Adhesive'
p44
S'1270492731'
p45
tp46
a(S'Stone Temple Pilots'
p47
S'Seven Caged Tigers'
p48
S'http://www.last.fm/music/Stone+Temple+Pilots/_/Seven+Caged+Tigers'
p49
S'1270492474'
p50
tp51
a(S'Velvet Revolver'
p52
S'Slither'
p53
S'http://www.last.fm/music/Velvet+Revolver/_/Slither'
p54
S'1270492226'
p55
tp56
a(S'Alice in Chains'
p57
S'All Secrets Known'
p58
S'http://www.last.fm/music/Alice+in+Chains/_/All+Secrets+Known'
p59
S'1270491943'
p60
tp61
a(S'Audioslave'
p62
S'Your Time Has Come'
p63
S'http://www.last.fm/music/Audioslave/_/Your+Time+Has+Come'
p64
S'1270491688'
p65
tp66
a(S'Stone Temple Pilots'
p67
S'Silvergun Superman'
p68
S'http://www.last.fm/music/Stone+Temple+Pilots/_/Silvergun+Superman'
p69
S'1270491372'
p70
tp71
a(S'Soundgarden'
p72
S'Mind Riot'
p73
S'http://www.last.fm/music/Soundgarden/_/Mind+Riot'
p74
S'1270491082'
p75
tp76
a(S'Army Of Anyone'
p77
S'Generation'
p78
S'http://www.last.fm/music/Army+Of+Anyone/_/Generation'
p79
S'1270490871'
p80
tp81
a(S'Nirvana'
p82
S'About a Girl'
p83
S'http://www.last.fm/music/Nirvana/_/About+a+Girl'
p84
S'1270490703'
p85
tp86
a(S'Alice in Chains'
p87
S'Brother'
p88
S'http://www.last.fm/music/Alice+in+Chains/_/Brother'
p89
S'1270490435'
p90
tp91
a(S'Live'
p92
S'Brothers Unaware'
p93
S'http://www.last.fm/music/Live/_/Brothers+Unaware'
p94
S'1270490150'
p95
tp96
a(S'Queens of the Stone Age'
p97
S'Misfit Love'
p98
S'http://www.last.fm/music/Queens+of+the+Stone+Age/_/Misfit+Love'
p99
S'1270489810'
p100
tp101
a(S'Queens of the Stone Age'
p102
S'Little Sister'
p103
S'http://www.last.fm/music/Queens+of+the+Stone+Age/_/Little+Sister'
p104
S'1270489635'
p105
tp106
a(S'Army Of Anyone'
p107
S'A Better Place'
p108
S'http://www.last.fm/music/Army+Of+Anyone/_/A+Better+Place'
p109
S'1270488058'
p110
tp111
a(S'Alice in Chains'
p112
S'Nutshell'
p113
S'http://www.last.fm/music/Alice+in+Chains/_/Nutshell'
p114
S'1270487799'
p115
tp116
a(S'Alice in Chains'
p117
S'Private Hell'
p118
S'http://www.last.fm/music/Alice+in+Chains/_/Private+Hell'
p119
S'1270487460'
p120
tp121
a(S'Bad Religion'
p122
S'Sorrow'
p123
S'http://www.last.fm/music/Bad+Religion/_/Sorrow'
p124
S'1270487275'
p125
tp126
a(S'Stone Temple Pilots'
p127
S'Lounge Fly'
p128
S'http://www.last.fm/music/Stone+Temple+Pilots/_/Lounge+Fly'
p129
S'1270484992'
p130
tp131
a(S'Stone Temple Pilots'
p132
S'"Unglued"'
p133
S'http://www.last.fm/music/Stone+Temple+Pilots/_/%22Unglued%22'
p134
S'1270484837'
p135
tp136
a(S'Live'
p137
S'Mirror Song'
p138
S'http://www.last.fm/music/Live/_/Mirror+Song'
p139
S'1270478681'
p140
tp141
a(S'Soundgarden'
p142
S'Drawing Flies'
p143
S'http://www.last.fm/music/Soundgarden/_/Drawing+Flies'
p144
S'1270478535'
p145
tp146
a(S'Temple of the Dog'
p147
S'Four Walled World'
p148
S'http://www.last.fm/music/Temple+of+the+Dog/_/Four+Walled+World'
p149
S'1270478121'
p150
tp151
a(S'Alice in Chains'
p152
S'Man in the Box'
p153
S'http://www.last.fm/music/Alice+in+Chains/_/Man+in+the+Box'
p154
S'1270477834'
p155
tp156
a(S'Alice in Chains'
p157
S'Over Now'
p158
S'http://www.last.fm/music/Alice+in+Chains/_/Over+Now'
p159
S'1270475899'
p160
tp161
a(S'Alice in Chains'
p162
S'Rotten Apple'
p163
S'http://www.last.fm/music/Alice+in+Chains/_/Rotten+Apple'
p164
S'1270475480'
p165
tp166
a(S'Live'
p167
S'Where Fishes Go'
p168
S'http://www.last.fm/music/Live/_/Where+Fishes+Go'
p169
S'1270475218'
p170
tp171
a(S'Soundgarden'
p172
S'Fresh Tendrils'
p173
S'http://www.last.fm/music/Soundgarden/_/Fresh+Tendrils'
p174
S'1270474962'
p175
tp176
a(S'Bad Religion'
p177
S'Better Off Dead'
p178
S'http://www.last.fm/music/Bad+Religion/_/Better+Off+Dead'
p179
S'1270474803'
p180
tp181
a(S'Stone Temple Pilots'
p182
S'Army Ants'
p183
S'http://www.last.fm/music/Stone+Temple+Pilots/_/Army+Ants'
p184
S'1270473572'
p185
tp186
a(S'Soundgarden'
p187
S'Room a Thousand Years Wide'
p188
S'http://www.last.fm/music/Soundgarden/_/Room+a+Thousand+Years+Wide'
p189
S'1270473326'
p190
tp191
a(S'Velvet Revolver'
p192
S'Big Machine'
p193
S'http://www.last.fm/music/Velvet+Revolver/_/Big+Machine'
p194
S'1270472973'
p195
tp196
a(S'Stone Temple Pilots'
p197
S'And So I Know'
p198
S'http://www.last.fm/music/Stone+Temple+Pilots/_/And+So+I+Know'
p199
S'1270472735'
p200
tp201
a(S'Stone Temple Pilots'
p202
S"Trippin' on a Hole in a Paper Heart"
p203
S'http://www.last.fm/music/Stone+Temple+Pilots/_/Trippin%27+on+a+Hole+in+a+Paper+Heart'
p204
S'1270472559'
p205
tp206
a(S'Audioslave'
p207
S'Somedays'
p208
S'http://www.last.fm/music/Audioslave/_/Somedays'
p209
S'1270472346'
p210
tp211
a(S'Soundgarden'
p212
S'Fell on Black Days'
p213
S'http://www.last.fm/music/Soundgarden/_/Fell+on+Black+Days'
p214
S'1270472064'
p215
tp216
a(S'Stone Temple Pilots'
p217
S'Vasoline'
p218
S'http://www.last.fm/music/Stone+Temple+Pilots/_/Vasoline'
p219
S'1270471861'
p220
tp221
a(S'Temple of the Dog'
p222
S'Wooden Jesus'
p223
S'http://www.last.fm/music/Temple+of+the+Dog/_/Wooden+Jesus'
p224
S'1270471611'
p225
tp226
a(S'Jerry Cantrell'
p227
S'Satisfy'
p228
S'http://www.last.fm/music/Jerry+Cantrell/_/Satisfy'
p229
S'1270471396'
p230
tp231
a(S'Audioslave'
p232
S'Sound Of A Gun'
p233
S'http://www.last.fm/music/Audioslave/_/Sound+Of+A+Gun'
p234
S'1270471138'
p235
tp236
a(S'Audioslave'
p237
S'Shadow On The Sun'
p238
S'http://www.last.fm/music/Audioslave/_/Shadow+On+The+Sun'
p239
S'1270470795'
p240
tp241
a(S'Queens of the Stone Age'
p242
S'Misfit Love'
p243
S'http://www.last.fm/music/Queens+of+the+Stone+Age/_/Misfit+Love'
p244
S'1270219555'
p245
tp246
a(S'Alice in Chains'
p247
S'No Excuses'
p248
S'http://www.last.fm/music/Alice+in+Chains/_/No+Excuses'
p249
S'1270219299'
p250
tp251
a(S'Them Crooked Vultures'
p252
S'New Fang'
p253
S'http://www.last.fm/music/Them+Crooked+Vultures/_/New+Fang'
p254
S'1270219071'
p255
tp256
a(S'Stone Temple Pilots'
p257
S'Kitchenware & Candybars'
p258
S'http://www.last.fm/music/Stone+Temple+Pilots/_/Kitchenware+&+Candybars'
p259
S'1270218765'
p260
tp261
a(S'Alice in Chains'
p262
S'I Stay Away'
p263
S'http://www.last.fm/music/Alice+in+Chains/_/I+Stay+Away'
p264
S'1270218511'
p265
tp266
a(S'Audioslave'
p267
S'Shadow On The Sun'
p268
S'http://www.last.fm/music/Audioslave/_/Shadow+On+The+Sun'
p269
S'1270218168'
p270
tp271
a(S'Audioslave'
p272
S'Sound Of A Gun'
p273
S'http://www.last.fm/music/Audioslave/_/Sound+Of+A+Gun'
p274
S'1270149871'
p275
tp276
a(S'Stone Temple Pilots'
p277
S'Adhesive'
p278
S'http://www.last.fm/music/Stone+Temple+Pilots/_/Adhesive'
p279
S'1270145162'
p280
tp281
a(S'Pearl Jam'
p282
S'Black'
p283
S'http://www.last.fm/music/Pearl+Jam/_/Black'
p284
S'1270144816'
p285
tp286
a(S'Army Of Anyone'
p287
S'A Better Place'
p288
S'http://www.last.fm/music/Army+Of+Anyone/_/A+Better+Place'
p289
S'1270144517'
p290
tp291
a(S'Soundgarden'
p292
S'Outshined'
p293
S'http://www.last.fm/music/Soundgarden/_/Outshined'
p294
S'1270142101'
p295
tp296
a(S'Alice in Chains'
p297
S'Got Me Wrong'
p298
S'http://www.last.fm/music/Alice+in+Chains/_/Got+Me+Wrong'
p299
S'1270141849'
p300
tp301
a(S'Alice in Chains'
p302
S'Over Now'
p303
S'http://www.last.fm/music/Alice+in+Chains/_/Over+Now'
p304
S'1270141425'
p305
tp306
a(S'Temple of the Dog'
p307
S'Four Walled World'
p308
S'http://www.last.fm/music/Temple+of+the+Dog/_/Four+Walled+World'
p309
S'1270141012'
p310
tp311
a(S'Soundgarden'
p312
S'Fell on Black Days'
p313
S'http://www.last.fm/music/Soundgarden/_/Fell+on+Black+Days'
p314
S'1270140728'
p315
tp316
a(S'Temple of the Dog'
p317
S'Reach Down'
p318
S'http://www.last.fm/music/Temple+of+the+Dog/_/Reach+Down'
p319
S'1270134377'
p320
tp321
a(S'Alice in Chains'
p322
S'Private Hell'
p323
S'http://www.last.fm/music/Alice+in+Chains/_/Private+Hell'
p324
S'1270134038'
p325
tp326
a(S'Velvet Revolver'
p327
S'Spectacle'
p328
S'http://www.last.fm/music/Velvet+Revolver/_/Spectacle'
p329
S'1270133817'
p330
tp331
a(S'Alice in Chains'
p332
S'Rotten Apple'
p333
S'http://www.last.fm/music/Alice+in+Chains/_/Rotten+Apple'
p334
S'1270133398'
p335
tp336
a(S'Stone Temple Pilots'
p337
S'Meat Plow'
p338
S'http://www.last.fm/music/Stone+Temple+Pilots/_/Meat+Plow'
p339
S'1270133181'
p340
tp341
a(S'Pearl Jam'
p342
S'Do the Evolution'
p343
S'http://www.last.fm/music/Pearl+Jam/_/Do+the+Evolution'
p344
S'1270132947'
p345
tp346
a(S'Stone Temple Pilots'
p347
S'Silvergun Superman'
p348
S'http://www.last.fm/music/Stone+Temple+Pilots/_/Silvergun+Superman'
p349
S'1270132630'
p350
tp351
a(S'Talk Show'
p352
S'Hello Hello'
p353
S'http://www.last.fm/music/Talk+Show/_/Hello+Hello'
p354
S'1270132453'
p355
tp356
a(S'Audioslave'
p357
S'Somedays'
p358
S'http://www.last.fm/music/Audioslave/_/Somedays'
p359
S'1270132241'
p360
tp361
a(S'Velvet Revolver'
p362
S'You Got No Right'
p363
S'http://www.last.fm/music/Velvet+Revolver/_/You+Got+No+Right'
p364
S'1270131905'
p365
tp366
a(S'Soundgarden'
p367
S'Mind Riot'
p368
S'http://www.last.fm/music/Soundgarden/_/Mind+Riot'
p369
S'1270131616'
p370
tp371
a(S'Pearl Jam'
p372
S'Go'
p373
S'http://www.last.fm/music/Pearl+Jam/_/Go'
p374
S'1270131423'
p375
tp376
a(S'Alice in Chains'
p377
S'Brother'
p378
S'http://www.last.fm/music/Alice+in+Chains/_/Brother'
p379
S'1270131155'
p380
tp381
a(S'Jerry Cantrell'
p382
S'Settling Down'
p383
S'http://www.last.fm/music/Jerry+Cantrell/_/Settling+Down'
p384
S'1270130757'
p385
tp386
a(S'Bad Religion'
p387
S'Stranger Than Fiction'
p388
S'http://www.last.fm/music/Bad+Religion/_/Stranger+Than+Fiction'
p389
S'1270130617'
p390
tp391
a(S'Alice in Chains'
p392
S'No Excuses'
p393
S'http://www.last.fm/music/Alice+in+Chains/_/No+Excuses'
p394
S'1270130362'
p395
tp396
a(S'Alice in Chains'
p397
S'Right Turn'
p398
S'http://www.last.fm/music/Alice+in+Chains/_/Right+Turn'
p399
S'1270129838'
p400
tp401
a(S'Stone Temple Pilots'
p402
S'Army Ants'
p403
S'http://www.last.fm/music/Stone+Temple+Pilots/_/Army+Ants'
p404
S'1270127335'
p405
tp406
a(S'Temple of the Dog'
p407
S'Wooden Jesus'
p408
S'http://www.last.fm/music/Temple+of+the+Dog/_/Wooden+Jesus'
p409
S'1270127085'
p410
tp411
a(S'Army Of Anyone'
p412
S'Generation'
p413
S'http://www.last.fm/music/Army+Of+Anyone/_/Generation'
p414
S'1270126874'
p415
tp416
a(S'Them Crooked Vultures'
p417
S'Reptiles'
p418
S'http://www.last.fm/music/Them+Crooked+Vultures/_/Reptiles'
p419
S'1270126618'
p420
tp421
a(S'Army Of Anyone'
p422
S'Goodbye'
p423
S'http://www.last.fm/music/Army+Of+Anyone/_/Goodbye'
p424
S'1270126347'
p425
tp426
a(S'Live'
p427
S'Mirror Song'
p428
S'http://www.last.fm/music/Live/_/Mirror+Song'
p429
S'1270126128'
p430
tp431
a(S'Live'
p432
S'Tired of "Me"'
p433
S'http://www.last.fm/music/Live/_/Tired+of+%22Me%22'
p434
S'1270125922'
p435
tp436
a(S'Mother Love Bone'
p437
S'This Is Shangrila'
p438
S'http://www.last.fm/music/Mother+Love+Bone/_/This+Is+Shangrila'
p439
S'1270125700'
p440
tp441
a(S'Them Crooked Vultures'
p442
S'New Fang'
p443
S'http://www.last.fm/music/Them+Crooked+Vultures/_/New+Fang'
p444
S'1270125472'
p445
tp446
a(S'Them Crooked Vultures'
p447
S'Gunman'
p448
S'http://www.last.fm/music/Them+Crooked+Vultures/_/Gunman'
p449
S'1270068558'
p450
tp451
a(S'Alice in Chains'
p452
S'Over Now'
p453
S'http://www.last.fm/music/Alice+in+Chains/_/Over+Now'
p454
S'1270059675'
p455
tp456
a(S'Pearl Jam'
p457
S'Leash'
p458
S'http://www.last.fm/music/Pearl+Jam/_/Leash'
p459
S'1270059485'
p460
tp461
a(S'Alice in Chains'
p462
S'All Secrets Known'
p463
S'http://www.last.fm/music/Alice+in+Chains/_/All+Secrets+Known'
p464
S'1270059202'
p465
tp466
a(S'Them Crooked Vultures'
p467
S'No One Loves Me & Neither Do I'
p468
S'http://www.last.fm/music/Them+Crooked+Vultures/_/No+One+Loves+Me+&+Neither+Do+I'
p469
S'1270057015'
p470
tp471
a(S'Mother Love Bone'
p472
S'Gentle Groove'
p473
S'http://www.last.fm/music/Mother+Love+Bone/_/Gentle+Groove'
p474
S'1270056771'
p475
tp476
a(S'Army Of Anyone'
p477
S'Generation'
p478
S'http://www.last.fm/music/Army+Of+Anyone/_/Generation'
p479
S'1270056559'
p480
tp481
a(S'Soundgarden'
p482
S'Fresh Tendrils'
p483
S'http://www.last.fm/music/Soundgarden/_/Fresh+Tendrils'
p484
S'1270056304'
p485
tp486
a(S'Stone Temple Pilots'
p487
S'Lounge Fly'
p488
S'http://www.last.fm/music/Stone+Temple+Pilots/_/Lounge+Fly'
p489
S'1270055985'
p490
tp491
a(S'Stone Temple Pilots'
p492
S'And So I Know'
p493
S'http://www.last.fm/music/Stone+Temple+Pilots/_/And+So+I+Know'
p494
S'1270055747'
p495
tp496
a(S'Them Crooked Vultures'
p497
S'New Fang'
p498
S'http://www.last.fm/music/Them+Crooked+Vultures/_/New+Fang'
p499
S'1270055519'
p500
tp501
a(S'Soundgarden'
p502
S'Outshined'
p503
S'http://www.last.fm/music/Soundgarden/_/Outshined'
p504
S'1270055198'
p505
tp506
a(S'Alice in Chains'
p507
S'I Stay Away'
p508
S'http://www.last.fm/music/Alice+in+Chains/_/I+Stay+Away'
p509
S'1270054943'
p510
tp511
a(S'Army Of Anyone'
p512
S'A Better Place'
p513
S'http://www.last.fm/music/Army+Of+Anyone/_/A+Better+Place'
p514
S'1270052998'
p515
tp516
a(S'Velvet Revolver'
p517
S'Slither'
p518
S'http://www.last.fm/music/Velvet+Revolver/_/Slither'
p519
S'1270052208'
p520
tp521
a(S'Soundgarden'
p522
S'Fresh Tendrils'
p523
S'http://www.last.fm/music/Soundgarden/_/Fresh+Tendrils'
p524
S'1270051952'
p525
tp526
a(S'Pearl Jam'
p527
S'Do the Evolution'
p528
S'http://www.last.fm/music/Pearl+Jam/_/Do+the+Evolution'
p529
S'1270051647'
p530
tp531
a(S'Live'
p532
S'Tired of "Me"'
p533
S'http://www.last.fm/music/Live/_/Tired+of+%22Me%22'
p534
S'1270050586'
p535
tp536
a(S'Temple of the Dog'
p537
S'Four Walled World'
p538
S'http://www.last.fm/music/Temple+of+the+Dog/_/Four+Walled+World'
p539
S'1270046734'
p540
tp541
a(S'Army Of Anyone'
p542
S'Goodbye'
p543
S'http://www.last.fm/music/Army+Of+Anyone/_/Goodbye'
p544
S'1270046462'
p545
tp546
a(S'Them Crooked Vultures'
p547
S'New Fang'
p548
S'http://www.last.fm/music/Them+Crooked+Vultures/_/New+Fang'
p549
S'1270044481'
p550
tp551
a(S'Live'
p552
S'Where Fishes Go'
p553
S'http://www.last.fm/music/Live/_/Where+Fishes+Go'
p554
S'1269987839'
p555
tp556
a(S'Jerry Cantrell'
p557
S'Between'
p558
S'http://www.last.fm/music/Jerry+Cantrell/_/Between'
p559
S'1269986863'
p560
tp561
a(S'Live'
p562
S'Mirror Song'
p563
S'http://www.last.fm/music/Live/_/Mirror+Song'
p564
S'1269981412'
p565
tp566
a(S'Nirvana'
p567
S'Lithium'
p568
S'http://www.last.fm/music/Nirvana/_/Lithium'
p569
S'1269981155'
p570
tp571
a(S'Queens of the Stone Age'
p572
S'Misfit Love'
p573
S'http://www.last.fm/music/Queens+of+the+Stone+Age/_/Misfit+Love'
p574
S'1269980611'
p575
tp576
a(S'Alice in Chains'
p577
S'Swing on This'
p578
S'http://www.last.fm/music/Alice+in+Chains/_/Swing+on+This'
p579
S'1269979697'
p580
tp581
a(S'Alice in Chains'
p582
S"Don't Follow"
p583
S'http://www.last.fm/music/Alice+in+Chains/_/Don%27t+Follow'
p584
S'1269979434'
p585
tp586
a(S'Alice in Chains'
p587
S'Whale & Wasp'
p588
S'http://www.last.fm/music/Alice+in+Chains/_/Whale+&+Wasp'
p589
S'1269975923'
p590
tp591
a(S'Alice in Chains'
p592
S'No Excuses'
p593
S'http://www.last.fm/music/Alice+in+Chains/_/No+Excuses'
p594
S'1269975667'
p595
tp596
a(S'Alice in Chains'
p597
S'I Stay Away'
p598
S'http://www.last.fm/music/Alice+in+Chains/_/I+Stay+Away'
p599
S'1269975413'
p600
tp601
a(S'Alice in Chains'
p602
S'Nutshell'
p603
S'http://www.last.fm/music/Alice+in+Chains/_/Nutshell'
p604
S'1269975154'
p605
tp606
a(S'Alice in Chains'
p607
S'Rotten Apple'
p608
S'http://www.last.fm/music/Alice+in+Chains/_/Rotten+Apple'
p609
S'1269974735'
p610
tp611
a(S'Soundgarden'
p612
S'Fell on Black Days'
p613
S'http://www.last.fm/music/Soundgarden/_/Fell+on+Black+Days'
p614
S'1269974581'
p615
tp616
a(S'Alice in Chains'
p617
S'Brother'
p618
S'http://www.last.fm/music/Alice+in+Chains/_/Brother'
p619
S'1269974313'
p620
tp621
a(S'Soundgarden'
p622
S'Fresh Tendrils'
p623
S'http://www.last.fm/music/Soundgarden/_/Fresh+Tendrils'
p624
S'1269974057'
p625
tp626
a(S'Velvet Revolver'
p627
S'Get Out The Door'
p628
S'http://www.last.fm/music/Velvet+Revolver/_/Get+Out+The+Door'
p629
S'1269973863'
p630
tp631
a(S'Them Crooked Vultures'
p632
S'Gunman'
p633
S'http://www.last.fm/music/Them+Crooked+Vultures/_/Gunman'
p634
S'1269973576'
p635
tp636
a(S'Velvet Revolver'
p637
S'Get Out The Door'
p638
S'http://www.last.fm/music/Velvet+Revolver/_/Get+Out+The+Door'
p639
S'1269955248'
p640
tp641
a(S'Mother Love Bone'
p642
S'Gentle Groove'
p643
S'http://www.last.fm/music/Mother+Love+Bone/_/Gentle+Groove'
p644
S'1269955004'
p645
tp646
a(S'Stone Temple Pilots'
p647
S'Silvergun Superman'
p648
S'http://www.last.fm/music/Stone+Temple+Pilots/_/Silvergun+Superman'
p649
S'1269954688'
p650
tp651
a(S'Alice in Chains'
p652
S'I Stay Away'
p653
S'http://www.last.fm/music/Alice+in+Chains/_/I+Stay+Away'
p654
S'1269954433'
p655
tp656
a(S'Soundgarden'
p657
S'Mind Riot'
p658
S'http://www.last.fm/music/Soundgarden/_/Mind+Riot'
p659
S'1269951503'
p660
tp661
a(S'Live'
p662
S'Mirror Song'
p663
S'http://www.last.fm/music/Live/_/Mirror+Song'
p664
S'1269951285'
p665
tp666
a(S'Velvet Revolver'
p667
S'Spectacle'
p668
S'http://www.last.fm/music/Velvet+Revolver/_/Spectacle'
p669
S'1269951063'
p670
tp671
a(S'Pearl Jam'
p672
S'Black'
p673
S'http://www.last.fm/music/Pearl+Jam/_/Black'
p674
S'1269950718'
p675
tp676
a(S'Queens of the Stone Age'
p677
S'Misfit Love'
p678
S'http://www.last.fm/music/Queens+of+the+Stone+Age/_/Misfit+Love'
p679
S'1269950378'
p680
tp681
a(S'Velvet Revolver'
p682
S'Superhuman'
p683
S'http://www.last.fm/music/Velvet+Revolver/_/Superhuman'
p684
S'1269950122'
p685
tp686
a(S'Alice in Chains'
p687
S'Rotten Apple'
p688
S'http://www.last.fm/music/Alice+in+Chains/_/Rotten+Apple'
p689
S'1269949703'
p690
tp691
a(S'Stone Temple Pilots'
p692
S'"Unglued"'
p693
S'http://www.last.fm/music/Stone+Temple+Pilots/_/%22Unglued%22'
p694
S'1269949549'
p695
tp696
a(S'Nirvana'
p697
S'About a Girl'
p698
S'http://www.last.fm/music/Nirvana/_/About+a+Girl'
p699
S'1269949380'
p700
tp701
a(S'Queens of the Stone Age'
p702
S'Little Sister'
p703
S'http://www.last.fm/music/Queens+of+the+Stone+Age/_/Little+Sister'
p704
S'1269949207'
p705
tp706
a(S'Alice in Chains'
p707
S'All Secrets Known'
p708
S'http://www.last.fm/music/Alice+in+Chains/_/All+Secrets+Known'
p709
S'1269948924'
p710
tp711
a(S'Alice in Chains'
p712
S'Private Hell'
p713
S'http://www.last.fm/music/Alice+in+Chains/_/Private+Hell'
p714
S'1269948586'
p715
tp716
a(S'Stone Temple Pilots'
p717
S'Meat Plow'
p718
S'http://www.last.fm/music/Stone+Temple+Pilots/_/Meat+Plow'
p719
S'1269948369'
p720
tp721
a(S'Pearl Jam'
p722
S'Leash'
p723
S'http://www.last.fm/music/Pearl+Jam/_/Leash'
p724
S'1269948179'
p725
tp726
a(S'Bad Religion'
p727
S'Better Off Dead'
p728
S'http://www.last.fm/music/Bad+Religion/_/Better+Off+Dead'
p729
S'1269948020'
p730
tp731
a(S'Soundgarden'
p732
S'Drawing Flies'
p733
S'http://www.last.fm/music/Soundgarden/_/Drawing+Flies'
p734
S'1269947874'
p735
tp736
a(S'Soundgarden'
p737
S'The Day I Tried to Live'
p738
S'http://www.last.fm/music/Soundgarden/_/The+Day+I+Tried+to+Live'
p739
S'1269947555'
p740
tp741
a(S'Audioslave'
p742
S'Somedays'
p743
S'http://www.last.fm/music/Audioslave/_/Somedays'
p744
S'1269947342'
p745
tp746
a(S'Soundgarden'
p747
S'My Wave'
p748
S'http://www.last.fm/music/Soundgarden/_/My+Wave'
p749
S'1269947030'
p750
tp751
a(S'Velvet Revolver'
p752
S'You Got No Right'
p753
S'http://www.last.fm/music/Velvet+Revolver/_/You+Got+No+Right'
p754
S'1269946695'
p755
tp756
a(S'Temple of the Dog'
p757
S'Pushin Forward Back'
p758
S'http://www.last.fm/music/Temple+of+the+Dog/_/Pushin+Forward+Back'
p759
S'1269946519'
p760
tp761
a(S'Them Crooked Vultures'
p762
S'Gunman'
p763
S'http://www.last.fm/music/Them+Crooked+Vultures/_/Gunman'
p764
S'1269946233'
p765
tp766
a(S'Live'
p767
S'Tired of "Me"'
p768
S'http://www.last.fm/music/Live/_/Tired+of+%22Me%22'
p769
S'1269904102'
p770
tp771
a(S'Mother Love Bone'
p772
S'Gentle Groove'
p773
S'http://www.last.fm/music/Mother+Love+Bone/_/Gentle+Groove'
p774
S'1269903858'
p775
tp776
a(S'Soundgarden'
p777
S'My Wave'
p778
S'http://www.last.fm/music/Soundgarden/_/My+Wave'
p779
S'1269903547'
p780
tp781
a(S'Audioslave'
p782
S'Sound Of A Gun'
p783
S'http://www.last.fm/music/Audioslave/_/Sound+Of+A+Gun'
p784
S'1269903288'
p785
tp786
a(S'Alice in Chains'
p787
S'I Stay Away'
p788
S'http://www.last.fm/music/Alice+in+Chains/_/I+Stay+Away'
p789
S'1269903034'
p790
tp791
a(S'Temple of the Dog'
p792
S'Reach Down'
p793
S'http://www.last.fm/music/Temple+of+the+Dog/_/Reach+Down'
p794
S'1269902361'
p795
tp796
a(S'Alice in Chains'
p797
S'Man in the Box'
p798
S'http://www.last.fm/music/Alice+in+Chains/_/Man+in+the+Box'
p799
S'1269902075'
p800
tp801
a(S'Pearl Jam'
p802
S'Black'
p803
S'http://www.last.fm/music/Pearl+Jam/_/Black'
p804
S'1269901729'
p805
tp806
a(S'Live'
p807
S'Brothers Unaware'
p808
S'http://www.last.fm/music/Live/_/Brothers+Unaware'
p809
S'1269901444'
p810
tp811
a(S'Stone Temple Pilots'
p812
S"Trippin' on a Hole in a Paper Heart"
p813
S'http://www.last.fm/music/Stone+Temple+Pilots/_/Trippin%27+on+a+Hole+in+a+Paper+Heart'
p814
S'1269901267'
p815
tp816
a(S'Audioslave'
p817
S'Your Time Has Come'
p818
S'http://www.last.fm/music/Audioslave/_/Your+Time+Has+Come'
p819
S'1269901011'
p820
tp821
a(S'Them Crooked Vultures'
p822
S'Gunman'
p823
S'http://www.last.fm/music/Them+Crooked+Vultures/_/Gunman'
p824
S'1269900725'
p825
tp826
a(S'Stone Temple Pilots'
p827
S'Still Remains'
p828
S'http://www.last.fm/music/Stone+Temple+Pilots/_/Still+Remains'
p829
S'1269885527'
p830
tp831
a(S'Bad Religion'
p832
S'Sorrow'
p833
S'http://www.last.fm/music/Bad+Religion/_/Sorrow'
p834
S'1269885325'
p835
tp836
a(S'Audioslave'
p837
S'Sound Of A Gun'
p838
S'http://www.last.fm/music/Audioslave/_/Sound+Of+A+Gun'
p839
S'1269885067'
p840
tp841
a(S'Mother Love Bone'
p842
S'Gentle Groove'
p843
S'http://www.last.fm/music/Mother+Love+Bone/_/Gentle+Groove'
p844
S'1269884823'
p845
tp846
a(S'Queens of the Stone Age'
p847
S'Make It Wit Chu'
p848
S'http://www.last.fm/music/Queens+of+the+Stone+Age/_/Make+It+Wit+Chu'
p849
S'1269884533'
p850
tp851
a(S'Alice in Chains'
p852
S'Over Now'
p853
S'http://www.last.fm/music/Alice+in+Chains/_/Over+Now'
p854
S'1269884109'
p855
tp856
a(S'Alice in Chains'
p857
S'Private Hell'
p858
S'http://www.last.fm/music/Alice+in+Chains/_/Private+Hell'
p859
S'1269883770'
p860
tp861
a(S'Alice in Chains'
p862
S'Nutshell'
p863
S'http://www.last.fm/music/Alice+in+Chains/_/Nutshell'
p864
S'1269883269'
p865
tp866
a(S'Audioslave'
p867
S'Your Time Has Come'
p868
S'http://www.last.fm/music/Audioslave/_/Your+Time+Has+Come'
p869
S'1269883014'
p870
tp871
a(S'Live'
p872
S'Waterboy'
p873
S'http://www.last.fm/music/Live/_/Waterboy'
p874
S'1269882826'
p875
tp876
a(S'Alice in Chains'
p877
S'All Secrets Known'
p878
S'http://www.last.fm/music/Alice+in+Chains/_/All+Secrets+Known'
p879
S'1269882543'
p880
tp881
a(S'Alice in Chains'
p882
S'Nutshell'
p883
S'http://www.last.fm/music/Alice+in+Chains/_/Nutshell'
p884
S'1269630438'
p885
tp886
a(S'Live'
p887
S'Waterboy'
p888
S'http://www.last.fm/music/Live/_/Waterboy'
p889
S'1269630250'
p890
tp891
a(S'Audioslave'
p892
S'Sound Of A Gun'
p893
S'http://www.last.fm/music/Audioslave/_/Sound+Of+A+Gun'
p894
S'1269629992'
p895
tp896
a(S'Alice in Chains'
p897
S'Private Hell'
p898
S'http://www.last.fm/music/Alice+in+Chains/_/Private+Hell'
p899
S'1269629653'
p900
tp901
a(S'Army Of Anyone'
p902
S'A Better Place'
p903
S'http://www.last.fm/music/Army+Of+Anyone/_/A+Better+Place'
p904
S'1269629354'
p905
tp906
a(S'Live'
p907
S'Operation Spirit (The Tyranny Of Tradition)'
p908
S'http://www.last.fm/music/Live/_/Operation+Spirit+(The+Tyranny+Of+Tradition)'
p909
S'1269629156'
p910
tp911
a(S'Alice in Chains'
p912
S'Brother'
p913
S'http://www.last.fm/music/Alice+in+Chains/_/Brother'
p914
S'1269628888'
p915
tp916
a(S'Audioslave'
p917
S'Somedays'
p918
S'http://www.last.fm/music/Audioslave/_/Somedays'
p919
S'1269628675'
p920
tp921
a(S'Them Crooked Vultures'
p922
S'No One Loves Me & Neither Do I'
p923
S'http://www.last.fm/music/Them+Crooked+Vultures/_/No+One+Loves+Me+&+Neither+Do+I'
p924
S'1269628365'
p925
tp926
a(S'Stone Temple Pilots'
p927
S'And So I Know'
p928
S'http://www.last.fm/music/Stone+Temple+Pilots/_/And+So+I+Know'
p929
S'1269628128'
p930
tp931
a(S'Queens of the Stone Age'
p932
S'Misfit Love'
p933
S'http://www.last.fm/music/Queens+of+the+Stone+Age/_/Misfit+Love'
p934
S'1269625897'
p935
tp936
a(S'Alice in Chains'
p937
S'Rotten Apple'
p938
S'http://www.last.fm/music/Alice+in+Chains/_/Rotten+Apple'
p939
S'1269625478'
p940
tp941
a(S'Talk Show'
p942
S'Hello Hello'
p943
S'http://www.last.fm/music/Talk+Show/_/Hello+Hello'
p944
S'1269625301'
p945
tp946
a(S'Velvet Revolver'
p947
S'Superhuman'
p948
S'http://www.last.fm/music/Velvet+Revolver/_/Superhuman'
p949
S'1269625045'
p950
tp951
a(S'Army Of Anyone'
p952
S'Generation'
p953
S'http://www.last.fm/music/Army+Of+Anyone/_/Generation'
p954
S'1269624834'
p955
tp956
a(S'Pearl Jam'
p957
S'Do the Evolution'
p958
S'http://www.last.fm/music/Pearl+Jam/_/Do+the+Evolution'
p959
S'1269624600'
p960
tp961
a(S'Stone Temple Pilots'
p962
S'Lounge Fly'
p963
S'http://www.last.fm/music/Stone+Temple+Pilots/_/Lounge+Fly'
p964
S'1269621962'
p965
tp966
a(S'Audioslave'
p967
S'Show Me How To Live'
p968
S'http://www.last.fm/music/Audioslave/_/Show+Me+How+To+Live'
p969
S'1269621684'
p970
tp971
a(S'Live'
p972
S'Where Fishes Go'
p973
S'http://www.last.fm/music/Live/_/Where+Fishes+Go'
p974
S'1269621422'
p975
tp976
a(S'Live'
p977
S'Brothers Unaware'
p978
S'http://www.last.fm/music/Live/_/Brothers+Unaware'
p979
S'1269621136'
p980
tp981
a(S'Alice in Chains'
p982
S'Over Now'
p983
S'http://www.last.fm/music/Alice+in+Chains/_/Over+Now'
p984
S'1269620713'
p985
tp986
a(S'Soundgarden'
p987
S'My Wave'
p988
S'http://www.last.fm/music/Soundgarden/_/My+Wave'
p989
S'1269620401'
p990
tp991
a(S'Alice in Chains'
p992
S'Man in the Box'
p993
S'http://www.last.fm/music/Alice+in+Chains/_/Man+in+the+Box'
p994
S'1269620114'
p995
tp996
a(S'Alice in Chains'
p997
S'Right Turn'
p998
S'http://www.last.fm/music/Alice+in+Chains/_/Right+Turn'
p999
S'1269619916'
p1000
tp1001
a.