(lp1
(S'Alice in Chains'
p2
S'God Am'
p3
S'http://www.last.fm/music/Alice+in+Chains/_/God+Am'
p4
S'1228416406'
p5
tp6
a(S'Alice in Chains'
p7
S'Rotten Apple'
p8
S'http://www.last.fm/music/Alice+in+Chains/_/Rotten+Apple'
p9
S'1228412052'
p10
tp11
a(S'Alice in Chains'
p12
S'Frogs'
p13
S'http://www.last.fm/music/Alice+in+Chains/_/Frogs'
p14
S'1228411554'
p15
tp16
a(S'Alice in Chains'
p17
S'I Stay Away'
p18
S'http://www.last.fm/music/Alice+in+Chains/_/I+Stay+Away'
p19
S'1228411300'
p20
tp21
a(S'Alice in Chains'
p22
S'No Excuses'
p23
S'http://www.last.fm/music/Alice+in+Chains/_/No+Excuses'
p24
S'1228411044'
p25
tp26
a(S'Alice in Chains'
p27
S'Sunshine'
p28
S'http://www.last.fm/music/Alice+in+Chains/_/Sunshine'
p29
S'1228410760'
p30
tp31
a(S'Alice in Chains'
p32
S'Over Now'
p33
S'http://www.last.fm/music/Alice+in+Chains/_/Over+Now'
p34
S'1228410336'
p35
tp36
a(S'Alice in Chains'
p37
S'Sludge Factory'
p38
S'http://www.last.fm/music/Alice+in+Chains/_/Sludge+Factory'
p39
S'1228409903'
p40
tp41
a(S'Alice in Chains'
p42
S'So Close'
p43
S'http://www.last.fm/music/Alice+in+Chains/_/So+Close'
p44
S'1228409737'
p45
tp46
a(S'Alice in Chains'
p47
S'Bleed the Freak'
p48
S'http://www.last.fm/music/Alice+in+Chains/_/Bleed+the+Freak'
p49
S'1228409495'
p50
tp51
a(S'Alice in Chains'
p52
S'Love, Hate, Love'
p53
S'http://www.last.fm/music/Alice+in+Chains/_/Love,+Hate,+Love'
p54
S'1228409208'
p55
tp56
a(S'Alice in Chains'
p57
S"Nothin' Song"
p58
S'http://www.last.fm/music/Alice+in+Chains/_/Nothin%27+Song'
p59
S'1228408867'
p60
tp61
a(S'Alice in Chains'
p62
S'Brush Away'
p63
S'http://www.last.fm/music/Alice+in+Chains/_/Brush+Away'
p64
S'1228408665'
p65
tp66
a(S'Alice in Chains'
p67
S'Nutshell'
p68
S'http://www.last.fm/music/Alice+in+Chains/_/Nutshell'
p69
S'1228408406'
p70
tp71
a(S'Alice in Chains'
p72
S'Heaven Beside You'
p73
S'http://www.last.fm/music/Alice+in+Chains/_/Heaven+Beside+You'
p74
S'1228408078'
p75
tp76
a(S'Alice in Chains'
p77
S'Head Creeps'
p78
S'http://www.last.fm/music/Alice+in+Chains/_/Head+Creeps'
p79
S'1228407690'
p80
tp81
a(S'Alice in Chains'
p82
S'Confusion'
p83
S'http://www.last.fm/music/Alice+in+Chains/_/Confusion'
p84
S'1228407346'
p85
tp86
a(S'Alice in Chains'
p87
S'Sea of Sorrow'
p88
S'http://www.last.fm/music/Alice+in+Chains/_/Sea+of+Sorrow'
p89
S'1228406984'
p90
tp91
a(S'Alice in Chains'
p92
S'God Am'
p93
S'http://www.last.fm/music/Alice+in+Chains/_/God+Am'
p94
S'1228406736'
p95
tp96
a(S'Alice in Chains'
p97
S'Whale & Wasp'
p98
S'http://www.last.fm/music/Alice+in+Chains/_/Whale+&+Wasp'
p99
S'1228406579'
p100
tp101
a(S'Alice in Chains'
p102
S'Real Thing'
p103
S'http://www.last.fm/music/Alice+in+Chains/_/Real+Thing'
p104
S'1228406336'
p105
tp106
a(S'Alice in Chains'
p107
S'We Die Young'
p108
S'http://www.last.fm/music/Alice+in+Chains/_/We+Die+Young'
p109
S'1228406184'
p110
tp111
a(S'Alice in Chains'
p112
S'Man in the Box'
p113
S'http://www.last.fm/music/Alice+in+Chains/_/Man+in+the+Box'
p114
S'1228405897'
p115
tp116
a(S'Alice in Chains'
p117
S'Shame in You'
p118
S'http://www.last.fm/music/Alice+in+Chains/_/Shame+in+You'
p119
S'1228405561'
p120
tp121
a(S'Alice in Chains'
p122
S'Put You Down'
p123
S'http://www.last.fm/music/Alice+in+Chains/_/Put+You+Down'
p124
S'1228405365'
p125
tp126
a(S'Alice in Chains'
p127
S'I Know Somethin (Bout You)'
p128
S'http://www.last.fm/music/Alice+in+Chains/_/I+Know+Somethin+(Bout+You)'
p129
S'1228405103'
p130
tp131
a(S'Alice in Chains'
p132
S'Again'
p133
S'http://www.last.fm/music/Alice+in+Chains/_/Again'
p134
S'1228404858'
p135
tp136
a(S'Alice in Chains'
p137
S"It Ain't Like That"
p138
S'http://www.last.fm/music/Alice+in+Chains/_/It+Ain%27t+Like+That'
p139
S'1228404581'
p140
tp141
a(S'Alice in Chains'
p142
S'I Stay Away'
p143
S'http://www.last.fm/music/Alice+in+Chains/_/I+Stay+Away'
p144
S'1228342408'
p145
tp146
a(S'Alice in Chains'
p147
S'No Excuses'
p148
S'http://www.last.fm/music/Alice+in+Chains/_/No+Excuses'
p149
S'1228342153'
p150
tp151
a(S'Alice in Chains'
p152
S'So Close'
p153
S'http://www.last.fm/music/Alice+in+Chains/_/So+Close'
p154
S'1228341987'
p155
tp156
a(S'Alice in Chains'
p157
S'Whale & Wasp'
p158
S'http://www.last.fm/music/Alice+in+Chains/_/Whale+&+Wasp'
p159
S'1228341830'
p160
tp161
a(S'Alice in Chains'
p162
S'Rotten Apple'
p163
S'http://www.last.fm/music/Alice+in+Chains/_/Rotten+Apple'
p164
S'1228341411'
p165
tp166
a(S'Alice in Chains'
p167
S"It Ain't Like That"
p168
S'http://www.last.fm/music/Alice+in+Chains/_/It+Ain%27t+Like+That'
p169
S'1228341134'
p170
tp171
a(S'Alice in Chains'
p172
S'Bleed the Freak'
p173
S'http://www.last.fm/music/Alice+in+Chains/_/Bleed+the+Freak'
p174
S'1228340892'
p175
tp176
a(S'Alice in Chains'
p177
S'Frogs'
p178
S'http://www.last.fm/music/Alice+in+Chains/_/Frogs'
p179
S'1228340393'
p180
tp181
a(S'Alice in Chains'
p182
S'Man in the Box'
p183
S'http://www.last.fm/music/Alice+in+Chains/_/Man+in+the+Box'
p184
S'1228340107'
p185
tp186
a(S'Alice in Chains'
p187
S'Nutshell'
p188
S'http://www.last.fm/music/Alice+in+Chains/_/Nutshell'
p189
S'1228339848'
p190
tp191
a(S'Alice in Chains'
p192
S'Shame in You'
p193
S'http://www.last.fm/music/Alice+in+Chains/_/Shame+in+You'
p194
S'1228339512'
p195
tp196
a(S'Alice in Chains'
p197
S'Brush Away'
p198
S'http://www.last.fm/music/Alice+in+Chains/_/Brush+Away'
p199
S'1228339310'
p200
tp201
a(S'Alice in Chains'
p202
S'Over Now'
p203
S'http://www.last.fm/music/Alice+in+Chains/_/Over+Now'
p204
S'1228338886'
p205
tp206
a(S'Alice in Chains'
p207
S'Real Thing'
p208
S'http://www.last.fm/music/Alice+in+Chains/_/Real+Thing'
p209
S'1228338642'
p210
tp211
a(S'Alice in Chains'
p212
S'Head Creeps'
p213
S'http://www.last.fm/music/Alice+in+Chains/_/Head+Creeps'
p214
S'1228338255'
p215
tp216
a(S'Alice in Chains'
p217
S'Confusion'
p218
S'http://www.last.fm/music/Alice+in+Chains/_/Confusion'
p219
S'1228337911'
p220
tp221
a(S'Alice in Chains'
p222
S'Grind'
p223
S'http://www.last.fm/music/Alice+in+Chains/_/Grind'
p224
S'1228337629'
p225
tp226
a(S'Alice in Chains'
p227
S"Nothin' Song"
p228
S'http://www.last.fm/music/Alice+in+Chains/_/Nothin%27+Song'
p229
S'1228234779'
p230
tp231
a(S'Alice in Chains'
p232
S'So Close'
p233
S'http://www.last.fm/music/Alice+in+Chains/_/So+Close'
p234
S'1228234613'
p235
tp236
a(S'Alice in Chains'
p237
S'God Am'
p238
S'http://www.last.fm/music/Alice+in+Chains/_/God+Am'
p239
S'1228234365'
p240
tp241
a(S'Alice in Chains'
p242
S'Shame in You'
p243
S'http://www.last.fm/music/Alice+in+Chains/_/Shame+in+You'
p244
S'1228221187'
p245
tp246
a(S'Alice in Chains'
p247
S'Again'
p248
S'http://www.last.fm/music/Alice+in+Chains/_/Again'
p249
S'1228220393'
p250
tp251
a(S'Alice in Chains'
p252
S'Head Creeps'
p253
S'http://www.last.fm/music/Alice+in+Chains/_/Head+Creeps'
p254
S'1228220005'
p255
tp256
a(S'Alice in Chains'
p257
S'Heaven Beside You'
p258
S'http://www.last.fm/music/Alice+in+Chains/_/Heaven+Beside+You'
p259
S'1228219677'
p260
tp261
a(S'Alice in Chains'
p262
S'Sludge Factory'
p263
S'http://www.last.fm/music/Alice+in+Chains/_/Sludge+Factory'
p264
S'1228219244'
p265
tp266
a(S'Alice in Chains'
p267
S'Brush Away'
p268
S'http://www.last.fm/music/Alice+in+Chains/_/Brush+Away'
p269
S'1228219042'
p270
tp271
a(S'Alice in Chains'
p272
S'Grind'
p273
S'http://www.last.fm/music/Alice+in+Chains/_/Grind'
p274
S'1228218757'
p275
tp276
a(S'Alice in Chains'
p277
S'Right Turn'
p278
S'http://www.last.fm/music/Alice+in+Chains/_/Right+Turn'
p279
S'1228146880'
p280
tp281
a(S'Velvet Revolver'
p282
S'For A Brother'
p283
S'http://www.last.fm/music/Velvet+Revolver/_/For+A+Brother'
p284
S'1228146674'
p285
tp286
a(S'Soundgarden'
p287
S'New Damage'
p288
S'http://www.last.fm/music/Soundgarden/_/New+Damage'
p289
S'1228146333'
p290
tp291
a(S'L7'
p292
S"Pretend We're Dead"
p293
S'http://www.last.fm/music/L7/_/Pretend+We%27re+Dead'
p294
S'1228146098'
p295
tp296
a(S'L7'
p297
S'Stuck Here Again'
p298
S'http://www.last.fm/music/L7/_/Stuck+Here+Again'
p299
S'1228145800'
p300
tp301
a(S'Foo Fighters'
p302
S'Low'
p303
S'http://www.last.fm/music/Foo+Fighters/_/Low'
p304
S'1228145531'
p305
tp306
a(S'Alice in Chains'
p307
S'Sunshine'
p308
S'http://www.last.fm/music/Alice+in+Chains/_/Sunshine'
p309
S'1228145246'
p310
tp311
a(S'Foo Fighters'
p312
S'Hell'
p313
S'http://www.last.fm/music/Foo+Fighters/_/Hell'
p314
S'1228145129'
p315
tp316
a(S'Mother Love Bone'
p317
S'Bone China'
p318
S'http://www.last.fm/music/Mother+Love+Bone/_/Bone+China'
p319
S'1228144903'
p320
tp321
a(S'Alice in Chains'
p322
S'What The Hell Have I'
p323
S'http://www.last.fm/music/Alice+in+Chains/_/What+The+Hell+Have+I'
p324
S'1228144490'
p325
tp326
a(S'Alice in Chains'
p327
S'Love, Hate, Love'
p328
S'http://www.last.fm/music/Alice+in+Chains/_/Love,+Hate,+Love'
p329
S'1228144103'
p330
tp331
a(S'Soundgarden'
p332
S'Let Me Drown'
p333
S'http://www.last.fm/music/Soundgarden/_/Let+Me+Drown'
p334
S'1228143871'
p335
tp336
a(S'Stone Temple Pilots'
p337
S'Press Play'
p338
S'http://www.last.fm/music/Stone+Temple+Pilots/_/Press+Play'
p339
S'1228143790'
p340
tp341
a(S'Alice in Chains'
p342
S'Frogs'
p343
S'http://www.last.fm/music/Alice+in+Chains/_/Frogs'
p344
S'1228143292'
p345
tp346
a(S'Foo Fighters'
p347
S'For All the Cows'
p348
S'http://www.last.fm/music/Foo+Fighters/_/For+All+the+Cows'
p349
S'1228143082'
p350
tp351
a(S'Live'
p352
S'Out To Dry'
p353
S'http://www.last.fm/music/Live/_/Out+To+Dry'
p354
S'1228142882'
p355
tp356
a(S'Nirvana'
p357
S'Aneurysm'
p358
S'http://www.last.fm/music/Nirvana/_/Aneurysm'
p359
S'1228142606'
p360
tp361
a(S'Live'
p362
S'Sun'
p363
S'http://www.last.fm/music/Live/_/Sun'
p364
S'1228142393'
p365
tp366
a(S"Class of '99"
p367
S'Another Brick in the Wall'
p368
S'http://www.last.fm/music/Class+of+%2799/_/Another+Brick+in+the+Wall'
p369
S'1228142135'
p370
tp371
a(S'Nirvana'
p372
S'Son of a Gun'
p373
S'http://www.last.fm/music/Nirvana/_/Son+of+a+Gun'
p374
S'1228141967'
p375
tp376
a(S'Stone Temple Pilots'
p377
S'Atlanta'
p378
S'http://www.last.fm/music/Stone+Temple+Pilots/_/Atlanta'
p379
S'1228141649'
p380
tp381
a(S'Pearl Jam'
p382
S'Once'
p383
S'http://www.last.fm/music/Pearl+Jam/_/Once'
p384
S'1228141417'
p385
tp386
a(S'Pearl Jam'
p387
S'Garden'
p388
S'http://www.last.fm/music/Pearl+Jam/_/Garden'
p389
S'1228141116'
p390
tp391
a(S'Audioslave'
p392
S'Sound Of A Gun'
p393
S'http://www.last.fm/music/Audioslave/_/Sound+Of+A+Gun'
p394
S'1228140858'
p395
tp396
a(S'Live'
p397
S'We Walk In The Dream'
p398
S'http://www.last.fm/music/Live/_/We+Walk+In+The+Dream'
p399
S'1228140596'
p400
tp401
a(S'Audioslave'
p402
S'Set It Off'
p403
S'http://www.last.fm/music/Audioslave/_/Set+It+Off'
p404
S'1228140333'
p405
tp406
a(S'Foo Fighters'
p407
S'Stacked Actors'
p408
S'http://www.last.fm/music/Foo+Fighters/_/Stacked+Actors'
p409
S'1228140076'
p410
tp411
a(S'Mother Love Bone'
p412
S'Mindshaker Meltdown'
p413
S'http://www.last.fm/music/Mother+Love+Bone/_/Mindshaker+Meltdown'
p414
S'1228139850'
p415
tp416
a(S'Live'
p417
S'Intro'
p418
S'http://www.last.fm/music/Live/_/Intro'
p419
S'1228139812'
p420
tp421
a(S'Foo Fighters'
p422
S'Big Me'
p423
S'http://www.last.fm/music/Foo+Fighters/_/Big+Me'
p424
S'1228139680'
p425
tp426
a(S'Soundgarden'
p427
S'Burden in My Hand'
p428
S'http://www.last.fm/music/Soundgarden/_/Burden+in+My+Hand'
p429
S'1228139390'
p430
tp431
a(S'Foo Fighters'
p432
S'Times Like These'
p433
S'http://www.last.fm/music/Foo+Fighters/_/Times+Like+These'
p434
S'1228139123'
p435
tp436
a(S'Malfunkshun'
p437
S'Mr. Liberty (With Morals)'
p438
S'http://www.last.fm/music/Malfunkshun/_/Mr.+Liberty+(With+Morals)'
p439
S'1228138919'
p440
tp441
a(S'Nirvana'
p442
S'Frances Farmer Will Have Her Revenge On Seattle'
p443
S'http://www.last.fm/music/Nirvana/_/Frances+Farmer+Will+Have+Her+Revenge+On+Seattle'
p444
S'1228138669'
p445
tp446
a(S'Stone Temple Pilots'
p447
S'MC5'
p448
S'http://www.last.fm/music/Stone+Temple+Pilots/_/MC5'
p449
S'1228138507'
p450
tp451
a(S'Foo Fighters'
p452
S'End Over End'
p453
S'http://www.last.fm/music/Foo+Fighters/_/End+Over+End'
p454
S'1228138155'
p455
tp456
a(S'Nirvana'
p457
S'Come as You Are'
p458
S'http://www.last.fm/music/Nirvana/_/Come+as+You+Are'
p459
S'1228137936'
p460
tp461
a(S'Alice in Chains'
p462
S'Grind'
p463
S'http://www.last.fm/music/Alice+in+Chains/_/Grind'
p464
S'1228137337'
p465
tp466
a(S'Alice in Chains'
p467
S'Rooster'
p468
S'http://www.last.fm/music/Alice+in+Chains/_/Rooster'
p469
S'1228136962'
p470
tp471
a(S'Mother Love Bone'
p472
S'Man Of Golden Words'
p473
S'http://www.last.fm/music/Mother+Love+Bone/_/Man+Of+Golden+Words'
p474
S'1228136740'
p475
tp476
a(S'Alice in Chains'
p477
S'Angry Chair'
p478
S'http://www.last.fm/music/Alice+in+Chains/_/Angry+Chair'
p479
S'1228136464'
p480
tp481
a(S'Velvet Revolver'
p482
S'Psycho Killer [Talking Heads Cover]'
p483
S'http://www.last.fm/music/Velvet+Revolver/_/Psycho+Killer+%5BTalking+Heads+Cover%5D'
p484
S'1228136206'
p485
tp486
a(S'Live'
p487
S'Overcome'
p488
S'http://www.last.fm/music/Live/_/Overcome'
p489
S'1228135750'
p490
tp491
a(S'Melvins'
p492
S'Revolve'
p493
S'http://www.last.fm/music/Melvins/_/Revolve'
p494
S'1228135466'
p495
tp496
a(S'Foo Fighters'
p497
S'Miracle'
p498
S'http://www.last.fm/music/Foo+Fighters/_/Miracle'
p499
S'1228135256'
p500
tp501
a(S'Pearl Jam'
p502
S'Dissident'
p503
S'http://www.last.fm/music/Pearl+Jam/_/Dissident'
p504
S'1228135041'
p505
tp506
a(S'Foo Fighters'
p507
S'DOA'
p508
S'http://www.last.fm/music/Foo+Fighters/_/DOA'
p509
S'1228134789'
p510
tp511
a(S'Stone Temple Pilots'
p512
S'Hollywood Bitch'
p513
S'http://www.last.fm/music/Stone+Temple+Pilots/_/Hollywood+Bitch'
p514
S'1228134625'
p515
tp516
a(S'Alice in Chains'
p517
S'Killer Is Me'
p518
S'http://www.last.fm/music/Alice+in+Chains/_/Killer+Is+Me'
p519
S'1228134301'
p520
tp521
a(S'Jerry Cantrell'
p522
S'Between'
p523
S'http://www.last.fm/music/Jerry+Cantrell/_/Between'
p524
S'1228134084'
p525
tp526
a(S'Audioslave'
p527
S'Jewel Of The Summertime'
p528
S'http://www.last.fm/music/Audioslave/_/Jewel+Of+The+Summertime'
p529
S'1228133852'
p530
tp531
a(S'Live'
p532
S'Flow'
p533
S'http://www.last.fm/music/Live/_/Flow'
p534
S'1228133642'
p535
tp536
a(S'Pearl Jam'
p537
S'Animal'
p538
S'http://www.last.fm/music/Pearl+Jam/_/Animal'
p539
S'1228133472'
p540
tp541
a(S'Velvet Revolver'
p542
S'She Builds Quick Machines'
p543
S'http://www.last.fm/music/Velvet+Revolver/_/She+Builds+Quick+Machines'
p544
S'1228133229'
p545
tp546
a(S'Audioslave'
p547
S'Light My Way'
p548
S'http://www.last.fm/music/Audioslave/_/Light+My+Way'
p549
S'1228132925'
p550
tp551
a(S'Temple of the Dog'
p552
S'Hunger Strike'
p553
S'http://www.last.fm/music/Temple+of+the+Dog/_/Hunger+Strike'
p554
S'1228132683'
p555
tp556
a(S'Alice in Chains'
p557
S'Junkhead'
p558
S'http://www.last.fm/music/Alice+in+Chains/_/Junkhead'
p559
S'1227836539'
p560
tp561
a(S'Alice in Chains'
p562
S'Confusion'
p563
S'http://www.last.fm/music/Alice+in+Chains/_/Confusion'
p564
S'1227836195'
p565
tp566
a(S'Tears for Fears'
p567
S'Woman In Chains'
p568
S'http://www.last.fm/music/Tears+for+Fears/_/Woman+In+Chains'
p569
S'1227835807'
p570
tp571
a(S'Tears for Fears'
p572
S'Advice For The Young At Heart'
p573
S'http://www.last.fm/music/Tears+for+Fears/_/Advice+For+The+Young+At+Heart'
p574
S'1227835512'
p575
tp576
a(S'Tears for Fears'
p577
S'Head Over Heels'
p578
S'http://www.last.fm/music/Tears+for+Fears/_/Head+Over+Heels'
p579
S'1227835258'
p580
tp581
a(S'Tears for Fears'
p582
S'Everybody Wants to Rule the World'
p583
S'http://www.last.fm/music/Tears+for+Fears/_/Everybody+Wants+to+Rule+the+World'
p584
S'1227835006'
p585
tp586
a(S'Technotronic'
p587
S'This Beat Is Technotronic'
p588
S'http://www.last.fm/music/Technotronic/_/This+Beat+Is+Technotronic'
p589
S'1227834786'
p590
tp591
a(S'Technotronic'
p592
S'Get Up'
p593
S'http://www.last.fm/music/Technotronic/_/Get+Up'
p594
S'1227834445'
p595
tp596
a(S'Technotronic'
p597
S'Pump Up The Jam'
p598
S'http://www.last.fm/music/Technotronic/_/Pump+Up+The+Jam'
p599
S'1227834121'
p600
tp601
a(S'Temple of the Dog'
p602
S'Wooden Jesus'
p603
S'http://www.last.fm/music/Temple+of+the+Dog/_/Wooden+Jesus'
p604
S'1227833872'
p605
tp606
a(S'Barry White'
p607
S"Sho' You Right"
p608
S'http://www.last.fm/music/Barry+White/_/Sho%27+You+Right'
p609
S'1227833599'
p610
tp611
a(S'The Temptations'
p612
S'My Girl'
p613
S'http://www.last.fm/music/The+Temptations/_/My+Girl'
p614
S'1227833422'
p615
tp616
a(S'Barry White'
p617
S'Come On'
p618
S'http://www.last.fm/music/Barry+White/_/Come+On'
p619
S'1227832206'
p620
tp621
a(S'Barry White'
p622
S"Love's Theme"
p623
S'http://www.last.fm/music/Barry+White/_/Love%27s+Theme'
p624
S'1227831940'
p625
tp626
a(S'Barry White'
p627
S"Can't Get Enough of Your Love Babe"
p628
S'http://www.last.fm/music/Barry+White/_/Can%27t+Get+Enough+of+Your+Love+Babe'
p629
S'1227831674'
p630
tp631
a(S'Barry White'
p632
S'Let The Music Play'
p633
S'http://www.last.fm/music/Barry+White/_/Let+The+Music+Play'
p634
S'1227831316'
p635
tp636
a(S'Barry White'
p637
S'Just The Way You Are'
p638
S'http://www.last.fm/music/Barry+White/_/Just+The+Way+You+Are'
p639
S'1227831027'
p640
tp641
a(S'Barry White'
p642
S'What Am I Gonna Do With You'
p643
S'http://www.last.fm/music/Barry+White/_/What+Am+I+Gonna+Do+With+You'
p644
S'1227830709'
p645
tp646
a(S'Barry White'
p647
S"Sho' You Right"
p648
S'http://www.last.fm/music/Barry+White/_/Sho%27+You+Right'
p649
S'1227830408'
p650
tp651
a(S'Barry White'
p652
S"I'll Do For You Anything You Want Me To"
p653
S'http://www.last.fm/music/Barry+White/_/I%27ll+Do+For+You+Anything+You+Want+Me+To'
p654
S'1227830156'
p655
tp656
a(S'Barry White'
p657
S"You're the First, the Last, My Everything"
p658
S'http://www.last.fm/music/Barry+White/_/You%27re+the+First,+the+Last,+My+Everything'
p659
S'1227829951'
p660
tp661
a(S'Alice in Chains'
p662
S'Sunshine'
p663
S'http://www.last.fm/music/Alice+in+Chains/_/Sunshine'
p664
S'1227787918'
p665
tp666
a(S'Alice in Chains'
p667
S'Love, Hate, Love'
p668
S'http://www.last.fm/music/Alice+in+Chains/_/Love,+Hate,+Love'
p669
S'1227787531'
p670
tp671
a(S'Alice in Chains'
p672
S'Put You Down'
p673
S'http://www.last.fm/music/Alice+in+Chains/_/Put+You+Down'
p674
S'1227787335'
p675
tp676
a(S'Alice in Chains'
p677
S'Whale & Wasp'
p678
S'http://www.last.fm/music/Alice+in+Chains/_/Whale+&+Wasp'
p679
S'1227787178'
p680
tp681
a(S'Alice in Chains'
p682
S'Swing on This'
p683
S'http://www.last.fm/music/Alice+in+Chains/_/Swing+on+This'
p684
S'1227786933'
p685
tp686
a(S'Alice in Chains'
p687
S'We Die Young'
p688
S'http://www.last.fm/music/Alice+in+Chains/_/We+Die+Young'
p689
S'1227786781'
p690
tp691
a(S'Alice in Chains'
p692
S'Confusion'
p693
S'http://www.last.fm/music/Alice+in+Chains/_/Confusion'
p694
S'1227786292'
p695
tp696
a(S'Alice in Chains'
p697
S'Grind'
p698
S'http://www.last.fm/music/Alice+in+Chains/_/Grind'
p699
S'1227786006'
p700
tp701
a(S'Alice in Chains'
p702
S'Brush Away'
p703
S'http://www.last.fm/music/Alice+in+Chains/_/Brush+Away'
p704
S'1227785804'
p705
tp706
a(S'Alice in Chains'
p707
S'I Know Somethin (Bout You)'
p708
S'http://www.last.fm/music/Alice+in+Chains/_/I+Know+Somethin+(Bout+You)'
p709
S'1227785313'
p710
tp711
a(S'Alice in Chains'
p712
S'Rotten Apple'
p713
S'http://www.last.fm/music/Alice+in+Chains/_/Rotten+Apple'
p714
S'1227784894'
p715
tp716
a(S'Alice in Chains'
p717
S'I Stay Away'
p718
S'http://www.last.fm/music/Alice+in+Chains/_/I+Stay+Away'
p719
S'1227784639'
p720
tp721
a(S'Alice in Chains'
p722
S'I Stay Away'
p723
S'http://www.last.fm/music/Alice+in+Chains/_/I+Stay+Away'
p724
S'1227784639'
p725
tp726
a(S'Alice in Chains'
p727
S'Over Now'
p728
S'http://www.last.fm/music/Alice+in+Chains/_/Over+Now'
p729
S'1227783827'
p730
tp731
a(S'Alice in Chains'
p732
S'No Excuses'
p733
S'http://www.last.fm/music/Alice+in+Chains/_/No+Excuses'
p734
S'1227783416'
p735
tp736
a(S'Alice in Chains'
p737
S'Head Creeps'
p738
S'http://www.last.fm/music/Alice+in+Chains/_/Head+Creeps'
p739
S'1227783028'
p740
tp741
a(S'Alice in Chains'
p742
S'Heaven Beside You'
p743
S'http://www.last.fm/music/Alice+in+Chains/_/Heaven+Beside+You'
p744
S'1227782700'
p745
tp746
a(S'Alice in Chains'
p747
S"Nothin' Song"
p748
S'http://www.last.fm/music/Alice+in+Chains/_/Nothin%27+Song'
p749
S'1227782360'
p750
tp751
a(S'Alice in Chains'
p752
S'Man in the Box'
p753
S'http://www.last.fm/music/Alice+in+Chains/_/Man+in+the+Box'
p754
S'1227782073'
p755
tp756
a(S'Alice in Chains'
p757
S'Man in the Box'
p758
S'http://www.last.fm/music/Alice+in+Chains/_/Man+in+the+Box'
p759
S'1227781732'
p760
tp761
a(S'Alice in Chains'
p762
S'Shame in You'
p763
S'http://www.last.fm/music/Alice+in+Chains/_/Shame+in+You'
p764
S'1227736326'
p765
tp766
a(S'Alice in Chains'
p767
S'I Know Somethin (Bout You)'
p768
S'http://www.last.fm/music/Alice+in+Chains/_/I+Know+Somethin+(Bout+You)'
p769
S'1227736064'
p770
tp771
a(S'Alice in Chains'
p772
S'Frogs'
p773
S'http://www.last.fm/music/Alice+in+Chains/_/Frogs'
p774
S'1227735566'
p775
tp776
a(S'Alice in Chains'
p777
S'Over Now'
p778
S'http://www.last.fm/music/Alice+in+Chains/_/Over+Now'
p779
S'1227735141'
p780
tp781
a(S'Alice in Chains'
p782
S'Again'
p783
S'http://www.last.fm/music/Alice+in+Chains/_/Again'
p784
S'1227734082'
p785
tp786
a(S'Alice in Chains'
p787
S'Put You Down'
p788
S'http://www.last.fm/music/Alice+in+Chains/_/Put+You+Down'
p789
S'1227733886'
p790
tp791
a(S'Alice in Chains'
p792
S'Heaven Beside You'
p793
S'http://www.last.fm/music/Alice+in+Chains/_/Heaven+Beside+You'
p794
S'1227733364'
p795
tp796
a(S'Alice in Chains'
p797
S'Brush Away'
p798
S'http://www.last.fm/music/Alice+in+Chains/_/Brush+Away'
p799
S'1227733162'
p800
tp801
a(S'Live'
p802
S'You Are The World'
p803
S'http://www.last.fm/music/Live/_/You+Are+The+World'
p804
S'1227646742'
p805
tp806
a(S'Live'
p807
S'Mother Earth Is A Vicious Crowd'
p808
S'http://www.last.fm/music/Live/_/Mother+Earth+Is+A+Vicious+Crowd'
p809
S'1227646088'
p810
tp811
a(S'Live'
p812
S'Sweet Release'
p813
S'http://www.last.fm/music/Live/_/Sweet+Release'
p814
S'1227645905'
p815
tp816
a(S'Live'
p817
S'Lighthouse'
p818
S'http://www.last.fm/music/Live/_/Lighthouse'
p819
S'1227645717'
p820
tp821
a(S'Live'
p822
S'Take My Anthem'
p823
S'http://www.last.fm/music/Live/_/Take+My+Anthem'
p824
S'1227645440'
p825
tp826
a(S'Alice in Chains'
p827
S"Nothin' Song"
p828
S'http://www.last.fm/music/Alice+in+Chains/_/Nothin%27+Song'
p829
S'1227644982'
p830
tp831
a(S'Live'
p832
S'Waterboy'
p833
S'http://www.last.fm/music/Live/_/Waterboy'
p834
S'1227644794'
p835
tp836
a(S'Live'
p837
S'The Beauty Of Gray'
p838
S'http://www.last.fm/music/Live/_/The+Beauty+Of+Gray'
p839
S'1227644540'
p840
tp841
a(S'Iommi'
p842
S'Into The Night'
p843
S'http://www.last.fm/music/Iommi/_/Into+The+Night'
p844
S'1227639434'
p845
tp846
a(S'Iommi'
p847
S'I Go Insane'
p848
S'http://www.last.fm/music/Iommi/_/I+Go+Insane'
p849
S'1227638880'
p850
tp851
a(S'Soundgarden'
p852
S'Rusty Cage'
p853
S'http://www.last.fm/music/Soundgarden/_/Rusty+Cage'
p854
S'1227638614'
p855
tp856
a(S'Live'
p857
S'Operation Spirit (The Tyranny Of Tradition)'
p858
S'http://www.last.fm/music/Live/_/Operation+Spirit+(The+Tyranny+Of+Tradition)'
p859
S'1227638415'
p860
tp861
a(S'Alice in Chains'
p862
S'Man in the Box'
p863
S'http://www.last.fm/music/Alice+in+Chains/_/Man+in+the+Box'
p864
S'1227638129'
p865
tp866
a(S'Live'
p867
S'Out To Dry'
p868
S'http://www.last.fm/music/Live/_/Out+To+Dry'
p869
S'1227637928'
p870
tp871
a(S'Alice in Chains'
p872
S'Put You Down'
p873
S'http://www.last.fm/music/Alice+in+Chains/_/Put+You+Down'
p874
S'1227637732'
p875
tp876
a(S'Alice in Chains'
p877
S'Head Creeps'
p878
S'http://www.last.fm/music/Alice+in+Chains/_/Head+Creeps'
p879
S'1227636739'
p880
tp881
a(S'Alice in Chains'
p882
S'Brush Away'
p883
S'http://www.last.fm/music/Alice+in+Chains/_/Brush+Away'
p884
S'1227636537'
p885
tp886
a(S'Alice in Chains'
p887
S'Bleed the Freak'
p888
S'http://www.last.fm/music/Alice+in+Chains/_/Bleed+the+Freak'
p889
S'1227636295'
p890
tp891
a(S'Alice in Chains'
p892
S'Shame in You'
p893
S'http://www.last.fm/music/Alice+in+Chains/_/Shame+in+You'
p894
S'1227635959'
p895
tp896
a(S'Alice Cooper'
p897
S'Hell Is Living Without You'
p898
S'http://www.last.fm/music/Alice+Cooper/_/Hell+Is+Living+Without+You'
p899
S'1227635707'
p900
tp901
a(S'Alice in Chains'
p902
S'Nutshell'
p903
S'http://www.last.fm/music/Alice+in+Chains/_/Nutshell'
p904
S'1227635448'
p905
tp906
a(S'Iommi'
p907
S'Wasted Again'
p908
S'http://www.last.fm/music/Iommi/_/Wasted+Again'
p909
S'1227635212'
p910
tp911
a(S'Iommi'
p912
S'Saviour of the Real'
p913
S'http://www.last.fm/music/Iommi/_/Saviour+of+the+Real'
p914
S'1227634965'
p915
tp916
a(S'Soundgarden'
p917
S'Mind Riot'
p918
S'http://www.last.fm/music/Soundgarden/_/Mind+Riot'
p919
S'1227634675'
p920
tp921
a(S'Live'
p922
S'River Town'
p923
S'http://www.last.fm/music/Live/_/River+Town'
p924
S'1227633818'
p925
tp926
a(S'Iommi'
p927
S'Grace'
p928
S'http://www.last.fm/music/Iommi/_/Grace'
p929
S'1227633504'
p930
tp931
a(S'Live'
p932
S'10,000 Years (Peace Is Now)'
p933
S'http://www.last.fm/music/Live/_/10,000+Years+(Peace+Is+Now)'
p934
S'1227633191'
p935
tp936
a(S'Live'
p937
S'The Beauty Of Gray'
p938
S'http://www.last.fm/music/Live/_/The+Beauty+Of+Gray'
p939
S'1227614152'
p940
tp941
a(S'Iommi'
p942
S'Into The Night'
p943
S'http://www.last.fm/music/Iommi/_/Into+The+Night'
p944
S'1227613851'
p945
tp946
a(S'Live'
p947
S'She'
p948
S'http://www.last.fm/music/Live/_/She'
p949
S'1227613691'
p950
tp951
a(S'Alice in Chains'
p952
S'We Die Young'
p953
S'http://www.last.fm/music/Alice+in+Chains/_/We+Die+Young'
p954
S'1227613305'
p955
tp956
a(S'Alice Cooper'
p957
S'Bed of Nails'
p958
S'http://www.last.fm/music/Alice+Cooper/_/Bed+of+Nails'
p959
S'1227613045'
p960
tp961
a(S'Alice Cooper'
p962
S'Bed of Nails'
p963
S'http://www.last.fm/music/Alice+Cooper/_/Bed+of+Nails'
p964
S'1227612264'
p965
tp966
a(S'Alice in Chains'
p967
S'Put You Down'
p968
S'http://www.last.fm/music/Alice+in+Chains/_/Put+You+Down'
p969
S'1227612068'
p970
tp971
a(S'Alice in Chains'
p972
S'Brush Away'
p973
S'http://www.last.fm/music/Alice+in+Chains/_/Brush+Away'
p974
S'1227611866'
p975
tp976
a(S'Alice in Chains'
p977
S'Sea of Sorrow'
p978
S'http://www.last.fm/music/Alice+in+Chains/_/Sea+of+Sorrow'
p979
S'1227611516'
p980
tp981
a(S'Soundgarden'
p982
S'Jesus Christ Pose'
p983
S'http://www.last.fm/music/Soundgarden/_/Jesus+Christ+Pose'
p984
S'1227446604'
p985
tp986
a(S'Soundgarden'
p987
S'Drawing Flies'
p988
S'http://www.last.fm/music/Soundgarden/_/Drawing+Flies'
p989
S'1227446457'
p990
tp991
a(S'Live'
p992
S'Waterboy'
p993
S'http://www.last.fm/music/Live/_/Waterboy'
p994
S'1227446270'
p995
tp996
a(S'Alice in Chains'
p997
S'Bleed the Freak'
p998
S'http://www.last.fm/music/Alice+in+Chains/_/Bleed+the+Freak'
p999
S'1227446028'
p1000
tp1001
a.