(lp1
(S'Stone Temple Pilots'
p2
S'Huckleberry Crumble'
p3
S'http://www.last.fm/music/Stone+Temple+Pilots/_/Huckleberry+Crumble'
p4
S'1275835691'
p5
tp6
a(S'Jerry Cantrell'
p7
S'Between'
p8
S'http://www.last.fm/music/Jerry+Cantrell/_/Between'
p9
S'1275835373'
p10
tp11
a(S'Stone Temple Pilots'
p12
S'Huckleberry Crumble'
p13
S'http://www.last.fm/music/Stone+Temple+Pilots/_/Huckleberry+Crumble'
p14
S'1275835148'
p15
tp16
a(S'Stone Temple Pilots'
p17
S'Huckleberry Crumble'
p18
S'http://www.last.fm/music/Stone+Temple+Pilots/_/Huckleberry+Crumble'
p19
S'1275834952'
p20
tp21
a(S'Them Crooked Vultures'
p22
S'Mind Eraser, No Chaser'
p23
S'http://www.last.fm/music/Them+Crooked+Vultures/_/Mind+Eraser,+No+Chaser'
p24
S'1275834708'
p25
tp26
a(S'The Rolling Stones'
p27
S'Rock And A Hard Place'
p28
S'http://www.last.fm/music/The+Rolling+Stones/_/Rock+And+A+Hard+Place'
p29
S'1275834352'
p30
tp31
a(S'Audioslave'
p32
S'Exploder'
p33
S'http://www.last.fm/music/Audioslave/_/Exploder'
p34
S'1275834027'
p35
tp36
a(S'Live'
p37
S'Sweet Release'
p38
S'http://www.last.fm/music/Live/_/Sweet+Release'
p39
S'1275833797'
p40
tp41
a(S'Nirvana'
p42
S"Jesus Doesn't Want Me For A Sunbeam"
p43
S'http://www.last.fm/music/Nirvana/_/Jesus+Doesn%27t+Want+Me+For+A+Sunbeam'
p44
S'1275833615'
p45
tp46
a(S'Stone Temple Pilots'
p47
S'Peacoat'
p48
S'http://www.last.fm/music/Stone+Temple+Pilots/_/Peacoat'
p49
S'1275833322'
p50
tp51
a(S'Alice Cooper'
p52
S'Sideshow'
p53
S'http://www.last.fm/music/Alice+Cooper/_/Sideshow'
p54
S'1275833112'
p55
tp56
a(S'Alice Cooper'
p57
S'Might As Well Be on Mars'
p58
S'http://www.last.fm/music/Alice+Cooper/_/Might+As+Well+Be+on+Mars'
p59
S'1275832800'
p60
tp61
a(S'Black Sabbath'
p62
S'Killing Yourself to Live'
p63
S'http://www.last.fm/music/Black+Sabbath/_/Killing+Yourself+to+Live'
p64
S'1275832371'
p65
tp66
a(S'Ozzy Osbourne'
p67
S'Shot in the Dark'
p68
S'http://www.last.fm/music/Ozzy+Osbourne/_/Shot+in+the+Dark'
p69
S'1275829795'
p70
tp71
a(S'Muddy Waters'
p72
S'Kind Hearted Woman'
p73
S'http://www.last.fm/music/Muddy+Waters/_/Kind+Hearted+Woman'
p74
S'1275829514'
p75
tp76
a(S'Stone Temple Pilots'
p77
S'Heaven & Hot Rods'
p78
S'http://www.last.fm/music/Stone+Temple+Pilots/_/Heaven+&+Hot+Rods'
p79
S'1275829358'
p80
tp81
a(S'Live'
p82
S'Meltdown'
p83
S'http://www.last.fm/music/Live/_/Meltdown'
p84
S'1275829152'
p85
tp86
a(S'Live'
p87
S'Waitress'
p88
S'http://www.last.fm/music/Live/_/Waitress'
p89
S'1275828793'
p90
tp91
a(S'Ozzy Osbourne'
p92
S'Denial'
p93
S'http://www.last.fm/music/Ozzy+Osbourne/_/Denial'
p94
S'1275828624'
p95
tp96
a(S'Ozzy Osbourne'
p97
S'Thunder Underground'
p98
S'http://www.last.fm/music/Ozzy+Osbourne/_/Thunder+Underground'
p99
S'1275828314'
p100
tp101
a(S'Stone Temple Pilots'
p102
S'Huckleberry Crumble'
p103
S'http://www.last.fm/music/Stone+Temple+Pilots/_/Huckleberry+Crumble'
p104
S'1275828041'
p105
tp106
a(S'Stone Temple Pilots'
p107
S'Huckleberry Crumble'
p108
S'http://www.last.fm/music/Stone+Temple+Pilots/_/Huckleberry+Crumble'
p109
S'1275827846'
p110
tp111
a(S'Metallica'
p112
S'Nothing Else Matters'
p113
S'http://www.last.fm/music/Metallica/_/Nothing+Else+Matters'
p114
S'1275827598'
p115
tp116
a(S'Stone Temple Pilots'
p117
S'Between the Lines'
p118
S'http://www.last.fm/music/Stone+Temple+Pilots/_/Between+the+Lines'
p119
S'1275827304'
p120
tp121
a(S'Stone Temple Pilots'
p122
S'Peacoat'
p123
S'http://www.last.fm/music/Stone+Temple+Pilots/_/Peacoat'
p124
S'1275827119'
p125
tp126
a(S'Bee Gees'
p127
S'E.S.P.'
p128
S'http://www.last.fm/music/Bee+Gees/_/E.S.P.'
p129
S'1275795371'
p130
tp131
a(S'Blues Traveler'
p132
S'Psycho Joe'
p133
S'http://www.last.fm/music/Blues+Traveler/_/Psycho+Joe'
p134
S'1275795022'
p135
tp136
a(S'Stone Temple Pilots'
p137
S'Interstate Love Song'
p138
S'http://www.last.fm/music/Stone+Temple+Pilots/_/Interstate+Love+Song'
p139
S'1275794787'
p140
tp141
a(S'Alice Cooper'
p142
S'Cleansed By Fire'
p143
S'http://www.last.fm/music/Alice+Cooper/_/Cleansed+By+Fire'
p144
S'1275794590'
p145
tp146
a(S'Metallica'
p147
S'Of Wolf and Man'
p148
S'http://www.last.fm/music/Metallica/_/Of+Wolf+and+Man'
p149
S'1275794217'
p150
tp151
a(S'Led Zeppelin'
p152
S'The Lemon Song'
p153
S'http://www.last.fm/music/Led+Zeppelin/_/The+Lemon+Song'
p154
S'1275793960'
p155
tp156
a(S'Jerry Cantrell'
p157
S'Hurt A Long Time'
p158
S'http://www.last.fm/music/Jerry+Cantrell/_/Hurt+A+Long+Time'
p159
S'1275793581'
p160
tp161
a(S'Muddy Waters'
p162
S'Kind Hearted Woman'
p163
S'http://www.last.fm/music/Muddy+Waters/_/Kind+Hearted+Woman'
p164
S'1275793240'
p165
tp166
a(S'The Rolling Stones'
p167
S'Gimme Shelter'
p168
S'http://www.last.fm/music/The+Rolling+Stones/_/Gimme+Shelter'
p169
S'1275792987'
p170
tp171
a(S'Stone Temple Pilots'
p172
S'Peacoat'
p173
S'http://www.last.fm/music/Stone+Temple+Pilots/_/Peacoat'
p174
S'1275792716'
p175
tp176
a(S'Stone Temple Pilots'
p177
S'Dancing Days'
p178
S'http://www.last.fm/music/Stone+Temple+Pilots/_/Dancing+Days'
p179
S'1275784057'
p180
tp181
a(S'Soundgarden'
p182
S'New Damage'
p183
S'http://www.last.fm/music/Soundgarden/_/New+Damage'
p184
S'1275783831'
p185
tp186
a(S'Queens of the Stone Age'
p187
S'Quick and to the Pointless'
p188
S'http://www.last.fm/music/Queens+of+the+Stone+Age/_/Quick+and+to+the+Pointless'
p189
S'1275783491'
p190
tp191
a(S'Queen'
p192
S'Back Chat'
p193
S'http://www.last.fm/music/Queen/_/Back+Chat'
p194
S'1275783388'
p195
tp196
a(S'Jamiroquai'
p197
S'Canned Head (7"Edit)'
p198
S'http://www.last.fm/music/Jamiroquai/_/Canned+Head+(7%22Edit)'
p199
S'1275783113'
p200
tp201
a(S'Live'
p202
S'Life Marches On'
p203
S'http://www.last.fm/music/Live/_/Life+Marches+On'
p204
S'1275782887'
p205
tp206
a(S'Stone Temple Pilots'
p207
S'Coma'
p208
S'http://www.last.fm/music/Stone+Temple+Pilots/_/Coma'
p209
S'1275782714'
p210
tp211
a(S'Chris Cornell'
p212
S'Other Side Of Town'
p213
S'http://www.last.fm/music/Chris+Cornell/_/Other+Side+Of+Town'
p214
S'1275782492'
p215
tp216
a(S'Alice in Chains'
p217
S'Heaven Beside You'
p218
S'http://www.last.fm/music/Alice+in+Chains/_/Heaven+Beside+You'
p219
S'1275782204'
p220
tp221
a(S'Queens of the Stone Age'
p222
S'Six Shooter'
p223
S'http://www.last.fm/music/Queens+of+the+Stone+Age/_/Six+Shooter'
p224
S'1275781876'
p225
tp226
a(S'Alice in Chains'
p227
S'Right Turn'
p228
S'http://www.last.fm/music/Alice+in+Chains/_/Right+Turn'
p229
S'1275781797'
p230
tp231
a(S'Stone Temple Pilots'
p232
S'First Kiss on Mars'
p233
S'http://www.last.fm/music/Stone+Temple+Pilots/_/First+Kiss+on+Mars'
p234
S'1275781590'
p235
tp236
a(S'Live'
p237
S'Stage'
p238
S'http://www.last.fm/music/Live/_/Stage'
p239
S'1275781344'
p240
tp241
a(S'Live'
p242
S'Mother Earth Is A Vicious Crowd'
p243
S'http://www.last.fm/music/Live/_/Mother+Earth+Is+A+Vicious+Crowd'
p244
S'1275781127'
p245
tp246
a(S'Live'
p247
S'Sparkle'
p248
S'http://www.last.fm/music/Live/_/Sparkle'
p249
S'1275780876'
p250
tp251
a(S'Jerry Cantrell'
p252
S'Devil By His Side'
p253
S'http://www.last.fm/music/Jerry+Cantrell/_/Devil+By+His+Side'
p254
S'1275780603'
p255
tp256
a(S'Alice in Chains'
p257
S'Real Thing'
p258
S'http://www.last.fm/music/Alice+in+Chains/_/Real+Thing'
p259
S'1275780313'
p260
tp261
a(S'Metallica'
p262
S'Seek and Destroy'
p263
S'http://www.last.fm/music/Metallica/_/Seek+and+Destroy'
p264
S'1275780070'
p265
tp266
a(S'Alice Cooper'
p267
S'Hurricane Years'
p268
S'http://www.last.fm/music/Alice+Cooper/_/Hurricane+Years'
p269
S'1275779660'
p270
tp271
a(S'Rainbow'
p272
S'Man on the Silver Mountain'
p273
S'http://www.last.fm/music/Rainbow/_/Man+on+the+Silver+Mountain'
p274
S'1275779421'
p275
tp276
a(S'Live'
p277
S'Deep Enough (Hip Hop Mix)'
p278
S'http://www.last.fm/music/Live/_/Deep+Enough+(Hip+Hop+Mix)'
p279
S'1275779139'
p280
tp281
a(S'Stone Temple Pilots'
p282
S'Hickory Dichotomy'
p283
S'http://www.last.fm/music/Stone+Temple+Pilots/_/Hickory+Dichotomy'
p284
S'1275778948'
p285
tp286
a(S'Stone Temple Pilots'
p287
S'Huckleberry Crumble'
p288
S'http://www.last.fm/music/Stone+Temple+Pilots/_/Huckleberry+Crumble'
p289
S'1275778711'
p290
tp291
a(S'Blues Traveler'
p292
S'But Anyway'
p293
S'http://www.last.fm/music/Blues+Traveler/_/But+Anyway'
p294
S'1275778510'
p295
tp296
a(S'The Cult'
p297
S'Edie (Ciao Baby)'
p298
S'http://www.last.fm/music/The+Cult/_/Edie+(Ciao+Baby)'
p299
S'1275778154'
p300
tp301
a(S'Iron Maiden'
p302
S'The Evil That Men Do'
p303
S'http://www.last.fm/music/Iron+Maiden/_/The+Evil+That+Men+Do'
p304
S'1275777913'
p305
tp306
a(S'Alice in Chains'
p307
S'Frogs'
p308
S'http://www.last.fm/music/Alice+in+Chains/_/Frogs'
p309
S'1275777635'
p310
tp311
a(S'Queens of the Stone Age'
p312
S'In My Head'
p313
S'http://www.last.fm/music/Queens+of+the+Stone+Age/_/In+My+Head'
p314
S'1275777185'
p315
tp316
a(S'Stone Temple Pilots'
p317
S'Between the Lines'
p318
S'http://www.last.fm/music/Stone+Temple+Pilots/_/Between+the+Lines'
p319
S'1275776944'
p320
tp321
a(S'Stone Temple Pilots'
p322
S'Peacoat'
p323
S'http://www.last.fm/music/Stone+Temple+Pilots/_/Peacoat'
p324
S'1275776655'
p325
tp326
a(S'Them Crooked Vultures'
p327
S'Gunman'
p328
S'http://www.last.fm/music/Them+Crooked+Vultures/_/Gunman'
p329
S'1275772010'
p330
tp331
a(S'Audioslave'
p332
S'Your Time Has Come'
p333
S'http://www.last.fm/music/Audioslave/_/Your+Time+Has+Come'
p334
S'1275770175'
p335
tp336
a(S'Stone Temple Pilots'
p337
S'Huckleberry Crumble'
p338
S'http://www.last.fm/music/Stone+Temple+Pilots/_/Huckleberry+Crumble'
p339
S'1275769916'
p340
tp341
a(S'Ozzy Osbourne'
p342
S'Shot in the Dark'
p343
S'http://www.last.fm/music/Ozzy+Osbourne/_/Shot+in+the+Dark'
p344
S'1275769715'
p345
tp346
a(S'Ozzy Osbourne'
p347
S"Countdown's Begun"
p348
S'http://www.last.fm/music/Ozzy+Osbourne/_/Countdown%27s+Begun'
p349
S'1275769458'
p350
tp351
a(S'Stone Temple Pilots'
p352
S'Coma'
p353
S'http://www.last.fm/music/Stone+Temple+Pilots/_/Coma'
p354
S'1275769170'
p355
tp356
a(S'Metallica'
p357
S'Whiplash'
p358
S'http://www.last.fm/music/Metallica/_/Whiplash'
p359
S'1275768949'
p360
tp361
a(S'Jerry Cantrell'
p362
S'Hurt A Long Time'
p363
S'http://www.last.fm/music/Jerry+Cantrell/_/Hurt+A+Long+Time'
p364
S'1275768700'
p365
tp366
a(S'Nirvana'
p367
S'Smells Like Teen Spirit'
p368
S'http://www.last.fm/music/Nirvana/_/Smells+Like+Teen+Spirit'
p369
S'1275768253'
p370
tp371
a(S'Black Sabbath'
p372
S'Cornucopia'
p373
S'http://www.last.fm/music/Black+Sabbath/_/Cornucopia'
p374
S'1275767952'
p375
tp376
a(S'Lynyrd Skynyrd'
p377
S'Double Trouble'
p378
S'http://www.last.fm/music/Lynyrd+Skynyrd/_/Double+Trouble'
p379
S'1275767752'
p380
tp381
a(S'Audioslave'
p382
S'Number 1 Zero'
p383
S'http://www.last.fm/music/Audioslave/_/Number+1+Zero'
p384
S'1275767616'
p385
tp386
a(S'Bee Gees'
p387
S'E.S.P.'
p388
S'http://www.last.fm/music/Bee+Gees/_/E.S.P.'
p389
S'1275767317'
p390
tp391
a(S'Live'
p392
S'Gas Hed Goes West'
p393
S'http://www.last.fm/music/Live/_/Gas+Hed+Goes+West'
p394
S'1275766955'
p395
tp396
a(S'Blues Traveler'
p397
S'The Good, the Bad, and the Ugly'
p398
S'http://www.last.fm/music/Blues+Traveler/_/The+Good,+the+Bad,+and+the+Ugly'
p399
S'1275766610'
p400
tp401
a(S'Black Sabbath'
p402
S'Laguna Sunrise'
p403
S'http://www.last.fm/music/Black+Sabbath/_/Laguna+Sunrise'
p404
S'1275766522'
p405
tp406
a(S'Live'
p407
S'Sun'
p408
S'http://www.last.fm/music/Live/_/Sun'
p409
S'1275766349'
p410
tp411
a(S'Alice Cooper'
p412
S'Bed of Nails'
p413
S'http://www.last.fm/music/Alice+Cooper/_/Bed+of+Nails'
p414
S'1275766136'
p415
tp416
a(S'Queens of the Stone Age'
p417
S'In the Fade'
p418
S'http://www.last.fm/music/Queens+of+the+Stone+Age/_/In+the+Fade'
p419
S'1275765876'
p420
tp421
a(S'Black Sabbath'
p422
S'Hand of Doom'
p423
S'http://www.last.fm/music/Black+Sabbath/_/Hand+of+Doom'
p424
S'1275765645'
p425
tp426
a(S'Bo Diddley'
p427
S'Can I Walk You Home'
p428
S'http://www.last.fm/music/Bo+Diddley/_/Can+I+Walk+You+Home'
p429
S'1275765217'
p430
tp431
a(S'Queen'
p432
S'Let Me Entertain You'
p433
S'http://www.last.fm/music/Queen/_/Let+Me+Entertain+You'
p434
S'1275764897'
p435
tp436
a(S'Them Crooked Vultures'
p437
S'Mind Eraser, No Chaser'
p438
S'http://www.last.fm/music/Them+Crooked+Vultures/_/Mind+Eraser,+No+Chaser'
p439
S'1275764690'
p440
tp441
a(S'Stone Temple Pilots'
p442
S'Between the Lines'
p443
S'http://www.last.fm/music/Stone+Temple+Pilots/_/Between+the+Lines'
p444
S'1275764347'
p445
tp446
a(S'Bee Gees'
p447
S'E.S.P.'
p448
S'http://www.last.fm/music/Bee+Gees/_/E.S.P.'
p449
S'1275764168'
p450
tp451
a(S'Audioslave'
p452
S'Number 1 Zero'
p453
S'http://www.last.fm/music/Audioslave/_/Number+1+Zero'
p454
S'1275763820'
p455
tp456
a(S'Bee Gees'
p457
S'E.S.P.'
p458
S'http://www.last.fm/music/Bee+Gees/_/E.S.P.'
p459
S'1275763521'
p460
tp461
a(S'Black Sabbath'
p462
S'War Pigs'
p463
S'http://www.last.fm/music/Black+Sabbath/_/War+Pigs'
p464
S'1275763170'
p465
tp466
a(S'Ozzy Osbourne'
p467
S'Never'
p468
S'http://www.last.fm/music/Ozzy+Osbourne/_/Never'
p469
S'1275762687'
p470
tp471
a(S'Metallica'
p472
S'Blitzkrieg'
p473
S'http://www.last.fm/music/Metallica/_/Blitzkrieg'
p474
S'1275762510'
p475
tp476
a(S'Stone Temple Pilots'
p477
S"Trippin' on a Hole in a Paper Heart"
p478
S'http://www.last.fm/music/Stone+Temple+Pilots/_/Trippin%27+on+a+Hole+in+a+Paper+Heart'
p479
S'1275762295'
p480
tp481
a(S'Audioslave'
p482
S'Be Yourself'
p483
S'http://www.last.fm/music/Audioslave/_/Be+Yourself'
p484
S'1275762118'
p485
tp486
a(S'Bon Jovi'
p487
S"I'll Be There For You"
p488
S'http://www.last.fm/music/Bon+Jovi/_/I%27ll+Be+There+For+You'
p489
S'1275761827'
p490
tp491
a(S'The Rolling Stones'
p492
S'All Down The Line'
p493
S'http://www.last.fm/music/The+Rolling+Stones/_/All+Down+The+Line'
p494
S'1275761485'
p495
tp496
a(S'Garbage'
p497
S'Push It'
p498
S'http://www.last.fm/music/Garbage/_/Push+It'
p499
S'1275761110'
p500
tp501
a(S'Stone Temple Pilots'
p502
S'Peacoat'
p503
S'http://www.last.fm/music/Stone+Temple+Pilots/_/Peacoat'
p504
S'1275760867'
p505
tp506
a(S'Live'
p507
S'White, Discussion'
p508
S'http://www.last.fm/music/Live/_/White,+Discussion'
p509
S'1275760647'
p510
tp511
a(S'Black Sabbath'
p512
S'Hole in the Sky'
p513
S'http://www.last.fm/music/Black+Sabbath/_/Hole+in+the+Sky'
p514
S'1275760279'
p515
tp516
a(S'AC/DC'
p517
S'Whole Lotta Rosie'
p518
S'http://www.last.fm/music/AC%2FDC/_/Whole+Lotta+Rosie'
p519
S'1275760039'
p520
tp521
a(S'Alice in Chains'
p522
S'Acid Bubble'
p523
S'http://www.last.fm/music/Alice+in+Chains/_/Acid+Bubble'
p524
S'1275759791'
p525
tp526
a(S'Black Sabbath'
p527
S'Neon Knights'
p528
S'http://www.last.fm/music/Black+Sabbath/_/Neon+Knights'
p529
S'1275759375'
p530
tp531
a(S'Army Of Anyone'
p532
S'Goodbye'
p533
S'http://www.last.fm/music/Army+Of+Anyone/_/Goodbye'
p534
S'1275759149'
p535
tp536
a(S'Live'
p537
S'The Distance'
p538
S'http://www.last.fm/music/Live/_/The+Distance'
p539
S'1275758877'
p540
tp541
a(S'Army Of Anyone'
p542
S'Father Figure'
p543
S'http://www.last.fm/music/Army+Of+Anyone/_/Father+Figure'
p544
S'1275758611'
p545
tp546
a(S'Ozzy Osbourne'
p547
S'No More Tears'
p548
S'http://www.last.fm/music/Ozzy+Osbourne/_/No+More+Tears'
p549
S'1275753878'
p550
tp551
a(S'Bon Jovi'
p552
S'Runaway'
p553
S'http://www.last.fm/music/Bon+Jovi/_/Runaway'
p554
S'1275753310'
p555
tp556
a(S'Metallica'
p557
S'Metal Militia'
p558
S'http://www.last.fm/music/Metallica/_/Metal+Militia'
p559
S'1275753076'
p560
tp561
a(S'Stone Temple Pilots'
p562
S'Vasoline'
p563
S'http://www.last.fm/music/Stone+Temple+Pilots/_/Vasoline'
p564
S'1275752765'
p565
tp566
a(S'Live'
p567
S'They Stood Up For Love'
p568
S'http://www.last.fm/music/Live/_/They+Stood+Up+For+Love'
p569
S'1275752588'
p570
tp571
a(S'Rainbow'
p572
S'Lady Of The Lake'
p573
S'http://www.last.fm/music/Rainbow/_/Lady+Of+The+Lake'
p574
S'1275752313'
p575
tp576
a(S'Black Sabbath'
p577
S'FX'
p578
S'http://www.last.fm/music/Black+Sabbath/_/FX'
p579
S'1275752093'
p580
tp581
a(S'Alice in Chains'
p582
S'Dam That River'
p583
S'http://www.last.fm/music/Alice+in+Chains/_/Dam+That+River'
p584
S'1275752038'
p585
tp586
a(S'Garbage'
p587
S'Push It'
p588
S'http://www.last.fm/music/Garbage/_/Push+It'
p589
S'1275751818'
p590
tp591
a(S'Stone Temple Pilots'
p592
S'Peacoat'
p593
S'http://www.last.fm/music/Stone+Temple+Pilots/_/Peacoat'
p594
S'1275751576'
p595
tp596
a(S'Live'
p597
S'Forever May Not Be Long Enough'
p598
S'http://www.last.fm/music/Live/_/Forever+May+Not+Be+Long+Enough'
p599
S'1275751041'
p600
tp601
a(S'Nirvana'
p602
S"Jesus Doesn't Want Me For A Sunbeam"
p603
S'http://www.last.fm/music/Nirvana/_/Jesus+Doesn%27t+Want+Me+For+A+Sunbeam'
p604
S'1275750812'
p605
tp606
a(S'The Rolling Stones'
p607
S'Dead Flowers'
p608
S'http://www.last.fm/music/The+Rolling+Stones/_/Dead+Flowers'
p609
S'1275750534'
p610
tp611
a(S'Nirvana'
p612
S'Plateau'
p613
S'http://www.last.fm/music/Nirvana/_/Plateau'
p614
S'1275750143'
p615
tp616
a(S'Ozzy Osbourne'
p617
S'Secret Loser'
p618
S'http://www.last.fm/music/Ozzy+Osbourne/_/Secret+Loser'
p619
S'1275749925'
p620
tp621
a(S'Them Crooked Vultures'
p622
S'Dead End Friends'
p623
S'http://www.last.fm/music/Them+Crooked+Vultures/_/Dead+End+Friends'
p624
S'1275749561'
p625
tp626
a(S'Blues Traveler'
p627
S'Look Around'
p628
S'http://www.last.fm/music/Blues+Traveler/_/Look+Around'
p629
S'1275749364'
p630
tp631
a(S'Alice in Chains'
p632
S'Brother'
p633
S'http://www.last.fm/music/Alice+in+Chains/_/Brother'
p634
S'1275749136'
p635
tp636
a(S'Queens of the Stone Age'
p637
S"You Think I Ain't Worth a Dollar, But I Feel Like a Millionaire"
p638
S'http://www.last.fm/music/Queens+of+the+Stone+Age/_/You+Think+I+Ain%27t+Worth+a+Dollar,+But+I+Feel+Like+a+Millionaire'
p639
S'1275748863'
p640
tp641
a(S'Alice in Chains'
p642
S"Nothin' Song"
p643
S'http://www.last.fm/music/Alice+in+Chains/_/Nothin%27+Song'
p644
S'1275748584'
p645
tp646
a(S'Stone Temple Pilots'
p647
S'Army Ants'
p648
S'http://www.last.fm/music/Stone+Temple+Pilots/_/Army+Ants'
p649
S'1275748243'
p650
tp651
a(S'Ozzy Osbourne'
p652
S'Shot in the Dark'
p653
S'http://www.last.fm/music/Ozzy+Osbourne/_/Shot+in+the+Dark'
p654
S'1275748017'
p655
tp656
a(S'Audioslave'
p657
S'The Curse'
p658
S'http://www.last.fm/music/Audioslave/_/The+Curse'
p659
S'1275747720'
p660
tp661
a(S'The Rolling Stones'
p662
S"Can't You Hear Me Knocking"
p663
S'http://www.last.fm/music/The+Rolling+Stones/_/Can%27t+You+Hear+Me+Knocking'
p664
S'1275747410'
p665
tp666
a(S'Black Sabbath'
p667
S'St. Vitus Dance'
p668
S'http://www.last.fm/music/Black+Sabbath/_/St.+Vitus+Dance'
p669
S'1275746973'
p670
tp671
a(S'Audioslave'
p672
S'Gasoline'
p673
S'http://www.last.fm/music/Audioslave/_/Gasoline'
p674
S'1275746827'
p675
tp676
a(S'Audioslave'
p677
S'Your Time Has Come'
p678
S'http://www.last.fm/music/Audioslave/_/Your+Time+Has+Come'
p679
S'1275746539'
p680
tp681
a(S'Stone Temple Pilots'
p682
S'Huckleberry Crumble'
p683
S'http://www.last.fm/music/Stone+Temple+Pilots/_/Huckleberry+Crumble'
p684
S'1275746283'
p685
tp686
a(S'Soundgarden'
p687
S'Head Down'
p688
S'http://www.last.fm/music/Soundgarden/_/Head+Down'
p689
S'1275746063'
p690
tp691
a(S'AC/DC'
p692
S"Hell Ain't A Bad Place To Be"
p693
S'http://www.last.fm/music/AC%2FDC/_/Hell+Ain%27t+A+Bad+Place+To+Be'
p694
S'1275745688'
p695
tp696
a(S'Queen'
p697
S'Bicycle Race'
p698
S'http://www.last.fm/music/Queen/_/Bicycle+Race'
p699
S'1275745437'
p700
tp701
a(S'Live'
p702
S'Operation Spirit (The Tyranny Of Tradition)'
p703
S'http://www.last.fm/music/Live/_/Operation+Spirit+(The+Tyranny+Of+Tradition)'
p704
S'1275745253'
p705
tp706
a(S'Soundgarden'
p707
S'Outshined'
p708
S'http://www.last.fm/music/Soundgarden/_/Outshined'
p709
S'1275745018'
p710
tp711
a(S'Alice in Chains'
p712
S'Over Now'
p713
S'http://www.last.fm/music/Alice+in+Chains/_/Over+Now'
p714
S'1275744639'
p715
tp716
a(S'Judas Priest'
p717
S'Hot for Love'
p718
S'http://www.last.fm/music/Judas+Priest/_/Hot+for+Love'
p719
S'1275744215'
p720
tp721
a(S'Stone Temple Pilots'
p722
S'Vasoline (Live from Chicago)'
p723
S'http://www.last.fm/music/Stone+Temple+Pilots/_/Vasoline+(Live+from+Chicago)'
p724
S'1275743964'
p725
tp726
a(S'Velvet Revolver'
p727
S'Headspace'
p728
S'http://www.last.fm/music/Velvet+Revolver/_/Headspace'
p729
S'1275743771'
p730
tp731
a(S'Nirvana'
p732
S'Breed'
p733
S'http://www.last.fm/music/Nirvana/_/Breed'
p734
S'1275743548'
p735
tp736
a(S'Audioslave'
p737
S'Your Time Has Come'
p738
S'http://www.last.fm/music/Audioslave/_/Your+Time+Has+Come'
p739
S'1275743332'
p740
tp741
a(S'Stone Temple Pilots'
p742
S'Huckleberry Crumble'
p743
S'http://www.last.fm/music/Stone+Temple+Pilots/_/Huckleberry+Crumble'
p744
S'1275743077'
p745
tp746
a(S'Alice in Chains'
p747
S'Bleed the Freak'
p748
S'http://www.last.fm/music/Alice+in+Chains/_/Bleed+the+Freak'
p749
S'1275742847'
p750
tp751
a(S'Ozzy Osbourne'
p752
S'A.V.H.'
p753
S'http://www.last.fm/music/Ozzy+Osbourne/_/A.V.H.'
p754
S'1275742605'
p755
tp756
a(S'Ozzy Osbourne'
p757
S'The Ultimate Sin'
p758
S'http://www.last.fm/music/Ozzy+Osbourne/_/The+Ultimate+Sin'
p759
S'1275742352'
p760
tp761
a(S'Lynyrd Skynyrd'
p762
S'Preacher Man'
p763
S'http://www.last.fm/music/Lynyrd+Skynyrd/_/Preacher+Man'
p764
S'1275742113'
p765
tp766
a(S'Garbage'
p767
S'Push It'
p768
S'http://www.last.fm/music/Garbage/_/Push+It'
p769
S'1275741823'
p770
tp771
a(S'Stone Temple Pilots'
p772
S'Peacoat'
p773
S'http://www.last.fm/music/Stone+Temple+Pilots/_/Peacoat'
p774
S'1275741580'
p775
tp776
a(S'Black Sabbath'
p777
S'St. Vitus Dance'
p778
S'http://www.last.fm/music/Black+Sabbath/_/St.+Vitus+Dance'
p779
S'1275741363'
p780
tp781
a(S'Audioslave'
p782
S'Gasoline'
p783
S'http://www.last.fm/music/Audioslave/_/Gasoline'
p784
S'1275741214'
p785
tp786
a(S'Audioslave'
p787
S'Your Time Has Come'
p788
S'http://www.last.fm/music/Audioslave/_/Your+Time+Has+Come'
p789
S'1275740929'
p790
tp791
a(S'Stone Temple Pilots'
p792
S'Huckleberry Crumble'
p793
S'http://www.last.fm/music/Stone+Temple+Pilots/_/Huckleberry+Crumble'
p794
S'1275740674'
p795
tp796
a(S'The Cult'
p797
S'Edie (Ciao Baby)'
p798
S'http://www.last.fm/music/The+Cult/_/Edie+(Ciao+Baby)'
p799
S'1275740393'
p800
tp801
a(S'Iron Maiden'
p802
S'The Evil That Men Do'
p803
S'http://www.last.fm/music/Iron+Maiden/_/The+Evil+That+Men+Do'
p804
S'1275740101'
p805
tp806
a(S'Stone Temple Pilots'
p807
S'Between the Lines'
p808
S'http://www.last.fm/music/Stone+Temple+Pilots/_/Between+the+Lines'
p809
S'1275739816'
p810
tp811
a(S'The Rolling Stones'
p812
S'Loving Cup'
p813
S'http://www.last.fm/music/The+Rolling+Stones/_/Loving+Cup'
p814
S'1275739622'
p815
tp816
a(S'Lynyrd Skynyrd'
p817
S'Preacher Man'
p818
S'http://www.last.fm/music/Lynyrd+Skynyrd/_/Preacher+Man'
p819
S'1275739356'
p820
tp821
a(S'Garbage'
p822
S'Push It'
p823
S'http://www.last.fm/music/Garbage/_/Push+It'
p824
S'1275739076'
p825
tp826
a(S'Stone Temple Pilots'
p827
S'Peacoat'
p828
S'http://www.last.fm/music/Stone+Temple+Pilots/_/Peacoat'
p829
S'1275738834'
p830
tp831
a(S'Stone Temple Pilots'
p832
S'Sour Girl'
p833
S'http://www.last.fm/music/Stone+Temple+Pilots/_/Sour+Girl'
p834
S'1275693723'
p835
tp836
a(S'Stone Temple Pilots'
p837
S'Down'
p838
S'http://www.last.fm/music/Stone+Temple+Pilots/_/Down'
p839
S'1275693466'
p840
tp841
a(S'Stone Temple Pilots'
p842
S'Ride the Cliche'
p843
S'http://www.last.fm/music/Stone+Temple+Pilots/_/Ride+the+Cliche'
p844
S'1275693236'
p845
tp846
a(S'Stone Temple Pilots'
p847
S'Lady Picture Show'
p848
S'http://www.last.fm/music/Stone+Temple+Pilots/_/Lady+Picture+Show'
p849
S'1275693038'
p850
tp851
a(S'Stone Temple Pilots'
p852
S"Pop's Love Suicide"
p853
S'http://www.last.fm/music/Stone+Temple+Pilots/_/Pop%27s+Love+Suicide'
p854
S'1275692789'
p855
tp856
a(S'Stone Temple Pilots'
p857
S'Between The Lines (Live from Chicago)'
p858
S'http://www.last.fm/music/Stone+Temple+Pilots/_/Between+The+Lines+(Live+from+Chicago)'
p859
S'1275692566'
p860
tp861
a(S'Stone Temple Pilots'
p862
S'Vasoline (Live from Chicago)'
p863
S'http://www.last.fm/music/Stone+Temple+Pilots/_/Vasoline+(Live+from+Chicago)'
p864
S'1275692391'
p865
tp866
a(S'Stone Temple Pilots'
p867
S'First Kiss on Mars'
p868
S'http://www.last.fm/music/Stone+Temple+Pilots/_/First+Kiss+on+Mars'
p869
S'1275692198'
p870
tp871
a(S'Stone Temple Pilots'
p872
S'Peacoat'
p873
S'http://www.last.fm/music/Stone+Temple+Pilots/_/Peacoat'
p874
S'1275692015'
p875
tp876
a(S'Stone Temple Pilots'
p877
S'Between The Lines (Live from Chicago)'
p878
S'http://www.last.fm/music/Stone+Temple+Pilots/_/Between+The+Lines+(Live+from+Chicago)'
p879
S'1275691746'
p880
tp881
a(S'Stone Temple Pilots'
p882
S'Vasoline (Live from Chicago)'
p883
S'http://www.last.fm/music/Stone+Temple+Pilots/_/Vasoline+(Live+from+Chicago)'
p884
S'1275691571'
p885
tp886
a(S'Stone Temple Pilots'
p887
S'First Kiss on Mars'
p888
S'http://www.last.fm/music/Stone+Temple+Pilots/_/First+Kiss+on+Mars'
p889
S'1275691379'
p890
tp891
a(S'Stone Temple Pilots'
p892
S'Peacoat'
p893
S'http://www.last.fm/music/Stone+Temple+Pilots/_/Peacoat'
p894
S'1275691196'
p895
tp896
a(S'Stone Temple Pilots'
p897
S'First Kiss on Mars'
p898
S'http://www.last.fm/music/Stone+Temple+Pilots/_/First+Kiss+on+Mars'
p899
S'1275690961'
p900
tp901
a(S'Stone Temple Pilots'
p902
S'Peacoat'
p903
S'http://www.last.fm/music/Stone+Temple+Pilots/_/Peacoat'
p904
S'1275690778'
p905
tp906
a(S'Stone Temple Pilots'
p907
S'Peacoat'
p908
S'http://www.last.fm/music/Stone+Temple+Pilots/_/Peacoat'
p909
S'1275690505'
p910
tp911
a(S'Stone Temple Pilots'
p912
S'Kitchenware & Candybars'
p913
S'http://www.last.fm/music/Stone+Temple+Pilots/_/Kitchenware+&+Candybars'
p914
S'1275688709'
p915
tp916
a(S'Stone Temple Pilots'
p917
S'Big Bang Baby'
p918
S'http://www.last.fm/music/Stone+Temple+Pilots/_/Big+Bang+Baby'
p919
S'1275688223'
p920
tp921
a(S'Stone Temple Pilots'
p922
S'Pruno'
p923
S'http://www.last.fm/music/Stone+Temple+Pilots/_/Pruno'
p924
S'1275688019'
p925
tp926
a(S'Stone Temple Pilots'
p927
S'Wicked Garden'
p928
S'http://www.last.fm/music/Stone+Temple+Pilots/_/Wicked+Garden'
p929
S'1275687824'
p930
tp931
a(S'Stone Temple Pilots'
p932
S'Sin'
p933
S'http://www.last.fm/music/Stone+Temple+Pilots/_/Sin'
p934
S'1275687579'
p935
tp936
a(S'Stone Temple Pilots'
p937
S'Hollywood Bitch'
p938
S'http://www.last.fm/music/Stone+Temple+Pilots/_/Hollywood+Bitch'
p939
S'1275687214'
p940
tp941
a(S'Stone Temple Pilots'
p942
S'Silvergun Superman'
p943
S'http://www.last.fm/music/Stone+Temple+Pilots/_/Silvergun+Superman'
p944
S'1275687050'
p945
tp946
a(S'Stone Temple Pilots'
p947
S'First Kiss on Mars'
p948
S'http://www.last.fm/music/Stone+Temple+Pilots/_/First+Kiss+on+Mars'
p949
S'1275686173'
p950
tp951
a(S'Stone Temple Pilots'
p952
S'Huckleberry Crumble'
p953
S'http://www.last.fm/music/Stone+Temple+Pilots/_/Huckleberry+Crumble'
p954
S'1275686026'
p955
tp956
a(S'Stone Temple Pilots'
p957
S'Too Cool Queenie'
p958
S'http://www.last.fm/music/Stone+Temple+Pilots/_/Too+Cool+Queenie'
p959
S'1275685806'
p960
tp961
a(S'Stone Temple Pilots'
p962
S'Plush'
p963
S'http://www.last.fm/music/Stone+Temple+Pilots/_/Plush'
p964
S'1275685613'
p965
tp966
a(S'Stone Temple Pilots'
p967
S'Dumb Love'
p968
S'http://www.last.fm/music/Stone+Temple+Pilots/_/Dumb+Love'
p969
S'1275685299'
p970
tp971
a(S'Stone Temple Pilots'
p972
S'Meat Plow'
p973
S'http://www.last.fm/music/Stone+Temple+Pilots/_/Meat+Plow'
p974
S'1275684778'
p975
tp976
a(S'Stone Temple Pilots'
p977
S'Vasoline'
p978
S'http://www.last.fm/music/Stone+Temple+Pilots/_/Vasoline'
p979
S'1275684643'
p980
tp981
a(S'Stone Temple Pilots'
p982
S'Crackerman'
p983
S'http://www.last.fm/music/Stone+Temple+Pilots/_/Crackerman'
p984
S'1275684465'
p985
tp986
a(S'Stone Temple Pilots'
p987
S'Daisy'
p988
S'http://www.last.fm/music/Stone+Temple+Pilots/_/Daisy'
p989
S'1275684271'
p990
tp991
a(S'Stone Temple Pilots'
p992
S'Art School Girl'
p993
S'http://www.last.fm/music/Stone+Temple+Pilots/_/Art+School+Girl'
p994
S'1275684132'
p995
tp996
a(S'Stone Temple Pilots'
p997
S'Coma'
p998
S'http://www.last.fm/music/Stone+Temple+Pilots/_/Coma'
p999
S'1275683917'
p1000
tp1001
a.