(lp1
(S'Queens of the Stone Age'
p2
S'Little Sister'
p3
S'http://www.last.fm/music/Queens+of+the+Stone+Age/_/Little+Sister'
p4
S'1342549850'
p5
tp6
a(S'The Gracious Few'
p7
S'Closer'
p8
S'http://www.last.fm/music/The+Gracious+Few/_/Closer'
p9
S'1342549645'
p10
tp11
a(S"Guns N' Roses"
p12
S'Nightrain'
p13
S'http://www.last.fm/music/Guns+N%27+Roses/_/Nightrain'
p14
S'1342549377'
p15
tp16
a(S'Iron Maiden'
p17
S'Rainmaker'
p18
S'http://www.last.fm/music/Iron+Maiden/_/Rainmaker'
p19
S'1342549148'
p20
tp21
a(S'Foo Fighters'
p22
S'Hell'
p23
S'http://www.last.fm/music/Foo+Fighters/_/Hell'
p24
S'1342548217'
p25
tp26
a(S'The Cult'
p27
S'She Sells Sanctuary'
p28
S'http://www.last.fm/music/The+Cult/_/She+Sells+Sanctuary'
p29
S'1342547963'
p30
tp31
a(S'Joe Satriani'
p32
S'If I Could Fly'
p33
S'http://www.last.fm/music/Joe+Satriani/_/If+I+Could+Fly'
p34
S'1342547572'
p35
tp36
a(S'Joe Satriani'
p37
S'Out of the Sunrise'
p38
S'http://www.last.fm/music/Joe+Satriani/_/Out+of+the+Sunrise'
p39
S'1342547229'
p40
tp41
a(S'Jupiter One'
p42
S'Countdown'
p43
S'http://www.last.fm/music/Jupiter+One/_/Countdown'
p44
S'1342547000'
p45
tp46
a(S'Danko Jones'
p47
S'Code of the Road'
p48
S'http://www.last.fm/music/Danko+Jones/_/Code+of+the+Road'
p49
S'1342546646'
p50
tp51
a(S'Black Sabbath'
p52
S'Wheels of Confusion / The Straightener'
p53
S'http://www.last.fm/music/Black+Sabbath/_/Wheels+of+Confusion+%2F+The+Straightener'
p54
S'1342545583'
p55
tp56
a(S'Audioslave'
p57
S'The Worm'
p58
S'http://www.last.fm/music/Audioslave/_/The+Worm'
p59
S'1342545351'
p60
tp61
a(S'Kiss'
p62
S'Creatures Of The Night'
p63
S'http://www.last.fm/music/Kiss/_/Creatures+Of+The+Night'
p64
S'1342545103'
p65
tp66
a(S'Bon Jovi'
p67
S'Let It Rock'
p68
S'http://www.last.fm/music/Bon+Jovi/_/Let+It+Rock'
p69
S'1342542706'
p70
tp71
a(S'Danzig'
p72
S'Mother'
p73
S'http://www.last.fm/music/Danzig/_/Mother'
p74
S'1342534573'
p75
tp76
a(S'Bob Marley & The Wailers'
p77
S'Three Little Birds'
p78
S'http://www.last.fm/music/Bob+Marley+&+The+Wailers/_/Three+Little+Birds'
p79
S'1342534233'
p80
tp81
a(S'Joe Satriani'
p82
S'The Souls of Distortion'
p83
S'http://www.last.fm/music/Joe+Satriani/_/The+Souls+of+Distortion'
p84
S'1342533855'
p85
tp86
a(S'Roxette'
p87
S'Things Will Never Be the Same'
p88
S'http://www.last.fm/music/Roxette/_/Things+Will+Never+Be+the+Same'
p89
S'1342533589'
p90
tp91
a(S'Beastie Boys'
p92
S"So What'cha Want"
p93
S'http://www.last.fm/music/Beastie+Boys/_/So+What%27cha+Want'
p94
S'1342533370'
p95
tp96
a(S'Beastie Boys'
p97
S"So What'cha Want"
p98
S'http://www.last.fm/music/Beastie+Boys/_/So+What%27cha+Want'
p99
S'1342533128'
p100
tp101
a(S'Queens of the Stone Age'
p102
S'In the Fade'
p103
S'http://www.last.fm/music/Queens+of+the+Stone+Age/_/In+the+Fade'
p104
S'1342532897'
p105
tp106
a(S'Blues Traveler'
p107
S"Maybe I'm Wrong"
p108
S'http://www.last.fm/music/Blues+Traveler/_/Maybe+I%27m+Wrong'
p109
S'1342532069'
p110
tp111
a(S'Roxette'
p112
S'(Do You Get) Excited?'
p113
S'http://www.last.fm/music/Roxette/_/(Do+You+Get)+Excited%3F'
p114
S'1342531293'
p115
tp116
a(S'Audioslave'
p117
S'Exploder'
p118
S'http://www.last.fm/music/Audioslave/_/Exploder'
p119
S'1342531088'
p120
tp121
a(S'Live'
p122
S'She'
p123
S'http://www.last.fm/music/Live/_/She'
p124
S'1342530927'
p125
tp126
a(S'Audioslave'
p127
S'Shadow On The Sun'
p128
S'http://www.last.fm/music/Audioslave/_/Shadow+On+The+Sun'
p129
S'1342530584'
p130
tp131
a(S'Joe Satriani'
p132
S'Out of the Sunrise'
p133
S'http://www.last.fm/music/Joe+Satriani/_/Out+of+the+Sunrise'
p134
S'1342530362'
p135
tp136
a(S'Bee Gees'
p137
S'E-S-P'
p138
S'http://www.last.fm/music/Bee+Gees/_/E-S-P'
p139
S'1342529767'
p140
tp141
a(S'The Cult'
p142
S'Fire Woman'
p143
S'http://www.last.fm/music/The+Cult/_/Fire+Woman'
p144
S'1342529455'
p145
tp146
a(S'Live'
p147
S'Pain Lies On The Riverside'
p148
S'http://www.last.fm/music/Live/_/Pain+Lies+On+The+Riverside'
p149
S'1342529144'
p150
tp151
a(S'Live'
p152
S'Mirror Song'
p153
S'http://www.last.fm/music/Live/_/Mirror+Song'
p154
S'1342528925'
p155
tp156
a(S'Live'
p157
S'Operation Spirit (The Tyranny Of Tradition)'
p158
S'http://www.last.fm/music/Live/_/Operation+Spirit+(The+Tyranny+Of+Tradition)'
p159
S'1342528727'
p160
tp161
a(S'Roxette'
p162
S'(Do You Get) Excited?'
p163
S'http://www.last.fm/music/Roxette/_/(Do+You+Get)+Excited%3F'
p164
S'1342526899'
p165
tp166
a(S'Joe Satriani'
p167
S'If I Could Fly'
p168
S'http://www.last.fm/music/Joe+Satriani/_/If+I+Could+Fly'
p169
S'1342526508'
p170
tp171
a(S"Guns N' Roses"
p172
S'Nightrain'
p173
S'http://www.last.fm/music/Guns+N%27+Roses/_/Nightrain'
p174
S'1342526239'
p175
tp176
a(S'Foo Fighters'
p177
S'Headwires'
p178
S'http://www.last.fm/music/Foo+Fighters/_/Headwires'
p179
S'1342525962'
p180
tp181
a(S'Danzig'
p182
S'Mother'
p183
S'http://www.last.fm/music/Danzig/_/Mother'
p184
S'1342525757'
p185
tp186
a(S'Joe Satriani'
p187
S'The Souls of Distortion'
p188
S'http://www.last.fm/music/Joe+Satriani/_/The+Souls+of+Distortion'
p189
S'1342525459'
p190
tp191
a(S'Beastie Boys'
p192
S"So What'cha Want"
p193
S'http://www.last.fm/music/Beastie+Boys/_/So+What%27cha+Want'
p194
S'1342523883'
p195
tp196
a(S'Danzig'
p197
S'Mother'
p198
S'http://www.last.fm/music/Danzig/_/Mother'
p199
S'1342523673'
p200
tp201
a(S'Joe Satriani'
p202
S'The Souls of Distortion'
p203
S'http://www.last.fm/music/Joe+Satriani/_/The+Souls+of+Distortion'
p204
S'1342523375'
p205
tp206
a(S'Beastie Boys'
p207
S"So What'cha Want"
p208
S'http://www.last.fm/music/Beastie+Boys/_/So+What%27cha+Want'
p209
S'1342523155'
p210
tp211
a(S'Beastie Boys'
p212
S"So What'cha Want"
p213
S'http://www.last.fm/music/Beastie+Boys/_/So+What%27cha+Want'
p214
S'1342473789'
p215
tp216
a(S'Live'
p217
S'Mirror Song'
p218
S'http://www.last.fm/music/Live/_/Mirror+Song'
p219
S'1342473652'
p220
tp221
a(S'Live'
p222
S'Operation Spirit (The Tyranny Of Tradition)'
p223
S'http://www.last.fm/music/Live/_/Operation+Spirit+(The+Tyranny+Of+Tradition)'
p224
S'1342473454'
p225
tp226
a(S'Roxette'
p227
S'(Do You Get) Excited?'
p228
S'http://www.last.fm/music/Roxette/_/(Do+You+Get)+Excited%3F'
p229
S'1342473199'
p230
tp231
a(S'Joe Satriani'
p232
S'If I Could Fly'
p233
S'http://www.last.fm/music/Joe+Satriani/_/If+I+Could+Fly'
p234
S'1342471005'
p235
tp236
a(S"Guns N' Roses"
p237
S'Nightrain'
p238
S'http://www.last.fm/music/Guns+N%27+Roses/_/Nightrain'
p239
S'1342470736'
p240
tp241
a(S'Foo Fighters'
p242
S'Headwires'
p243
S'http://www.last.fm/music/Foo+Fighters/_/Headwires'
p244
S'1342470458'
p245
tp246
a(S'Danzig'
p247
S'Mother'
p248
S'http://www.last.fm/music/Danzig/_/Mother'
p249
S'1342470254'
p250
tp251
a(S'Joe Satriani'
p252
S'The Souls of Distortion'
p253
S'http://www.last.fm/music/Joe+Satriani/_/The+Souls+of+Distortion'
p254
S'1342469956'
p255
tp256
a(S'Beastie Boys'
p257
S"So What'cha Want"
p258
S'http://www.last.fm/music/Beastie+Boys/_/So+What%27cha+Want'
p259
S'1342469736'
p260
tp261
a(S'The Gracious Few'
p262
S'Closer'
p263
S'http://www.last.fm/music/The+Gracious+Few/_/Closer'
p264
S'1342469524'
p265
tp266
a(S'Live'
p267
S'She'
p268
S'http://www.last.fm/music/Live/_/She'
p269
S'1342469364'
p270
tp271
a(S'Joe Satriani'
p272
S'Out of the Sunrise'
p273
S'http://www.last.fm/music/Joe+Satriani/_/Out+of+the+Sunrise'
p274
S'1342469021'
p275
tp276
a(S'Edwyn Collins'
p277
S'A Girl Like You'
p278
S'http://www.last.fm/music/Edwyn+Collins/_/A+Girl+Like+You'
p279
S'1342468783'
p280
tp281
a(S'Foo Fighters'
p282
S'Resolve'
p283
S'http://www.last.fm/music/Foo+Fighters/_/Resolve'
p284
S'1342468494'
p285
tp286
a(S'Live'
p287
S'Waterboy'
p288
S'http://www.last.fm/music/Live/_/Waterboy'
p289
S'1342468332'
p290
tp291
a(S'Bee Gees'
p292
S'Giving Up The Ghost'
p293
S'http://www.last.fm/music/Bee+Gees/_/Giving+Up+The+Ghost'
p294
S'1342468066'
p295
tp296
a(S'Bee Gees'
p297
S'E-S-P'
p298
S'http://www.last.fm/music/Bee+Gees/_/E-S-P'
p299
S'1342467717'
p300
tp301
a(S'Bee Gees'
p302
S'E-S-P'
p303
S'http://www.last.fm/music/Bee+Gees/_/E-S-P'
p304
S'1342455652'
p305
tp306
a(S'Live'
p307
S'Mirror Song'
p308
S'http://www.last.fm/music/Live/_/Mirror+Song'
p309
S'1342455497'
p310
tp311
a(S'Live'
p312
S'Operation Spirit (The Tyranny Of Tradition)'
p313
S'http://www.last.fm/music/Live/_/Operation+Spirit+(The+Tyranny+Of+Tradition)'
p314
S'1342455296'
p315
tp316
a(S'Joe Satriani'
p317
S'If I Could Fly'
p318
S'http://www.last.fm/music/Joe+Satriani/_/If+I+Could+Fly'
p319
S'1342454901'
p320
tp321
a(S"Guns N' Roses"
p322
S'Nightrain'
p323
S'http://www.last.fm/music/Guns+N%27+Roses/_/Nightrain'
p324
S'1342453784'
p325
tp326
a(S'Foo Fighters'
p327
S'Headwires'
p328
S'http://www.last.fm/music/Foo+Fighters/_/Headwires'
p329
S'1342447952'
p330
tp331
a(S'Danzig'
p332
S'Mother'
p333
S'http://www.last.fm/music/Danzig/_/Mother'
p334
S'1342446728'
p335
tp336
a(S'Joe Satriani'
p337
S'The Souls of Distortion'
p338
S'http://www.last.fm/music/Joe+Satriani/_/The+Souls+of+Distortion'
p339
S'1342446430'
p340
tp341
a(S'Beastie Boys'
p342
S"So What'cha Want"
p343
S'http://www.last.fm/music/Beastie+Boys/_/So+What%27cha+Want'
p344
S'1342446210'
p345
tp346
a(S'Beastie Boys'
p347
S"So What'cha Want"
p348
S'http://www.last.fm/music/Beastie+Boys/_/So+What%27cha+Want'
p349
S'1342445779'
p350
tp351
a(S'Roxette'
p352
S'Things Will Never Be the Same'
p353
S'http://www.last.fm/music/Roxette/_/Things+Will+Never+Be+the+Same'
p354
S'1342445020'
p355
tp356
a(S'Foo Fighters'
p357
S'Resolve'
p358
S'http://www.last.fm/music/Foo+Fighters/_/Resolve'
p359
S'1342444733'
p360
tp361
a(S'Foo Fighters'
p362
S'Headwires'
p363
S'http://www.last.fm/music/Foo+Fighters/_/Headwires'
p364
S'1342444454'
p365
tp366
a(S'The Cult'
p367
S'Fire Woman'
p368
S'http://www.last.fm/music/The+Cult/_/Fire+Woman'
p369
S'1342444141'
p370
tp371
a(S'Joe Satriani'
p372
S'If I Could Fly'
p373
S'http://www.last.fm/music/Joe+Satriani/_/If+I+Could+Fly'
p374
S'1342442618'
p375
tp376
a(S'Foo Fighters'
p377
S'Hell'
p378
S'http://www.last.fm/music/Foo+Fighters/_/Hell'
p379
S'1342442501'
p380
tp381
a(S'The Gracious Few'
p382
S'Closer'
p383
S'http://www.last.fm/music/The+Gracious+Few/_/Closer'
p384
S'1342442291'
p385
tp386
a(S'Iron Maiden'
p387
S'Rainmaker'
p388
S'http://www.last.fm/music/Iron+Maiden/_/Rainmaker'
p389
S'1342442058'
p390
tp391
a(S'The Cult'
p392
S'She Sells Sanctuary'
p393
S'http://www.last.fm/music/The+Cult/_/She+Sells+Sanctuary'
p394
S'1342439437'
p395
tp396
a(S'Collective Soul'
p397
S'Why, Part 2'
p398
S'http://www.last.fm/music/Collective+Soul/_/Why,+Part+2'
p399
S'1342439218'
p400
tp401
a(S'Black Sabbath'
p402
S'Sabbath Bloody Sabbath'
p403
S'http://www.last.fm/music/Black+Sabbath/_/Sabbath+Bloody+Sabbath'
p404
S'1342438872'
p405
tp406
a(S'Live'
p407
S'Tired of "Me"'
p408
S'http://www.last.fm/music/Live/_/Tired+of+%22Me%22'
p409
S'1342438215'
p410
tp411
a(S'Jupiter One'
p412
S'Countdown'
p413
S'http://www.last.fm/music/Jupiter+One/_/Countdown'
p414
S'1342437905'
p415
tp416
a(S'Black Sabbath'
p417
S'Sabbra Cadabra'
p418
S'http://www.last.fm/music/Black+Sabbath/_/Sabbra+Cadabra'
p419
S'1342437544'
p420
tp421
a(S'Joe Cocker'
p422
S'Now That The Magic Has Gone'
p423
S'http://www.last.fm/music/Joe+Cocker/_/Now+That+The+Magic+Has+Gone'
p424
S'1342437264'
p425
tp426
a(S'Live'
p427
S'She'
p428
S'http://www.last.fm/music/Live/_/She'
p429
S'1342437105'
p430
tp431
a(S'Live'
p432
S'Pain Lies On The Riverside'
p433
S'http://www.last.fm/music/Live/_/Pain+Lies+On+The+Riverside'
p434
S'1342436792'
p435
tp436
a(S'Danzig'
p437
S'Mother'
p438
S'http://www.last.fm/music/Danzig/_/Mother'
p439
S'1342436588'
p440
tp441
a(S'Beastie Boys'
p442
S"So What'cha Want"
p443
S'http://www.last.fm/music/Beastie+Boys/_/So+What%27cha+Want'
p444
S'1342436369'
p445
tp446
a(S'Beastie Boys'
p447
S"So What'cha Want"
p448
S'http://www.last.fm/music/Beastie+Boys/_/So+What%27cha+Want'
p449
S'1342209480'
p450
tp451
a(S'The Cult'
p452
S'She Sells Sanctuary'
p453
S'http://www.last.fm/music/The+Cult/_/She+Sells+Sanctuary'
p454
S'1342209302'
p455
tp456
a(S'Beastie Boys'
p457
S"So What'cha Want"
p458
S'http://www.last.fm/music/Beastie+Boys/_/So+What%27cha+Want'
p459
S'1342209082'
p460
tp461
a(S'Beastie Boys'
p462
S"So What'cha Want"
p463
S'http://www.last.fm/music/Beastie+Boys/_/So+What%27cha+Want'
p464
S'1342208857'
p465
tp466
a(S'Beastie Boys'
p467
S"So What'cha Want"
p468
S'http://www.last.fm/music/Beastie+Boys/_/So+What%27cha+Want'
p469
S'1342208677'
p470
tp471
a(S'Black Sabbath'
p472
S'Spiral Architect'
p473
S'http://www.last.fm/music/Black+Sabbath/_/Spiral+Architect'
p474
S'1342208272'
p475
tp476
a(S'The Gracious Few'
p477
S'Tredecim'
p478
S'http://www.last.fm/music/The+Gracious+Few/_/Tredecim'
p479
S'1342208016'
p480
tp481
a(S'Danko Jones'
p482
S'Code of the Road'
p483
S'http://www.last.fm/music/Danko+Jones/_/Code+of+the+Road'
p484
S'1342207922'
p485
tp486
a(S'Joe Satriani'
p487
S'The Souls of Distortion'
p488
S'http://www.last.fm/music/Joe+Satriani/_/The+Souls+of+Distortion'
p489
S'1342207624'
p490
tp491
a(S'Iron Maiden'
p492
S'Rainmaker'
p493
S'http://www.last.fm/music/Iron+Maiden/_/Rainmaker'
p494
S'1342207395'
p495
tp496
a(S'Audioslave'
p497
S'Exploder'
p498
S'http://www.last.fm/music/Audioslave/_/Exploder'
p499
S'1342207152'
p500
tp501
a(S'Black Sabbath'
p502
S'Sabbath Bloody Sabbath'
p503
S'http://www.last.fm/music/Black+Sabbath/_/Sabbath+Bloody+Sabbath'
p504
S'1342206806'
p505
tp506
a(S'Jupiter One'
p507
S'Countdown'
p508
S'http://www.last.fm/music/Jupiter+One/_/Countdown'
p509
S'1342206578'
p510
tp511
a(S'Pearl Jam'
p512
S'Even Flow'
p513
S'http://www.last.fm/music/Pearl+Jam/_/Even+Flow'
p514
S'1342206285'
p515
tp516
a(S"Guns N' Roses"
p517
S'Nightrain'
p518
S'http://www.last.fm/music/Guns+N%27+Roses/_/Nightrain'
p519
S'1342206016'
p520
tp521
a(S'Joe Satriani'
p522
S'If I Could Fly'
p523
S'http://www.last.fm/music/Joe+Satriani/_/If+I+Could+Fly'
p524
S'1342205141'
p525
tp526
a(S'Nirvana'
p527
S'Lithium'
p528
S'http://www.last.fm/music/Nirvana/_/Lithium'
p529
S'1342204872'
p530
tp531
a(S'Pearl Jam'
p532
S'Why Go'
p533
S'http://www.last.fm/music/Pearl+Jam/_/Why+Go'
p534
S'1342204470'
p535
tp536
a(S'The Gracious Few'
p537
S'Closer'
p538
S'http://www.last.fm/music/The+Gracious+Few/_/Closer'
p539
S'1342204264'
p540
tp541
a(S'Iron Maiden'
p542
S'Public Enema Number One'
p543
S'http://www.last.fm/music/Iron+Maiden/_/Public+Enema+Number+One'
p544
S'1342203605'
p545
tp546
a(S'Roxette'
p547
S'(Do You Get) Excited?'
p548
S'http://www.last.fm/music/Roxette/_/(Do+You+Get)+Excited%3F'
p549
S'1342203348'
p550
tp551
a(S'The Cult'
p552
S'She Sells Sanctuary'
p553
S'http://www.last.fm/music/The+Cult/_/She+Sells+Sanctuary'
p554
S'1342203094'
p555
tp556
a(S'Beastie Boys'
p557
S"So What'cha Want"
p558
S'http://www.last.fm/music/Beastie+Boys/_/So+What%27cha+Want'
p559
S'1342202874'
p560
tp561
a(S'Judas Priest'
p562
S'Turbo Lover'
p563
S'http://www.last.fm/music/Judas+Priest/_/Turbo+Lover'
p564
S'1342197852'
p565
tp566
a(S'Black Sabbath'
p567
S'Spiral Architect'
p568
S'http://www.last.fm/music/Black+Sabbath/_/Spiral+Architect'
p569
S'1342197522'
p570
tp571
a(S'Joe Satriani'
p572
S'If I Could Fly'
p573
S'http://www.last.fm/music/Joe+Satriani/_/If+I+Could+Fly'
p574
S'1342196040'
p575
tp576
a(S'Danzig'
p577
S'Mother'
p578
S'http://www.last.fm/music/Danzig/_/Mother'
p579
S'1342195260'
p580
tp581
a(S'Danzig'
p582
S'Mother'
p583
S'http://www.last.fm/music/Danzig/_/Mother'
p584
S'1342187993'
p585
tp586
a(S'The Cult'
p587
S'She Sells Sanctuary'
p588
S'http://www.last.fm/music/The+Cult/_/She+Sells+Sanctuary'
p589
S'1342128081'
p590
tp591
a(S'Joe Satriani'
p592
S'The Souls of Distortion'
p593
S'http://www.last.fm/music/Joe+Satriani/_/The+Souls+of+Distortion'
p594
S'1342127783'
p595
tp596
a(S'Audioslave'
p597
S'Exploder'
p598
S'http://www.last.fm/music/Audioslave/_/Exploder'
p599
S'1342127577'
p600
tp601
a(S'Pearl Jam'
p602
S'Even Flow'
p603
S'http://www.last.fm/music/Pearl+Jam/_/Even+Flow'
p604
S'1342127283'
p605
tp606
a(S'Edwyn Collins'
p607
S'A Girl Like You'
p608
S'http://www.last.fm/music/Edwyn+Collins/_/A+Girl+Like+You'
p609
S'1342127046'
p610
tp611
a(S'Black Sabbath'
p612
S'Sabbath Bloody Sabbath'
p613
S'http://www.last.fm/music/Black+Sabbath/_/Sabbath+Bloody+Sabbath'
p614
S'1342126702'
p615
tp616
a(S'John Hiatt'
p617
S'Lift Up Every Stone'
p618
S'http://www.last.fm/music/John+Hiatt/_/Lift+Up+Every+Stone'
p619
S'1342126505'
p620
tp621
a(S'Bee Gees'
p622
S'Giving Up The Ghost'
p623
S'http://www.last.fm/music/Bee+Gees/_/Giving+Up+The+Ghost'
p624
S'1342126239'
p625
tp626
a(S'The Cult'
p627
S'Fire Woman'
p628
S'http://www.last.fm/music/The+Cult/_/Fire+Woman'
p629
S'1342125885'
p630
tp631
a(S'The Gracious Few'
p632
S'Crying Time'
p633
S'http://www.last.fm/music/The+Gracious+Few/_/Crying+Time'
p634
S'1342125558'
p635
tp636
a(S'Roxette'
p637
S'Things Will Never Be the Same'
p638
S'http://www.last.fm/music/Roxette/_/Things+Will+Never+Be+the+Same'
p639
S'1342125292'
p640
tp641
a(S'Joe Satriani'
p642
S'Out of the Sunrise'
p643
S'http://www.last.fm/music/Joe+Satriani/_/Out+of+the+Sunrise'
p644
S'1342124248'
p645
tp646
a(S'Beastie Boys'
p647
S"So What'cha Want"
p648
S'http://www.last.fm/music/Beastie+Boys/_/So+What%27cha+Want'
p649
S'1342124029'
p650
tp651
a(S'Nirvana'
p652
S'In Bloom'
p653
S'http://www.last.fm/music/Nirvana/_/In+Bloom'
p654
S'1342123897'
p655
tp656
a(S'Pearl Jam'
p657
S'Why Go'
p658
S'http://www.last.fm/music/Pearl+Jam/_/Why+Go'
p659
S'1342123210'
p660
tp661
a(S'Joe Satriani'
p662
S'Out of the Sunrise'
p663
S'http://www.last.fm/music/Joe+Satriani/_/Out+of+the+Sunrise'
p664
S'1342122867'
p665
tp666
a(S'Beastie Boys'
p667
S"So What'cha Want"
p668
S'http://www.last.fm/music/Beastie+Boys/_/So+What%27cha+Want'
p669
S'1342122647'
p670
tp671
a(S'Beastie Boys'
p672
S"So What'cha Want"
p673
S'http://www.last.fm/music/Beastie+Boys/_/So+What%27cha+Want'
p674
S'1342119900'
p675
tp676
a(S'Black Sabbath'
p677
S'Sabbra Cadabra'
p678
S'http://www.last.fm/music/Black+Sabbath/_/Sabbra+Cadabra'
p679
S'1342110512'
p680
tp681
a(S'Joe Satriani'
p682
S'Flying in a Blue Dream'
p683
S'http://www.last.fm/music/Joe+Satriani/_/Flying+in+a+Blue+Dream'
p684
S'1342110188'
p685
tp686
a(S'Beastie Boys'
p687
S"So What'cha Want"
p688
S'http://www.last.fm/music/Beastie+Boys/_/So+What%27cha+Want'
p689
S'1342109967'
p690
tp691
a(S'The Gracious Few'
p692
S'Crying Time'
p693
S'http://www.last.fm/music/The+Gracious+Few/_/Crying+Time'
p694
S'1342109639'
p695
tp696
a(S'The Gracious Few'
p697
S'The Rest Of You'
p698
S'http://www.last.fm/music/The+Gracious+Few/_/The+Rest+Of+You'
p699
S'1342109397'
p700
tp701
a(S'The Cult'
p702
S'Fire Woman'
p703
S'http://www.last.fm/music/The+Cult/_/Fire+Woman'
p704
S'1342109085'
p705
tp706
a(S'Bee Gees'
p707
S'E-S-P'
p708
S'http://www.last.fm/music/Bee+Gees/_/E-S-P'
p709
S'1342108750'
p710
tp711
a(S'The Cult'
p712
S'She Sells Sanctuary'
p713
S'http://www.last.fm/music/The+Cult/_/She+Sells+Sanctuary'
p714
S'1342108160'
p715
tp716
a(S'Jupiter One'
p717
S'Countdown'
p718
S'http://www.last.fm/music/Jupiter+One/_/Countdown'
p719
S'1342107931'
p720
tp721
a(S'Bee Gees'
p722
S'The Longest Night'
p723
S'http://www.last.fm/music/Bee+Gees/_/The+Longest+Night'
p724
S'1342103290'
p725
tp726
a(S'Black Sabbath'
p727
S'Spiral Architect'
p728
S'http://www.last.fm/music/Black+Sabbath/_/Spiral+Architect'
p729
S'1342102989'
p730
tp731
a(S'John Hiatt'
p732
S'Lift Up Every Stone'
p733
S'http://www.last.fm/music/John+Hiatt/_/Lift+Up+Every+Stone'
p734
S'1342102793'
p735
tp736
a(S'The Gracious Few'
p737
S'Tredecim'
p738
S'http://www.last.fm/music/The+Gracious+Few/_/Tredecim'
p739
S'1342102538'
p740
tp741
a(S'The Gracious Few'
p742
S'Closer'
p743
S'http://www.last.fm/music/The+Gracious+Few/_/Closer'
p744
S'1342102333'
p745
tp746
a(S'Joe Satriani'
p747
S'The Souls of Distortion'
p748
S'http://www.last.fm/music/Joe+Satriani/_/The+Souls+of+Distortion'
p749
S'1342102029'
p750
tp751
a(S'Bee Gees'
p752
S'Giving Up The Ghost'
p753
S'http://www.last.fm/music/Bee+Gees/_/Giving+Up+The+Ghost'
p754
S'1342101864'
p755
tp756
a(S'Joe Satriani'
p757
S'If I Could Fly'
p758
S'http://www.last.fm/music/Joe+Satriani/_/If+I+Could+Fly'
p759
S'1342101472'
p760
tp761
a(S'Danzig'
p762
S'Mother'
p763
S'http://www.last.fm/music/Danzig/_/Mother'
p764
S'1342101198'
p765
tp766
a(S'Edwyn Collins'
p767
S'A Girl Like You'
p768
S'http://www.last.fm/music/Edwyn+Collins/_/A+Girl+Like+You'
p769
S'1342100321'
p770
tp771
a(S'Collective Soul'
p772
S'Why, Part 2'
p773
S'http://www.last.fm/music/Collective+Soul/_/Why,+Part+2'
p774
S'1342100105'
p775
tp776
a(S'Pearl Jam'
p777
S'Why Go'
p778
S'http://www.last.fm/music/Pearl+Jam/_/Why+Go'
p779
S'1342099830'
p780
tp781
a(S'Danko Jones'
p782
S'Code of the Road'
p783
S'http://www.last.fm/music/Danko+Jones/_/Code+of+the+Road'
p784
S'1342099652'
p785
tp786
a(S'Nirvana'
p787
S'Breed'
p788
S'http://www.last.fm/music/Nirvana/_/Breed'
p789
S'1342099469'
p790
tp791
a(S'Iron Maiden'
p792
S'Rainmaker'
p793
S'http://www.last.fm/music/Iron+Maiden/_/Rainmaker'
p794
S'1342099240'
p795
tp796
a(S"Guns N' Roses"
p797
S'Nightrain'
p798
S'http://www.last.fm/music/Guns+N%27+Roses/_/Nightrain'
p799
S'1342098971'
p800
tp801
a(S'Joe Satriani'
p802
S'The Souls of Distortion'
p803
S'http://www.last.fm/music/Joe+Satriani/_/The+Souls+of+Distortion'
p804
S'1342098516'
p805
tp806
a(S'Black Sabbath'
p807
S'Sabbra Cadabra'
p808
S'http://www.last.fm/music/Black+Sabbath/_/Sabbra+Cadabra'
p809
S'1342098155'
p810
tp811
a(S'Audioslave'
p812
S'Exploder'
p813
S'http://www.last.fm/music/Audioslave/_/Exploder'
p814
S'1342097454'
p815
tp816
a(S'John Hiatt'
p817
S'Lift Up Every Stone'
p818
S'http://www.last.fm/music/John+Hiatt/_/Lift+Up+Every+Stone'
p819
S'1342097259'
p820
tp821
a(S'Roxette'
p822
S'(Do You Get) Excited?'
p823
S'http://www.last.fm/music/Roxette/_/(Do+You+Get)+Excited%3F'
p824
S'1342096663'
p825
tp826
a(S'Beastie Boys'
p827
S"So What'cha Want"
p828
S'http://www.last.fm/music/Beastie+Boys/_/So+What%27cha+Want'
p829
S'1342096392'
p830
tp831
a(S'Beastie Boys'
p832
S"So What'cha Want"
p833
S'http://www.last.fm/music/Beastie+Boys/_/So+What%27cha+Want'
p834
S'1342095502'
p835
tp836
a(S'Nirvana'
p837
S'Lithium'
p838
S'http://www.last.fm/music/Nirvana/_/Lithium'
p839
S'1342093759'
p840
tp841
a(S'Beastie Boys'
p842
S"So What'cha Want"
p843
S'http://www.last.fm/music/Beastie+Boys/_/So+What%27cha+Want'
p844
S'1342093538'
p845
tp846
a(S'Black Sabbath'
p847
S'Spiral Architect'
p848
S'http://www.last.fm/music/Black+Sabbath/_/Spiral+Architect'
p849
S'1342011612'
p850
tp851
a(S'Grindhouse Hotel'
p852
S'START IT NOW'
p853
S'http://www.last.fm/music/Grindhouse+Hotel/_/START+IT+NOW'
p854
S'1342011364'
p855
tp856
a(S'Joe Satriani'
p857
S'If I Could Fly'
p858
S'http://www.last.fm/music/Joe+Satriani/_/If+I+Could+Fly'
p859
S'1342010972'
p860
tp861
a(S'Beastie Boys'
p862
S"So What'cha Want"
p863
S'http://www.last.fm/music/Beastie+Boys/_/So+What%27cha+Want'
p864
S'1342010753'
p865
tp866
a(S'Joe Satriani'
p867
S'If I Could Fly'
p868
S'http://www.last.fm/music/Joe+Satriani/_/If+I+Could+Fly'
p869
S'1342010333'
p870
tp871
a(S'Beastie Boys'
p872
S"So What'cha Want"
p873
S'http://www.last.fm/music/Beastie+Boys/_/So+What%27cha+Want'
p874
S'1342010113'
p875
tp876
a(S'Beastie Boys'
p877
S"So What'cha Want"
p878
S'http://www.last.fm/music/Beastie+Boys/_/So+What%27cha+Want'
p879
S'1342009943'
p880
tp881
a(S'Joe Satriani'
p882
S'If I Could Fly'
p883
S'http://www.last.fm/music/Joe+Satriani/_/If+I+Could+Fly'
p884
S'1342009554'
p885
tp886
a(S'Beastie Boys'
p887
S"So What'cha Want"
p888
S'http://www.last.fm/music/Beastie+Boys/_/So+What%27cha+Want'
p889
S'1342009335'
p890
tp891
a(S'Nirvana'
p892
S'Lithium'
p893
S'http://www.last.fm/music/Nirvana/_/Lithium'
p894
S'1341953155'
p895
tp896
a(S'The Gracious Few'
p897
S'Closer'
p898
S'http://www.last.fm/music/The+Gracious+Few/_/Closer'
p899
S'1341952950'
p900
tp901
a(S'Bee Gees'
p902
S'E-S-P'
p903
S'http://www.last.fm/music/Bee+Gees/_/E-S-P'
p904
S'1341952732'
p905
tp906
a(S'Joe Satriani'
p907
S'If I Could Fly'
p908
S'http://www.last.fm/music/Joe+Satriani/_/If+I+Could+Fly'
p909
S'1341938941'
p910
tp911
a(S'The Cult'
p912
S'Fire Woman'
p913
S'http://www.last.fm/music/The+Cult/_/Fire+Woman'
p914
S'1341938629'
p915
tp916
a(S'Pearl Jam'
p917
S'Even Flow'
p918
S'http://www.last.fm/music/Pearl+Jam/_/Even+Flow'
p919
S'1341938335'
p920
tp921
a(S'The Gracious Few'
p922
S'Crying Time'
p923
S'http://www.last.fm/music/The+Gracious+Few/_/Crying+Time'
p924
S'1341938008'
p925
tp926
a(S'Joe Satriani'
p927
S'If I Could Fly'
p928
S'http://www.last.fm/music/Joe+Satriani/_/If+I+Could+Fly'
p929
S'1341928583'
p930
tp931
a(S'Nirvana'
p932
S'Lithium'
p933
S'http://www.last.fm/music/Nirvana/_/Lithium'
p934
S'1341928325'
p935
tp936
a(S'The Cult'
p937
S'Fire Woman'
p938
S'http://www.last.fm/music/The+Cult/_/Fire+Woman'
p939
S'1341928013'
p940
tp941
a(S'Nirvana'
p942
S'In Bloom'
p943
S'http://www.last.fm/music/Nirvana/_/In+Bloom'
p944
S'1341927758'
p945
tp946
a(S'Beastie Boys'
p947
S"So What'cha Want"
p948
S'http://www.last.fm/music/Beastie+Boys/_/So+What%27cha+Want'
p949
S'1341927539'
p950
tp951
a(S'Pearl Jam'
p952
S'Even Flow'
p953
S'http://www.last.fm/music/Pearl+Jam/_/Even+Flow'
p954
S'1341927245'
p955
tp956
a(S'The Gracious Few'
p957
S'Tredecim'
p958
S'http://www.last.fm/music/The+Gracious+Few/_/Tredecim'
p959
S'1341926989'
p960
tp961
a(S'Bee Gees'
p962
S'E-S-P'
p963
S'http://www.last.fm/music/Bee+Gees/_/E-S-P'
p964
S'1341926655'
p965
tp966
a(S'Bee Gees'
p967
S'The Longest Night'
p968
S'http://www.last.fm/music/Bee+Gees/_/The+Longest+Night'
p969
S'1341926308'
p970
tp971
a(S'The Cult'
p972
S'She Sells Sanctuary'
p973
S'http://www.last.fm/music/The+Cult/_/She+Sells+Sanctuary'
p974
S'1341925766'
p975
tp976
a(S'Edwyn Collins'
p977
S'A Girl Like You'
p978
S'http://www.last.fm/music/Edwyn+Collins/_/A+Girl+Like+You'
p979
S'1341925529'
p980
tp981
a(S'Grindhouse Hotel'
p982
S'START IT NOW'
p983
S'http://www.last.fm/music/Grindhouse+Hotel/_/START+IT+NOW'
p984
S'1341925280'
p985
tp986
a(S'Joe Satriani'
p987
S'Flying in a Blue Dream'
p988
S'http://www.last.fm/music/Joe+Satriani/_/Flying+in+a+Blue+Dream'
p989
S'1341924956'
p990
tp991
a(S'Black Sabbath'
p992
S'Sabbra Cadabra'
p993
S'http://www.last.fm/music/Black+Sabbath/_/Sabbra+Cadabra'
p994
S'1341924432'
p995
tp996
a(S'The Gracious Few'
p997
S'Closer'
p998
S'http://www.last.fm/music/The+Gracious+Few/_/Closer'
p999
S'1341924227'
p1000
tp1001
a.