(lp1
(S'Army Of Anyone'
p2
S'Father Figure'
p3
S'http://www.last.fm/music/Army+Of+Anyone/_/Father+Figure'
p4
S'1394558823'
p5
tp6
a(S'Foo Fighters'
p7
S'This Is A Call'
p8
S'http://www.last.fm/music/Foo+Fighters/_/This+Is+A+Call'
p9
S'1394558578'
p10
tp11
a(S'Stone Temple Pilots'
p12
S'Plush'
p13
S'http://www.last.fm/music/Stone+Temple+Pilots/_/Plush'
p14
S'1394558344'
p15
tp16
a(S'Bad Religion'
p17
S'Punk Rock Song'
p18
S'http://www.last.fm/music/Bad+Religion/_/Punk+Rock+Song'
p19
S'1394558030'
p20
tp21
a(S'Soundgarden'
p22
S'Superunknown'
p23
S'http://www.last.fm/music/Soundgarden/_/Superunknown'
p24
S'1394557882'
p25
tp26
a(S'Alice in Chains'
p27
S'Scalpel'
p28
S'http://www.last.fm/music/Alice+in+Chains/_/Scalpel'
p29
S'1394557576'
p30
tp31
a(S'Live'
p32
S'All Over You'
p33
S'http://www.last.fm/music/Live/_/All+Over+You'
p34
S'1394557254'
p35
tp36
a(S'Foo Fighters'
p37
S'Generator'
p38
S'http://www.last.fm/music/Foo+Fighters/_/Generator'
p39
S'1394556996'
p40
tp41
a(S'Foo Fighters'
p42
S'Everlong'
p43
S'http://www.last.fm/music/Foo+Fighters/_/Everlong'
p44
S'1394556879'
p45
tp46
a(S'Live'
p47
S'Stage'
p48
S'http://www.last.fm/music/Live/_/Stage'
p49
S'1394554332'
p50
tp51
a(S'Foo Fighters'
p52
S'Generator'
p53
S'http://www.last.fm/music/Foo+Fighters/_/Generator'
p54
S'1394554144'
p55
tp56
a(S'Foo Fighters'
p57
S'Everlong'
p58
S'http://www.last.fm/music/Foo+Fighters/_/Everlong'
p59
S'1394553915'
p60
tp61
a(S'Bad Religion'
p62
S'American Jesus'
p63
S'http://www.last.fm/music/Bad+Religion/_/American+Jesus'
p64
S'1394553664'
p65
tp66
a(S'Foo Fighters'
p67
S'Disenchanted Lullaby'
p68
S'http://www.last.fm/music/Foo+Fighters/_/Disenchanted+Lullaby'
p69
S'1394542729'
p70
tp71
a(S'Live'
p72
S'Insomnia And The Hole In The Universe'
p73
S'http://www.last.fm/music/Live/_/Insomnia+And+The+Hole+In+The+Universe'
p74
S'1394542394'
p75
tp76
a(S'Live'
p77
S'Out To Dry'
p78
S'http://www.last.fm/music/Live/_/Out+To+Dry'
p79
S'1394542152'
p80
tp81
a(S'Live'
p82
S'The Distance'
p83
S'http://www.last.fm/music/Live/_/The+Distance'
p84
S'1394541951'
p85
tp86
a(S'Queens of the Stone Age'
p87
S'God Is in the Radio'
p88
S'http://www.last.fm/music/Queens+of+the+Stone+Age/_/God+Is+in+the+Radio'
p89
S'1394541720'
p90
tp91
a(S'Army Of Anyone'
p92
S'A Better Place'
p93
S'http://www.last.fm/music/Army+Of+Anyone/_/A+Better+Place'
p94
S'1394541355'
p95
tp96
a(S'Bad Religion'
p97
S'Inner Logic'
p98
S'http://www.last.fm/music/Bad+Religion/_/Inner+Logic'
p99
S'1394541056'
p100
tp101
a(S'Alice in Chains'
p102
S'Acid Bubble'
p103
S'http://www.last.fm/music/Alice+in+Chains/_/Acid+Bubble'
p104
S'1394540878'
p105
tp106
a(S'Velvet Revolver'
p107
S'Slither'
p108
S'http://www.last.fm/music/Velvet+Revolver/_/Slither'
p109
S'1394540462'
p110
tp111
a(S'Jerry Cantrell'
p112
S'Angel Eyes'
p113
S'http://www.last.fm/music/Jerry+Cantrell/_/Angel+Eyes'
p114
S'1394540214'
p115
tp116
a(S'Pearl Jam'
p117
S'Rats'
p118
S'http://www.last.fm/music/Pearl+Jam/_/Rats'
p119
S'1394539393'
p120
tp121
a(S'Temple of the Dog'
p122
S'Call Me A Dog'
p123
S'http://www.last.fm/music/Temple+of+the+Dog/_/Call+Me+A+Dog'
p124
S'1394539138'
p125
tp126
a(S'Velvet Revolver'
p127
S'She Builds Quick Machines'
p128
S'http://www.last.fm/music/Velvet+Revolver/_/She+Builds+Quick+Machines'
p129
S'1394538835'
p130
tp131
a(S'Talk Show'
p132
S'John'
p133
S'http://www.last.fm/music/Talk+Show/_/John'
p134
S'1394538591'
p135
tp136
a(S'Stone Temple Pilots'
p137
S"Trippin' on a Hole in a Paper Heart"
p138
S'http://www.last.fm/music/Stone+Temple+Pilots/_/Trippin%27+on+a+Hole+in+a+Paper+Heart'
p139
S'1394217068'
p140
tp141
a(S'Stone Temple Pilots'
p142
S'Huckleberry Crumble'
p143
S'http://www.last.fm/music/Stone+Temple+Pilots/_/Huckleberry+Crumble'
p144
S'1394216778'
p145
tp146
a(S'Live'
p147
S'She'
p148
S'http://www.last.fm/music/Live/_/She'
p149
S'1394216587'
p150
tp151
a(S'Queens of the Stone Age'
p152
S'Everybody Knows That You Are Insane'
p153
S'http://www.last.fm/music/Queens+of+the+Stone+Age/_/Everybody+Knows+That+You+Are+Insane'
p154
S'1394216425'
p155
tp156
a(S'Live'
p157
S'Operation Spirit (The Tyranny Of Tradition)'
p158
S'http://www.last.fm/music/Live/_/Operation+Spirit+(The+Tyranny+Of+Tradition)'
p159
S'1394216187'
p160
tp161
a(S'Alice in Chains'
p162
S'Your Decision'
p163
S'http://www.last.fm/music/Alice+in+Chains/_/Your+Decision'
p164
S'1394215989'
p165
tp166
a(S'Stone Temple Pilots'
p167
S'And So I Know'
p168
S'http://www.last.fm/music/Stone+Temple+Pilots/_/And+So+I+Know'
p169
S'1394215033'
p170
tp171
a(S'Them Crooked Vultures'
p172
S'Gunman'
p173
S'http://www.last.fm/music/Them+Crooked+Vultures/_/Gunman'
p174
S'1394214795'
p175
tp176
a(S'Live'
p177
S'Stage'
p178
S'http://www.last.fm/music/Live/_/Stage'
p179
S'1394214509'
p180
tp181
a(S'Velvet Revolver'
p182
S'Big Machine'
p183
S'http://www.last.fm/music/Velvet+Revolver/_/Big+Machine'
p184
S'1394137481'
p185
tp186
a(S'Live'
p187
S'Like I Do'
p188
S'http://www.last.fm/music/Live/_/Like+I+Do'
p189
S'1394137143'
p190
tp191
a(S'Foo Fighters'
p192
S'Low'
p193
S'http://www.last.fm/music/Foo+Fighters/_/Low'
p194
S'1394136888'
p195
tp196
a(S'Soundgarden'
p197
S"Eyelid's Mouth"
p198
S'http://www.last.fm/music/Soundgarden/_/Eyelid%27s+Mouth'
p199
S'1394136620'
p200
tp201
a(S'Soundgarden'
p202
S'Let Me Drown'
p203
S'http://www.last.fm/music/Soundgarden/_/Let+Me+Drown'
p204
S'1394136340'
p205
tp206
a(S'Talk Show'
p207
S'End of the World'
p208
S'http://www.last.fm/music/Talk+Show/_/End+of+the+World'
p209
S'1394136108'
p210
tp211
a(S'Soundgarden'
p212
S'Rowing'
p213
S'http://www.last.fm/music/Soundgarden/_/Rowing'
p214
S'1394135896'
p215
tp216
a(S'Them Crooked Vultures'
p217
S'New Fang'
p218
S'http://www.last.fm/music/Them+Crooked+Vultures/_/New+Fang'
p219
S'1394135589'
p220
tp221
a(S'Velvet Revolver'
p222
S'Spectacle'
p223
S'http://www.last.fm/music/Velvet+Revolver/_/Spectacle'
p224
S'1394135361'
p225
tp226
a(S'Bad Religion'
p227
S'Sorrow'
p228
S'http://www.last.fm/music/Bad+Religion/_/Sorrow'
p229
S'1394135139'
p230
tp231
a(S'Soundgarden'
p232
S'Fell on Black Days'
p233
S'http://www.last.fm/music/Soundgarden/_/Fell+on+Black+Days'
p234
S'1394133888'
p235
tp236
a(S'Stone Temple Pilots'
p237
S'Take a Load Off'
p238
S'http://www.last.fm/music/Stone+Temple+Pilots/_/Take+a+Load+Off'
p239
S'1394133605'
p240
tp241
a(S'Live'
p242
S'Out To Dry'
p243
S'http://www.last.fm/music/Live/_/Out+To+Dry'
p244
S'1394133414'
p245
tp246
a(S'Soundgarden'
p247
S'Loud Love'
p248
S'http://www.last.fm/music/Soundgarden/_/Loud+Love'
p249
S'1394133214'
p250
tp251
a(S'Bad Religion'
p252
S'At the Mercy of Imbeciles'
p253
S'http://www.last.fm/music/Bad+Religion/_/At+the+Mercy+of+Imbeciles'
p254
S'1394132916'
p255
tp256
a(S'Velvet Revolver'
p257
S'Superhuman'
p258
S'http://www.last.fm/music/Velvet+Revolver/_/Superhuman'
p259
S'1394132739'
p260
tp261
a(S'Live'
p262
S'The Distance'
p263
S'http://www.last.fm/music/Live/_/The+Distance'
p264
S'1394132483'
p265
tp266
a(S'Foo Fighters'
p267
S'Resolve'
p268
S'http://www.last.fm/music/Foo+Fighters/_/Resolve'
p269
S'1394132252'
p270
tp271
a(S'Nirvana'
p272
S'Smells Like Teen Spirit'
p273
S'http://www.last.fm/music/Nirvana/_/Smells+Like+Teen+Spirit'
p274
S'1394131963'
p275
tp276
a(S'Army Of Anyone'
p277
S'A Better Place'
p278
S'http://www.last.fm/music/Army+Of+Anyone/_/A+Better+Place'
p279
S'1394131662'
p280
tp281
a(S'Bad Religion'
p282
S'Incomplete'
p283
S'http://www.last.fm/music/Bad+Religion/_/Incomplete'
p284
S'1394131363'
p285
tp286
a(S'Live'
p287
S'Sweet Release'
p288
S'http://www.last.fm/music/Live/_/Sweet+Release'
p289
S'1394131213'
p290
tp291
a(S'Army Of Anyone'
p292
S'Generation'
p293
S'http://www.last.fm/music/Army+Of+Anyone/_/Generation'
p294
S'1394130930'
p295
tp296
a(S'Soundgarden'
p297
S'Fresh Tendrils'
p298
S'http://www.last.fm/music/Soundgarden/_/Fresh+Tendrils'
p299
S'1394130719'
p300
tp301
a(S'Foo Fighters'
p302
S'Learn to Fly'
p303
S'http://www.last.fm/music/Foo+Fighters/_/Learn+to+Fly'
p304
S'1394130462'
p305
tp306
a(S'Stone Temple Pilots'
p307
S'Too Cool Queenie'
p308
S'http://www.last.fm/music/Stone+Temple+Pilots/_/Too+Cool+Queenie'
p309
S'1394130227'
p310
tp311
a(S'Bad Religion'
p312
S'What It Is'
p313
S'http://www.last.fm/music/Bad+Religion/_/What+It+Is'
p314
S'1394130059'
p315
tp316
a(S'Live'
p317
S'Forever May Not Be Long Enough'
p318
S'http://www.last.fm/music/Live/_/Forever+May+Not+Be+Long+Enough'
p319
S'1394129930'
p320
tp321
a(S'Jerry Cantrell'
p322
S'Locked On'
p323
S'http://www.last.fm/music/Jerry+Cantrell/_/Locked+On'
p324
S'1394129701'
p325
tp326
a(S'Velvet Revolver'
p327
S'You Got No Right'
p328
S'http://www.last.fm/music/Velvet+Revolver/_/You+Got+No+Right'
p329
S'1394128780'
p330
tp331
a(S'Stone Temple Pilots'
p332
S'Still Remains'
p333
S'http://www.last.fm/music/Stone+Temple+Pilots/_/Still+Remains'
p334
S'1394121254'
p335
tp336
a(S'Temple of the Dog'
p337
S'Hunger Strike'
p338
S'http://www.last.fm/music/Temple+of+the+Dog/_/Hunger+Strike'
p339
S'1394121040'
p340
tp341
a(S'Foo Fighters'
p342
S'Hell'
p343
S'http://www.last.fm/music/Foo+Fighters/_/Hell'
p344
S'1394119798'
p345
tp346
a(S'Bad Religion'
p347
S'American Jesus'
p348
S'http://www.last.fm/music/Bad+Religion/_/American+Jesus'
p349
S'1394119681'
p350
tp351
a(S'Alice in Chains'
p352
S'Lesson Learned'
p353
S'http://www.last.fm/music/Alice+in+Chains/_/Lesson+Learned'
p354
S'1394119483'
p355
tp356
a(S'Foo Fighters'
p357
S'Headwires'
p358
S'http://www.last.fm/music/Foo+Fighters/_/Headwires'
p359
S'1394119226'
p360
tp361
a(S'Queens of the Stone Age'
p362
S'God Is in the Radio'
p363
S'http://www.last.fm/music/Queens+of+the+Stone+Age/_/God+Is+in+the+Radio'
p364
S'1394118948'
p365
tp366
a(S'Temple of the Dog'
p367
S'Pushin Forward Back'
p368
S'http://www.last.fm/music/Temple+of+the+Dog/_/Pushin+Forward+Back'
p369
S'1394118583'
p370
tp371
a(S'Live'
p372
S'River Town'
p373
S'http://www.last.fm/music/Live/_/River+Town'
p374
S'1394118359'
p375
tp376
a(S'Jerry Cantrell'
p377
S'Angel Eyes'
p378
S'http://www.last.fm/music/Jerry+Cantrell/_/Angel+Eyes'
p379
S'1394118100'
p380
tp381
a(S'Talk Show'
p382
S'John'
p383
S'http://www.last.fm/music/Talk+Show/_/John'
p384
S'1394117816'
p385
tp386
a(S'Alice in Chains'
p387
S'Acid Bubble'
p388
S'http://www.last.fm/music/Alice+in+Chains/_/Acid+Bubble'
p389
S'1394117633'
p390
tp391
a(S'Live'
p392
S'Heropsychodreamer'
p393
S'http://www.last.fm/music/Live/_/Heropsychodreamer'
p394
S'1394117217'
p395
tp396
a(S'Army Of Anyone'
p397
S'Goodbye'
p398
S'http://www.last.fm/music/Army+Of+Anyone/_/Goodbye'
p399
S'1394117049'
p400
tp401
a(S"Class of '99"
p402
S'Another Brick in the Wall, Part 2'
p403
S'http://www.last.fm/music/Class+of+%2799/_/Another+Brick+in+the+Wall,+Part+2'
p404
S'1394116673'
p405
tp406
a(S'Them Crooked Vultures'
p407
S'Mind Eraser, No Chaser'
p408
S'http://www.last.fm/music/Them+Crooked+Vultures/_/Mind+Eraser,+No+Chaser'
p409
S'1394116414'
p410
tp411
a(S'Foo Fighters'
p412
S'Generator'
p413
S'http://www.last.fm/music/Foo+Fighters/_/Generator'
p414
S'1394116167'
p415
tp416
a(S'Bad Religion'
p417
S'Atheist Peace'
p418
S'http://www.last.fm/music/Bad+Religion/_/Atheist+Peace'
p419
S'1394115938'
p420
tp421
a(S'Stone Temple Pilots'
p422
S'Lounge Fly'
p423
S'http://www.last.fm/music/Stone+Temple+Pilots/_/Lounge+Fly'
p424
S'1394115820'
p425
tp426
a(S'Queens of the Stone Age'
p427
S'Smooth Sailing'
p428
S'http://www.last.fm/music/Queens+of+the+Stone+Age/_/Smooth+Sailing'
p429
S'1394115501'
p430
tp431
a(S'Bad Religion'
p432
S'Nobody Listens'
p433
S'http://www.last.fm/music/Bad+Religion/_/Nobody+Listens'
p434
S'1394115210'
p435
tp436
a(S'Alice in Chains'
p437
S'Take Her Out'
p438
S'http://www.last.fm/music/Alice+in+Chains/_/Take+Her+Out'
p439
S'1394115092'
p440
tp441
a(S'Temple of the Dog'
p442
S'Four Walled World'
p443
S'http://www.last.fm/music/Temple+of+the+Dog/_/Four+Walled+World'
p444
S'1394114852'
p445
tp446
a(S'Alice in Chains'
p447
S'Voices'
p448
S'http://www.last.fm/music/Alice+in+Chains/_/Voices'
p449
S'1394114438'
p450
tp451
a(S'Stone Temple Pilots'
p452
S'Transmissions From a Lonely Room'
p453
S'http://www.last.fm/music/Stone+Temple+Pilots/_/Transmissions+From+a+Lonely+Room'
p454
S'1394114095'
p455
tp456
a(S'Nirvana'
p457
S'Breed'
p458
S'http://www.last.fm/music/Nirvana/_/Breed'
p459
S'1394113900'
p460
tp461
a(S'Bad Religion'
p462
S'Inner Logic'
p463
S'http://www.last.fm/music/Bad+Religion/_/Inner+Logic'
p464
S'1394113612'
p465
tp466
a(S'Foo Fighters'
p467
S'Live-In Skin'
p468
S'http://www.last.fm/music/Foo+Fighters/_/Live-In+Skin'
p469
S'1394113434'
p470
tp471
a(S'Foo Fighters'
p472
S'No Way Back'
p473
S'http://www.last.fm/music/Foo+Fighters/_/No+Way+Back'
p474
S'1394109326'
p475
tp476
a(S'Stone Temple Pilots'
p477
S'Peacoat'
p478
S'http://www.last.fm/music/Stone+Temple+Pilots/_/Peacoat'
p479
S'1394108386'
p480
tp481
a(S'Stone Temple Pilots'
p482
S'Silvergun Superman'
p483
S'http://www.last.fm/music/Stone+Temple+Pilots/_/Silvergun+Superman'
p484
S'1393607309'
p485
tp486
a(S'Stone Temple Pilots'
p487
S'Sex Type Thing'
p488
S'http://www.last.fm/music/Stone+Temple+Pilots/_/Sex+Type+Thing'
p489
S'1393606992'
p490
tp491
a(S'Queens of the Stone Age'
p492
S'Everybody Knows That You Are Insane'
p493
S'http://www.last.fm/music/Queens+of+the+Stone+Age/_/Everybody+Knows+That+You+Are+Insane'
p494
S'1393606773'
p495
tp496
a(S'Stone Temple Pilots'
p497
S'Big Bang Baby'
p498
S'http://www.last.fm/music/Stone+Temple+Pilots/_/Big+Bang+Baby'
p499
S'1393606519'
p500
tp501
a(S'Live'
p502
S'Stage'
p503
S'http://www.last.fm/music/Live/_/Stage'
p504
S'1393606315'
p505
tp506
a(S'Stone Temple Pilots'
p507
S'Vasoline'
p508
S'http://www.last.fm/music/Stone+Temple+Pilots/_/Vasoline'
p509
S'1393606127'
p510
tp511
a(S'Live'
p512
S'All Over You'
p513
S'http://www.last.fm/music/Live/_/All+Over+You'
p514
S'1393593842'
p515
tp516
a(S'Queens of the Stone Age'
p517
S'No One Knows'
p518
S'http://www.last.fm/music/Queens+of+the+Stone+Age/_/No+One+Knows'
p519
S'1393593602'
p520
tp521
a(S'Bad Religion'
p522
S'Supersonic'
p523
S'http://www.last.fm/music/Bad+Religion/_/Supersonic'
p524
S'1393593324'
p525
tp526
a(S'Army Of Anyone'
p527
S'A Better Place'
p528
S'http://www.last.fm/music/Army+Of+Anyone/_/A+Better+Place'
p529
S'1393593217'
p530
tp531
a(S'Stone Temple Pilots'
p532
S'Transmissions From a Lonely Room'
p533
S'http://www.last.fm/music/Stone+Temple+Pilots/_/Transmissions+From+a+Lonely+Room'
p534
S'1393534821'
p535
tp536
a(S'Bad Religion'
p537
S'Stranger Than Fiction'
p538
S'http://www.last.fm/music/Bad+Religion/_/Stranger+Than+Fiction'
p539
S'1393534625'
p540
tp541
a(S'Foo Fighters'
p542
S'No Way Back'
p543
S'http://www.last.fm/music/Foo+Fighters/_/No+Way+Back'
p544
S'1393534485'
p545
tp546
a(S'Temple of the Dog'
p547
S'Reach Down'
p548
S'http://www.last.fm/music/Temple+of+the+Dog/_/Reach+Down'
p549
S'1393534288'
p550
tp551
a(S'Army Of Anyone'
p552
S'Non Stop'
p553
S'http://www.last.fm/music/Army+Of+Anyone/_/Non+Stop'
p554
S'1393533619'
p555
tp556
a(S'Velvet Revolver'
p557
S'Spectacle'
p558
S'http://www.last.fm/music/Velvet+Revolver/_/Spectacle'
p559
S'1393533287'
p560
tp561
a(S'Queens of the Stone Age'
p562
S'Everybody Knows That You Are Insane'
p563
S'http://www.last.fm/music/Queens+of+the+Stone+Age/_/Everybody+Knows+That+You+Are+Insane'
p564
S'1393533065'
p565
tp566
a(S'Pearl Jam'
p567
S'Rats'
p568
S'http://www.last.fm/music/Pearl+Jam/_/Rats'
p569
S'1393532811'
p570
tp571
a(S'Alice in Chains'
p572
S'Scalpel'
p573
S'http://www.last.fm/music/Alice+in+Chains/_/Scalpel'
p574
S'1393532555'
p575
tp576
a(S'Velvet Revolver'
p577
S'Dirty Little Thing'
p578
S'http://www.last.fm/music/Velvet+Revolver/_/Dirty+Little+Thing'
p579
S'1393532234'
p580
tp581
a(S'Nirvana'
p582
S'In Bloom'
p583
S'http://www.last.fm/music/Nirvana/_/In+Bloom'
p584
S'1393531996'
p585
tp586
a(S'Soundgarden'
p587
S'Fell on Black Days'
p588
S'http://www.last.fm/music/Soundgarden/_/Fell+on+Black+Days'
p589
S'1393531741'
p590
tp591
a(S'Stone Temple Pilots'
p592
S'First Kiss on Mars'
p593
S'http://www.last.fm/music/Stone+Temple+Pilots/_/First+Kiss+on+Mars'
p594
S'1393531458'
p595
tp596
a(S'Bad Religion'
p597
S'Individual'
p598
S'http://www.last.fm/music/Bad+Religion/_/Individual'
p599
S'1393531274'
p600
tp601
a(S'Queens of the Stone Age'
p602
S'God Is in the Radio'
p603
S'http://www.last.fm/music/Queens+of+the+Stone+Age/_/God+Is+in+the+Radio'
p604
S'1393531156'
p605
tp606
a(S'Nirvana'
p607
S'Come as You Are'
p608
S'http://www.last.fm/music/Nirvana/_/Come+as+You+Are'
p609
S'1393529606'
p610
tp611
a(S'Stone Temple Pilots'
p612
S'Plush'
p613
S'http://www.last.fm/music/Stone+Temple+Pilots/_/Plush'
p614
S'1393529386'
p615
tp616
a(S'Velvet Revolver'
p617
S'Slither'
p618
S'http://www.last.fm/music/Velvet+Revolver/_/Slither'
p619
S'1393529072'
p620
tp621
a(S'Stone Temple Pilots'
p622
S'Big Bang Baby'
p623
S'http://www.last.fm/music/Stone+Temple+Pilots/_/Big+Bang+Baby'
p624
S'1393528824'
p625
tp626
a(S'Stone Temple Pilots'
p627
S'Sex Type Thing'
p628
S'http://www.last.fm/music/Stone+Temple+Pilots/_/Sex+Type+Thing'
p629
S'1393526353'
p630
tp631
a(S'Queens of the Stone Age'
p632
S'Smooth Sailing'
p633
S'http://www.last.fm/music/Queens+of+the+Stone+Age/_/Smooth+Sailing'
p634
S'1393526135'
p635
tp636
a(S'Soundgarden'
p637
S'Taree'
p638
S'http://www.last.fm/music/Soundgarden/_/Taree'
p639
S'1393525843'
p640
tp641
a(S'Temple of the Dog'
p642
S'Call Me A Dog'
p643
S'http://www.last.fm/music/Temple+of+the+Dog/_/Call+Me+A+Dog'
p644
S'1393525625'
p645
tp646
a(S'Soundgarden'
p647
S'Loud Love'
p648
S'http://www.last.fm/music/Soundgarden/_/Loud+Love'
p649
S'1393525322'
p650
tp651
a(S'Soundgarden'
p652
S'Let Me Drown'
p653
S'http://www.last.fm/music/Soundgarden/_/Let+Me+Drown'
p654
S'1393525024'
p655
tp656
a(S'Them Crooked Vultures'
p657
S'Mind Eraser, No Chaser'
p658
S'http://www.last.fm/music/Them+Crooked+Vultures/_/Mind+Eraser,+No+Chaser'
p659
S'1393524792'
p660
tp661
a(S'Bad Religion'
p662
S'Inner Logic'
p663
S'http://www.last.fm/music/Bad+Religion/_/Inner+Logic'
p664
S'1393524546'
p665
tp666
a(S'Live'
p667
S'She'
p668
S'http://www.last.fm/music/Live/_/She'
p669
S'1393524368'
p670
tp671
a(S'Bad Religion'
p672
S'Nobody Listens'
p673
S'http://www.last.fm/music/Bad+Religion/_/Nobody+Listens'
p674
S'1393524207'
p675
tp676
a(S'Live'
p677
S'Forever May Not Be Long Enough'
p678
S'http://www.last.fm/music/Live/_/Forever+May+Not+Be+Long+Enough'
p679
S'1393524090'
p680
tp681
a(S'Nirvana'
p682
S'Breed'
p683
S'http://www.last.fm/music/Nirvana/_/Breed'
p684
S'1393523861'
p685
tp686
a(S'Stone Temple Pilots'
p687
S'Silvergun Superman'
p688
S'http://www.last.fm/music/Stone+Temple+Pilots/_/Silvergun+Superman'
p689
S'1393523677'
p690
tp691
a(S'Live'
p692
S'Simple Creed'
p693
S'http://www.last.fm/music/Live/_/Simple+Creed'
p694
S'1393523360'
p695
tp696
a(S'Bad Religion'
p697
S'The Handshake'
p698
S'http://www.last.fm/music/Bad+Religion/_/The+Handshake'
p699
S'1393523155'
p700
tp701
a(S'Bad Religion'
p702
S'Tiny Voices'
p703
S'http://www.last.fm/music/Bad+Religion/_/Tiny+Voices'
p704
S'1393522985'
p705
tp706
a(S'Soundgarden'
p707
S'The Day I Tried to Live'
p708
S'http://www.last.fm/music/Soundgarden/_/The+Day+I+Tried+to+Live'
p709
S'1393522828'
p710
tp711
a(S'Stone Temple Pilots'
p712
S'Peacoat'
p713
S'http://www.last.fm/music/Stone+Temple+Pilots/_/Peacoat'
p714
S'1393522509'
p715
tp716
a(S'Queens of the Stone Age'
p717
S'Misfit Love'
p718
S'http://www.last.fm/music/Queens+of+the+Stone+Age/_/Misfit+Love'
p719
S'1393522299'
p720
tp721
a(S'Talk Show'
p722
S'Hello Hello'
p723
S'http://www.last.fm/music/Talk+Show/_/Hello+Hello'
p724
S'1393521959'
p725
tp726
a(S'Foo Fighters'
p727
S'Arlandria'
p728
S'http://www.last.fm/music/Foo+Fighters/_/Arlandria'
p729
S'1393521781'
p730
tp731
a(S'Velvet Revolver'
p732
S'Headspace'
p733
S'http://www.last.fm/music/Velvet+Revolver/_/Headspace'
p734
S'1393521514'
p735
tp736
a(S'Live'
p737
S'Like I Do'
p738
S'http://www.last.fm/music/Live/_/Like+I+Do'
p739
S'1393521291'
p740
tp741
a(S'Temple of the Dog'
p742
S'Pushin Forward Back'
p743
S'http://www.last.fm/music/Temple+of+the+Dog/_/Pushin+Forward+Back'
p744
S'1393521036'
p745
tp746
a(S'Foo Fighters'
p747
S'This Is A Call'
p748
S'http://www.last.fm/music/Foo+Fighters/_/This+Is+A+Call'
p749
S'1393520811'
p750
tp751
a(S'Nirvana'
p752
S'Lithium'
p753
S'http://www.last.fm/music/Nirvana/_/Lithium'
p754
S'1393520577'
p755
tp756
a(S'Live'
p757
S'All Over You'
p758
S'http://www.last.fm/music/Live/_/All+Over+You'
p759
S'1393520320'
p760
tp761
a(S'Bad Religion'
p762
S'Portrait of Authority'
p763
S'http://www.last.fm/music/Bad+Religion/_/Portrait+of+Authority'
p764
S'1393520080'
p765
tp766
a(S'Jerry Cantrell'
p767
S'Angel Eyes'
p768
S'http://www.last.fm/music/Jerry+Cantrell/_/Angel+Eyes'
p769
S'1393519915'
p770
tp771
a(S'Talk Show'
p772
S'Hide'
p773
S'http://www.last.fm/music/Talk+Show/_/Hide'
p774
S'1393519630'
p775
tp776
a(S'Live'
p777
S'Deep Enough (Remix)'
p778
S'http://www.last.fm/music/Live/_/Deep+Enough+(Remix)'
p779
S'1393519421'
p780
tp781
a(S'Live'
p782
S'Sweet Release'
p783
S'http://www.last.fm/music/Live/_/Sweet+Release'
p784
S'1393519229'
p785
tp786
a(S'Live'
p787
S'Stage'
p788
S'http://www.last.fm/music/Live/_/Stage'
p789
S'1393519046'
p790
tp791
a(S'Foo Fighters'
p792
S'Live-In Skin'
p793
S'http://www.last.fm/music/Foo+Fighters/_/Live-In+Skin'
p794
S'1393518858'
p795
tp796
a(S'Jerry Cantrell'
p797
S'Locked On'
p798
S'http://www.last.fm/music/Jerry+Cantrell/_/Locked+On'
p799
S'1393518625'
p800
tp801
a(S'Bad Religion'
p802
S'A Walk'
p803
S'http://www.last.fm/music/Bad+Religion/_/A+Walk'
p804
S'1393518288'
p805
tp806
a(S'Nirvana'
p807
S'Smells Like Teen Spirit'
p808
S'http://www.last.fm/music/Nirvana/_/Smells+Like+Teen+Spirit'
p809
S'1393518159'
p810
tp811
a(S'Soundgarden'
p812
S'Hands All Over'
p813
S'http://www.last.fm/music/Soundgarden/_/Hands+All+Over'
p814
S'1393517858'
p815
tp816
a(S'Soundgarden'
p817
S'Attrition'
p818
S'http://www.last.fm/music/Soundgarden/_/Attrition'
p819
S'1393517497'
p820
tp821
a(S'Live'
p822
S'Iris'
p823
S'http://www.last.fm/music/Live/_/Iris'
p824
S'1393517324'
p825
tp826
a(S'Live'
p827
S'Out To Dry'
p828
S'http://www.last.fm/music/Live/_/Out+To+Dry'
p829
S'1393517085'
p830
tp831
a(S'Foo Fighters'
p832
S'Monkey Wrench'
p833
S'http://www.last.fm/music/Foo+Fighters/_/Monkey+Wrench'
p834
S'1393516435'
p835
tp836
a(S'Foo Fighters'
p837
S'Learn to Fly'
p838
S'http://www.last.fm/music/Foo+Fighters/_/Learn+to+Fly'
p839
S'1393511452'
p840
tp841
a(S'Stone Temple Pilots'
p842
S'Adhesive'
p843
S'http://www.last.fm/music/Stone+Temple+Pilots/_/Adhesive'
p844
S'1393511217'
p845
tp846
a(S'Bad Religion'
p847
S'Punk Rock Song'
p848
S'http://www.last.fm/music/Bad+Religion/_/Punk+Rock+Song'
p849
S'1393510882'
p850
tp851
a(S'Stone Temple Pilots'
p852
S'Lounge Fly'
p853
S'http://www.last.fm/music/Stone+Temple+Pilots/_/Lounge+Fly'
p854
S'1393510735'
p855
tp856
a(S'Foo Fighters'
p857
S'Hell'
p858
S'http://www.last.fm/music/Foo+Fighters/_/Hell'
p859
S'1393510416'
p860
tp861
a(S'Bad Religion'
p862
S'Fuck Armageddon'
p863
S'http://www.last.fm/music/Bad+Religion/_/Fuck+Armageddon'
p864
S'1393510299'
p865
tp866
a(S'Stone Temple Pilots'
p867
S'Too Cool Queenie'
p868
S'http://www.last.fm/music/Stone+Temple+Pilots/_/Too+Cool+Queenie'
p869
S'1393510118'
p870
tp871
a(S'Live'
p872
S'River Town'
p873
S'http://www.last.fm/music/Live/_/River+Town'
p874
S'1393509950'
p875
tp876
a(S'Alice in Chains'
p877
S'Voices'
p878
S'http://www.last.fm/music/Alice+in+Chains/_/Voices'
p879
S'1393508254'
p880
tp881
a(S'Velvet Revolver'
p882
S'Do It For The Kids'
p883
S'http://www.last.fm/music/Velvet+Revolver/_/Do+It+For+The+Kids'
p884
S'1393507912'
p885
tp886
a(S'Foo Fighters'
p887
S'Times Like These'
p888
S'http://www.last.fm/music/Foo+Fighters/_/Times+Like+These'
p889
S'1393507676'
p890
tp891
a(S'Bad Religion'
p892
S'At the Mercy of Imbeciles'
p893
S'http://www.last.fm/music/Bad+Religion/_/At+the+Mercy+of+Imbeciles'
p894
S'1393507409'
p895
tp896
a(S'Live'
p897
S'Operation Spirit (The Tyranny Of Tradition)'
p898
S'http://www.last.fm/music/Live/_/Operation+Spirit+(The+Tyranny+Of+Tradition)'
p899
S'1393507315'
p900
tp901
a(S'Stone Temple Pilots'
p902
S'And So I Know'
p903
S'http://www.last.fm/music/Stone+Temple+Pilots/_/And+So+I+Know'
p904
S'1393506045'
p905
tp906
a(S'Stone Temple Pilots'
p907
S'Pruno'
p908
S'http://www.last.fm/music/Stone+Temple+Pilots/_/Pruno'
p909
S'1393505807'
p910
tp911
a(S'Foo Fighters'
p912
S'Generator'
p913
S'http://www.last.fm/music/Foo+Fighters/_/Generator'
p914
S'1393505613'
p915
tp916
a(S'Live'
p917
S'Mirror Song'
p918
S'http://www.last.fm/music/Live/_/Mirror+Song'
p919
S'1393505383'
p920
tp921
a(S'Stone Temple Pilots'
p922
S'Seven Caged Tigers'
p923
S'http://www.last.fm/music/Stone+Temple+Pilots/_/Seven+Caged+Tigers'
p924
S'1393505165'
p925
tp926
a(S'Temple of the Dog'
p927
S'Four Walled World'
p928
S'http://www.last.fm/music/Temple+of+the+Dog/_/Four+Walled+World'
p929
S'1393504908'
p930
tp931
a(S'Soundgarden'
p932
S'Fresh Tendrils'
p933
S'http://www.last.fm/music/Soundgarden/_/Fresh+Tendrils'
p934
S'1393504494'
p935
tp936
a(S'Alice in Chains'
p937
S'Your Decision'
p938
S'http://www.last.fm/music/Alice+in+Chains/_/Your+Decision'
p939
S'1393504238'
p940
tp941
a(S'Bad Religion'
p942
S'American Jesus'
p943
S'http://www.last.fm/music/Bad+Religion/_/American+Jesus'
p944
S'1393503954'
p945
tp946
a(S'Live'
p947
S'The Distance'
p948
S'http://www.last.fm/music/Live/_/The+Distance'
p949
S'1393422753'
p950
tp951
a(S'Pearl Jam'
p952
S'Rats'
p953
S'http://www.last.fm/music/Pearl+Jam/_/Rats'
p954
S'1393421706'
p955
tp956
a(S'Velvet Revolver'
p957
S'Dirty Little Thing'
p958
S'http://www.last.fm/music/Velvet+Revolver/_/Dirty+Little+Thing'
p959
S'1393421450'
p960
tp961
a(S'Live'
p962
S'Stage'
p963
S'http://www.last.fm/music/Live/_/Stage'
p964
S'1393421213'
p965
tp966
a(S'Stone Temple Pilots'
p967
S'Too Cool Queenie'
p968
S'http://www.last.fm/music/Stone+Temple+Pilots/_/Too+Cool+Queenie'
p969
S'1393267678'
p970
tp971
a(S'Velvet Revolver'
p972
S'You Got No Right'
p973
S'http://www.last.fm/music/Velvet+Revolver/_/You+Got+No+Right'
p974
S'1393267510'
p975
tp976
a(S'Them Crooked Vultures'
p977
S'New Fang'
p978
S'http://www.last.fm/music/Them+Crooked+Vultures/_/New+Fang'
p979
S'1393262072'
p980
tp981
a(S'Soundgarden'
p982
S'Limo Wreck'
p983
S'http://www.last.fm/music/Soundgarden/_/Limo+Wreck'
p984
S'1393261844'
p985
tp986
a(S'Queens of the Stone Age'
p987
S'If I Had a Tail'
p988
S'http://www.last.fm/music/Queens+of+the+Stone+Age/_/If+I+Had+a+Tail'
p989
S'1393261496'
p990
tp991
a(S'Soundgarden'
p992
S'Attrition'
p993
S'http://www.last.fm/music/Soundgarden/_/Attrition'
p994
S'1393251998'
p995
tp996
a(S'Live'
p997
S'Out To Dry'
p998
S'http://www.last.fm/music/Live/_/Out+To+Dry'
p999
S'1393251825'
p1000
tp1001
a.