(lp1
(S'Stone Temple Pilots'
p2
S'Still Remains'
p3
S'http://www.last.fm/music/Stone+Temple+Pilots/_/Still+Remains'
p4
S'1244841366'
p5
tp6
a(S'Stone Temple Pilots'
p7
S'Silvergun Superman'
p8
S'http://www.last.fm/music/Stone+Temple+Pilots/_/Silvergun+Superman'
p9
S'1244841050'
p10
tp11
a(S'Stone Temple Pilots'
p12
S'Lounge Fly'
p13
S'http://www.last.fm/music/Stone+Temple+Pilots/_/Lounge+Fly'
p14
S'1244840731'
p15
tp16
a(S'Stone Temple Pilots'
p17
S'Piece of Pie'
p18
S'http://www.last.fm/music/Stone+Temple+Pilots/_/Piece+of+Pie'
p19
S'1244840407'
p20
tp21
a(S'Stone Temple Pilots'
p22
S"Trippin' on a Hole in a Paper Heart"
p23
S'http://www.last.fm/music/Stone+Temple+Pilots/_/Trippin%27+on+a+Hole+in+a+Paper+Heart'
p24
S'1244840230'
p25
tp26
a(S'Stone Temple Pilots'
p27
S'Too Cool Queenie'
p28
S'http://www.last.fm/music/Stone+Temple+Pilots/_/Too+Cool+Queenie'
p29
S'1244840063'
p30
tp31
a(S'Stone Temple Pilots'
p32
S'Bi-Polar Bear'
p33
S'http://www.last.fm/music/Stone+Temple+Pilots/_/Bi-Polar+Bear'
p34
S'1244839758'
p35
tp36
a(S'Stone Temple Pilots'
p37
S'Transmissions From a Lonely Room'
p38
S'http://www.last.fm/music/Stone+Temple+Pilots/_/Transmissions+From+a+Lonely+Room'
p39
S'1244839563'
p40
tp41
a(S'Ozzy Osbourne'
p42
S'Never Know Why'
p43
S'http://www.last.fm/music/Ozzy+Osbourne/_/Never+Know+Why'
p44
S'1244839121'
p45
tp46
a(S'Ozzy Osbourne'
p47
S'Ghost Behind My Eyes'
p48
S'http://www.last.fm/music/Ozzy+Osbourne/_/Ghost+Behind+My+Eyes'
p49
S'1244838812'
p50
tp51
a(S'Ozzy Osbourne'
p52
S'Perry Mason'
p53
S'http://www.last.fm/music/Ozzy+Osbourne/_/Perry+Mason'
p54
S'1244838459'
p55
tp56
a(S'Ozzy Osbourne'
p57
S'Bark at the Moon'
p58
S'http://www.last.fm/music/Ozzy+Osbourne/_/Bark+at+the+Moon'
p59
S'1244838204'
p60
tp61
a(S'Ozzy Osbourne'
p62
S"Rock 'n' Roll Rebel"
p63
S'http://www.last.fm/music/Ozzy+Osbourne/_/Rock+%27n%27+Roll+Rebel'
p64
S'1244837880'
p65
tp66
a(S'Ozzy Osbourne'
p67
S"I Don't Wanna Stop"
p68
S'http://www.last.fm/music/Ozzy+Osbourne/_/I+Don%27t+Wanna+Stop'
p69
S'1244834518'
p70
tp71
a(S'Ozzy Osbourne'
p72
S'Black Rain'
p73
S'http://www.last.fm/music/Ozzy+Osbourne/_/Black+Rain'
p74
S'1244834236'
p75
tp76
a(S'Ozzy Osbourne'
p77
S'Lay Your World on Me'
p78
S'http://www.last.fm/music/Ozzy+Osbourne/_/Lay+Your+World+on+Me'
p79
S'1244833979'
p80
tp81
a(S'Ozzy Osbourne'
p82
S'Civilize the Universe'
p83
S'http://www.last.fm/music/Ozzy+Osbourne/_/Civilize+the+Universe'
p84
S'1244833696'
p85
tp86
a(S'Ozzy Osbourne'
p87
S'Trap Door'
p88
S'http://www.last.fm/music/Ozzy+Osbourne/_/Trap+Door'
p89
S'1244833451'
p90
tp91
a(S'Judas Priest'
p92
S'Living Bad Dreams'
p93
S'http://www.last.fm/music/Judas+Priest/_/Living+Bad+Dreams'
p94
S'1244833129'
p95
tp96
a(S'Judas Priest'
p97
S'One Shot at Glory'
p98
S'http://www.last.fm/music/Judas+Priest/_/One+Shot+at+Glory'
p99
S'1244832721'
p100
tp101
a(S'Judas Priest'
p102
S'Battle Hymn'
p103
S'http://www.last.fm/music/Judas+Priest/_/Battle+Hymn'
p104
S'1244832664'
p105
tp106
a(S'Judas Priest'
p107
S'A Touch of Evil'
p108
S'http://www.last.fm/music/Judas+Priest/_/A+Touch+of+Evil'
p109
S'1244832320'
p110
tp111
a(S'Judas Priest'
p112
S'The Green Manalishi (With The Two-Pronged Crown)'
p113
S'http://www.last.fm/music/Judas+Priest/_/The+Green+Manalishi+(With+The+Two-Pronged+Crown)'
p114
S'1244832117'
p115
tp116
a(S'Judas Priest'
p117
S'Living After Midnight'
p118
S'http://www.last.fm/music/Judas+Priest/_/Living+After+Midnight'
p119
S'1244831905'
p120
tp121
a(S'Judas Priest'
p122
S'Worth Fighting For'
p123
S'http://www.last.fm/music/Judas+Priest/_/Worth+Fighting+For'
p124
S'1244831647'
p125
tp126
a(S'Judas Priest'
p127
S'Better by You, Better Than Me'
p128
S'http://www.last.fm/music/Judas+Priest/_/Better+by+You,+Better+Than+Me'
p129
S'1244831441'
p130
tp131
a(S'Judas Priest'
p132
S'Turbo Lover'
p133
S'http://www.last.fm/music/Judas+Priest/_/Turbo+Lover'
p134
S'1244830896'
p135
tp136
a(S'Jennifer Hanson'
p137
S'Beautiful Goodbye'
p138
S'http://www.last.fm/music/Jennifer+Hanson/_/Beautiful+Goodbye'
p139
S'1244631865'
p140
tp141
a(S'Iommi'
p142
S'Saviour of the Real'
p143
S'http://www.last.fm/music/Iommi/_/Saviour+of+the+Real'
p144
S'1244549060'
p145
tp146
a(S'Roxette'
p147
S'Listen to Your Heart'
p148
S'http://www.last.fm/music/Roxette/_/Listen+to+Your+Heart'
p149
S'1244464745'
p150
tp151
a(S'Iron Maiden'
p152
S'Public Enema Number One'
p153
S'http://www.last.fm/music/Iron+Maiden/_/Public+Enema+Number+One'
p154
S'1244464488'
p155
tp156
a(S'Judas Priest'
p157
S'Out in the Cold'
p158
S'http://www.last.fm/music/Judas+Priest/_/Out+in+the+Cold'
p159
S'1244406705'
p160
tp161
a(S'Judas Priest'
p162
S'Turbo Lover'
p163
S'http://www.last.fm/music/Judas+Priest/_/Turbo+Lover'
p164
S'1244406371'
p165
tp166
a(S'Skid Row'
p167
S'I Remember You'
p168
S'http://www.last.fm/music/Skid+Row/_/I+Remember+You'
p169
S'1244406057'
p170
tp171
a(S'Judas Priest'
p172
S'Screaming for Vengeance'
p173
S'http://www.last.fm/music/Judas+Priest/_/Screaming+for+Vengeance'
p174
S'1244394749'
p175
tp176
a(S'Judas Priest'
p177
S'Pain and Pleasure'
p178
S'http://www.last.fm/music/Judas+Priest/_/Pain+and+Pleasure'
p179
S'1244394494'
p180
tp181
a(S'Judas Priest'
p182
S'Worth Fighting For'
p183
S'http://www.last.fm/music/Judas+Priest/_/Worth+Fighting+For'
p184
S'1244393771'
p185
tp186
a(S'Judas Priest'
p187
S'Turbo Lover'
p188
S'http://www.last.fm/music/Judas+Priest/_/Turbo+Lover'
p189
S'1244393438'
p190
tp191
a(S'Ozzy Osbourne'
p192
S'Trap Door'
p193
S'http://www.last.fm/music/Ozzy+Osbourne/_/Trap+Door'
p194
S'1244393163'
p195
tp196
a(S'Ozzy Osbourne'
p197
S"I Can't Save You"
p198
S'http://www.last.fm/music/Ozzy+Osbourne/_/I+Can%27t+Save+You'
p199
S'1244392951'
p200
tp201
a(S'Ozzy Osbourne'
p202
S'Lay Your World on Me'
p203
S'http://www.last.fm/music/Ozzy+Osbourne/_/Lay+Your+World+on+Me'
p204
S'1244392694'
p205
tp206
a(S'Ozzy Osbourne'
p207
S'Civilize the Universe'
p208
S'http://www.last.fm/music/Ozzy+Osbourne/_/Civilize+the+Universe'
p209
S'1244392411'
p210
tp211
a(S'Ozzy Osbourne'
p212
S'No More Tears'
p213
S'http://www.last.fm/music/Ozzy+Osbourne/_/No+More+Tears'
p214
S'1244391967'
p215
tp216
a(S'Ozzy Osbourne'
p217
S'Desire'
p218
S'http://www.last.fm/music/Ozzy+Osbourne/_/Desire'
p219
S'1244391622'
p220
tp221
a(S'Ozzy Osbourne'
p222
S'Perry Mason'
p223
S'http://www.last.fm/music/Ozzy+Osbourne/_/Perry+Mason'
p224
S'1244391269'
p225
tp226
a(S'Pantera'
p227
S'Planet Caravan (Black Sabbath cover)'
p228
S'http://www.last.fm/music/Pantera/_/Planet+Caravan+(Black+Sabbath+cover)'
p229
S'1244391025'
p230
tp231
a(S'Ozzy Osbourne'
p232
S'Black Rain'
p233
S'http://www.last.fm/music/Ozzy+Osbourne/_/Black+Rain'
p234
S'1244390743'
p235
tp236
a(S'Ozzy Osbourne'
p237
S'Never Know Why'
p238
S'http://www.last.fm/music/Ozzy+Osbourne/_/Never+Know+Why'
p239
S'1244390475'
p240
tp241
a(S'Ozzy Osbourne'
p242
S'See You On The Other Side'
p243
S'http://www.last.fm/music/Ozzy+Osbourne/_/See+You+On+The+Other+Side'
p244
S'1244390108'
p245
tp246
a(S'Ozzy Osbourne'
p247
S"Mama, I'm Coming Home"
p248
S'http://www.last.fm/music/Ozzy+Osbourne/_/Mama,+I%27m+Coming+Home'
p249
S'1244389856'
p250
tp251
a(S'Ozzy Osbourne'
p252
S'Mr. Crowley'
p253
S'http://www.last.fm/music/Ozzy+Osbourne/_/Mr.+Crowley'
p254
S'1244389559'
p255
tp256
a(S'Ozzy Osbourne'
p257
S'Bark at the Moon'
p258
S'http://www.last.fm/music/Ozzy+Osbourne/_/Bark+at+the+Moon'
p259
S'1244389305'
p260
tp261
a(S'Ozzy Osbourne'
p262
S'Lay Your World on Me'
p263
S'http://www.last.fm/music/Ozzy+Osbourne/_/Lay+Your+World+on+Me'
p264
S'1244389048'
p265
tp266
a(S'Ozzy Osbourne'
p267
S"Rock 'n' Roll Rebel"
p268
S'http://www.last.fm/music/Ozzy+Osbourne/_/Rock+%27n%27+Roll+Rebel'
p269
S'1244388725'
p270
tp271
a(S'Black Sabbath'
p272
S'St. Vitus Dance'
p273
S'http://www.last.fm/music/Black+Sabbath/_/St.+Vitus+Dance'
p274
S'1244388569'
p275
tp276
a(S'Black Sabbath'
p277
S'Spiral Architect'
p278
S'http://www.last.fm/music/Black+Sabbath/_/Spiral+Architect'
p279
S'1244388239'
p280
tp281
a(S'Bad Religion'
p282
S'Superman'
p283
S'http://www.last.fm/music/Bad+Religion/_/Superman'
p284
S'1244388173'
p285
tp286
a(S'Army Of Anyone'
p287
S'A Better Place'
p288
S'http://www.last.fm/music/Army+Of+Anyone/_/A+Better+Place'
p289
S'1244387874'
p290
tp291
a(S'Anthrax'
p292
S'Indians'
p293
S'http://www.last.fm/music/Anthrax/_/Indians'
p294
S'1244387532'
p295
tp296
a(S'Anthrax'
p297
S'Hy Pro Glo'
p298
S'http://www.last.fm/music/Anthrax/_/Hy+Pro+Glo'
p299
S'1244387261'
p300
tp301
a(S'Anthrax'
p302
S'Only'
p303
S'http://www.last.fm/music/Anthrax/_/Only'
p304
S'1244386965'
p305
tp306
a(S'Anthrax'
p307
S'Room For One More'
p308
S'http://www.last.fm/music/Anthrax/_/Room+For+One+More'
p309
S'1244386670'
p310
tp311
a(S'Soundgarden'
p312
S'Somewhere'
p313
S'http://www.last.fm/music/Soundgarden/_/Somewhere'
p314
S'1244386389'
p315
tp316
a(S'Soundgarden'
p317
S'Face Pollution'
p318
S'http://www.last.fm/music/Soundgarden/_/Face+Pollution'
p319
S'1244386246'
p320
tp321
a(S'Rage Against the Machine'
p322
S'Bullet In The Head (Live)'
p323
S'http://www.last.fm/music/Rage+Against+the+Machine/_/Bullet+In+The+Head+(Live)'
p324
S'1244124441'
p325
tp326
a(S'Alice in Chains'
p327
S'Bleed the Freak'
p328
S'http://www.last.fm/music/Alice+in+Chains/_/Bleed+the+Freak'
p329
S'1244124200'
p330
tp331
a(S'Alice in Chains'
p332
S'Confusion'
p333
S'http://www.last.fm/music/Alice+in+Chains/_/Confusion'
p334
S'1244118146'
p335
tp336
a(S'Diamond Head'
p337
S'Muddy Waters'
p338
S'http://www.last.fm/music/Diamond+Head/_/Muddy+Waters'
p339
S'1244117871'
p340
tp341
a(S'Ozzy Osbourne'
p342
S"I Don't Wanna Stop"
p343
S'http://www.last.fm/music/Ozzy+Osbourne/_/I+Don%27t+Wanna+Stop'
p344
S'1244117631'
p345
tp346
a(S'Dio'
p347
S'Rainbow in the Dark'
p348
S'http://www.last.fm/music/Dio/_/Rainbow+in+the+Dark'
p349
S'1244117376'
p350
tp351
a(S'Jerry Cantrell'
p352
S'Breaks My Back'
p353
S'http://www.last.fm/music/Jerry+Cantrell/_/Breaks+My+Back'
p354
S'1244116951'
p355
tp356
a(S'Iommi'
p357
S'Grace'
p358
S'http://www.last.fm/music/Iommi/_/Grace'
p359
S'1244116637'
p360
tp361
a(S'Metallica'
p362
S"Ain't My Bitch"
p363
S'http://www.last.fm/music/Metallica/_/Ain%27t+My+Bitch'
p364
S'1244046158'
p365
tp366
a(S'Iron Maiden'
p367
S'Only the Good Die Young'
p368
S'http://www.last.fm/music/Iron+Maiden/_/Only+the+Good+Die+Young'
p369
S'1243857423'
p370
tp371
a(S'Halford'
p372
S'Handing Out Bullets'
p373
S'http://www.last.fm/music/Halford/_/Handing+Out+Bullets'
p374
S'1243689652'
p375
tp376
a(S"Guns N' Roses"
p377
S'Rocket Queen'
p378
S'http://www.last.fm/music/Guns+N%27+Roses/_/Rocket+Queen'
p379
S'1243689277'
p380
tp381
a(S'Fuel'
p382
S'Jesus Or A Gun'
p383
S'http://www.last.fm/music/Fuel/_/Jesus+Or+A+Gun'
p384
S'1243689039'
p385
tp386
a(S'Deep Purple'
p387
S'Perfect Strangers'
p388
S'http://www.last.fm/music/Deep+Purple/_/Perfect+Strangers'
p389
S'1243688718'
p390
tp391
a(S'The Cult'
p392
S'Edie (Ciao Baby)'
p393
S'http://www.last.fm/music/The+Cult/_/Edie+(Ciao+Baby)'
p394
S'1243688477'
p395
tp396
a(S'Collective Soul'
p397
S'Perfect Day (featuring Elton John)'
p398
S'http://www.last.fm/music/Collective+Soul/_/Perfect+Day+(featuring+Elton+John)'
p399
S'1243688248'
p400
tp401
a(S'Bon Jovi'
p402
S"Livin' on a Prayer"
p403
S'http://www.last.fm/music/Bon+Jovi/_/Livin%27+on+a+Prayer'
p404
S'1243687998'
p405
tp406
a(S'Bon Jovi'
p407
S"Someday I'll Be Saturday Night"
p408
S'http://www.last.fm/music/Bon+Jovi/_/Someday+I%27ll+Be+Saturday+Night'
p409
S'1243687719'
p410
tp411
a(S'Whitesnake'
p412
S"Love Ain't No Stranger"
p413
S'http://www.last.fm/music/Whitesnake/_/Love+Ain%27t+No+Stranger'
p414
S'1243687461'
p415
tp416
a(S'Soul Asylum'
p417
S'Misery'
p418
S'http://www.last.fm/music/Soul+Asylum/_/Misery'
p419
S'1243687195'
p420
tp421
a(S'Skid Row'
p422
S'I Remember You'
p423
S'http://www.last.fm/music/Skid+Row/_/I+Remember+You'
p424
S'1243686880'
p425
tp426
a(S'Alice Cooper'
p427
S'Spark In The Dark'
p428
S'http://www.last.fm/music/Alice+Cooper/_/Spark+In+The+Dark'
p429
S'1243623353'
p430
tp431
a(S'Iron Maiden'
p432
S'The Clansman'
p433
S'http://www.last.fm/music/Iron+Maiden/_/The+Clansman'
p434
S'1243622780'
p435
tp436
a(S'Megadeth'
p437
S'Addicted to Chaos'
p438
S'http://www.last.fm/music/Megadeth/_/Addicted+to+Chaos'
p439
S'1243622454'
p440
tp441
a(S'Alice in Chains'
p442
S'I Know Somethin (Bout You)'
p443
S'http://www.last.fm/music/Alice+in+Chains/_/I+Know+Somethin+(Bout+You)'
p444
S'1243622192'
p445
tp446
a(S'Stone Temple Pilots'
p447
S'"Unglued"'
p448
S'http://www.last.fm/music/Stone+Temple+Pilots/_/%22Unglued%22'
p449
S'1243622038'
p450
tp451
a(S'Alice Cooper'
p452
S'Hell Is Living Without You'
p453
S'http://www.last.fm/music/Alice+Cooper/_/Hell+Is+Living+Without+You'
p454
S'1243621786'
p455
tp456
a(S'Alice in Chains'
p457
S'I Stay Away'
p458
S'http://www.last.fm/music/Alice+in+Chains/_/I+Stay+Away'
p459
S'1243621532'
p460
tp461
a(S'Kiss'
p462
S'Sure Know Something'
p463
S'http://www.last.fm/music/Kiss/_/Sure+Know+Something'
p464
S'1243621269'
p465
tp466
a(S'Diamond Head'
p467
S'Muddy Waters'
p468
S'http://www.last.fm/music/Diamond+Head/_/Muddy+Waters'
p469
S'1243620954'
p470
tp471
a(S'Pantera'
p472
S'Primal Concrete Sledge'
p473
S'http://www.last.fm/music/Pantera/_/Primal+Concrete+Sledge'
p474
S'1243620821'
p475
tp476
a(S'Live'
p477
S'Feel The Quiet River Rage'
p478
S'http://www.last.fm/music/Live/_/Feel+The+Quiet+River+Rage'
p479
S'1243620536'
p480
tp481
a(S'Stone Temple Pilots'
p482
S"Pop's Love Suicide"
p483
S'http://www.last.fm/music/Stone+Temple+Pilots/_/Pop%27s+Love+Suicide'
p484
S'1243620313'
p485
tp486
a(S'Ozzy Osbourne'
p487
S"I Don't Wanna Stop"
p488
S'http://www.last.fm/music/Ozzy+Osbourne/_/I+Don%27t+Wanna+Stop'
p489
S'1243620072'
p490
tp491
a(S'ZZ Top'
p492
S"What's Up With That"
p493
S'http://www.last.fm/music/ZZ+Top/_/What%27s+Up+With+That'
p494
S'1243619610'
p495
tp496
a(S'Jerry Cantrell'
p497
S'Hurt A Long Time'
p498
S'http://www.last.fm/music/Jerry+Cantrell/_/Hurt+A+Long+Time'
p499
S'1243619257'
p500
tp501
a(S'Judas Priest'
p502
S'Diamonds and Rust'
p503
S'http://www.last.fm/music/Judas+Priest/_/Diamonds+and+Rust'
p504
S'1243606847'
p505
tp506
a(S'Iron Maiden'
p507
S'Wasted Years'
p508
S'http://www.last.fm/music/Iron+Maiden/_/Wasted+Years'
p509
S'1243606518'
p510
tp511
a(S'Iron Maiden'
p512
S'Only the Good Die Young'
p513
S'http://www.last.fm/music/Iron+Maiden/_/Only+the+Good+Die+Young'
p514
S'1243606164'
p515
tp516
a(S'Stone Temple Pilots'
p517
S"Trippin' on a Hole in a Paper Heart"
p518
S'http://www.last.fm/music/Stone+Temple+Pilots/_/Trippin%27+on+a+Hole+in+a+Paper+Heart'
p519
S'1243605715'
p520
tp521
a(S'Tonic'
p522
S'If You Could Only See'
p523
S'http://www.last.fm/music/Tonic/_/If+You+Could+Only+See'
p524
S'1243605441'
p525
tp526
a(S'Iommi'
p527
S'Saviour of the Real'
p528
S'http://www.last.fm/music/Iommi/_/Saviour+of+the+Real'
p529
S'1243605194'
p530
tp531
a(S'Alice in Chains'
p532
S"It Ain't Like That"
p533
S'http://www.last.fm/music/Alice+in+Chains/_/It+Ain%27t+Like+That'
p534
S'1243604735'
p535
tp536
a(S'Alice in Chains'
p537
S"I Can't Remember"
p538
S'http://www.last.fm/music/Alice+in+Chains/_/I+Can%27t+Remember'
p539
S'1243604506'
p540
tp541
a(S'Alice in Chains'
p542
S'Bleed the Freak'
p543
S'http://www.last.fm/music/Alice+in+Chains/_/Bleed+the+Freak'
p544
S'1243604264'
p545
tp546
a(S'Alice in Chains'
p547
S'Sea of Sorrow'
p548
S'http://www.last.fm/music/Alice+in+Chains/_/Sea+of+Sorrow'
p549
S'1243603914'
p550
tp551
a(S'Alice in Chains'
p552
S'Man in the Box'
p553
S'http://www.last.fm/music/Alice+in+Chains/_/Man+in+the+Box'
p554
S'1243603600'
p555
tp556
a(S'Alice in Chains'
p557
S'We Die Young'
p558
S'http://www.last.fm/music/Alice+in+Chains/_/We+Die+Young'
p559
S'1243603448'
p560
tp561
a(S'Alice in Chains'
p562
S'Over Now'
p563
S'http://www.last.fm/music/Alice+in+Chains/_/Over+Now'
p564
S'1243603024'
p565
tp566
a(S'Metallica'
p567
S'All Nightmare Long'
p568
S'http://www.last.fm/music/Metallica/_/All+Nightmare+Long'
p569
S'1243602547'
p570
tp571
a(S'Megadeth'
p572
S'Diadems'
p573
S'http://www.last.fm/music/Megadeth/_/Diadems'
p574
S'1243602269'
p575
tp576
a(S'Jamiroquai'
p577
S"(Don't) Give Hate a Chance"
p578
S'http://www.last.fm/music/Jamiroquai/_/(Don%27t)+Give+Hate+a+Chance'
p579
S'1243533859'
p580
tp581
a(S'Ozzy Osbourne'
p582
S'Lay Your World on Me'
p583
S'http://www.last.fm/music/Ozzy+Osbourne/_/Lay+Your+World+on+Me'
p584
S'1243533603'
p585
tp586
a(S'Stone Temple Pilots'
p587
S'Silvergun Superman'
p588
S'http://www.last.fm/music/Stone+Temple+Pilots/_/Silvergun+Superman'
p589
S'1243532954'
p590
tp591
a(S'Kiss'
p592
S"Heaven's On Fire"
p593
S'http://www.last.fm/music/Kiss/_/Heaven%27s+On+Fire'
p594
S'1243514501'
p595
tp596
a(S'Jerry Cantrell'
p597
S'Satisfy'
p598
S'http://www.last.fm/music/Jerry+Cantrell/_/Satisfy'
p599
S'1243513420'
p600
tp601
a(S'Megadeth'
p602
S'Wanderlust'
p603
S'http://www.last.fm/music/Megadeth/_/Wanderlust'
p604
S'1243513071'
p605
tp606
a(S'Placebo'
p607
S'Every You Every Me'
p608
S'http://www.last.fm/music/Placebo/_/Every+You+Every+Me'
p609
S'1243512857'
p610
tp611
a(S'Stone Temple Pilots'
p612
S'Lounge Fly'
p613
S'http://www.last.fm/music/Stone+Temple+Pilots/_/Lounge+Fly'
p614
S'1243447712'
p615
tp616
a(S'Stone Temple Pilots'
p617
S'Vasoline'
p618
S'http://www.last.fm/music/Stone+Temple+Pilots/_/Vasoline'
p619
S'1243447523'
p620
tp621
a(S'Iron Maiden'
p622
S'The Clansman'
p623
S'http://www.last.fm/music/Iron+Maiden/_/The+Clansman'
p624
S'1242993712'
p625
tp626
a(S'Alice in Chains'
p627
S'Bleed the Freak'
p628
S'http://www.last.fm/music/Alice+in+Chains/_/Bleed+the+Freak'
p629
S'1242841688'
p630
tp631
a(S'AC/DC'
p632
S"Spoilin' For A Fight"
p633
S'http://www.last.fm/music/AC%2FDC/_/Spoilin%27+For+A+Fight'
p634
S'1242824528'
p635
tp636
a(S'Alice in Chains'
p637
S'Head Creeps'
p638
S'http://www.last.fm/music/Alice+in+Chains/_/Head+Creeps'
p639
S'1242751463'
p640
tp641
a(S'Alice Cooper'
p642
S'Bed of Nails'
p643
S'http://www.last.fm/music/Alice+Cooper/_/Bed+of+Nails'
p644
S'1242751204'
p645
tp646
a(S'Jamiroquai'
p647
S'Electric Mistress'
p648
S'http://www.last.fm/music/Jamiroquai/_/Electric+Mistress'
p649
S'1242750970'
p650
tp651
a(S'Metallica'
p652
S'2 X 4'
p653
S'http://www.last.fm/music/Metallica/_/2+X+4'
p654
S'1242743528'
p655
tp656
a(S'Iommi'
p657
S'I Go Insane'
p658
S'http://www.last.fm/music/Iommi/_/I+Go+Insane'
p659
S'1242742137'
p660
tp661
a(S'Megadeth'
p662
S'I Thought I Knew It All'
p663
S'http://www.last.fm/music/Megadeth/_/I+Thought+I+Knew+It+All'
p664
S'1242741912'
p665
tp666
a(S'Iron Maiden'
p667
S'Stranger In a Strange Land'
p668
S'http://www.last.fm/music/Iron+Maiden/_/Stranger+In+a+Strange+Land'
p669
S'1242741568'
p670
tp671
a(S'Megadeth'
p672
S'Killing Is My Business... and Business Is Good!'
p673
S'http://www.last.fm/music/Megadeth/_/Killing+Is+My+Business...+and+Business+Is+Good!'
p674
S'1242741380'
p675
tp676
a(S'Jamiroquai'
p677
S'You Give Me Something'
p678
S'http://www.last.fm/music/Jamiroquai/_/You+Give+Me+Something'
p679
S'1242741175'
p680
tp681
a(S'AC/DC'
p682
S"Spoilin' For A Fight"
p683
S'http://www.last.fm/music/AC%2FDC/_/Spoilin%27+For+A+Fight'
p684
S'1242740978'
p685
tp686
a(S'Stone Temple Pilots'
p687
S'Still Remains'
p688
S'http://www.last.fm/music/Stone+Temple+Pilots/_/Still+Remains'
p689
S'1242677417'
p690
tp691
a(S'Diamond Head'
p692
S'Calling Out'
p693
S'http://www.last.fm/music/Diamond+Head/_/Calling+Out'
p694
S'1242677190'
p695
tp696
a(S'Jamiroquai'
p697
S'Seven Days in Sunny June'
p698
S'http://www.last.fm/music/Jamiroquai/_/Seven+Days+in+Sunny+June'
p699
S'1242676951'
p700
tp701
a(S'Iron Maiden'
p702
S'Only the Good Die Young'
p703
S'http://www.last.fm/music/Iron+Maiden/_/Only+the+Good+Die+Young'
p704
S'1242676709'
p705
tp706
a(S'Alice in Chains'
p707
S'I Stay Away'
p708
S'http://www.last.fm/music/Alice+in+Chains/_/I+Stay+Away'
p709
S'1242665222'
p710
tp711
a(S'Soundgarden'
p712
S'Somewhere'
p713
S'http://www.last.fm/music/Soundgarden/_/Somewhere'
p714
S'1242664946'
p715
tp716
a(S'AC/DC'
p717
S'Rock N Roll Dream'
p718
S'http://www.last.fm/music/AC%2FDC/_/Rock+N+Roll+Dream'
p719
S'1242664665'
p720
tp721
a(S'Live'
p722
S'Pain Lies On The Riverside'
p723
S'http://www.last.fm/music/Live/_/Pain+Lies+On+The+Riverside'
p724
S'1242664354'
p725
tp726
a(S'The Bar-Kays'
p727
S'Too Hot To Stop'
p728
S'http://www.last.fm/music/The+Bar-Kays/_/Too+Hot+To+Stop'
p729
S'1242663967'
p730
tp731
a(S'Joan Jett and the Blackhearts'
p732
S'I Hate Myself for Loving You'
p733
S'http://www.last.fm/music/Joan+Jett+and+the+Blackhearts/_/I+Hate+Myself+for+Loving+You'
p734
S'1242663584'
p735
tp736
a(S'Billy Idol'
p737
S'Dancing With Myself'
p738
S'http://www.last.fm/music/Billy+Idol/_/Dancing+With+Myself'
p739
S'1242663224'
p740
tp741
a(S'Iommi'
p742
S'Wasted Again'
p743
S'http://www.last.fm/music/Iommi/_/Wasted+Again'
p744
S'1242662988'
p745
tp746
a(S'Jerry Cantrell'
p747
S'Between'
p748
S'http://www.last.fm/music/Jerry+Cantrell/_/Between'
p749
S'1242662754'
p750
tp751
a(S'Alice in Chains'
p752
S'We Die Young'
p753
S'http://www.last.fm/music/Alice+in+Chains/_/We+Die+Young'
p754
S'1242662601'
p755
tp756
a(S'Megadeth'
p757
S'Black Curtains'
p758
S'http://www.last.fm/music/Megadeth/_/Black+Curtains'
p759
S'1242662230'
p760
tp761
a(S'Alice Cooper'
p762
S'Poison'
p763
S'http://www.last.fm/music/Alice+Cooper/_/Poison'
p764
S'1242661960'
p765
tp766
a(S'Alice in Chains'
p767
S'So Close'
p768
S'http://www.last.fm/music/Alice+in+Chains/_/So+Close'
p769
S'1242661794'
p770
tp771
a(S'Kiss'
p772
S"Heaven's On Fire"
p773
S'http://www.last.fm/music/Kiss/_/Heaven%27s+On+Fire'
p774
S'1242657835'
p775
tp776
a(S'Kaiser Chiefs'
p777
S'Everything Is Average Nowadays'
p778
S'http://www.last.fm/music/Kaiser+Chiefs/_/Everything+Is+Average+Nowadays'
p779
S'1242657672'
p780
tp781
a(S'Soundgarden'
p782
S'Room a Thousand Years Wide'
p783
S'http://www.last.fm/music/Soundgarden/_/Room+a+Thousand+Years+Wide'
p784
S'1242657417'
p785
tp786
a(S'Pantera'
p787
S'Primal Concrete Sledge'
p788
S'http://www.last.fm/music/Pantera/_/Primal+Concrete+Sledge'
p789
S'1242657284'
p790
tp791
a(S'Pantera'
p792
S'Live in a Hole'
p793
S'http://www.last.fm/music/Pantera/_/Live+in+a+Hole'
p794
S'1242656984'
p795
tp796
a(S'Kiss'
p797
S'Naked City'
p798
S'http://www.last.fm/music/Kiss/_/Naked+City'
p799
S'1242656745'
p800
tp801
a(S'Megadeth'
p802
S"Crush 'em"
p803
S'http://www.last.fm/music/Megadeth/_/Crush+%27em'
p804
S'1242656072'
p805
tp806
a(S'Live'
p807
S'Where Fishes Go'
p808
S'http://www.last.fm/music/Live/_/Where+Fishes+Go'
p809
S'1242655785'
p810
tp811
a(S'Roxette'
p812
S'Fading Like A Flower'
p813
S'http://www.last.fm/music/Roxette/_/Fading+Like+A+Flower'
p814
S'1242655553'
p815
tp816
a(S'Metallica'
p817
S'The Outlaw Torn'
p818
S'http://www.last.fm/music/Metallica/_/The+Outlaw+Torn'
p819
S'1242654934'
p820
tp821
a(S'Alice in Chains'
p822
S'No Excuses'
p823
S'http://www.last.fm/music/Alice+in+Chains/_/No+Excuses'
p824
S'1242654679'
p825
tp826
a(S'Iron Maiden'
p827
S'Public Enema Number One'
p828
S'http://www.last.fm/music/Iron+Maiden/_/Public+Enema+Number+One'
p829
S'1242654425'
p830
tp831
a(S'Jerry Cantrell'
p832
S'Hurt A Long Time'
p833
S'http://www.last.fm/music/Jerry+Cantrell/_/Hurt+A+Long+Time'
p834
S'1242650170'
p835
tp836
a(S'Jerry Cantrell'
p837
S'Satisfy'
p838
S'http://www.last.fm/music/Jerry+Cantrell/_/Satisfy'
p839
S'1242649955'
p840
tp841
a(S'Jerry Cantrell'
p842
S'Keep The Light On'
p843
S'http://www.last.fm/music/Jerry+Cantrell/_/Keep+The+Light+On'
p844
S'1242649669'
p845
tp846
a(S'Jerry Cantrell'
p847
S'Devil By His Side'
p848
S'http://www.last.fm/music/Jerry+Cantrell/_/Devil+By+His+Side'
p849
S'1242649379'
p850
tp851
a(S'Jerry Cantrell'
p852
S'Jesus Hands'
p853
S'http://www.last.fm/music/Jerry+Cantrell/_/Jesus+Hands'
p854
S'1242649043'
p855
tp856
a(S'Jerry Cantrell'
p857
S'Breaks My Back'
p858
S'http://www.last.fm/music/Jerry+Cantrell/_/Breaks+My+Back'
p859
S'1242648443'
p860
tp861
a(S'Jerry Cantrell'
p862
S'Between'
p863
S'http://www.last.fm/music/Jerry+Cantrell/_/Between'
p864
S'1242648227'
p865
tp866
a(S'Ozzy Osbourne'
p867
S"I Don't Wanna Stop"
p868
S'http://www.last.fm/music/Ozzy+Osbourne/_/I+Don%27t+Wanna+Stop'
p869
S'1242647740'
p870
tp871
a(S'Scorpions'
p872
S'Still Loving You'
p873
S'http://www.last.fm/music/Scorpions/_/Still+Loving+You'
p874
S'1242647452'
p875
tp876
a(S'Soundgarden'
p877
S'Room a Thousand Years Wide'
p878
S'http://www.last.fm/music/Soundgarden/_/Room+a+Thousand+Years+Wide'
p879
S'1242410027'
p880
tp881
a(S'Live'
p882
S'Mother Earth Is A Vicious Crowd'
p883
S'http://www.last.fm/music/Live/_/Mother+Earth+Is+A+Vicious+Crowd'
p884
S'1242409777'
p885
tp886
a(S'Pantera'
p887
S'Shattered'
p888
S'http://www.last.fm/music/Pantera/_/Shattered'
p889
S'1242409575'
p890
tp891
a(S'Metallica'
p892
S'The Unforgiven III'
p893
S'http://www.last.fm/music/Metallica/_/The+Unforgiven+III'
p894
S'1242409109'
p895
tp896
a(S'Diamond Head'
p897
S'Prey For Me'
p898
S'http://www.last.fm/music/Diamond+Head/_/Prey+For+Me'
p899
S'1242408844'
p900
tp901
a(S'Megadeth'
p902
S'I Thought I Knew It All'
p903
S'http://www.last.fm/music/Megadeth/_/I+Thought+I+Knew+It+All'
p904
S'1242408619'
p905
tp906
a(S'Diamond Head'
p907
S'Muddy Waters'
p908
S'http://www.last.fm/music/Diamond+Head/_/Muddy+Waters'
p909
S'1242408344'
p910
tp911
a(S'Pantera'
p912
S'By Demons Be Driven'
p913
S'http://www.last.fm/music/Pantera/_/By+Demons+Be+Driven'
p914
S'1242408064'
p915
tp916
a(S'Alice in Chains'
p917
S'Love Song'
p918
S'http://www.last.fm/music/Alice+in+Chains/_/Love+Song'
p919
S'1242407839'
p920
tp921
a(S'Iommi'
p922
S'Meat'
p923
S'http://www.last.fm/music/Iommi/_/Meat'
p924
S'1242407546'
p925
tp926
a(S'Iommi'
p927
S'Just Say No To Love'
p928
S'http://www.last.fm/music/Iommi/_/Just+Say+No+To+Love'
p929
S'1242407279'
p930
tp931
a(S'Faith No More'
p932
S'Epic'
p933
S'http://www.last.fm/music/Faith+No+More/_/Epic'
p934
S'1242406985'
p935
tp936
a(S'Kiss'
p937
S'She'
p938
S'http://www.last.fm/music/Kiss/_/She'
p939
S'1242406738'
p940
tp941
a(S'Live'
p942
S'Where Fishes Go'
p943
S'http://www.last.fm/music/Live/_/Where+Fishes+Go'
p944
S'1242399400'
p945
tp946
a(S'Live'
p947
S'You Are The World'
p948
S'http://www.last.fm/music/Live/_/You+Are+The+World'
p949
S'1242399135'
p950
tp951
a(S'Joan Jett and the Blackhearts'
p952
S'World of Denial'
p953
S'http://www.last.fm/music/Joan+Jett+and+the+Blackhearts/_/World+of+Denial'
p954
S'1242398876'
p955
tp956
a(S'Alice in Chains'
p957
S"Don't Follow"
p958
S'http://www.last.fm/music/Alice+in+Chains/_/Don%27t+Follow'
p959
S'1242398613'
p960
tp961
a(S'Stone Temple Pilots'
p962
S'And So I Know'
p963
S'http://www.last.fm/music/Stone+Temple+Pilots/_/And+So+I+Know'
p964
S'1242398376'
p965
tp966
a(S'Alice Cooper'
p967
S'House of Fire'
p968
S'http://www.last.fm/music/Alice+Cooper/_/House+of+Fire'
p969
S'1242398149'
p970
tp971
a(S'Diamond Head'
p972
S'Fallen Angel'
p973
S'http://www.last.fm/music/Diamond+Head/_/Fallen+Angel'
p974
S'1242397899'
p975
tp976
a(S'Iommi'
p977
S"Who's Fooling Who"
p978
S'http://www.last.fm/music/Iommi/_/Who%27s+Fooling+Who'
p979
S'1242397529'
p980
tp981
a(S'New Model Army'
p982
S'51st State'
p983
S'http://www.last.fm/music/New+Model+Army/_/51st+State'
p984
S'1242397375'
p985
tp986
a(S'Iommi'
p987
S'Flame On'
p988
S'http://www.last.fm/music/Iommi/_/Flame+On'
p989
S'1242397106'
p990
tp991
a(S'Diamond Head'
p992
S"What's in Your Head?"
p993
S'http://www.last.fm/music/Diamond+Head/_/What%27s+in+Your+Head%3F'
p994
S'1242396854'
p995
tp996
a(S'Jethro Tull'
p997
S'Aqualung'
p998
S'http://www.last.fm/music/Jethro+Tull/_/Aqualung'
p999
S'1242396461'
p1000
tp1001
a.