(lp1
(S'John Lee Hooker'
p2
S"I'm in the Mood"
p3
S'http://www.last.fm/music/John+Lee+Hooker/_/I%27m+in+the+Mood'
p4
S'1396028275'
p5
tp6
a(S'Joe Satriani'
p7
S'The Crush of Love'
p8
S'http://www.last.fm/music/Joe+Satriani/_/The+Crush+of+Love'
p9
S'1395960075'
p10
tp11
a(S'Eric Clapton'
p12
S'Alberta'
p13
S'http://www.last.fm/music/Eric+Clapton/_/Alberta'
p14
S'1395959712'
p15
tp16
a(S'Stevie Wonder'
p17
S"I Ain't Gonna Stand For It"
p18
S'http://www.last.fm/music/Stevie+Wonder/_/I+Ain%27t+Gonna+Stand+For+It'
p19
S'1395959490'
p20
tp21
a(S'Eric Clapton'
p22
S"Travelin' Light"
p23
S'http://www.last.fm/music/Eric+Clapton/_/Travelin%27+Light'
p24
S'1395959213'
p25
tp26
a(S'Stevie Wonder'
p27
S'Superstition'
p28
S'http://www.last.fm/music/Stevie+Wonder/_/Superstition'
p29
S'1395958956'
p30
tp31
a(S'Joe Satriani'
p32
S'Flying in a Blue Dream'
p33
S'http://www.last.fm/music/Joe+Satriani/_/Flying+in+a+Blue+Dream'
p34
S'1395958714'
p35
tp36
a(S'Eric Clapton'
p37
S'Lonely Stranger'
p38
S'http://www.last.fm/music/Eric+Clapton/_/Lonely+Stranger'
p39
S'1395957560'
p40
tp41
a(S'Eric Clapton'
p42
S'Layla'
p43
S'http://www.last.fm/music/Eric+Clapton/_/Layla'
p44
S'1395957232'
p45
tp46
a(S'Blues Traveler'
p47
S'The Mountains Win Again'
p48
S'http://www.last.fm/music/Blues+Traveler/_/The+Mountains+Win+Again'
p49
S'1395956946'
p50
tp51
a(S'Buddy Guy'
p52
S'Where Is the Next One Coming From?'
p53
S'http://www.last.fm/music/Buddy+Guy/_/Where+Is+the+Next+One+Coming+From%3F'
p54
S'1395956640'
p55
tp56
a(S'Jimi Hendrix'
p57
S'All Along the Watchtower'
p58
S'http://www.last.fm/music/Jimi+Hendrix/_/All+Along+the+Watchtower'
p59
S'1395956363'
p60
tp61
a(S'Chuck Berry'
p62
S'Johnny B. Goode'
p63
S'http://www.last.fm/music/Chuck+Berry/_/Johnny+B.+Goode'
p64
S'1395955365'
p65
tp66
a(S'Chuck Berry'
p67
S'Brown Eyed Handsome Man'
p68
S'http://www.last.fm/music/Chuck+Berry/_/Brown+Eyed+Handsome+Man'
p69
S'1395955205'
p70
tp71
a(S'Albert King'
p72
S'The Feeling'
p73
S'http://www.last.fm/music/Albert+King/_/The+Feeling'
p74
S'1395955066'
p75
tp76
a(S'Queens of the Stone Age'
p77
S'Little Sister'
p78
S'http://www.last.fm/music/Queens+of+the+Stone+Age/_/Little+Sister'
p79
S'1395844434'
p80
tp81
a(S'Live'
p82
S'Out To Dry'
p83
S'http://www.last.fm/music/Live/_/Out+To+Dry'
p84
S'1395844260'
p85
tp86
a(S'Jerry Cantrell'
p87
S'Locked On'
p88
S'http://www.last.fm/music/Jerry+Cantrell/_/Locked+On'
p89
S'1395844060'
p90
tp91
a(S'Stone Temple Pilots'
p92
S'Transmissions From a Lonely Room'
p93
S'http://www.last.fm/music/Stone+Temple+Pilots/_/Transmissions+From+a+Lonely+Room'
p94
S'1395843597'
p95
tp96
a(S'Velvet Revolver'
p97
S'She Builds Quick Machines'
p98
S'http://www.last.fm/music/Velvet+Revolver/_/She+Builds+Quick+Machines'
p99
S'1395843401'
p100
tp101
a(S'Bad Religion'
p102
S'Individual'
p103
S'http://www.last.fm/music/Bad+Religion/_/Individual'
p104
S'1395843157'
p105
tp106
a(S'Live'
p107
S'Forever May Not Be Long Enough'
p108
S'http://www.last.fm/music/Live/_/Forever+May+Not+Be+Long+Enough'
p109
S'1395843034'
p110
tp111
a(S'Live'
p112
S'Heropsychodreamer'
p113
S'http://www.last.fm/music/Live/_/Heropsychodreamer'
p114
S'1395842805'
p115
tp116
a(S'Stone Temple Pilots'
p117
S'Silvergun Superman'
p118
S'http://www.last.fm/music/Stone+Temple+Pilots/_/Silvergun+Superman'
p119
S'1395839364'
p120
tp121
a(S'Alice in Chains'
p122
S'Lesson Learned'
p123
S'http://www.last.fm/music/Alice+in+Chains/_/Lesson+Learned'
p124
S'1395839048'
p125
tp126
a(S'Velvet Revolver'
p127
S'Headspace'
p128
S'http://www.last.fm/music/Velvet+Revolver/_/Headspace'
p129
S'1395838791'
p130
tp131
a(S'Queens of the Stone Age'
p132
S'Smooth Sailing'
p133
S'http://www.last.fm/music/Queens+of+the+Stone+Age/_/Smooth+Sailing'
p134
S'1395836932'
p135
tp136
a(S'Bad Religion'
p137
S'A Walk'
p138
S'http://www.last.fm/music/Bad+Religion/_/A+Walk'
p139
S'1395836640'
p140
tp141
a(S'Bad Religion'
p142
S'The Handshake'
p143
S'http://www.last.fm/music/Bad+Religion/_/The+Handshake'
p144
S'1395836511'
p145
tp146
a(S'Them Crooked Vultures'
p147
S'Gunman'
p148
S'http://www.last.fm/music/Them+Crooked+Vultures/_/Gunman'
p149
S'1395836341'
p150
tp151
a(S'Alice in Chains'
p152
S'Voices'
p153
S'http://www.last.fm/music/Alice+in+Chains/_/Voices'
p154
S'1395836054'
p155
tp156
a(S'Foo Fighters'
p157
S'Dear Rosemary'
p158
S'http://www.last.fm/music/Foo+Fighters/_/Dear+Rosemary'
p159
S'1395835712'
p160
tp161
a(S'Bad Religion'
p162
S'Nobody Listens'
p163
S'http://www.last.fm/music/Bad+Religion/_/Nobody+Listens'
p164
S'1395835549'
p165
tp166
a(S'Queens of the Stone Age'
p167
S'If I Had a Tail'
p168
S'http://www.last.fm/music/Queens+of+the+Stone+Age/_/If+I+Had+a+Tail'
p169
S'1395835432'
p170
tp171
a(S'Foo Fighters'
p172
S"I'll Stick Around"
p173
S'http://www.last.fm/music/Foo+Fighters/_/I%27ll+Stick+Around'
p174
S'1395834844'
p175
tp176
a(S'Army Of Anyone'
p177
S'Generation'
p178
S'http://www.last.fm/music/Army+Of+Anyone/_/Generation'
p179
S'1395834611'
p180
tp181
a(S'Live'
p182
S'Insomnia And The Hole In The Universe'
p183
S'http://www.last.fm/music/Live/_/Insomnia+And+The+Hole+In+The+Universe'
p184
S'1395834400'
p185
tp186
a(S'Queens of the Stone Age'
p187
S"You Think I Ain't Worth a Dollar, But I Feel Like a Millionaire"
p188
S'http://www.last.fm/music/Queens+of+the+Stone+Age/_/You+Think+I+Ain%27t+Worth+a+Dollar,+But+I+Feel+Like+a+Millionaire'
p189
S'1395834158'
p190
tp191
a(S'Army Of Anyone'
p192
S'Goodbye'
p193
S'http://www.last.fm/music/Army+Of+Anyone/_/Goodbye'
p194
S'1395833965'
p195
tp196
a(S'Soundgarden'
p197
S'Outshined'
p198
S'http://www.last.fm/music/Soundgarden/_/Outshined'
p199
S'1395754234'
p200
tp201
a(S'Velvet Revolver'
p202
S'Big Machine'
p203
S'http://www.last.fm/music/Velvet+Revolver/_/Big+Machine'
p204
S'1395753924'
p205
tp206
a(S'Bad Religion'
p207
S'A Walk'
p208
S'http://www.last.fm/music/Bad+Religion/_/A+Walk'
p209
S'1395753658'
p210
tp211
a(S'Talk Show'
p212
S'End of the World'
p213
S'http://www.last.fm/music/Talk+Show/_/End+of+the+World'
p214
S'1395753529'
p215
tp216
a(S'Soundgarden'
p217
S"Eyelid's Mouth"
p218
S'http://www.last.fm/music/Soundgarden/_/Eyelid%27s+Mouth'
p219
S'1395753316'
p220
tp221
a(S'Queens of the Stone Age'
p222
S'Smooth Sailing'
p223
S'http://www.last.fm/music/Queens+of+the+Stone+Age/_/Smooth+Sailing'
p224
S'1395753037'
p225
tp226
a(S'Queens of the Stone Age'
p227
S'No One Knows'
p228
S'http://www.last.fm/music/Queens+of+the+Stone+Age/_/No+One+Knows'
p229
S'1395752745'
p230
tp231
a(S'Stone Temple Pilots'
p232
S'Peacoat'
p233
S'http://www.last.fm/music/Stone+Temple+Pilots/_/Peacoat'
p234
S'1395752466'
p235
tp236
a(S'Stone Temple Pilots'
p237
S'Transmissions From a Lonely Room'
p238
S'http://www.last.fm/music/Stone+Temple+Pilots/_/Transmissions+From+a+Lonely+Room'
p239
S'1395752256'
p240
tp241
a(S'Soundgarden'
p242
S'Hands All Over'
p243
S'http://www.last.fm/music/Soundgarden/_/Hands+All+Over'
p244
S'1395752060'
p245
tp246
a(S'Army Of Anyone'
p247
S'Goodbye'
p248
S'http://www.last.fm/music/Army+Of+Anyone/_/Goodbye'
p249
S'1395751700'
p250
tp251
a(S'Nirvana'
p252
S'In Bloom'
p253
S'http://www.last.fm/music/Nirvana/_/In+Bloom'
p254
S'1395751428'
p255
tp256
a(S'Soundgarden'
p257
S'Limo Wreck'
p258
S'http://www.last.fm/music/Soundgarden/_/Limo+Wreck'
p259
S'1395751173'
p260
tp261
a(S'Live'
p262
S'Transmit Your Love'
p263
S'http://www.last.fm/music/Live/_/Transmit+Your+Love'
p264
S'1395750826'
p265
tp266
a(S'Foo Fighters'
p267
S'Generator'
p268
S'http://www.last.fm/music/Foo+Fighters/_/Generator'
p269
S'1395750550'
p270
tp271
a(S'Bad Religion'
p272
S'Atheist Peace'
p273
S'http://www.last.fm/music/Bad+Religion/_/Atheist+Peace'
p274
S'1395750321'
p275
tp276
a(S'Nirvana'
p277
S'Stay Away'
p278
S'http://www.last.fm/music/Nirvana/_/Stay+Away'
p279
S'1395670943'
p280
tp281
a(S'Foo Fighters'
p282
S'Monkey Wrench'
p283
S'http://www.last.fm/music/Foo+Fighters/_/Monkey+Wrench'
p284
S'1395670731'
p285
tp286
a(S'Queens of the Stone Age'
p287
S'God Is in the Radio'
p288
S'http://www.last.fm/music/Queens+of+the+Stone+Age/_/God+Is+in+the+Radio'
p289
S'1395670499'
p290
tp291
a(S'Stone Temple Pilots'
p292
S'Transmissions From a Lonely Room'
p293
S'http://www.last.fm/music/Stone+Temple+Pilots/_/Transmissions+From+a+Lonely+Room'
p294
S'1395670134'
p295
tp296
a(S'Temple of the Dog'
p297
S'Wooden Jesus'
p298
S'http://www.last.fm/music/Temple+of+the+Dog/_/Wooden+Jesus'
p299
S'1395669899'
p300
tp301
a(S'Bad Religion'
p302
S'A Walk'
p303
S'http://www.last.fm/music/Bad+Religion/_/A+Walk'
p304
S'1395669649'
p305
tp306
a(S'Velvet Revolver'
p307
S'Big Machine'
p308
S'http://www.last.fm/music/Velvet+Revolver/_/Big+Machine'
p309
S'1395669520'
p310
tp311
a(S'Soundgarden'
p312
S'Rusty Cage'
p313
S'http://www.last.fm/music/Soundgarden/_/Rusty+Cage'
p314
S'1395669254'
p315
tp316
a(S'Queens of the Stone Age'
p317
S'Smooth Sailing'
p318
S'http://www.last.fm/music/Queens+of+the+Stone+Age/_/Smooth+Sailing'
p319
S'1395668988'
p320
tp321
a(S'Queens of the Stone Age'
p322
S'Go With the Flow'
p323
S'http://www.last.fm/music/Queens+of+the+Stone+Age/_/Go+With+the+Flow'
p324
S'1395668604'
p325
tp326
a(S'Soundgarden'
p327
S'Fell on Black Days'
p328
S'http://www.last.fm/music/Soundgarden/_/Fell+on+Black+Days'
p329
S'1395668416'
p330
tp331
a(S'Nirvana'
p332
S'Come as You Are'
p333
S'http://www.last.fm/music/Nirvana/_/Come+as+You+Are'
p334
S'1395668134'
p335
tp336
a(S'Bad Religion'
p337
S'At the Mercy of Imbeciles'
p338
S'http://www.last.fm/music/Bad+Religion/_/At+the+Mercy+of+Imbeciles'
p339
S'1395667914'
p340
tp341
a(S'Bad Religion'
p342
S'Inner Logic'
p343
S'http://www.last.fm/music/Bad+Religion/_/Inner+Logic'
p344
S'1395667820'
p345
tp346
a(S'Bad Religion'
p347
S'Nobody Listens'
p348
S'http://www.last.fm/music/Bad+Religion/_/Nobody+Listens'
p349
S'1395667642'
p350
tp351
a(S'Alice in Chains'
p352
S'Private Hell'
p353
S'http://www.last.fm/music/Alice+in+Chains/_/Private+Hell'
p354
S'1395667525'
p355
tp356
a(S'Live'
p357
S'Lighthouse'
p358
S'http://www.last.fm/music/Live/_/Lighthouse'
p359
S'1395667186'
p360
tp361
a(S'Alice in Chains'
p362
S'Lesson Learned'
p363
S'http://www.last.fm/music/Alice+in+Chains/_/Lesson+Learned'
p364
S'1395666122'
p365
tp366
a(S'Live'
p367
S'Stage'
p368
S'http://www.last.fm/music/Live/_/Stage'
p369
S'1395663231'
p370
tp371
a(S'Bad Religion'
p372
S'Tiny Voices'
p373
S'http://www.last.fm/music/Bad+Religion/_/Tiny+Voices'
p374
S'1395663043'
p375
tp376
a(S'Alice in Chains'
p377
S'Take Her Out'
p378
S'http://www.last.fm/music/Alice+in+Chains/_/Take+Her+Out'
p379
S'1395662886'
p380
tp381
a(S'Stone Temple Pilots'
p382
S'Lounge Fly'
p383
S'http://www.last.fm/music/Stone+Temple+Pilots/_/Lounge+Fly'
p384
S'1395662563'
p385
tp386
a(S'Stone Temple Pilots'
p387
S'Adhesive'
p388
S'http://www.last.fm/music/Stone+Temple+Pilots/_/Adhesive'
p389
S'1395662244'
p390
tp391
a(S'Bad Religion'
p392
S'Portrait of Authority'
p393
S'http://www.last.fm/music/Bad+Religion/_/Portrait+of+Authority'
p394
S'1395407148'
p395
tp396
a(S'Stone Temple Pilots'
p397
S'Too Cool Queenie'
p398
S'http://www.last.fm/music/Stone+Temple+Pilots/_/Too+Cool+Queenie'
p399
S'1395406983'
p400
tp401
a(S'Stone Temple Pilots'
p402
S'Daisy'
p403
S'http://www.last.fm/music/Stone+Temple+Pilots/_/Daisy'
p404
S'1395406816'
p405
tp406
a(S'Foo Fighters'
p407
S'Resolve'
p408
S'http://www.last.fm/music/Foo+Fighters/_/Resolve'
p409
S'1395406674'
p410
tp411
a(S'Stone Temple Pilots'
p412
S'And So I Know'
p413
S'http://www.last.fm/music/Stone+Temple+Pilots/_/And+So+I+Know'
p414
S'1395406385'
p415
tp416
a(S'Soundgarden'
p417
S'Fell on Black Days'
p418
S'http://www.last.fm/music/Soundgarden/_/Fell+on+Black+Days'
p419
S'1395406147'
p420
tp421
a(S'Velvet Revolver'
p422
S'Slither'
p423
S'http://www.last.fm/music/Velvet+Revolver/_/Slither'
p424
S'1395405865'
p425
tp426
a(S'Stone Temple Pilots'
p427
S'Pruno'
p428
S'http://www.last.fm/music/Stone+Temple+Pilots/_/Pruno'
p429
S'1395405605'
p430
tp431
a(S'Stone Temple Pilots'
p432
S'Silvergun Superman'
p433
S'http://www.last.fm/music/Stone+Temple+Pilots/_/Silvergun+Superman'
p434
S'1395405410'
p435
tp436
a(S'Live'
p437
S'River Town'
p438
S'http://www.last.fm/music/Live/_/River+Town'
p439
S'1395354311'
p440
tp441
a(S'Live'
p442
S'Transmit Your Love'
p443
S'http://www.last.fm/music/Live/_/Transmit+Your+Love'
p444
S'1395354181'
p445
tp446
a(S'Temple of the Dog'
p447
S'Reach Down'
p448
S'http://www.last.fm/music/Temple+of+the+Dog/_/Reach+Down'
p449
S'1395353905'
p450
tp451
a(S'Army Of Anyone'
p452
S'A Better Place'
p453
S'http://www.last.fm/music/Army+Of+Anyone/_/A+Better+Place'
p454
S'1395353217'
p455
tp456
a(S'Stone Temple Pilots'
p457
S'Still Remains'
p458
S'http://www.last.fm/music/Stone+Temple+Pilots/_/Still+Remains'
p459
S'1395352918'
p460
tp461
a(S'Soundgarden'
p462
S'Taree'
p463
S'http://www.last.fm/music/Soundgarden/_/Taree'
p464
S'1395351595'
p465
tp466
a(S'Stone Temple Pilots'
p467
S'Unglued'
p468
S'http://www.last.fm/music/Stone+Temple+Pilots/_/Unglued'
p469
S'1395351323'
p470
tp471
a(S'Stone Temple Pilots'
p472
S'Take a Load Off'
p473
S'http://www.last.fm/music/Stone+Temple+Pilots/_/Take+a+Load+Off'
p474
S'1395351168'
p475
tp476
a(S'Soundgarden'
p477
S'Rowing'
p478
S'http://www.last.fm/music/Soundgarden/_/Rowing'
p479
S'1395350977'
p480
tp481
a(S'Live'
p482
S'The Distance'
p483
S'http://www.last.fm/music/Live/_/The+Distance'
p484
S'1395350670'
p485
tp486
a(S'Velvet Revolver'
p487
S'Superhuman'
p488
S'http://www.last.fm/music/Velvet+Revolver/_/Superhuman'
p489
S'1395350429'
p490
tp491
a(S'Stone Temple Pilots'
p492
S'Daisy'
p493
S'http://www.last.fm/music/Stone+Temple+Pilots/_/Daisy'
p494
S'1395349643'
p495
tp496
a(S'Stone Temple Pilots'
p497
S'Big Bang Baby'
p498
S'http://www.last.fm/music/Stone+Temple+Pilots/_/Big+Bang+Baby'
p499
S'1395349461'
p500
tp501
a(S'Bad Religion'
p502
S'Tiny Voices'
p503
S'http://www.last.fm/music/Bad+Religion/_/Tiny+Voices'
p504
S'1395349257'
p505
tp506
a(S'Bad Religion'
p507
S'The Empire Strikes First'
p508
S'http://www.last.fm/music/Bad+Religion/_/The+Empire+Strikes+First'
p509
S'1395349100'
p510
tp511
a(S'Stone Temple Pilots'
p512
S'Take a Load Off'
p513
S'http://www.last.fm/music/Stone+Temple+Pilots/_/Take+a+Load+Off'
p514
S'1395336610'
p515
tp516
a(S'Velvet Revolver'
p517
S'She Builds Quick Machines'
p518
S'http://www.last.fm/music/Velvet+Revolver/_/She+Builds+Quick+Machines'
p519
S'1395336418'
p520
tp521
a(S'Stone Temple Pilots'
p522
S'Adhesive'
p523
S'http://www.last.fm/music/Stone+Temple+Pilots/_/Adhesive'
p524
S'1394826743'
p525
tp526
a(S'Temple of the Dog'
p527
S'Hunger Strike'
p528
S'http://www.last.fm/music/Temple+of+the+Dog/_/Hunger+Strike'
p529
S'1394826409'
p530
tp531
a(S'Live'
p532
S'Mirror Song'
p533
S'http://www.last.fm/music/Live/_/Mirror+Song'
p534
S'1394826165'
p535
tp536
a(S'Alice in Chains'
p537
S'Voices'
p538
S'http://www.last.fm/music/Alice+in+Chains/_/Voices'
p539
S'1394825946'
p540
tp541
a(S'Army Of Anyone'
p542
S'A Better Place'
p543
S'http://www.last.fm/music/Army+Of+Anyone/_/A+Better+Place'
p544
S'1394825604'
p545
tp546
a(S'Stone Temple Pilots'
p547
S'Too Cool Queenie'
p548
S'http://www.last.fm/music/Stone+Temple+Pilots/_/Too+Cool+Queenie'
p549
S'1394825305'
p550
tp551
a(S'Queens of the Stone Age'
p552
S'Smooth Sailing'
p553
S'http://www.last.fm/music/Queens+of+the+Stone+Age/_/Smooth+Sailing'
p554
S'1394825130'
p555
tp556
a(S'Velvet Revolver'
p557
S'You Got No Right'
p558
S'http://www.last.fm/music/Velvet+Revolver/_/You+Got+No+Right'
p559
S'1394824724'
p560
tp561
a(S'Queens of the Stone Age'
p562
S'Go With the Flow'
p563
S'http://www.last.fm/music/Queens+of+the+Stone+Age/_/Go+With+the+Flow'
p564
S'1394808485'
p565
tp566
a(S'Foo Fighters'
p567
S'Learn to Fly'
p568
S'http://www.last.fm/music/Foo+Fighters/_/Learn+to+Fly'
p569
S'1394808298'
p570
tp571
a(S'Soundgarden'
p572
S'My Wave'
p573
S'http://www.last.fm/music/Soundgarden/_/My+Wave'
p574
S'1394808063'
p575
tp576
a(S'Nirvana'
p577
S'In Bloom'
p578
S'http://www.last.fm/music/Nirvana/_/In+Bloom'
p579
S'1394806515'
p580
tp581
a(S'Live'
p582
S'The Distance'
p583
S'http://www.last.fm/music/Live/_/The+Distance'
p584
S'1394806260'
p585
tp586
a(S'Soundgarden'
p587
S'Attrition'
p588
S'http://www.last.fm/music/Soundgarden/_/Attrition'
p589
S'1394805875'
p590
tp591
a(S'Them Crooked Vultures'
p592
S'Dead End Friends'
p593
S'http://www.last.fm/music/Them+Crooked+Vultures/_/Dead+End+Friends'
p594
S'1394805703'
p595
tp596
a(S'Temple of the Dog'
p597
S'Call Me A Dog'
p598
S'http://www.last.fm/music/Temple+of+the+Dog/_/Call+Me+A+Dog'
p599
S'1394805507'
p600
tp601
a(S'Soundgarden'
p602
S'Taree'
p603
S'http://www.last.fm/music/Soundgarden/_/Taree'
p604
S'1394805112'
p605
tp606
a(S'Them Crooked Vultures'
p607
S'Gunman'
p608
S'http://www.last.fm/music/Them+Crooked+Vultures/_/Gunman'
p609
S'1394804893'
p610
tp611
a(S'Bad Religion'
p612
S'Social Suicide'
p613
S'http://www.last.fm/music/Bad+Religion/_/Social+Suicide'
p614
S'1394804582'
p615
tp616
a(S'Bad Religion'
p617
S'American Jesus'
p618
S'http://www.last.fm/music/Bad+Religion/_/American+Jesus'
p619
S'1394804091'
p620
tp621
a(S'Live'
p622
S'River Town'
p623
S'http://www.last.fm/music/Live/_/River+Town'
p624
S'1394803152'
p625
tp626
a(S'Army Of Anyone'
p627
S'Non Stop'
p628
S'http://www.last.fm/music/Army+Of+Anyone/_/Non+Stop'
p629
S'1394802903'
p630
tp631
a(S'Talk Show'
p632
S'Hello Hello'
p633
S'http://www.last.fm/music/Talk+Show/_/Hello+Hello'
p634
S'1394802664'
p635
tp636
a(S'Stone Temple Pilots'
p637
S'Pruno'
p638
S'http://www.last.fm/music/Stone+Temple+Pilots/_/Pruno'
p639
S'1394802487'
p640
tp641
a(S'Temple of the Dog'
p642
S'Call Me A Dog'
p643
S'http://www.last.fm/music/Temple+of+the+Dog/_/Call+Me+A+Dog'
p644
S'1394802292'
p645
tp646
a(S'Foo Fighters'
p647
S'Everlong'
p648
S'http://www.last.fm/music/Foo+Fighters/_/Everlong'
p649
S'1394801989'
p650
tp651
a(S'Army Of Anyone'
p652
S'Generation'
p653
S'http://www.last.fm/music/Army+Of+Anyone/_/Generation'
p654
S'1394801738'
p655
tp656
a(S'Live'
p657
S'Mirror Song'
p658
S'http://www.last.fm/music/Live/_/Mirror+Song'
p659
S'1394801527'
p660
tp661
a(S'Foo Fighters'
p662
S'No Way Back'
p663
S'http://www.last.fm/music/Foo+Fighters/_/No+Way+Back'
p664
S'1394801309'
p665
tp666
a(S'Soundgarden'
p667
S'Superunknown'
p668
S'http://www.last.fm/music/Soundgarden/_/Superunknown'
p669
S'1394801112'
p670
tp671
a(S'Foo Fighters'
p672
S'Hell'
p673
S'http://www.last.fm/music/Foo+Fighters/_/Hell'
p674
S'1394800806'
p675
tp676
a(S'Live'
p677
S'Out To Dry'
p678
S'http://www.last.fm/music/Live/_/Out+To+Dry'
p679
S'1394800689'
p680
tp681
a(S'Alice in Chains'
p682
S'Your Decision'
p683
S'http://www.last.fm/music/Alice+in+Chains/_/Your+Decision'
p684
S'1394800488'
p685
tp686
a(S'Stone Temple Pilots'
p687
S'Still Remains'
p688
S'http://www.last.fm/music/Stone+Temple+Pilots/_/Still+Remains'
p689
S'1394746254'
p690
tp691
a(S'Live'
p692
S'The Distance'
p693
S'http://www.last.fm/music/Live/_/The+Distance'
p694
S'1394746084'
p695
tp696
a(S'Bad Religion'
p697
S'Punk Rock Song'
p698
S'http://www.last.fm/music/Bad+Religion/_/Punk+Rock+Song'
p699
S'1394745853'
p700
tp701
a(S'Foo Fighters'
p702
S'Monkey Wrench'
p703
S'http://www.last.fm/music/Foo+Fighters/_/Monkey+Wrench'
p704
S'1394745705'
p705
tp706
a(S'Soundgarden'
p707
S'Rowing'
p708
S'http://www.last.fm/music/Soundgarden/_/Rowing'
p709
S'1394745474'
p710
tp711
a(S'Temple of the Dog'
p712
S'Four Walled World'
p713
S'http://www.last.fm/music/Temple+of+the+Dog/_/Four+Walled+World'
p714
S'1394745167'
p715
tp716
a(S'Soundgarden'
p717
S'Attrition'
p718
S'http://www.last.fm/music/Soundgarden/_/Attrition'
p719
S'1394744753'
p720
tp721
a(S'Alice in Chains'
p722
S'Take Her Out'
p723
S'http://www.last.fm/music/Alice+in+Chains/_/Take+Her+Out'
p724
S'1394744581'
p725
tp726
a(S'Velvet Revolver'
p727
S'Headspace'
p728
S'http://www.last.fm/music/Velvet+Revolver/_/Headspace'
p729
S'1394744313'
p730
tp731
a(S'Foo Fighters'
p732
S'Learn to Fly'
p733
S'http://www.last.fm/music/Foo+Fighters/_/Learn+to+Fly'
p734
S'1394744090'
p735
tp736
a(S'Foo Fighters'
p737
S'Generator'
p738
S'http://www.last.fm/music/Foo+Fighters/_/Generator'
p739
S'1394743850'
p740
tp741
a(S'Alice in Chains'
p742
S'Acid Bubble'
p743
S'http://www.last.fm/music/Alice+in+Chains/_/Acid+Bubble'
p744
S'1394743634'
p745
tp746
a(S'Alice in Chains'
p747
S'Private Hell'
p748
S'http://www.last.fm/music/Alice+in+Chains/_/Private+Hell'
p749
S'1394743217'
p750
tp751
a(S'Live'
p752
S'Deep Enough (Remix)'
p753
S'http://www.last.fm/music/Live/_/Deep+Enough+(Remix)'
p754
S'1394742844'
p755
tp756
a(S'Queens of the Stone Age'
p757
S'Go With the Flow'
p758
S'http://www.last.fm/music/Queens+of+the+Stone+Age/_/Go+With+the+Flow'
p759
S'1394742653'
p760
tp761
a(S'Alice in Chains'
p762
S'Breath on a Window'
p763
S'http://www.last.fm/music/Alice+in+Chains/_/Breath+on+a+Window'
p764
S'1394742459'
p765
tp766
a(S'Bad Religion'
p767
S'Stranger Than Fiction'
p768
S'http://www.last.fm/music/Bad+Religion/_/Stranger+Than+Fiction'
p769
S'1394742113'
p770
tp771
a(S'Alice in Chains'
p772
S'Lesson Learned'
p773
S'http://www.last.fm/music/Alice+in+Chains/_/Lesson+Learned'
p774
S'1394741936'
p775
tp776
a(S'Nirvana'
p777
S'Come as You Are'
p778
S'http://www.last.fm/music/Nirvana/_/Come+as+You+Are'
p779
S'1394741249'
p780
tp781
a(S'Talk Show'
p782
S'Hello Hello'
p783
S'http://www.last.fm/music/Talk+Show/_/Hello+Hello'
p784
S'1394741030'
p785
tp786
a(S'Queens of the Stone Age'
p787
S"Someone's in the Wolf"
p788
S'http://www.last.fm/music/Queens+of+the+Stone+Age/_/Someone%27s+in+the+Wolf'
p789
S'1394740850'
p790
tp791
a(S'Nirvana'
p792
S'Lithium'
p793
S'http://www.last.fm/music/Nirvana/_/Lithium'
p794
S'1394740522'
p795
tp796
a(S'Stone Temple Pilots'
p797
S'Lounge Fly'
p798
S'http://www.last.fm/music/Stone+Temple+Pilots/_/Lounge+Fly'
p799
S'1394740265'
p800
tp801
a(S'Live'
p802
S'Sweet Release'
p803
S'http://www.last.fm/music/Live/_/Sweet+Release'
p804
S'1394739946'
p805
tp806
a(S'Live'
p807
S'Out To Dry'
p808
S'http://www.last.fm/music/Live/_/Out+To+Dry'
p809
S'1394739763'
p810
tp811
a(S'Soundgarden'
p812
S'Superunknown'
p813
S'http://www.last.fm/music/Soundgarden/_/Superunknown'
p814
S'1394739563'
p815
tp816
a(S'Queens of the Stone Age'
p817
S'Everybody Knows That You Are Insane'
p818
S'http://www.last.fm/music/Queens+of+the+Stone+Age/_/Everybody+Knows+That+You+Are+Insane'
p819
S'1394739129'
p820
tp821
a(S'Army Of Anyone'
p822
S'A Better Place'
p823
S'http://www.last.fm/music/Army+Of+Anyone/_/A+Better+Place'
p824
S'1394738874'
p825
tp826
a(S'Stone Temple Pilots'
p827
S'Sex Type Thing'
p828
S'http://www.last.fm/music/Stone+Temple+Pilots/_/Sex+Type+Thing'
p829
S'1394736536'
p830
tp831
a(S'Live'
p832
S'Iris'
p833
S'http://www.last.fm/music/Live/_/Iris'
p834
S'1394736317'
p835
tp836
a(S'Queens of the Stone Age'
p837
S'God Is in the Radio'
p838
S'http://www.last.fm/music/Queens+of+the+Stone+Age/_/God+Is+in+the+Radio'
p839
S'1394736077'
p840
tp841
a(S'Live'
p842
S'Simple Creed'
p843
S'http://www.last.fm/music/Live/_/Simple+Creed'
p844
S'1394735712'
p845
tp846
a(S'Live'
p847
S'All Over You'
p848
S'http://www.last.fm/music/Live/_/All+Over+You'
p849
S'1394735507'
p850
tp851
a(S'Bad Religion'
p852
S'What It Is'
p853
S'http://www.last.fm/music/Bad+Religion/_/What+It+Is'
p854
S'1394735267'
p855
tp856
a(S'Stone Temple Pilots'
p857
S'Peacoat'
p858
S'http://www.last.fm/music/Stone+Temple+Pilots/_/Peacoat'
p859
S'1394735138'
p860
tp861
a(S'Pearl Jam'
p862
S'Rats'
p863
S'http://www.last.fm/music/Pearl+Jam/_/Rats'
p864
S'1394734928'
p865
tp866
a(S'Velvet Revolver'
p867
S'Big Machine'
p868
S'http://www.last.fm/music/Velvet+Revolver/_/Big+Machine'
p869
S'1394734673'
p870
tp871
a(S'Stone Temple Pilots'
p872
S'Seven Caged Tigers'
p873
S'http://www.last.fm/music/Stone+Temple+Pilots/_/Seven+Caged+Tigers'
p874
S'1394734407'
p875
tp876
a(S'Nirvana'
p877
S'Stay Away'
p878
S'http://www.last.fm/music/Nirvana/_/Stay+Away'
p879
S'1394734150'
p880
tp881
a(S'Army Of Anyone'
p882
S'Non Stop'
p883
S'http://www.last.fm/music/Army+Of+Anyone/_/Non+Stop'
p884
S'1394733937'
p885
tp886
a(S'Foo Fighters'
p887
S'Walk'
p888
S'http://www.last.fm/music/Foo+Fighters/_/Walk'
p889
S'1394565575'
p890
tp891
a(S'Army Of Anyone'
p892
S'Goodbye'
p893
S'http://www.last.fm/music/Army+Of+Anyone/_/Goodbye'
p894
S'1394564819'
p895
tp896
a(S'Soundgarden'
p897
S'Limo Wreck'
p898
S'http://www.last.fm/music/Soundgarden/_/Limo+Wreck'
p899
S'1394563702'
p900
tp901
a(S'Foo Fighters'
p902
S'Disenchanted Lullaby'
p903
S'http://www.last.fm/music/Foo+Fighters/_/Disenchanted+Lullaby'
p904
S'1394563355'
p905
tp906
a(S'Stone Temple Pilots'
p907
S"Trippin' on a Hole in a Paper Heart"
p908
S'http://www.last.fm/music/Stone+Temple+Pilots/_/Trippin%27+on+a+Hole+in+a+Paper+Heart'
p909
S'1394563081'
p910
tp911
a(S'Bad Religion'
p912
S'The Empire Strikes First'
p913
S'http://www.last.fm/music/Bad+Religion/_/The+Empire+Strikes+First'
p914
S'1394562905'
p915
tp916
a(S'Live'
p917
S'Waterboy'
p918
S'http://www.last.fm/music/Live/_/Waterboy'
p919
S'1394562701'
p920
tp921
a(S'Queens of the Stone Age'
p922
S'Little Sister'
p923
S'http://www.last.fm/music/Queens+of+the+Stone+Age/_/Little+Sister'
p924
S'1394562513'
p925
tp926
a(S'Velvet Revolver'
p927
S'You Got No Right'
p928
S'http://www.last.fm/music/Velvet+Revolver/_/You+Got+No+Right'
p929
S'1394562339'
p930
tp931
a(S'Army Of Anyone'
p932
S'Generation'
p933
S'http://www.last.fm/music/Army+Of+Anyone/_/Generation'
p934
S'1394562003'
p935
tp936
a(S'Nirvana'
p937
S'Stay Away'
p938
S'http://www.last.fm/music/Nirvana/_/Stay+Away'
p939
S'1394561792'
p940
tp941
a(S'Jerry Cantrell'
p942
S'Angel Eyes'
p943
S'http://www.last.fm/music/Jerry+Cantrell/_/Angel+Eyes'
p944
S'1394561580'
p945
tp946
a(S'Bad Religion'
p947
S'Inner Logic'
p948
S'http://www.last.fm/music/Bad+Religion/_/Inner+Logic'
p949
S'1394561295'
p950
tp951
a(S'Bad Religion'
p952
S'A Walk'
p953
S'http://www.last.fm/music/Bad+Religion/_/A+Walk'
p954
S'1394561117'
p955
tp956
a(S'Live'
p957
S'Like I Do'
p958
S'http://www.last.fm/music/Live/_/Like+I+Do'
p959
S'1394560988'
p960
tp961
a(S'Bad Religion'
p962
S'Raise Your Voice!'
p963
S'http://www.last.fm/music/Bad+Religion/_/Raise+Your+Voice!'
p964
S'1394560733'
p965
tp966
a(S'Temple of the Dog'
p967
S'Hunger Strike'
p968
S'http://www.last.fm/music/Temple+of+the+Dog/_/Hunger+Strike'
p969
S'1394560553'
p970
tp971
a(S'Soundgarden'
p972
S'Fresh Tendrils'
p973
S'http://www.last.fm/music/Soundgarden/_/Fresh+Tendrils'
p974
S'1394560345'
p975
tp976
a(S'Queens of the Stone Age'
p977
S'Everybody Knows That You Are Insane'
p978
S'http://www.last.fm/music/Queens+of+the+Stone+Age/_/Everybody+Knows+That+You+Are+Insane'
p979
S'1394560089'
p980
tp981
a(S'Alice in Chains'
p982
S'Your Decision'
p983
S'http://www.last.fm/music/Alice+in+Chains/_/Your+Decision'
p984
S'1394559834'
p985
tp986
a(S'Talk Show'
p987
S'Hello Hello'
p988
S'http://www.last.fm/music/Talk+Show/_/Hello+Hello'
p989
S'1394559551'
p990
tp991
a(S'Soundgarden'
p992
S'The Day I Tried to Live'
p993
S'http://www.last.fm/music/Soundgarden/_/The+Day+I+Tried+to+Live'
p994
S'1394559373'
p995
tp996
a(S'Live'
p997
S'The Distance'
p998
S'http://www.last.fm/music/Live/_/The+Distance'
p999
S'1394559054'
p1000
tp1001
a.