(lp1
(S'Soundgarden'
p2
S'Switch Opens'
p3
S'http://www.last.fm/music/Soundgarden/_/Switch+Opens'
p4
S'1349958101'
p5
tp6
a(S'Alice in Chains'
p7
S'Lesson Learned'
p8
S'http://www.last.fm/music/Alice+in+Chains/_/Lesson+Learned'
p9
S'1349904131'
p10
tp11
a(S'Temple of the Dog'
p12
S'Hunger Strike'
p13
S'http://www.last.fm/music/Temple+of+the+Dog/_/Hunger+Strike'
p14
S'1349903887'
p15
tp16
a(S'Stone Temple Pilots'
p17
S'Peacoat'
p18
S'http://www.last.fm/music/Stone+Temple+Pilots/_/Peacoat'
p19
S'1349902762'
p20
tp21
a(S'Stone Temple Pilots'
p22
VHello it\u2019s Late
p23
S'http://www.last.fm/music/Stone+Temple+Pilots/_/Hello+it%E2%80%99s+Late'
p24
S'1349895454'
p25
tp26
a(S'Jerry Cantrell'
p27
S'Satisfy'
p28
S'http://www.last.fm/music/Jerry+Cantrell/_/Satisfy'
p29
S'1349895239'
p30
tp31
a(S'Foo Fighters'
p32
S'Resolve'
p33
S'http://www.last.fm/music/Foo+Fighters/_/Resolve'
p34
S'1349894950'
p35
tp36
a(S'Alice in Chains'
p37
S'Right Turn'
p38
S'http://www.last.fm/music/Alice+in+Chains/_/Right+Turn'
p39
S'1349894752'
p40
tp41
a(S'Soundgarden'
p42
S'Holy Water'
p43
S'http://www.last.fm/music/Soundgarden/_/Holy+Water'
p44
S'1349894445'
p45
tp46
a(S'Stone Temple Pilots'
p47
S'Seven Caged Tigers'
p48
S'http://www.last.fm/music/Stone+Temple+Pilots/_/Seven+Caged+Tigers'
p49
S'1349894188'
p50
tp51
a(S'Talk Show'
p52
S'Hide'
p53
S'http://www.last.fm/music/Talk+Show/_/Hide'
p54
S'1349893978'
p55
tp56
a(S'Stone Temple Pilots'
p57
S'Huckleberry Crumble'
p58
S'http://www.last.fm/music/Stone+Temple+Pilots/_/Huckleberry+Crumble'
p59
S'1349873994'
p60
tp61
a(S'Live'
p62
S'Deep Enough (Remix)'
p63
S'http://www.last.fm/music/Live/_/Deep+Enough+(Remix)'
p64
S'1349873802'
p65
tp66
a(S'Temple of the Dog'
p67
S'Pushin Forward Back'
p68
S'http://www.last.fm/music/Temple+of+the+Dog/_/Pushin+Forward+Back'
p69
S'1349873578'
p70
tp71
a(S'Mother Love Bone'
p72
S'Mindshaker Meltdown'
p73
S'http://www.last.fm/music/Mother+Love+Bone/_/Mindshaker+Meltdown'
p74
S'1349873351'
p75
tp76
a(S'Stone Temple Pilots'
p77
S'Take a Load Off'
p78
S'http://www.last.fm/music/Stone+Temple+Pilots/_/Take+a+Load+Off'
p79
S'1349872995'
p80
tp81
a(S'Stone Temple Pilots'
p82
S'First Kiss on Mars'
p83
S'http://www.last.fm/music/Stone+Temple+Pilots/_/First+Kiss+on+Mars'
p84
S'1349872811'
p85
tp86
a(S'Bee Gees'
p87
S'E-S-P'
p88
S'http://www.last.fm/music/Bee+Gees/_/E-S-P'
p89
S'1349826759'
p90
tp91
a(S'Bee Gees'
p92
S'The Longest Night'
p93
S'http://www.last.fm/music/Bee+Gees/_/The+Longest+Night'
p94
S'1349826412'
p95
tp96
a(S'The Jacksons'
p97
S'Torture'
p98
S'http://www.last.fm/music/The+Jacksons/_/Torture'
p99
S'1349826114'
p100
tp101
a(S'Dschinghis Khan'
p102
S'Desert Land'
p103
S'http://www.last.fm/music/Dschinghis+Khan/_/Desert+Land'
p104
S'1349825930'
p105
tp106
a(S'Roxette'
p107
S'The Big L.'
p108
S'http://www.last.fm/music/Roxette/_/The+Big+L.'
p109
S'1349825663'
p110
tp111
a(S'Dschinghis Khan'
p112
S'Genghis Khan'
p113
S'http://www.last.fm/music/Dschinghis+Khan/_/Genghis+Khan'
p114
S'1349825455'
p115
tp116
a(S'Brenda Russell'
p117
S'Piano In The Dark'
p118
S'http://www.last.fm/music/Brenda+Russell/_/Piano+In+The+Dark'
p119
S'1349825132'
p120
tp121
a(S'Anita Baker'
p122
S'Sweet Love'
p123
S'http://www.last.fm/music/Anita+Baker/_/Sweet+Love'
p124
S'1349824865'
p125
tp126
a(S'Bee Gees'
p127
S'E-S-P'
p128
S'http://www.last.fm/music/Bee+Gees/_/E-S-P'
p129
S'1349824529'
p130
tp131
a(S'Bryan Adams'
p132
S"When You're Gone"
p133
S'http://www.last.fm/music/Bryan+Adams/_/When+You%27re+Gone'
p134
S'1349824325'
p135
tp136
a(S'Bee Gees'
p137
S'The Longest Night'
p138
S'http://www.last.fm/music/Bee+Gees/_/The+Longest+Night'
p139
S'1349823977'
p140
tp141
a(S'When In Rome'
p142
S'The Promise'
p143
S'http://www.last.fm/music/When+In+Rome/_/The+Promise'
p144
S'1349823757'
p145
tp146
a(VTerence Trent D\u2019Arby
p147
S'Wishing Well'
p148
S'http://www.last.fm/music/Terence+Trent+D%E2%80%99Arby/_/Wishing+Well'
p149
S'1349823527'
p150
tp151
a(S'Roxette'
p152
S'Things Will Never Be the Same'
p153
S'http://www.last.fm/music/Roxette/_/Things+Will+Never+Be+the+Same'
p154
S'1349823261'
p155
tp156
a(S'Bon Jovi'
p157
S'You Give Love a Bad Name'
p158
S'http://www.last.fm/music/Bon+Jovi/_/You+Give+Love+a+Bad+Name'
p159
S'1349822674'
p160
tp161
a(S'Spagna'
p162
S'Easy Lady (original)'
p163
S'http://www.last.fm/music/Spagna/_/Easy+Lady+(original)'
p164
S'1349822382'
p165
tp166
a(S'Starship'
p167
S"Nothing's Gonna Stop Us Now"
p168
S'http://www.last.fm/music/Starship/_/Nothing%27s+Gonna+Stop+Us+Now'
p169
S'1349822106'
p170
tp171
a(S'Bruce Hornsby & the Range'
p172
S'The Way It Is'
p173
S'http://www.last.fm/music/Bruce+Hornsby+&+the+Range/_/The+Way+It+Is'
p174
S'1349821809'
p175
tp176
a(S'Heart'
p177
S'Alone'
p178
S'http://www.last.fm/music/Heart/_/Alone'
p179
S'1349821590'
p180
tp181
a(S'Megadeth'
p182
S'Train of Consequences'
p183
S'http://www.last.fm/music/Megadeth/_/Train+of+Consequences'
p184
S'1349821401'
p185
tp186
a(S'Stone Temple Pilots'
p187
S'Pruno'
p188
S'http://www.last.fm/music/Stone+Temple+Pilots/_/Pruno'
p189
S'1349821207'
p190
tp191
a(S'Alice in Chains'
p192
S'Lesson Learned'
p193
S'http://www.last.fm/music/Alice+in+Chains/_/Lesson+Learned'
p194
S'1349820950'
p195
tp196
a(S'Iron Maiden'
p197
S'Purgatory'
p198
S'http://www.last.fm/music/Iron+Maiden/_/Purgatory'
p199
S'1349820750'
p200
tp201
a(S'Iron Maiden'
p202
S'Rainmaker'
p203
S'http://www.last.fm/music/Iron+Maiden/_/Rainmaker'
p204
S'1349820521'
p205
tp206
a(S'Stone Temple Pilots'
p207
S'Press Play'
p208
S'http://www.last.fm/music/Stone+Temple+Pilots/_/Press+Play'
p209
S'1349820441'
p210
tp211
a(S'Iron Maiden'
p212
S'Prodigal Son'
p213
S'http://www.last.fm/music/Iron+Maiden/_/Prodigal+Son'
p214
S'1349820068'
p215
tp216
a(S'Jerry Cantrell'
p217
S'Keep The Light On'
p218
S'http://www.last.fm/music/Jerry+Cantrell/_/Keep+The+Light+On'
p219
S'1349819736'
p220
tp221
a(S'Jerry Cantrell'
p222
S'Devil By His Side'
p223
S'http://www.last.fm/music/Jerry+Cantrell/_/Devil+By+His+Side'
p224
S'1349819447'
p225
tp226
a(S'Stone Temple Pilots'
p227
S'No Way Out'
p228
S'http://www.last.fm/music/Stone+Temple+Pilots/_/No+Way+Out'
p229
S'1349819124'
p230
tp231
a(S'Metallica'
p232
S'Bad Seed'
p233
S'http://www.last.fm/music/Metallica/_/Bad+Seed'
p234
S'1349818747'
p235
tp236
a(S'Metallica'
p237
S'Of Wolf and Man'
p238
S'http://www.last.fm/music/Metallica/_/Of+Wolf+and+Man'
p239
S'1349817452'
p240
tp241
a(S'Megadeth'
p242
S'Angry Again'
p243
S'http://www.last.fm/music/Megadeth/_/Angry+Again'
p244
S'1349817223'
p245
tp246
a(S'Alice in Chains'
p247
S'Lesson Learned'
p248
S'http://www.last.fm/music/Alice+in+Chains/_/Lesson+Learned'
p249
S'1349816947'
p250
tp251
a(S'Metallica'
p252
S'Hit the Lights'
p253
S'http://www.last.fm/music/Metallica/_/Hit+the+Lights'
p254
S'1349816586'
p255
tp256
a(S'Megadeth'
p257
S'Train of Consequences'
p258
S'http://www.last.fm/music/Megadeth/_/Train+of+Consequences'
p259
S'1349816380'
p260
tp261
a(S'Metallica'
p262
S'Wasting My Hate'
p263
S'http://www.last.fm/music/Metallica/_/Wasting+My+Hate'
p264
S'1349816071'
p265
tp266
a(S'Metallica'
p267
S'Slither'
p268
S'http://www.last.fm/music/Metallica/_/Slither'
p269
S'1349815715'
p270
tp271
a(S'Megadeth'
p272
S'Angry Again'
p273
S'http://www.last.fm/music/Megadeth/_/Angry+Again'
p274
S'1349815486'
p275
tp276
a(S'Stone Temple Pilots'
p277
S'Press Play'
p278
S'http://www.last.fm/music/Stone+Temple+Pilots/_/Press+Play'
p279
S'1349815405'
p280
tp281
a(S'Alice in Chains'
p282
S'Your Decision'
p283
S'http://www.last.fm/music/Alice+in+Chains/_/Your+Decision'
p284
S'1349815122'
p285
tp286
a(S'Metallica'
p287
S'Of Wolf and Man'
p288
S'http://www.last.fm/music/Metallica/_/Of+Wolf+and+Man'
p289
S'1349814865'
p290
tp291
a(S'Jerry Cantrell'
p292
S'Devil By His Side'
p293
S'http://www.last.fm/music/Jerry+Cantrell/_/Devil+By+His+Side'
p294
S'1349806232'
p295
tp296
a(S'Iron Maiden'
p297
S'Prodigal Son'
p298
S'http://www.last.fm/music/Iron+Maiden/_/Prodigal+Son'
p299
S'1349805857'
p300
tp301
a(S'Metallica'
p302
S'Bad Seed'
p303
S'http://www.last.fm/music/Metallica/_/Bad+Seed'
p304
S'1349803969'
p305
tp306
a(S'Jerry Cantrell'
p307
S'Between'
p308
S'http://www.last.fm/music/Jerry+Cantrell/_/Between'
p309
S'1349716885'
p310
tp311
a(S'Metallica'
p312
S'Hit the Lights'
p313
S'http://www.last.fm/music/Metallica/_/Hit+the+Lights'
p314
S'1349716628'
p315
tp316
a(S'Stone Temple Pilots'
p317
S'Sour Girl'
p318
S'http://www.last.fm/music/Stone+Temple+Pilots/_/Sour+Girl'
p319
S'1349716372'
p320
tp321
a(S'Metallica'
p322
S'Of Wolf and Man'
p323
S'http://www.last.fm/music/Metallica/_/Of+Wolf+and+Man'
p324
S'1349716115'
p325
tp326
a(S'Stone Temple Pilots'
p327
S'Press Play'
p328
S'http://www.last.fm/music/Stone+Temple+Pilots/_/Press+Play'
p329
S'1349716034'
p330
tp331
a(S'Metallica'
p332
S'Slither'
p333
S'http://www.last.fm/music/Metallica/_/Slither'
p334
S'1349715721'
p335
tp336
a(S'Stone Temple Pilots'
p337
S'Atlanta'
p338
S'http://www.last.fm/music/Stone+Temple+Pilots/_/Atlanta'
p339
S'1349715402'
p340
tp341
a(S'Iron Maiden'
p342
S'Rainmaker'
p343
S'http://www.last.fm/music/Iron+Maiden/_/Rainmaker'
p344
S'1349715174'
p345
tp346
a(S'Metallica'
p347
S'Wasting My Hate'
p348
S'http://www.last.fm/music/Metallica/_/Wasting+My+Hate'
p349
S'1349714599'
p350
tp351
a(S'Jerry Cantrell'
p352
S'My Song'
p353
S'http://www.last.fm/music/Jerry+Cantrell/_/My+Song'
p354
S'1349714353'
p355
tp356
a(S'Iron Maiden'
p357
S'Prodigal Son'
p358
S'http://www.last.fm/music/Iron+Maiden/_/Prodigal+Son'
p359
S'1349714038'
p360
tp361
a(S'Metallica'
p362
S'Bad Seed'
p363
S'http://www.last.fm/music/Metallica/_/Bad+Seed'
p364
S'1349711538'
p365
tp366
a(S'Metallica'
p367
S'Bad Seed'
p368
S'http://www.last.fm/music/Metallica/_/Bad+Seed'
p369
S'1349711065'
p370
tp371
a(S'Metallica'
p372
S'Hit the Lights'
p373
S'http://www.last.fm/music/Metallica/_/Hit+the+Lights'
p374
S'1349461691'
p375
tp376
a(S'Iron Maiden'
p377
S'Prodigal Son'
p378
S'http://www.last.fm/music/Iron+Maiden/_/Prodigal+Son'
p379
S'1349460736'
p380
tp381
a(S'Iron Maiden'
p382
S'Purgatory'
p383
S'http://www.last.fm/music/Iron+Maiden/_/Purgatory'
p384
S'1349460536'
p385
tp386
a(S'Metallica'
p387
S'Of Wolf and Man'
p388
S'http://www.last.fm/music/Metallica/_/Of+Wolf+and+Man'
p389
S'1349460279'
p390
tp391
a(S'Megadeth'
p392
S'Train of Consequences'
p393
S'http://www.last.fm/music/Megadeth/_/Train+of+Consequences'
p394
S'1349460073'
p395
tp396
a(S'Stone Temple Pilots'
p397
S'Atlanta'
p398
S'http://www.last.fm/music/Stone+Temple+Pilots/_/Atlanta'
p399
S'1349459754'
p400
tp401
a(S'Jerry Cantrell'
p402
S'Devil By His Side'
p403
S'http://www.last.fm/music/Jerry+Cantrell/_/Devil+By+His+Side'
p404
S'1349459465'
p405
tp406
a(S'Stone Temple Pilots'
p407
S'Pruno'
p408
S'http://www.last.fm/music/Stone+Temple+Pilots/_/Pruno'
p409
S'1349459270'
p410
tp411
a(S'Jerry Cantrell'
p412
S'My Song'
p413
S'http://www.last.fm/music/Jerry+Cantrell/_/My+Song'
p414
S'1349459024'
p415
tp416
a(S'Metallica'
p417
S'Slither'
p418
S'http://www.last.fm/music/Metallica/_/Slither'
p419
S'1349458586'
p420
tp421
a(S'Metallica'
p422
S'Bad Seed'
p423
S'http://www.last.fm/music/Metallica/_/Bad+Seed'
p424
S'1349458341'
p425
tp426
a(S'Alice in Chains'
p427
S'Lesson Learned'
p428
S'http://www.last.fm/music/Alice+in+Chains/_/Lesson+Learned'
p429
S'1349458084'
p430
tp431
a(S'Megadeth'
p432
S'Angry Again'
p433
S'http://www.last.fm/music/Megadeth/_/Angry+Again'
p434
S'1349457855'
p435
tp436
a(S'Alice in Chains'
p437
S'Lesson Learned'
p438
S'http://www.last.fm/music/Alice+in+Chains/_/Lesson+Learned'
p439
S'1349457493'
p440
tp441
a(S'Metallica'
p442
S'Cyanide'
p443
S'http://www.last.fm/music/Metallica/_/Cyanide'
p444
S'1349456760'
p445
tp446
a(S'Metallica'
p447
S'Of Wolf and Man'
p448
S'http://www.last.fm/music/Metallica/_/Of+Wolf+and+Man'
p449
S'1349456503'
p450
tp451
a(S'Metallica'
p452
S'Slither'
p453
S'http://www.last.fm/music/Metallica/_/Slither'
p454
S'1349456190'
p455
tp456
a(S'Jerry Cantrell'
p457
S'Keep The Light On'
p458
S'http://www.last.fm/music/Jerry+Cantrell/_/Keep+The+Light+On'
p459
S'1349455869'
p460
tp461
a(S'Megadeth'
p462
S'Angry Again'
p463
S'http://www.last.fm/music/Megadeth/_/Angry+Again'
p464
S'1349455640'
p465
tp466
a(S'Stone Temple Pilots'
p467
S'No Way Out'
p468
S'http://www.last.fm/music/Stone+Temple+Pilots/_/No+Way+Out'
p469
S'1349455381'
p470
tp471
a(S'Stone Temple Pilots'
p472
S'Press Play'
p473
S'http://www.last.fm/music/Stone+Temple+Pilots/_/Press+Play'
p474
S'1349455300'
p475
tp476
a(S'Metallica'
p477
S'Bad Seed'
p478
S'http://www.last.fm/music/Metallica/_/Bad+Seed'
p479
S'1349452355'
p480
tp481
a(S'Iron Maiden'
p482
S'Purgatory'
p483
S'http://www.last.fm/music/Iron+Maiden/_/Purgatory'
p484
S'1349452155'
p485
tp486
a(S'Jerry Cantrell'
p487
S'Devil By His Side'
p488
S'http://www.last.fm/music/Jerry+Cantrell/_/Devil+By+His+Side'
p489
S'1349451866'
p490
tp491
a(S'Stone Temple Pilots'
p492
S'Pruno'
p493
S'http://www.last.fm/music/Stone+Temple+Pilots/_/Pruno'
p494
S'1349447598'
p495
tp496
a(S'Jerry Cantrell'
p497
S'My Song'
p498
S'http://www.last.fm/music/Jerry+Cantrell/_/My+Song'
p499
S'1349447352'
p500
tp501
a(S'Metallica'
p502
S'Holier Than Thou'
p503
S'http://www.last.fm/music/Metallica/_/Holier+Than+Thou'
p504
S'1349446696'
p505
tp506
a(S'Metallica'
p507
S'Wasting My Hate'
p508
S'http://www.last.fm/music/Metallica/_/Wasting+My+Hate'
p509
S'1349446458'
p510
tp511
a(S'Alice in Chains'
p512
S'Lesson Learned'
p513
S'http://www.last.fm/music/Alice+in+Chains/_/Lesson+Learned'
p514
S'1349446182'
p515
tp516
a(S'Alice in Chains'
p517
S'Lesson Learned'
p518
S'http://www.last.fm/music/Alice+in+Chains/_/Lesson+Learned'
p519
S'1349445923'
p520
tp521
a(S'Metallica'
p522
S'Bad Seed'
p523
S'http://www.last.fm/music/Metallica/_/Bad+Seed'
p524
S'1349444657'
p525
tp526
a(S'Metallica'
p527
S'Slither'
p528
S'http://www.last.fm/music/Metallica/_/Slither'
p529
S'1349378779'
p530
tp531
a(S'Jerry Cantrell'
p532
S'My Song'
p533
S'http://www.last.fm/music/Jerry+Cantrell/_/My+Song'
p534
S'1349377869'
p535
tp536
a(S'Megadeth'
p537
S'Seven'
p538
S'http://www.last.fm/music/Megadeth/_/Seven'
p539
S'1349377582'
p540
tp541
a(S'Jerry Cantrell'
p542
S'Dickeye'
p543
S'http://www.last.fm/music/Jerry+Cantrell/_/Dickeye'
p544
S'1349377280'
p545
tp546
a(S'Metallica'
p547
S'The End of the Line'
p548
S'http://www.last.fm/music/Metallica/_/The+End+of+the+Line'
p549
S'1349376807'
p550
tp551
a(S'Metallica'
p552
S'Bad Seed'
p553
S'http://www.last.fm/music/Metallica/_/Bad+Seed'
p554
S'1349375732'
p555
tp556
a(S'Metallica'
p557
S'Bad Seed'
p558
S'http://www.last.fm/music/Metallica/_/Bad+Seed'
p559
S'1349375532'
p560
tp561
a(S'Jerry Cantrell'
p562
S'Devil By His Side'
p563
S'http://www.last.fm/music/Jerry+Cantrell/_/Devil+By+His+Side'
p564
S'1349375178'
p565
tp566
a(S'Jerry Cantrell'
p567
S'Keep The Light On'
p568
S'http://www.last.fm/music/Jerry+Cantrell/_/Keep+The+Light+On'
p569
S'1349374892'
p570
tp571
a(S'Metallica'
p572
S'Wasting My Hate'
p573
S'http://www.last.fm/music/Metallica/_/Wasting+My+Hate'
p574
S'1349374654'
p575
tp576
a(S'Metallica'
p577
S'Holier Than Thou'
p578
S'http://www.last.fm/music/Metallica/_/Holier+Than+Thou'
p579
S'1349373918'
p580
tp581
a(S'Iron Maiden'
p582
S'Prodigal Son'
p583
S'http://www.last.fm/music/Iron+Maiden/_/Prodigal+Son'
p584
S'1349373546'
p585
tp586
a(S'Metallica'
p587
S'The God That Failed'
p588
S'http://www.last.fm/music/Metallica/_/The+God+That+Failed'
p589
S'1349373237'
p590
tp591
a(S'Metallica'
p592
S'2 X 4'
p593
S'http://www.last.fm/music/Metallica/_/2+X+4'
p594
S'1349372308'
p595
tp596
a(S'Metallica'
p597
S'The God That Failed'
p598
S'http://www.last.fm/music/Metallica/_/The+God+That+Failed'
p599
S'1349372000'
p600
tp601
a(S'Metallica'
p602
S'The Shortest Straw'
p603
S'http://www.last.fm/music/Metallica/_/The+Shortest+Straw'
p604
S'1349370961'
p605
tp606
a(S'Iron Maiden'
p607
S'Rainmaker'
p608
S'http://www.last.fm/music/Iron+Maiden/_/Rainmaker'
p609
S'1349370576'
p610
tp611
a(S'Iron Maiden'
p612
S'Prodigal Son'
p613
S'http://www.last.fm/music/Iron+Maiden/_/Prodigal+Son'
p614
S'1349370204'
p615
tp616
a(S'Metallica'
p617
S'Holier Than Thou'
p618
S'http://www.last.fm/music/Metallica/_/Holier+Than+Thou'
p619
S'1349369976'
p620
tp621
a(S'Jerry Cantrell'
p622
S'My Song'
p623
S'http://www.last.fm/music/Jerry+Cantrell/_/My+Song'
p624
S'1349369717'
p625
tp626
a(S'Metallica'
p627
S'Wasting My Hate'
p628
S'http://www.last.fm/music/Metallica/_/Wasting+My+Hate'
p629
S'1349369479'
p630
tp631
a(S'Iron Maiden'
p632
S'The Apparition'
p633
S'http://www.last.fm/music/Iron+Maiden/_/The+Apparition'
p634
S'1349369307'
p635
tp636
a(S'Metallica'
p637
S'Hit the Lights'
p638
S'http://www.last.fm/music/Metallica/_/Hit+the+Lights'
p639
S'1349368986'
p640
tp641
a(S'Iron Maiden'
p642
S'Purgatory'
p643
S'http://www.last.fm/music/Iron+Maiden/_/Purgatory'
p644
S'1349368857'
p645
tp646
a(S'Metallica'
p647
S'Sad But True'
p648
S'http://www.last.fm/music/Metallica/_/Sad+But+True'
p649
S'1349368533'
p650
tp651
a(S'Alice in Chains'
p652
S'Lesson Learned'
p653
S'http://www.last.fm/music/Alice+in+Chains/_/Lesson+Learned'
p654
S'1349360121'
p655
tp656
a(S'Jerry Cantrell'
p657
S'Dickeye'
p658
S'http://www.last.fm/music/Jerry+Cantrell/_/Dickeye'
p659
S'1349359818'
p660
tp661
a(S'Jerry Cantrell'
p662
S'Between'
p663
S'http://www.last.fm/music/Jerry+Cantrell/_/Between'
p664
S'1349359601'
p665
tp666
a(S'Metallica'
p667
S'2 X 4'
p668
S'http://www.last.fm/music/Metallica/_/2+X+4'
p669
S'1349359273'
p670
tp671
a(S'Iron Maiden'
p672
S'Fear of the Dark'
p673
S'http://www.last.fm/music/Iron+Maiden/_/Fear+of+the+Dark'
p674
S'1349358591'
p675
tp676
a(S'Megadeth'
p677
S'Train of Consequences'
p678
S'http://www.last.fm/music/Megadeth/_/Train+of+Consequences'
p679
S'1349358385'
p680
tp681
a(S'Megadeth'
p682
S'Angry Again'
p683
S'http://www.last.fm/music/Megadeth/_/Angry+Again'
p684
S'1349358156'
p685
tp686
a(S'Metallica'
p687
S'The Frayed Ends of Sanity'
p688
S'http://www.last.fm/music/Metallica/_/The+Frayed+Ends+of+Sanity'
p689
S'1349357692'
p690
tp691
a(S'Metallica'
p692
S'Slither'
p693
S'http://www.last.fm/music/Metallica/_/Slither'
p694
S'1349357379'
p695
tp696
a(S'Metallica'
p697
S'Of Wolf and Man'
p698
S'http://www.last.fm/music/Metallica/_/Of+Wolf+and+Man'
p699
S'1349357122'
p700
tp701
a(S'Megadeth'
p702
S'A Secret Place'
p703
S'http://www.last.fm/music/Megadeth/_/A+Secret+Place'
p704
S'1349356797'
p705
tp706
a(S'Metallica'
p707
S'The End of the Line'
p708
S'http://www.last.fm/music/Metallica/_/The+End+of+the+Line'
p709
S'1349355300'
p710
tp711
a(S'Alice in Chains'
p712
S'Your Decision'
p713
S'http://www.last.fm/music/Alice+in+Chains/_/Your+Decision'
p714
S'1349355017'
p715
tp716
a(S'Jerry Cantrell'
p717
S'Keep The Light On'
p718
S'http://www.last.fm/music/Jerry+Cantrell/_/Keep+The+Light+On'
p719
S'1349353625'
p720
tp721
a(S'Jerry Cantrell'
p722
S'Devil By His Side'
p723
S'http://www.last.fm/music/Jerry+Cantrell/_/Devil+By+His+Side'
p724
S'1349295742'
p725
tp726
a(S'Metallica'
p727
S'Bad Seed'
p728
S'http://www.last.fm/music/Metallica/_/Bad+Seed'
p729
S'1349293968'
p730
tp731
a(S'Megadeth'
p732
S'Train of Consequences'
p733
S'http://www.last.fm/music/Megadeth/_/Train+of+Consequences'
p734
S'1349293748'
p735
tp736
a(S'Megadeth'
p737
S'Angry Again'
p738
S'http://www.last.fm/music/Megadeth/_/Angry+Again'
p739
S'1349290578'
p740
tp741
a(S'Metallica'
p742
S'That Was Just Your Life'
p743
S'http://www.last.fm/music/Metallica/_/That+Was+Just+Your+Life'
p744
S'1349290190'
p745
tp746
a(S'Jerry Cantrell'
p747
S'Devil By His Side'
p748
S'http://www.last.fm/music/Jerry+Cantrell/_/Devil+By+His+Side'
p749
S'1349289203'
p750
tp751
a(S'Jerry Cantrell'
p752
S'My Song'
p753
S'http://www.last.fm/music/Jerry+Cantrell/_/My+Song'
p754
S'1349288957'
p755
tp756
a(S'Jerry Cantrell'
p757
S'Between'
p758
S'http://www.last.fm/music/Jerry+Cantrell/_/Between'
p759
S'1349288740'
p760
tp761
a(S'Metallica'
p762
S'The Frayed Ends of Sanity'
p763
S'http://www.last.fm/music/Metallica/_/The+Frayed+Ends+of+Sanity'
p764
S'1349288276'
p765
tp766
a(S'Alice in Chains'
p767
S'Your Decision'
p768
S'http://www.last.fm/music/Alice+in+Chains/_/Your+Decision'
p769
S'1349219266'
p770
tp771
a(S'Metallica'
p772
S'Sad But True'
p773
S'http://www.last.fm/music/Metallica/_/Sad+But+True'
p774
S'1349218942'
p775
tp776
a(S'Metallica'
p777
S'Slither'
p778
S'http://www.last.fm/music/Metallica/_/Slither'
p779
S'1349218628'
p780
tp781
a(S'Megadeth'
p782
S'Seven'
p783
S'http://www.last.fm/music/Megadeth/_/Seven'
p784
S'1349218342'
p785
tp786
a(S'Iron Maiden'
p787
S'Rainmaker'
p788
S'http://www.last.fm/music/Iron+Maiden/_/Rainmaker'
p789
S'1349218114'
p790
tp791
a(S'Jerry Cantrell'
p792
S'Keep The Light On'
p793
S'http://www.last.fm/music/Jerry+Cantrell/_/Keep+The+Light+On'
p794
S'1349217827'
p795
tp796
a(S'Metallica'
p797
S'The Shortest Straw'
p798
S'http://www.last.fm/music/Metallica/_/The+Shortest+Straw'
p799
S'1349217431'
p800
tp801
a(S'Metallica'
p802
S'Wasting My Hate'
p803
S'http://www.last.fm/music/Metallica/_/Wasting+My+Hate'
p804
S'1349217126'
p805
tp806
a(S'Metallica'
p807
S'Bad Seed'
p808
S'http://www.last.fm/music/Metallica/_/Bad+Seed'
p809
S'1349216813'
p810
tp811
a(S'Jerry Cantrell'
p812
S'Keep The Light On'
p813
S'http://www.last.fm/music/Jerry+Cantrell/_/Keep+The+Light+On'
p814
S'1349216231'
p815
tp816
a(S'Metallica'
p817
S'The End of the Line'
p818
S'http://www.last.fm/music/Metallica/_/The+End+of+the+Line'
p819
S'1349214394'
p820
tp821
a(S'Metallica'
p822
S'Bad Seed'
p823
S'http://www.last.fm/music/Metallica/_/Bad+Seed'
p824
S'1349214148'
p825
tp826
a(S'Megadeth'
p827
S'Angry Again'
p828
S'http://www.last.fm/music/Megadeth/_/Angry+Again'
p829
S'1349213919'
p830
tp831
a(S'Jerry Cantrell'
p832
S'Keep The Light On'
p833
S'http://www.last.fm/music/Jerry+Cantrell/_/Keep+The+Light+On'
p834
S'1349213633'
p835
tp836
a(S'Jerry Cantrell'
p837
S'Dickeye'
p838
S'http://www.last.fm/music/Jerry+Cantrell/_/Dickeye'
p839
S'1349213330'
p840
tp841
a(S'Megadeth'
p842
S'Train of Consequences'
p843
S'http://www.last.fm/music/Megadeth/_/Train+of+Consequences'
p844
S'1349213123'
p845
tp846
a(S'Alice in Chains'
p847
S'Lesson Learned'
p848
S'http://www.last.fm/music/Alice+in+Chains/_/Lesson+Learned'
p849
S'1349212818'
p850
tp851
a(S'Alice in Chains'
p852
S'Lesson Learned'
p853
S'http://www.last.fm/music/Alice+in+Chains/_/Lesson+Learned'
p854
S'1349212615'
p855
tp856
a(S'Metallica'
p857
S'The God That Failed'
p858
S'http://www.last.fm/music/Metallica/_/The+God+That+Failed'
p859
S'1349212306'
p860
tp861
a(S'Jerry Cantrell'
p862
S'Between'
p863
S'http://www.last.fm/music/Jerry+Cantrell/_/Between'
p864
S'1349208024'
p865
tp866
a(S'Jerry Cantrell'
p867
S'My Song'
p868
S'http://www.last.fm/music/Jerry+Cantrell/_/My+Song'
p869
S'1349207778'
p870
tp871
a(S'Metallica'
p872
S'Holier Than Thou'
p873
S'http://www.last.fm/music/Metallica/_/Holier+Than+Thou'
p874
S'1349207551'
p875
tp876
a(S'Metallica'
p877
S'The Shortest Straw'
p878
S'http://www.last.fm/music/Metallica/_/The+Shortest+Straw'
p879
S'1349207155'
p880
tp881
a(S'Metallica'
p882
S'Slither'
p883
S'http://www.last.fm/music/Metallica/_/Slither'
p884
S'1349206842'
p885
tp886
a(S'Megadeth'
p887
S'Seven'
p888
S'http://www.last.fm/music/Megadeth/_/Seven'
p889
S'1349206665'
p890
tp891
a(S'Iron Maiden'
p892
S'The Evil That Men Do'
p893
S'http://www.last.fm/music/Iron+Maiden/_/The+Evil+That+Men+Do'
p894
S'1349201040'
p895
tp896
a(S'Iron Maiden'
p897
S'Prodigal Son'
p898
S'http://www.last.fm/music/Iron+Maiden/_/Prodigal+Son'
p899
S'1349200281'
p900
tp901
a(S'Metallica'
p902
S'The Frayed Ends of Sanity'
p903
S'http://www.last.fm/music/Metallica/_/The+Frayed+Ends+of+Sanity'
p904
S'1349199411'
p905
tp906
a(S'Metallica'
p907
S'Hit the Lights'
p908
S'http://www.last.fm/music/Metallica/_/Hit+the+Lights'
p909
S'1349199153'
p910
tp911
a(S'Alice in Chains'
p912
S'Your Decision'
p913
S'http://www.last.fm/music/Alice+in+Chains/_/Your+Decision'
p914
S'1349198692'
p915
tp916
a(S'Metallica'
p917
S'Cyanide'
p918
S'http://www.last.fm/music/Metallica/_/Cyanide'
p919
S'1349198292'
p920
tp921
a(S'Metallica'
p922
S'Wasting My Hate'
p923
S'http://www.last.fm/music/Metallica/_/Wasting+My+Hate'
p924
S'1349197781'
p925
tp926
a(S'Metallica'
p927
S'Sad But True'
p928
S'http://www.last.fm/music/Metallica/_/Sad+But+True'
p929
S'1349196604'
p930
tp931
a(S'Metallica'
p932
S'Of Wolf and Man'
p933
S'http://www.last.fm/music/Metallica/_/Of+Wolf+and+Man'
p934
S'1349196167'
p935
tp936
a(S'Jerry Cantrell'
p937
S'Devil By His Side'
p938
S'http://www.last.fm/music/Jerry+Cantrell/_/Devil+By+His+Side'
p939
S'1349195519'
p940
tp941
a(S'Metallica'
p942
S'The Frayed Ends of Sanity'
p943
S'http://www.last.fm/music/Metallica/_/The+Frayed+Ends+of+Sanity'
p944
S'1349195050'
p945
tp946
a(S'Iron Maiden'
p947
S'The Apparition'
p948
S'http://www.last.fm/music/Iron+Maiden/_/The+Apparition'
p949
S'1349194324'
p950
tp951
a(S'Metallica'
p952
S'Sad But True'
p953
S'http://www.last.fm/music/Metallica/_/Sad+But+True'
p954
S'1349193999'
p955
tp956
a(S'Metallica'
p957
S'2 X 4'
p958
S'http://www.last.fm/music/Metallica/_/2+X+4'
p959
S'1349193671'
p960
tp961
a(S'Megadeth'
p962
S'A Secret Place'
p963
S'http://www.last.fm/music/Megadeth/_/A+Secret+Place'
p964
S'1349193346'
p965
tp966
a(S'Jerry Cantrell'
p967
S'My Song'
p968
S'http://www.last.fm/music/Jerry+Cantrell/_/My+Song'
p969
S'1349193100'
p970
tp971
a(S'Iron Maiden'
p972
S'The Evil That Men Do'
p973
S'http://www.last.fm/music/Iron+Maiden/_/The+Evil+That+Men+Do'
p974
S'1349192823'
p975
tp976
a(S'Metallica'
p977
S'Holier Than Thou'
p978
S'http://www.last.fm/music/Metallica/_/Holier+Than+Thou'
p979
S'1349192595'
p980
tp981
a(S'Jerry Cantrell'
p982
S'Dickeye'
p983
S'http://www.last.fm/music/Jerry+Cantrell/_/Dickeye'
p984
S'1349192292'
p985
tp986
a(S'Alice in Chains'
p987
S'Your Decision'
p988
S'http://www.last.fm/music/Alice+in+Chains/_/Your+Decision'
p989
S'1349192009'
p990
tp991
a(S'Iron Maiden'
p992
S'Prodigal Son'
p993
S'http://www.last.fm/music/Iron+Maiden/_/Prodigal+Son'
p994
S'1349191637'
p995
tp996
a(S'Metallica'
p997
S'Bad Seed'
p998
S'http://www.last.fm/music/Metallica/_/Bad+Seed'
p999
S'1349191391'
p1000
tp1001
a.