(lp1
(S'Mother Love Bone'
p2
S'Come Bite The Apple'
p3
S'http://www.last.fm/music/Mother+Love+Bone/_/Come+Bite+The+Apple'
p4
S'1175000606'
p5
tp6
a(S'Mother Love Bone'
p7
S'Heartshine'
p8
S'http://www.last.fm/music/Mother+Love+Bone/_/Heartshine'
p9
S'1175000328'
p10
tp11
a(S'Mother Love Bone'
p12
S'Stargazer'
p13
S'http://www.last.fm/music/Mother+Love+Bone/_/Stargazer'
p14
S'1175000035'
p15
tp16
a(S'Mother Love Bone'
p17
S'Mindshaker Meltdown'
p18
S'http://www.last.fm/music/Mother+Love+Bone/_/Mindshaker+Meltdown'
p19
S'1174999809'
p20
tp21
a(S'Mad Season'
p22
S"I'm Above"
p23
S'http://www.last.fm/music/Mad+Season/_/I%27m+Above'
p24
S'1174966852'
p25
tp26
a(S'Mad Season'
p27
S'River of Deceit'
p28
S'http://www.last.fm/music/Mad+Season/_/River+of+Deceit'
p29
S'1174966548'
p30
tp31
a(S'Kyuss'
p32
S'Green Machine'
p33
S'http://www.last.fm/music/Kyuss/_/Green+Machine'
p34
S'1174966330'
p35
tp36
a(S'Alice in Chains'
p37
S'I Stay Away'
p38
S'http://www.last.fm/music/Alice+in+Chains/_/I+Stay+Away'
p39
S'1174966075'
p40
tp41
a(S'Stone Temple Pilots'
p42
S'Coma'
p43
S'http://www.last.fm/music/Stone+Temple+Pilots/_/Coma'
p44
S'1174965854'
p45
tp46
a(S'Stone Temple Pilots'
p47
S'Pruno'
p48
S'http://www.last.fm/music/Stone+Temple+Pilots/_/Pruno'
p49
S'1174965659'
p50
tp51
a(S'Megadeth'
p52
S'Sweating Bullets'
p53
S'http://www.last.fm/music/Megadeth/_/Sweating+Bullets'
p54
S'1174965354'
p55
tp56
a(S'Alice in Chains'
p57
S'Heaven Beside You'
p58
S'http://www.last.fm/music/Alice+in+Chains/_/Heaven+Beside+You'
p59
S'1174965025'
p60
tp61
a(S'Stone Temple Pilots'
p62
S'Atlanta'
p63
S'http://www.last.fm/music/Stone+Temple+Pilots/_/Atlanta'
p64
S'1174964706'
p65
tp66
a(S'Stone Temple Pilots'
p67
S'Still Remains'
p68
S'http://www.last.fm/music/Stone+Temple+Pilots/_/Still+Remains'
p69
S'1174964493'
p70
tp71
a(S'Live'
p72
S'River Town'
p73
S'http://www.last.fm/music/Live/_/River+Town'
p74
S'1174964244'
p75
tp76
a(S'Live'
p77
S'All I Need'
p78
S'http://www.last.fm/music/Live/_/All+I+Need'
p79
S'1174964050'
p80
tp81
a(S'Alice in Chains'
p82
S'God Smack'
p83
S'http://www.last.fm/music/Alice+in+Chains/_/God+Smack'
p84
S'1174963819'
p85
tp86
a(S'Live'
p87
S'You Are Not Alone'
p88
S'http://www.last.fm/music/Live/_/You+Are+Not+Alone'
p89
S'1174963595'
p90
tp91
a(S'Megadeth'
p92
S"Crush 'em"
p93
S'http://www.last.fm/music/Megadeth/_/Crush+%27em'
p94
S'1174963301'
p95
tp96
a(S'Live'
p97
S'Night of Nights'
p98
S'http://www.last.fm/music/Live/_/Night+of+Nights'
p99
S'1174963087'
p100
tp101
a(S'Live'
p102
S'Feel The Quiet River Rage'
p103
S'http://www.last.fm/music/Live/_/Feel+The+Quiet+River+Rage'
p104
S'1174962811'
p105
tp106
a(S'Audioslave'
p107
S'Light My Way'
p108
S'http://www.last.fm/music/Audioslave/_/Light+My+Way'
p109
S'1174962507'
p110
tp111
a(S'Live'
p112
S'I Alone'
p113
S'http://www.last.fm/music/Live/_/I+Alone'
p114
S'1174962276'
p115
tp116
a(S'Live'
p117
S'Simple Creed'
p118
S'http://www.last.fm/music/Live/_/Simple+Creed'
p119
S'1174962071'
p120
tp121
a(S'Stone Temple Pilots'
p122
S'Seven Caged Tigers'
p123
S'http://www.last.fm/music/Stone+Temple+Pilots/_/Seven+Caged+Tigers'
p124
S'1174961814'
p125
tp126
a(S'Stone Temple Pilots'
p127
S'Daisy'
p128
S'http://www.last.fm/music/Stone+Temple+Pilots/_/Daisy'
p129
S'1174961675'
p130
tp131
a(S'Stone Temple Pilots'
p132
S'Transmissions From a Lonely Room'
p133
S'http://www.last.fm/music/Stone+Temple+Pilots/_/Transmissions+From+a+Lonely+Room'
p134
S'1174961480'
p135
tp136
a(S'Alice in Chains'
p137
S'Dam That River'
p138
S'http://www.last.fm/music/Alice+in+Chains/_/Dam+That+River'
p139
S'1174961290'
p140
tp141
a(S'Live'
p142
S'The Sanctity Of Dreams'
p143
S'http://www.last.fm/music/Live/_/The+Sanctity+Of+Dreams'
p144
S'1174961077'
p145
tp146
a(S'Live'
p147
S'Like I Do'
p148
S'http://www.last.fm/music/Live/_/Like+I+Do'
p149
S'1174960822'
p150
tp151
a(S'Live'
p152
S'Sweet Release'
p153
S'http://www.last.fm/music/Live/_/Sweet+Release'
p154
S'1174960640'
p155
tp156
a(S'Live'
p157
S'Lighthouse'
p158
S'http://www.last.fm/music/Live/_/Lighthouse'
p159
S'1174957948'
p160
tp161
a(S'Stone Temple Pilots'
p162
S'Wonderful'
p163
S'http://www.last.fm/music/Stone+Temple+Pilots/_/Wonderful'
p164
S'1174957720'
p165
tp166
a(S'Live'
p167
S'Everytime I See Your Face'
p168
S'http://www.last.fm/music/Live/_/Everytime+I+See+Your+Face'
p169
S'1174957524'
p170
tp171
a(S'Alice in Chains'
p172
S'No Excuses'
p173
S'http://www.last.fm/music/Alice+in+Chains/_/No+Excuses'
p174
S'1174953055'
p175
tp176
a(S'Live'
p177
S'Out To Dry'
p178
S'http://www.last.fm/music/Live/_/Out+To+Dry'
p179
S'1174952855'
p180
tp181
a(S'Alice in Chains'
p182
S'Right Turn'
p183
S'http://www.last.fm/music/Alice+in+Chains/_/Right+Turn'
p184
S'1174952657'
p185
tp186
a(S'Stone Temple Pilots'
p187
S'"Unglued"'
p188
S'http://www.last.fm/music/Stone+Temple+Pilots/_/%22Unglued%22'
p189
S'1174952503'
p190
tp191
a(S'Live'
p192
S'Top'
p193
S'http://www.last.fm/music/Live/_/Top'
p194
S'1174952341'
p195
tp196
a(S'Stone Temple Pilots'
p197
S'Adhesive'
p198
S'http://www.last.fm/music/Stone+Temple+Pilots/_/Adhesive'
p199
S'1174952006'
p200
tp201
a(S'Stone Temple Pilots'
p202
S'Army Ants'
p203
S'http://www.last.fm/music/Stone+Temple+Pilots/_/Army+Ants'
p204
S'1174951780'
p205
tp206
a(S'Live'
p207
S'Transmit Your Love'
p208
S'http://www.last.fm/music/Live/_/Transmit+Your+Love'
p209
S'1174951504'
p210
tp211
a(S'Stone Temple Pilots'
p212
S'Days of the Week'
p213
S'http://www.last.fm/music/Stone+Temple+Pilots/_/Days+of+the+Week'
p214
S'1174951349'
p215
tp216
a(S'Megadeth'
p217
S'Symphony of Destruction'
p218
S'http://www.last.fm/music/Megadeth/_/Symphony+of+Destruction'
p219
S'1174951108'
p220
tp221
a(S'Stone Temple Pilots'
p222
S'Sex Type Thing'
p223
S'http://www.last.fm/music/Stone+Temple+Pilots/_/Sex+Type+Thing'
p224
S'1174950584'
p225
tp226
a(S'Megadeth'
p227
S'Architecture of Aggression'
p228
S'http://www.last.fm/music/Megadeth/_/Architecture+of+Aggression'
p229
S'1174950364'
p230
tp231
a(S'Stone Temple Pilots'
p232
S'Hollywood Bitch'
p233
S'http://www.last.fm/music/Stone+Temple+Pilots/_/Hollywood+Bitch'
p234
S'1174950200'
p235
tp236
a(S'Stone Temple Pilots'
p237
S"Trippin' on a Hole in a Paper Heart"
p238
S'http://www.last.fm/music/Stone+Temple+Pilots/_/Trippin%27+on+a+Hole+in+a+Paper+Heart'
p239
S'1174950024'
p240
tp241
a(S'Alice in Chains'
p242
S'Brother'
p243
S'http://www.last.fm/music/Alice+in+Chains/_/Brother'
p244
S'1174949756'
p245
tp246
a(S'Megadeth'
p247
S'Sleepwalker'
p248
S'http://www.last.fm/music/Megadeth/_/Sleepwalker'
p249
S'1174949402'
p250
tp251
a(S'Stone Temple Pilots'
p252
S'And So I Know'
p253
S'http://www.last.fm/music/Stone+Temple+Pilots/_/And+So+I+Know'
p254
S'1174949165'
p255
tp256
a(S'Stone Temple Pilots'
p257
S'Big Bang Baby'
p258
S'http://www.last.fm/music/Stone+Temple+Pilots/_/Big+Bang+Baby'
p259
S'1174948961'
p260
tp261
a(S'Army Of Anyone'
p262
S'Non Stop'
p263
S'http://www.last.fm/music/Army+Of+Anyone/_/Non+Stop'
p264
S'1174948722'
p265
tp266
a(S'Stone Temple Pilots'
p267
S"Pop's Love Suicide"
p268
S'http://www.last.fm/music/Stone+Temple+Pilots/_/Pop%27s+Love+Suicide'
p269
S'1174948499'
p270
tp271
a(S'Live'
p272
S'Where Do We Go From Here?'
p273
S'http://www.last.fm/music/Live/_/Where+Do+We+Go+From+Here%3F'
p274
S'1174948273'
p275
tp276
a(S'Stone Temple Pilots'
p277
S'Black Again'
p278
S'http://www.last.fm/music/Stone+Temple+Pilots/_/Black+Again'
p279
S'1174948066'
p280
tp281
a(S'Audioslave'
p282
S'Sound Of A Gun'
p283
S'http://www.last.fm/music/Audioslave/_/Sound+Of+A+Gun'
p284
S'1174947808'
p285
tp286
a(S'Stone Temple Pilots'
p287
S'Regeneration'
p288
S'http://www.last.fm/music/Stone+Temple+Pilots/_/Regeneration'
p289
S'1174947572'
p290
tp291
a(S'Stone Temple Pilots'
p292
S'Bi-Polar Bear'
p293
S'http://www.last.fm/music/Stone+Temple+Pilots/_/Bi-Polar+Bear'
p294
S'1174947267'
p295
tp296
a(S'Live'
p297
S"Face And Ghost (The Children's Song)"
p298
S'http://www.last.fm/music/Live/_/Face+And+Ghost+(The+Children%27s+Song)'
p299
S'1174946997'
p300
tp301
a(S'Stone Temple Pilots'
p302
S'Vasoline'
p303
S'http://www.last.fm/music/Stone+Temple+Pilots/_/Vasoline'
p304
S'1174946819'
p305
tp306
a(S'Audioslave'
p307
S'Show Me How To Live'
p308
S'http://www.last.fm/music/Audioslave/_/Show+Me+How+To+Live'
p309
S'1174946542'
p310
tp311
a(S'Stone Temple Pilots'
p312
S'Meat Plow'
p313
S'http://www.last.fm/music/Stone+Temple+Pilots/_/Meat+Plow'
p314
S'1174946325'
p315
tp316
a(S'Live'
p317
S'The Distance'
p318
S'http://www.last.fm/music/Live/_/The+Distance'
p319
S'1174946094'
p320
tp321
a(S'Stone Temple Pilots'
p322
S'Lounge Fly'
p323
S'http://www.last.fm/music/Stone+Temple+Pilots/_/Lounge+Fly'
p324
S'1174945775'
p325
tp326
a(S'Live'
p327
S'Stage'
p328
S'http://www.last.fm/music/Live/_/Stage'
p329
S'1174945587'
p330
tp331
a(S'Stone Temple Pilots'
p332
S'Crackerman'
p333
S'http://www.last.fm/music/Stone+Temple+Pilots/_/Crackerman'
p334
S'1174945393'
p335
tp336
a(S'Super Furry Animals'
p337
S'Bad Behaviour'
p338
S'http://www.last.fm/music/Super+Furry+Animals/_/Bad+Behaviour'
p339
S'1174945127'
p340
tp341
a(S'Velvet Revolver'
p342
S'Headspace'
p343
S'http://www.last.fm/music/Velvet+Revolver/_/Headspace'
p344
S'1174944904'
p345
tp346
a(S'Megadeth'
p347
S'Almost Honest'
p348
S'http://www.last.fm/music/Megadeth/_/Almost+Honest'
p349
S'1174944661'
p350
tp351
a(S'Megadeth'
p352
S'Killing Is My Business... and Business Is Good!'
p353
S'http://www.last.fm/music/Megadeth/_/Killing+Is+My+Business...+and+Business+Is+Good!'
p354
S'1174944473'
p355
tp356
a(S'Stone Temple Pilots'
p357
S'A Song for Sleeping'
p358
S'http://www.last.fm/music/Stone+Temple+Pilots/_/A+Song+for+Sleeping'
p359
S'1174944218'
p360
tp361
a(S'Megadeth'
p362
S"I Ain't Superstitious"
p363
S'http://www.last.fm/music/Megadeth/_/I+Ain%27t+Superstitious'
p364
S'1174944053'
p365
tp366
a(S'Megadeth'
p367
S'Reckoning Day'
p368
S'http://www.last.fm/music/Megadeth/_/Reckoning+Day'
p369
S'1174943777'
p370
tp371
a(S'Army Of Anyone'
p372
S'A Better Place'
p373
S'http://www.last.fm/music/Army+Of+Anyone/_/A+Better+Place'
p374
S'1174943478'
p375
tp376
a(S'Velvet Revolver'
p377
S'Slither'
p378
S'http://www.last.fm/music/Velvet+Revolver/_/Slither'
p379
S'1174943230'
p380
tp381
a(S'Audioslave'
p382
S'I Am The Highway'
p383
S'http://www.last.fm/music/Audioslave/_/I+Am+The+Highway'
p384
S'1174942895'
p385
tp386
a(S'Velvet Revolver'
p387
S'You Got No Right'
p388
S'http://www.last.fm/music/Velvet+Revolver/_/You+Got+No+Right'
p389
S'1174942560'
p390
tp391
a(S'Velvet Revolver'
p392
S'Dirty Little Thing'
p393
S'http://www.last.fm/music/Velvet+Revolver/_/Dirty+Little+Thing'
p394
S'1174942322'
p395
tp396
a(S'Megadeth'
p397
S'The Disintegrators'
p398
S'http://www.last.fm/music/Megadeth/_/The+Disintegrators'
p399
S'1174942139'
p400
tp401
a(S'Megadeth'
p402
S'Breadline'
p403
S'http://www.last.fm/music/Megadeth/_/Breadline'
p404
S'1174787339'
p405
tp406
a(S'Live'
p407
S'Wings'
p408
S'http://www.last.fm/music/Live/_/Wings'
p409
S'1174787109'
p410
tp411
a(S'Albert King'
p412
S'Laundromat Blues'
p413
S'http://www.last.fm/music/Albert+King/_/Laundromat+Blues'
p414
S'1174786889'
p415
tp416
a(S'Velvet Revolver'
p417
S'Superhuman'
p418
S'http://www.last.fm/music/Velvet+Revolver/_/Superhuman'
p419
S'1174786615'
p420
tp421
a(S'Velvet Revolver'
p422
S'Dirty Little Thing'
p423
S'http://www.last.fm/music/Velvet+Revolver/_/Dirty+Little+Thing'
p424
S'1174786043'
p425
tp426
a(S'Audioslave'
p427
S'Broken City'
p428
S'http://www.last.fm/music/Audioslave/_/Broken+City'
p429
S'1174785417'
p430
tp431
a(S'Velvet Revolver'
p432
S'Dirty Little Thing'
p433
S'http://www.last.fm/music/Velvet+Revolver/_/Dirty+Little+Thing'
p434
S'1174784391'
p435
tp436
a(S'Velvet Revolver'
p437
S'You Got No Right'
p438
S'http://www.last.fm/music/Velvet+Revolver/_/You+Got+No+Right'
p439
S'1174784057'
p440
tp441
a(S'Live'
p442
S'Where Do We Go From Here?'
p443
S'http://www.last.fm/music/Live/_/Where+Do+We+Go+From+Here%3F'
p444
S'1174680860'
p445
tp446
a(S'Megadeth'
p447
S'The Disintegrators'
p448
S'http://www.last.fm/music/Megadeth/_/The+Disintegrators'
p449
S'1174679009'
p450
tp451
a(S'AC/DC'
p452
S"If You Want Blood (You've Got It)"
p453
S'http://www.last.fm/music/AC%2FDC/_/If+You+Want+Blood+(You%27ve+Got+It)'
p454
S'1174670787'
p455
tp456
a(S'Blur'
p457
S'Crazy Beat'
p458
S'http://www.last.fm/music/Blur/_/Crazy+Beat'
p459
S'1174670594'
p460
tp461
a(S'Team America: World Police Soundtrack'
p462
S"Freedom Isn't Free"
p463
S'http://www.last.fm/music/Team+America:+World+Police+Soundtrack/_/Freedom+Isn%27t+Free'
p464
S'1174670416'
p465
tp466
a(S'Velvet Revolver'
p467
S'Dirty Little Thing'
p468
S'http://www.last.fm/music/Velvet+Revolver/_/Dirty+Little+Thing'
p469
S'1174670178'
p470
tp471
a(S'Red Hot Chili Peppers'
p472
S'Love Rollercoaster'
p473
S'http://www.last.fm/music/Red+Hot+Chili+Peppers/_/Love+Rollercoaster'
p474
S'1174669901'
p475
tp476
a(S'Dr. John'
p477
S'Ki Ya Gris Gris'
p478
S'http://www.last.fm/music/Dr.+John/_/Ki+Ya+Gris+Gris'
p479
S'1174669657'
p480
tp481
a(S'Alice Cooper'
p482
S'Wind-Up Toy'
p483
S'http://www.last.fm/music/Alice+Cooper/_/Wind-Up+Toy'
p484
S'1174669330'
p485
tp486
a(S'Bad Religion'
p487
S'News From the Front'
p488
S'http://www.last.fm/music/Bad+Religion/_/News+From+the+Front'
p489
S'1174669189'
p490
tp491
a(S'Antonio de Mariz'
p492
S'Ta Chovendo pra Caralho'
p493
S'http://www.last.fm/music/Antonio+de+Mariz/_/Ta+Chovendo+pra+Caralho'
p494
S'1174669012'
p495
tp496
a(S'Megadeth'
p497
S'The Disintegrators'
p498
S'http://www.last.fm/music/Megadeth/_/The+Disintegrators'
p499
S'1174668828'
p500
tp501
a(S'Megadeth'
p502
S'The Disintegrators'
p503
S'http://www.last.fm/music/Megadeth/_/The+Disintegrators'
p504
S'1174666095'
p505
tp506
a(S'Stone Temple Pilots'
p507
S'Wonderful'
p508
S'http://www.last.fm/music/Stone+Temple+Pilots/_/Wonderful'
p509
S'1174665868'
p510
tp511
a(S'Megadeth'
p512
S'Breadline'
p513
S'http://www.last.fm/music/Megadeth/_/Breadline'
p514
S'1174665591'
p515
tp516
a(S'Megadeth'
p517
S'Reckoning Day'
p518
S'http://www.last.fm/music/Megadeth/_/Reckoning+Day'
p519
S'1174665316'
p520
tp521
a(S'Megadeth'
p522
S'Sleepwalker'
p523
S'http://www.last.fm/music/Megadeth/_/Sleepwalker'
p524
S'1174664963'
p525
tp526
a(S'Megadeth'
p527
S'Architecture of Aggression'
p528
S'http://www.last.fm/music/Megadeth/_/Architecture+of+Aggression'
p529
S'1174664743'
p530
tp531
a(S'Megadeth'
p532
S'The Disintegrators'
p533
S'http://www.last.fm/music/Megadeth/_/The+Disintegrators'
p534
S'1174664559'
p535
tp536
a(S'Soundgarden'
p537
S'Kickstand'
p538
S'http://www.last.fm/music/Soundgarden/_/Kickstand'
p539
S'1174664395'
p540
tp541
a(S'Faith No More'
p542
S'Edge of the World'
p543
S'http://www.last.fm/music/Faith+No+More/_/Edge+of+the+World'
p544
S'1174664119'
p545
tp546
a(S'Aerosmith'
p547
S"Adam's Apple"
p548
S'http://www.last.fm/music/Aerosmith/_/Adam%27s+Apple'
p549
S'1174663844'
p550
tp551
a(S'Aerosmith'
p552
S'Combination'
p553
S'http://www.last.fm/music/Aerosmith/_/Combination'
p554
S'1174663626'
p555
tp556
a(S'Aerosmith'
p557
S'Back in the Saddle'
p558
S'http://www.last.fm/music/Aerosmith/_/Back+in+the+Saddle'
p559
S'1174663347'
p560
tp561
a(S'Aerosmith'
p562
S'Eat the Rich'
p563
S'http://www.last.fm/music/Aerosmith/_/Eat+the+Rich'
p564
S'1174663097'
p565
tp566
a(S'Aerosmith'
p567
S"Movin' Out"
p568
S'http://www.last.fm/music/Aerosmith/_/Movin%27+Out'
p569
S'1174661558'
p570
tp571
a(S'Aerosmith'
p572
S"Walkin' the Dog"
p573
S'http://www.last.fm/music/Aerosmith/_/Walkin%27+the+Dog'
p574
S'1174661365'
p575
tp576
a(S'AC/DC'
p577
S'Moneytalks'
p578
S'http://www.last.fm/music/AC%2FDC/_/Moneytalks'
p579
S'1174661139'
p580
tp581
a(S'AC/DC'
p582
S'Let There Be Rock'
p583
S'http://www.last.fm/music/AC%2FDC/_/Let+There+Be+Rock'
p584
S'1174660773'
p585
tp586
a(S'AC/DC'
p587
S'The Jack'
p588
S'http://www.last.fm/music/AC%2FDC/_/The+Jack'
p589
S'1174660422'
p590
tp591
a(S'AC/DC'
p592
S'Sin City'
p593
S'http://www.last.fm/music/AC%2FDC/_/Sin+City'
p594
S'1174660081'
p595
tp596
a(S'Aerosmith'
p597
S'Walk This Way'
p598
S'http://www.last.fm/music/Aerosmith/_/Walk+This+Way'
p599
S'1174659861'
p600
tp601
a(S'Velvet Revolver'
p602
S'Dirty Little Thing'
p603
S'http://www.last.fm/music/Velvet+Revolver/_/Dirty+Little+Thing'
p604
S'1174659518'
p605
tp606
a(S'Velvet Revolver'
p607
S'Set Me Free'
p608
S'http://www.last.fm/music/Velvet+Revolver/_/Set+Me+Free'
p609
S'1174659270'
p610
tp611
a(S'Velvet Revolver'
p612
S'Slither'
p613
S'http://www.last.fm/music/Velvet+Revolver/_/Slither'
p614
S'1174659022'
p615
tp616
a(S'Velvet Revolver'
p617
S'You Got No Right'
p618
S'http://www.last.fm/music/Velvet+Revolver/_/You+Got+No+Right'
p619
S'1174658686'
p620
tp621
a(S'Velvet Revolver'
p622
S'Superhuman'
p623
S'http://www.last.fm/music/Velvet+Revolver/_/Superhuman'
p624
S'1174658430'
p625
tp626
a(S'Megadeth'
p627
S'Victory'
p628
S'http://www.last.fm/music/Megadeth/_/Victory'
p629
S'1174658164'
p630
tp631
a(S'Megadeth'
p632
S'Sleepwalker'
p633
S'http://www.last.fm/music/Megadeth/_/Sleepwalker'
p634
S'1174657810'
p635
tp636
a(S'Megadeth'
p637
S"I Ain't Superstitious"
p638
S'http://www.last.fm/music/Megadeth/_/I+Ain%27t+Superstitious'
p639
S'1174657645'
p640
tp641
a(S'Megadeth'
p642
S'Diadems'
p643
S'http://www.last.fm/music/Megadeth/_/Diadems'
p644
S'1174657409'
p645
tp646
a(S'Megadeth'
p647
S'Symphony of Destruction'
p648
S'http://www.last.fm/music/Megadeth/_/Symphony+of+Destruction'
p649
S'1174657168'
p650
tp651
a(S'Megadeth'
p652
S'Architecture of Aggression'
p653
S'http://www.last.fm/music/Megadeth/_/Architecture+of+Aggression'
p654
S'1174656949'
p655
tp656
a(S'Megadeth'
p657
S"Skin O' My Teeth"
p658
S'http://www.last.fm/music/Megadeth/_/Skin+O%27+My+Teeth'
p659
S'1174656753'
p660
tp661
a(S'Megadeth'
p662
S'The Disintegrators'
p663
S'http://www.last.fm/music/Megadeth/_/The+Disintegrators'
p664
S'1174656569'
p665
tp666
a(S'Gnarls Barkley'
p667
S'Crazy'
p668
S'http://www.last.fm/music/Gnarls+Barkley/_/Crazy'
p669
S'1174622258'
p670
tp671
a(S'Gnarls Barkley'
p672
S'Gone Daddy Gone'
p673
S'http://www.last.fm/music/Gnarls+Barkley/_/Gone+Daddy+Gone'
p674
S'1174622111'
p675
tp676
a(S'The Rolling Stones'
p677
S'Dear Doctor'
p678
S'http://www.last.fm/music/The+Rolling+Stones/_/Dear+Doctor'
p679
S'1174621892'
p680
tp681
a(S'Pennywise'
p682
S'Society'
p683
S'http://www.last.fm/music/Pennywise/_/Society'
p684
S'1174621680'
p685
tp686
a(S'Thomas Dolby'
p687
S'She Blinded Me With Science'
p688
S'http://www.last.fm/music/Thomas+Dolby/_/She+Blinded+Me+With+Science'
p689
S'1174621459'
p690
tp691
a(S'Misfits'
p692
S'Latest Flame'
p693
S'http://www.last.fm/music/Misfits/_/Latest+Flame'
p694
S'1174621293'
p695
tp696
a(S'Aerosmith'
p697
S'Eat the Rich'
p698
S'http://www.last.fm/music/Aerosmith/_/Eat+the+Rich'
p699
S'1174621043'
p700
tp701
a(S'Alice in Chains'
p702
S'Down In A Hole (unplugged)'
p703
S'http://www.last.fm/music/Alice+in+Chains/_/Down+In+A+Hole+(unplugged)'
p704
S'1174620697'
p705
tp706
a(S'Albert King'
p707
S'Crosscut Saw'
p708
S'http://www.last.fm/music/Albert+King/_/Crosscut+Saw'
p709
S'1174620527'
p710
tp711
a(S'Elmore James'
p712
S'Baby Please Set A Date'
p713
S'http://www.last.fm/music/Elmore+James/_/Baby+Please+Set+A+Date'
p714
S'1174620353'
p715
tp716
a(S'Misfits'
p717
S'I Wanna Be A NY Ranger'
p718
S'http://www.last.fm/music/Misfits/_/I+Wanna+Be+A+NY+Ranger'
p719
S'1174620255'
p720
tp721
a(S'"Weird Al" Yankovic'
p722
S'Windows95'
p723
S'http://www.last.fm/music/%22Weird+Al%22+Yankovic/_/Windows95'
p724
S'1174620124'
p725
tp726
a(S'MFL'
p727
S"c'mon bitch"
p728
S'http://www.last.fm/music/MFL/_/c%27mon+bitch'
p729
S'1174620024'
p730
tp731
a(S'The Rolling Stones'
p732
S'Break The Spell'
p733
S'http://www.last.fm/music/The+Rolling+Stones/_/Break+The+Spell'
p734
S'1174619836'
p735
tp736
a(S'The Offspring'
p737
S'So Alone'
p738
S'http://www.last.fm/music/The+Offspring/_/So+Alone'
p739
S'1174619759'
p740
tp741
a(S'Queens of the Stone Age'
p742
S'Song For The Dead'
p743
S'http://www.last.fm/music/Queens+of+the+Stone+Age/_/Song+For+The+Dead'
p744
S'1174619407'
p745
tp746
a(S'Queen'
p747
S'Dead On Time'
p748
S'http://www.last.fm/music/Queen/_/Dead+On+Time'
p749
S'1174619203'
p750
tp751
a(S'Aerosmith'
p752
S'Combination'
p753
S'http://www.last.fm/music/Aerosmith/_/Combination'
p754
S'1174618986'
p755
tp756
a(S'Joe Satriani'
p757
S'The Souls of Distortion'
p758
S'http://www.last.fm/music/Joe+Satriani/_/The+Souls+of+Distortion'
p759
S'1174618331'
p760
tp761
a(S'Aerosmith'
p762
S'Big Ten Inch Record'
p763
S'http://www.last.fm/music/Aerosmith/_/Big+Ten+Inch+Record'
p764
S'1174618186'
p765
tp766
a(S'Alice in Chains'
p767
S'Down in a Hole'
p768
S'http://www.last.fm/music/Alice+in+Chains/_/Down+in+a+Hole'
p769
S'1174617829'
p770
tp771
a(S'Queen'
p772
S'Bring Back That Leroy Brown'
p773
S'http://www.last.fm/music/Queen/_/Bring+Back+That+Leroy+Brown'
p774
S'1174617694'
p775
tp776
a(S"Guns N' Roses"
p777
S'Pretty Tied Up'
p778
S'http://www.last.fm/music/Guns+N%27+Roses/_/Pretty+Tied+Up'
p779
S'1174617406'
p780
tp781
a(S'Alice in Chains'
p782
S'Would? (Unplugged?)'
p783
S'http://www.last.fm/music/Alice+in+Chains/_/Would%3F+(Unplugged%3F)'
p784
S'1174617183'
p785
tp786
a(S'Van Halen'
p787
S'The Seventh Seal'
p788
S'http://www.last.fm/music/Van+Halen/_/The+Seventh+Seal'
p789
S'1174616865'
p790
tp791
a(S'Stone Temple Pilots'
p792
S'Sex & Violence'
p793
S'http://www.last.fm/music/Stone+Temple+Pilots/_/Sex+&+Violence'
p794
S'1174616691'
p795
tp796
a(S'John Hiatt'
p797
S'Lift Up Every Stone'
p798
S'http://www.last.fm/music/John+Hiatt/_/Lift+Up+Every+Stone'
p799
S'1174616482'
p800
tp801
a(S'Eric Clapton'
p802
S"I Can't Stand It"
p803
S'http://www.last.fm/music/Eric+Clapton/_/I+Can%27t+Stand+It'
p804
S'1174616232'
p805
tp806
a(S'Paul McCartney'
p807
S'About You'
p808
S'http://www.last.fm/music/Paul+McCartney/_/About+You'
p809
S'1174616059'
p810
tp811
a(S'Stevie Ray Vaughan and Double Trouble'
p812
S'Willie The Wimp'
p813
S'http://www.last.fm/music/Stevie+Ray+Vaughan+and+Double+Trouble/_/Willie+The+Wimp'
p814
S'1174615773'
p815
tp816
a(S'Little Richard'
p817
S'Jenny Jenny'
p818
S'http://www.last.fm/music/Little+Richard/_/Jenny+Jenny'
p819
S'1174615653'
p820
tp821
a(S'Misfits'
p822
S'Bullet'
p823
S'http://www.last.fm/music/Misfits/_/Bullet'
p824
S'1174615558'
p825
tp826
a(S'Shemekia Copeland'
p827
S'Salt In My Wounds'
p828
S'http://www.last.fm/music/Shemekia+Copeland/_/Salt+In+My+Wounds'
p829
S'1174615305'
p830
tp831
a(S'Alice Cooper'
p832
S'Sideshow'
p833
S'http://www.last.fm/music/Alice+Cooper/_/Sideshow'
p834
S'1174614904'
p835
tp836
a(S'Alice Cooper'
p837
S'Novocaine'
p838
S'http://www.last.fm/music/Alice+Cooper/_/Novocaine'
p839
S'1174614718'
p840
tp841
a(S'Queens of the Stone Age'
p842
S'Most Exalted Potentate of Love'
p843
S'http://www.last.fm/music/Queens+of+the+Stone+Age/_/Most+Exalted+Potentate+of+Love'
p844
S'1174614551'
p845
tp846
a(S'Live'
p847
S'Wings'
p848
S'http://www.last.fm/music/Live/_/Wings'
p849
S'1174614321'
p850
tp851
a(S'Talk Show'
p852
S'Everybody Loves My Car'
p853
S'http://www.last.fm/music/Talk+Show/_/Everybody+Loves+My+Car'
p854
S'1174614100'
p855
tp856
a(S'Megadeth'
p857
S'The Disintegrators'
p858
S'http://www.last.fm/music/Megadeth/_/The+Disintegrators'
p859
S'1174613908'
p860
tp861
a(S'Megadeth'
p862
S'Diadems'
p863
S'http://www.last.fm/music/Megadeth/_/Diadems'
p864
S'1174613672'
p865
tp866
a(S'Megadeth'
p867
S'Architecture of Aggression'
p868
S'http://www.last.fm/music/Megadeth/_/Architecture+of+Aggression'
p869
S'1174613452'
p870
tp871
a(S'Megadeth'
p872
S"I Ain't Superstitious"
p873
S'http://www.last.fm/music/Megadeth/_/I+Ain%27t+Superstitious'
p874
S'1174613287'
p875
tp876
a(S'Megadeth'
p877
S'Breadline'
p878
S'http://www.last.fm/music/Megadeth/_/Breadline'
p879
S'1174613015'
p880
tp881
a(S'The Rolling Stones'
p882
S'Wild Horses'
p883
S'http://www.last.fm/music/The+Rolling+Stones/_/Wild+Horses'
p884
S'1174612705'
p885
tp886
a(S'Velvet Revolver'
p887
S'Set Me Free'
p888
S'http://www.last.fm/music/Velvet+Revolver/_/Set+Me+Free'
p889
S'1174612457'
p890
tp891
a(S'Velvet Revolver'
p892
S'Dirty Little Thing'
p893
S'http://www.last.fm/music/Velvet+Revolver/_/Dirty+Little+Thing'
p894
S'1174612219'
p895
tp896
a(S'Stone Temple Pilots'
p897
S'All in the Suit That You Wear'
p898
S'http://www.last.fm/music/Stone+Temple+Pilots/_/All+in+the+Suit+That+You+Wear'
p899
S'1174612000'
p900
tp901
a(S'"Weird Al" Yankovic'
p902
S"Livin' La Vida Yoda"
p903
S'http://www.last.fm/music/%22Weird+Al%22+Yankovic/_/Livin%27+La+Vida+Yoda'
p904
S'1174611766'
p905
tp906
a(S'Metallica'
p907
S'For Whom the Bell Tolls'
p908
S'http://www.last.fm/music/Metallica/_/For+Whom+the+Bell+Tolls'
p909
S'1174611455'
p910
tp911
a(S'Megadeth'
p912
S'Breadline'
p913
S'http://www.last.fm/music/Megadeth/_/Breadline'
p914
S'1174611182'
p915
tp916
a(S'Megadeth'
p917
S"Crush 'em"
p918
S'http://www.last.fm/music/Megadeth/_/Crush+%27em'
p919
S'1174610888'
p920
tp921
a(S'Megadeth'
p922
S'Sleepwalker'
p923
S'http://www.last.fm/music/Megadeth/_/Sleepwalker'
p924
S'1174610535'
p925
tp926
a(S'Megadeth'
p927
S'Almost Honest'
p928
S'http://www.last.fm/music/Megadeth/_/Almost+Honest'
p929
S'1174610286'
p930
tp931
a(S'Megadeth'
p932
S'The Disintegrators'
p933
S'http://www.last.fm/music/Megadeth/_/The+Disintegrators'
p934
S'1174610101'
p935
tp936
a(S'Velvet Revolver'
p937
S'You Got No Right'
p938
S'http://www.last.fm/music/Velvet+Revolver/_/You+Got+No+Right'
p939
S'1174609766'
p940
tp941
a(S'Velvet Revolver'
p942
S'Superhuman'
p943
S'http://www.last.fm/music/Velvet+Revolver/_/Superhuman'
p944
S'1174609510'
p945
tp946
a(S'Velvet Revolver'
p947
S'Slither'
p948
S'http://www.last.fm/music/Velvet+Revolver/_/Slither'
p949
S'1174609262'
p950
tp951
a(S'Velvet Revolver'
p952
S'Slither'
p953
S'http://www.last.fm/music/Velvet+Revolver/_/Slither'
p954
S'1174514808'
p955
tp956
a(S'Velvet Revolver'
p957
S'Dirty Little Thing'
p958
S'http://www.last.fm/music/Velvet+Revolver/_/Dirty+Little+Thing'
p959
S'1174514571'
p960
tp961
a(S'Iron Maiden'
p962
S'The Trooper'
p963
S'http://www.last.fm/music/Iron+Maiden/_/The+Trooper'
p964
S'1174514307'
p965
tp966
a(S'Iron Maiden'
p967
S'Innocent Exile'
p968
S'http://www.last.fm/music/Iron+Maiden/_/Innocent+Exile'
p969
S'1174514074'
p970
tp971
a(S'Iron Maiden'
p972
S'Wasted Years'
p973
S'http://www.last.fm/music/Iron+Maiden/_/Wasted+Years'
p974
S'1174513766'
p975
tp976
a(S'Megadeth'
p977
S'Architecture of Aggression'
p978
S'http://www.last.fm/music/Megadeth/_/Architecture+of+Aggression'
p979
S'1174513546'
p980
tp981
a(S'Megadeth'
p982
S'The Disintegrators'
p983
S'http://www.last.fm/music/Megadeth/_/The+Disintegrators'
p984
S'1174513362'
p985
tp986
a(S'Megadeth'
p987
S'Breadline'
p988
S'http://www.last.fm/music/Megadeth/_/Breadline'
p989
S'1174513089'
p990
tp991
a(S'Megadeth'
p992
S"I Ain't Superstitious"
p993
S'http://www.last.fm/music/Megadeth/_/I+Ain%27t+Superstitious'
p994
S'1174512924'
p995
tp996
a(S'Megadeth'
p997
S'Train of Consequences'
p998
S'http://www.last.fm/music/Megadeth/_/Train+of+Consequences'
p999
S'1174512718'
p1000
tp1001
a.