(lp1
(S'Audioslave'
p2
S'Gasoline'
p3
S'http://www.last.fm/music/Audioslave/_/Gasoline'
p4
S'1268951541'
p5
tp6
a(S'Misfits'
p7
S'Bullet'
p8
S'http://www.last.fm/music/Misfits/_/Bullet'
p9
S'1268951443'
p10
tp11
a(S'Mother Love Bone'
p12
S'Come Bite The Apple'
p13
S'http://www.last.fm/music/Mother+Love+Bone/_/Come+Bite+The+Apple'
p14
S'1268951117'
p15
tp16
a(S'Queens of the Stone Age'
p17
S'Misfit Love'
p18
S'http://www.last.fm/music/Queens+of+the+Stone+Age/_/Misfit+Love'
p19
S'1268950777'
p20
tp21
a(S'Bad Religion'
p22
S'Stranger Than Fiction'
p23
S'http://www.last.fm/music/Bad+Religion/_/Stranger+Than+Fiction'
p24
S'1268950698'
p25
tp26
a(S'The Toy Dolls'
p27
S'Howza Bouta Kiss Babe??!'
p28
S'http://www.last.fm/music/The+Toy+Dolls/_/Howza+Bouta+Kiss+Babe%3F%3F!'
p29
S'1268950527'
p30
tp31
a(S'Audioslave'
p32
S'I Am The Highway'
p33
S'http://www.last.fm/music/Audioslave/_/I+Am+The+Highway'
p34
S'1268950193'
p35
tp36
a(S'The Toy Dolls'
p37
S'Quick to Quit the Quentin'
p38
S'http://www.last.fm/music/The+Toy+Dolls/_/Quick+to+Quit+the+Quentin'
p39
S'1268950024'
p40
tp41
a(S'ZZ Top'
p42
S'Cherry Red'
p43
S'http://www.last.fm/music/ZZ+Top/_/Cherry+Red'
p44
S'1268949745'
p45
tp46
a(S'Bad Religion'
p47
S'Stranger Than Fiction'
p48
S'http://www.last.fm/music/Bad+Religion/_/Stranger+Than+Fiction'
p49
S'1268949497'
p50
tp51
a(S'The Toy Dolls'
p52
S'Howza Bouta Kiss Babe??!'
p53
S'http://www.last.fm/music/The+Toy+Dolls/_/Howza+Bouta+Kiss+Babe%3F%3F!'
p54
S'1268949327'
p55
tp56
a(S'Audioslave'
p57
S'I Am The Highway'
p58
S'http://www.last.fm/music/Audioslave/_/I+Am+The+Highway'
p59
S'1268948992'
p60
tp61
a(S'The Toy Dolls'
p62
S'Quick to Quit the Quentin'
p63
S'http://www.last.fm/music/The+Toy+Dolls/_/Quick+to+Quit+the+Quentin'
p64
S'1268948823'
p65
tp66
a(S'ZZ Top'
p67
S'Cherry Red'
p68
S'http://www.last.fm/music/ZZ+Top/_/Cherry+Red'
p69
S'1268948544'
p70
tp71
a(S'Alice Cooper'
p72
S"You're My Temptation"
p73
S'http://www.last.fm/music/Alice+Cooper/_/You%27re+My+Temptation'
p74
S'1268946974'
p75
tp76
a(S'Metallica'
p77
S'2 X 4'
p78
S'http://www.last.fm/music/Metallica/_/2+X+4'
p79
S'1268946708'
p80
tp81
a(S'Misfits'
p82
S'This Island Earth'
p83
S'http://www.last.fm/music/Misfits/_/This+Island+Earth'
p84
S'1268946573'
p85
tp86
a(S'Misfits'
p87
S'Bullet'
p88
S'http://www.last.fm/music/Misfits/_/Bullet'
p89
S'1268946475'
p90
tp91
a(S'Audioslave'
p92
S'Gasoline'
p93
S'http://www.last.fm/music/Audioslave/_/Gasoline'
p94
S'1268942570'
p95
tp96
a(S'Army Of Anyone'
p97
S'Generation'
p98
S'http://www.last.fm/music/Army+Of+Anyone/_/Generation'
p99
S'1268942359'
p100
tp101
a(S'Alice in Chains'
p102
S'Check My Brain'
p103
S'http://www.last.fm/music/Alice+in+Chains/_/Check+My+Brain'
p104
S'1268942121'
p105
tp106
a(S'Salad'
p107
S'Granite Statue'
p108
S'http://www.last.fm/music/Salad/_/Granite+Statue'
p109
S'1268941928'
p110
tp111
a(S'Bad Religion'
p112
S'Marked'
p113
S'http://www.last.fm/music/Bad+Religion/_/Marked'
p114
S'1268941820'
p115
tp116
a(S'Bad Religion'
p117
S'The Handshake'
p118
S'http://www.last.fm/music/Bad+Religion/_/The+Handshake'
p119
S'1268941650'
p120
tp121
a(S'Placebo'
p122
S'Every You Every Me'
p123
S'http://www.last.fm/music/Placebo/_/Every+You+Every+Me'
p124
S'1268939652'
p125
tp126
a(S'Misfits'
p127
S'Hybrid Moments'
p128
S'http://www.last.fm/music/Misfits/_/Hybrid+Moments'
p129
S'1268939553'
p130
tp131
a(S'Megadeth'
p132
S'A Secret Place'
p133
S'http://www.last.fm/music/Megadeth/_/A+Secret+Place'
p134
S'1268939228'
p135
tp136
a(S'Queens of the Stone Age'
p137
S'Misfit Love'
p138
S'http://www.last.fm/music/Queens+of+the+Stone+Age/_/Misfit+Love'
p139
S'1268938649'
p140
tp141
a(S'The Toy Dolls'
p142
S"The Ashbrooke Launderette (You'll Stink... Your Clothes Shrink, Your White'll Be As Black As Ink)"
p143
S'http://www.last.fm/music/The+Toy+Dolls/_/The+Ashbrooke+Launderette+(You%27ll+Stink...+Your+Clothes+Shrink,+Your+White%27ll+Be+As+Black+As+Ink)'
p144
S'1268938439'
p145
tp146
a(S'Iron Maiden'
p147
S'Purgatory'
p148
S'http://www.last.fm/music/Iron+Maiden/_/Purgatory'
p149
S'1268938239'
p150
tp151
a(S'Audioslave'
p152
S'Yesterday To Tomorrow'
p153
S'http://www.last.fm/music/Audioslave/_/Yesterday+To+Tomorrow'
p154
S'1268938045'
p155
tp156
a(S'Misfits'
p157
S'Descending Angel'
p158
S'http://www.last.fm/music/Misfits/_/Descending+Angel'
p159
S'1268937819'
p160
tp161
a(S'Airbourne'
p162
S'Diamond in the Rough'
p163
S'http://www.last.fm/music/Airbourne/_/Diamond+in+the+Rough'
p164
S'1268937645'
p165
tp166
a(S'Soundgarden'
p167
S'Big Dumb Sex'
p168
S'http://www.last.fm/music/Soundgarden/_/Big+Dumb+Sex'
p169
S'1268937394'
p170
tp171
a(S'Chickenfoot'
p172
S'Sexy Little Thing'
p173
S'http://www.last.fm/music/Chickenfoot/_/Sexy+Little+Thing'
p174
S'1268937138'
p175
tp176
a(S'Iron Maiden'
p177
S'Innocent Exile'
p178
S'http://www.last.fm/music/Iron+Maiden/_/Innocent+Exile'
p179
S'1268936621'
p180
tp181
a(S'Bad Religion'
p182
S'Leave Mine to Me'
p183
S'http://www.last.fm/music/Bad+Religion/_/Leave+Mine+to+Me'
p184
S'1268936494'
p185
tp186
a(S'Soundgarden'
p187
S'Superunknown'
p188
S'http://www.last.fm/music/Soundgarden/_/Superunknown'
p189
S'1268936188'
p190
tp191
a(S'Bad Religion'
p192
S'Stranger Than Fiction'
p193
S'http://www.last.fm/music/Bad+Religion/_/Stranger+Than+Fiction'
p194
S'1268936047'
p195
tp196
a(S'Jupiter One'
p197
S'Countdown'
p198
S'http://www.last.fm/music/Jupiter+One/_/Countdown'
p199
S'1268935819'
p200
tp201
a(S'Misfits'
p202
S'Dust To Dust'
p203
S'http://www.last.fm/music/Misfits/_/Dust+To+Dust'
p204
S'1268935655'
p205
tp206
a(S'Soundgarden'
p207
S"Full On Kevin's Mom"
p208
S'http://www.last.fm/music/Soundgarden/_/Full+On+Kevin%27s+Mom'
p209
S'1268935438'
p210
tp211
a(S'Soundgarden'
p212
S'The Day I Tried to Live'
p213
S'http://www.last.fm/music/Soundgarden/_/The+Day+I+Tried+to+Live'
p214
S'1268935119'
p215
tp216
a(S'Audioslave'
p217
S'Cochise'
p218
S'http://www.last.fm/music/Audioslave/_/Cochise'
p219
S'1268934896'
p220
tp221
a(S'Audioslave'
p222
S"Heaven's Dead"
p223
S'http://www.last.fm/music/Audioslave/_/Heaven%27s+Dead'
p224
S'1268934620'
p225
tp226
a(S'Misfits'
p227
S'Monster Mash'
p228
S'http://www.last.fm/music/Misfits/_/Monster+Mash'
p229
S'1268934462'
p230
tp231
a(S'Misfits'
p232
S'The Hunger'
p233
S'http://www.last.fm/music/Misfits/_/The+Hunger'
p234
S'1268934360'
p235
tp236
a(S'Audioslave'
p237
S'I Am The Highway'
p238
S'http://www.last.fm/music/Audioslave/_/I+Am+The+Highway'
p239
S'1268934023'
p240
tp241
a(S'Iron Maiden'
p242
S'Drifter'
p243
S'http://www.last.fm/music/Iron+Maiden/_/Drifter'
p244
S'1268933735'
p245
tp246
a(S'Misfits'
p247
S'Halloween'
p248
S'http://www.last.fm/music/Misfits/_/Halloween'
p249
S'1268933628'
p250
tp251
a(S'The Toy Dolls'
p252
S'Howza Bouta Kiss Babe??!'
p253
S'http://www.last.fm/music/The+Toy+Dolls/_/Howza+Bouta+Kiss+Babe%3F%3F!'
p254
S'1268933458'
p255
tp256
a(S'Soundgarden'
p257
S'Full On (Reprise)'
p258
S'http://www.last.fm/music/Soundgarden/_/Full+On+(Reprise)'
p259
S'1268933296'
p260
tp261
a(S'Megadeth'
p262
S'Addicted to Chaos'
p263
S'http://www.last.fm/music/Megadeth/_/Addicted+to+Chaos'
p264
S'1268932969'
p265
tp266
a(S'Audioslave'
p267
S'Moth'
p268
S'http://www.last.fm/music/Audioslave/_/Moth'
p269
S'1268932675'
p270
tp271
a(S'Bad Religion'
p272
S'What It Is'
p273
S'http://www.last.fm/music/Bad+Religion/_/What+It+Is'
p274
S'1268932546'
p275
tp276
a(S'Them Crooked Vultures'
p277
S'Spinning in Daffodils'
p278
S'http://www.last.fm/music/Them+Crooked+Vultures/_/Spinning+in+Daffodils'
p279
S'1268931465'
p280
tp281
a(S'Jerry Cantrell'
p282
S'Hurt A Long Time'
p283
S'http://www.last.fm/music/Jerry+Cantrell/_/Hurt+A+Long+Time'
p284
S'1268931125'
p285
tp286
a(S'Bad Religion'
p287
S'Along The Way'
p288
S'http://www.last.fm/music/Bad+Religion/_/Along+The+Way'
p289
S'1268931026'
p290
tp291
a(S'ZZ Top'
p292
S'Pincushion'
p293
S'http://www.last.fm/music/ZZ+Top/_/Pincushion'
p294
S'1268930753'
p295
tp296
a(S'Audioslave'
p297
S'Like A Stone'
p298
S'http://www.last.fm/music/Audioslave/_/Like+A+Stone'
p299
S'1268930459'
p300
tp301
a(S'The Toy Dolls'
p302
S'Quick to Quit the Quentin'
p303
S'http://www.last.fm/music/The+Toy+Dolls/_/Quick+to+Quit+the+Quentin'
p304
S'1268930290'
p305
tp306
a(S'Soundgarden'
p307
S'Hands All Over'
p308
S'http://www.last.fm/music/Soundgarden/_/Hands+All+Over'
p309
S'1268929930'
p310
tp311
a(S'The Toy Dolls'
p312
S'Bare Faced Cheek'
p313
S'http://www.last.fm/music/The+Toy+Dolls/_/Bare+Faced+Cheek'
p314
S'1268929878'
p315
tp316
a(S'Diamond Head'
p317
S'This Planet and Me'
p318
S'http://www.last.fm/music/Diamond+Head/_/This+Planet+and+Me'
p319
S'1268929582'
p320
tp321
a(S'Alice in Chains'
p322
S'Bleed the Freak'
p323
S'http://www.last.fm/music/Alice+in+Chains/_/Bleed+the+Freak'
p324
S'1268928875'
p325
tp326
a(S'The Mission'
p327
S'Severina'
p328
S'http://www.last.fm/music/The+Mission/_/Severina'
p329
S'1268928613'
p330
tp331
a(S'Misfits'
p332
S'Hollywood Babylon'
p333
S'http://www.last.fm/music/Misfits/_/Hollywood+Babylon'
p334
S'1268928473'
p335
tp336
a(S'Airbourne'
p337
S"Runnin' Wild"
p338
S'http://www.last.fm/music/Airbourne/_/Runnin%27+Wild'
p339
S'1268928254'
p340
tp341
a(S'Yes'
p342
S'Changes'
p343
S'http://www.last.fm/music/Yes/_/Changes'
p344
S'1268920091'
p345
tp346
a(S'Them Crooked Vultures'
p347
S'New Fang'
p348
S'http://www.last.fm/music/Them+Crooked+Vultures/_/New+Fang'
p349
S'1268919694'
p350
tp351
a(S'Diamond Head'
p352
S'Muddy Waters'
p353
S'http://www.last.fm/music/Diamond+Head/_/Muddy+Waters'
p354
S'1268919419'
p355
tp356
a(S'Mother Love Bone'
p357
S'Gentle Groove'
p358
S'http://www.last.fm/music/Mother+Love+Bone/_/Gentle+Groove'
p359
S'1268919175'
p360
tp361
a(S'Metallica'
p362
S'Until It Sleeps'
p363
S'http://www.last.fm/music/Metallica/_/Until+It+Sleeps'
p364
S'1268918903'
p365
tp366
a(S'ZZ Top'
p367
S'Cherry Red'
p368
S'http://www.last.fm/music/ZZ+Top/_/Cherry+Red'
p369
S'1268918624'
p370
tp371
a(S'Them Crooked Vultures'
p372
S'Gunman'
p373
S'http://www.last.fm/music/Them+Crooked+Vultures/_/Gunman'
p374
S'1268917490'
p375
tp376
a(S'Soundgarden'
p377
S'Superunknown'
p378
S'http://www.last.fm/music/Soundgarden/_/Superunknown'
p379
S'1268867369'
p380
tp381
a(S'Misfits'
p382
S'Hollywood Babylon'
p383
S'http://www.last.fm/music/Misfits/_/Hollywood+Babylon'
p384
S'1268867229'
p385
tp386
a(S'Soundgarden'
p387
S'Loud Love'
p388
S'http://www.last.fm/music/Soundgarden/_/Loud+Love'
p389
S'1268866932'
p390
tp391
a(S'Them Crooked Vultures'
p392
S'Gunman'
p393
S'http://www.last.fm/music/Them+Crooked+Vultures/_/Gunman'
p394
S'1268866655'
p395
tp396
a(S'Soundgarden'
p397
S'Full On (Reprise)'
p398
S'http://www.last.fm/music/Soundgarden/_/Full+On+(Reprise)'
p399
S'1268834464'
p400
tp401
a(S'Them Crooked Vultures'
p402
S'Gunman'
p403
S'http://www.last.fm/music/Them+Crooked+Vultures/_/Gunman'
p404
S'1268834178'
p405
tp406
a(S'Audioslave'
p407
S'Be Yourself'
p408
S'http://www.last.fm/music/Audioslave/_/Be+Yourself'
p409
S'1268833822'
p410
tp411
a(S'Salad'
p412
S'Granite Statue'
p413
S'http://www.last.fm/music/Salad/_/Granite+Statue'
p414
S'1268833629'
p415
tp416
a(S'Audioslave'
p417
S'I Am The Highway'
p418
S'http://www.last.fm/music/Audioslave/_/I+Am+The+Highway'
p419
S'1268833294'
p420
tp421
a(S'Bad Religion'
p422
S'Marked'
p423
S'http://www.last.fm/music/Bad+Religion/_/Marked'
p424
S'1268833186'
p425
tp426
a(S'ZZ Top'
p427
S'Cherry Red'
p428
S'http://www.last.fm/music/ZZ+Top/_/Cherry+Red'
p429
S'1268832907'
p430
tp431
a(S'Audioslave'
p432
S'Cochise'
p433
S'http://www.last.fm/music/Audioslave/_/Cochise'
p434
S'1268739794'
p435
tp436
a(S'Bad Religion'
p437
S'Marked'
p438
S'http://www.last.fm/music/Bad+Religion/_/Marked'
p439
S'1268739686'
p440
tp441
a(S'Alice Cooper'
p442
S"You're My Temptation"
p443
S'http://www.last.fm/music/Alice+Cooper/_/You%27re+My+Temptation'
p444
S'1268739376'
p445
tp446
a(S'Alice in Chains'
p447
S'Brother'
p448
S'http://www.last.fm/music/Alice+in+Chains/_/Brother'
p449
S'1268739109'
p450
tp451
a(S'Iron Maiden'
p452
S'Purgatory'
p453
S'http://www.last.fm/music/Iron+Maiden/_/Purgatory'
p454
S'1268738934'
p455
tp456
a(S'Mother Love Bone'
p457
S'Come Bite The Apple'
p458
S'http://www.last.fm/music/Mother+Love+Bone/_/Come+Bite+The+Apple'
p459
S'1268738607'
p460
tp461
a(S'Bad Religion'
p462
S'What It Is'
p463
S'http://www.last.fm/music/Bad+Religion/_/What+It+Is'
p464
S'1268738478'
p465
tp466
a(S'Salad'
p467
S'Granite Statue'
p468
S'http://www.last.fm/music/Salad/_/Granite+Statue'
p469
S'1268738285'
p470
tp471
a(S'Soundgarden'
p472
S'Let Me Drown'
p473
S'http://www.last.fm/music/Soundgarden/_/Let+Me+Drown'
p474
S'1268738053'
p475
tp476
a(S'Megadeth'
p477
S'A Secret Place'
p478
S'http://www.last.fm/music/Megadeth/_/A+Secret+Place'
p479
S'1268737728'
p480
tp481
a(S'Bad Religion'
p482
S'Stranger Than Fiction'
p483
S'http://www.last.fm/music/Bad+Religion/_/Stranger+Than+Fiction'
p484
S'1268737588'
p485
tp486
a(S'Soundgarden'
p487
S'Superunknown'
p488
S'http://www.last.fm/music/Soundgarden/_/Superunknown'
p489
S'1268737282'
p490
tp491
a(S'Megadeth'
p492
S'Addicted to Chaos'
p493
S'http://www.last.fm/music/Megadeth/_/Addicted+to+Chaos'
p494
S'1268736832'
p495
tp496
a(S'Audioslave'
p497
S'Like A Stone'
p498
S'http://www.last.fm/music/Audioslave/_/Like+A+Stone'
p499
S'1268736538'
p500
tp501
a(S'ZZ Top'
p502
S'Pincushion'
p503
S'http://www.last.fm/music/ZZ+Top/_/Pincushion'
p504
S'1268736265'
p505
tp506
a(S'ZZ Top'
p507
S'Cherry Red'
p508
S'http://www.last.fm/music/ZZ+Top/_/Cherry+Red'
p509
S'1268735986'
p510
tp511
a(S'Them Crooked Vultures'
p512
S'Gunman'
p513
S'http://www.last.fm/music/Them+Crooked+Vultures/_/Gunman'
p514
S'1268735625'
p515
tp516
a(S'The Mission'
p517
S'Severina'
p518
S'http://www.last.fm/music/The+Mission/_/Severina'
p519
S'1268671871'
p520
tp521
a(S'Jupiter One'
p522
S'Countdown'
p523
S'http://www.last.fm/music/Jupiter+One/_/Countdown'
p524
S'1268671642'
p525
tp526
a(S'Jerry Cantrell'
p527
S'Hurt A Long Time'
p528
S'http://www.last.fm/music/Jerry+Cantrell/_/Hurt+A+Long+Time'
p529
S'1268671302'
p530
tp531
a(S'Iron Maiden'
p532
S'Drifter'
p533
S'http://www.last.fm/music/Iron+Maiden/_/Drifter'
p534
S'1268671014'
p535
tp536
a(S'Jerry Cantrell'
p537
S'Keep The Light On'
p538
S'http://www.last.fm/music/Jerry+Cantrell/_/Keep+The+Light+On'
p539
S'1268670727'
p540
tp541
a(S'Airbourne'
p542
S'Diamond in the Rough'
p543
S'http://www.last.fm/music/Airbourne/_/Diamond+in+the+Rough'
p544
S'1268670553'
p545
tp546
a(S'Bad Religion'
p547
S'The Handshake'
p548
S'http://www.last.fm/music/Bad+Religion/_/The+Handshake'
p549
S'1268670383'
p550
tp551
a(S'Megadeth'
p552
S'A Secret Place'
p553
S'http://www.last.fm/music/Megadeth/_/A+Secret+Place'
p554
S'1268670036'
p555
tp556
a(S'Mother Love Bone'
p557
S'Come Bite The Apple'
p558
S'http://www.last.fm/music/Mother+Love+Bone/_/Come+Bite+The+Apple'
p559
S'1268669709'
p560
tp561
a(S'Bad Religion'
p562
S'Marked'
p563
S'http://www.last.fm/music/Bad+Religion/_/Marked'
p564
S'1268669601'
p565
tp566
a(S'Misfits'
p567
S'Bullet'
p568
S'http://www.last.fm/music/Misfits/_/Bullet'
p569
S'1268669503'
p570
tp571
a(S'Misfits'
p572
S'Dust To Dust'
p573
S'http://www.last.fm/music/Misfits/_/Dust+To+Dust'
p574
S'1268669339'
p575
tp576
a(S'Audioslave'
p577
S"Heaven's Dead"
p578
S'http://www.last.fm/music/Audioslave/_/Heaven%27s+Dead'
p579
S'1268669063'
p580
tp581
a(S'Queens of the Stone Age'
p582
S'Misfit Love'
p583
S'http://www.last.fm/music/Queens+of+the+Stone+Age/_/Misfit+Love'
p584
S'1268668723'
p585
tp586
a(S'Mother Love Bone'
p587
S'Gentle Groove'
p588
S'http://www.last.fm/music/Mother+Love+Bone/_/Gentle+Groove'
p589
S'1268658380'
p590
tp591
a(S'Misfits'
p592
S'Monster Mash'
p593
S'http://www.last.fm/music/Misfits/_/Monster+Mash'
p594
S'1268658222'
p595
tp596
a(S'Them Crooked Vultures'
p597
S'Gunman'
p598
S'http://www.last.fm/music/Them+Crooked+Vultures/_/Gunman'
p599
S'1268657796'
p600
tp601
a(S'Soundgarden'
p602
S'Full On (Reprise)'
p603
S'http://www.last.fm/music/Soundgarden/_/Full+On+(Reprise)'
p604
S'1268657634'
p605
tp606
a(S'Airbourne'
p607
S'Diamond in the Rough'
p608
S'http://www.last.fm/music/Airbourne/_/Diamond+in+the+Rough'
p609
S'1268657459'
p610
tp611
a(S'Audioslave'
p612
S'Be Yourself'
p613
S'http://www.last.fm/music/Audioslave/_/Be+Yourself'
p614
S'1268657180'
p615
tp616
a(S'Bad Religion'
p617
S'Stranger Than Fiction'
p618
S'http://www.last.fm/music/Bad+Religion/_/Stranger+Than+Fiction'
p619
S'1268657040'
p620
tp621
a(S'Misfits'
p622
S'This Island Earth'
p623
S'http://www.last.fm/music/Misfits/_/This+Island+Earth'
p624
S'1268656905'
p625
tp626
a(S'Audioslave'
p627
S'I Am The Highway'
p628
S'http://www.last.fm/music/Audioslave/_/I+Am+The+Highway'
p629
S'1268656570'
p630
tp631
a(S'Salad'
p632
S'Granite Statue'
p633
S'http://www.last.fm/music/Salad/_/Granite+Statue'
p634
S'1268656376'
p635
tp636
a(S'Alice Cooper'
p637
S"You're My Temptation"
p638
S'http://www.last.fm/music/Alice+Cooper/_/You%27re+My+Temptation'
p639
S'1268656067'
p640
tp641
a(S'Alice in Chains'
p642
S'Bleed the Freak'
p643
S'http://www.last.fm/music/Alice+in+Chains/_/Bleed+the+Freak'
p644
S'1268655825'
p645
tp646
a(S'Misfits'
p647
S'Hollywood Babylon'
p648
S'http://www.last.fm/music/Misfits/_/Hollywood+Babylon'
p649
S'1268655685'
p650
tp651
a(S'ZZ Top'
p652
S'Cherry Red'
p653
S'http://www.last.fm/music/ZZ+Top/_/Cherry+Red'
p654
S'1268655406'
p655
tp656
a(S'Audioslave'
p657
S'Like A Stone'
p658
S'http://www.last.fm/music/Audioslave/_/Like+A+Stone'
p659
S'1268655112'
p660
tp661
a(S'Chickenfoot'
p662
S'Sexy Little Thing'
p663
S'http://www.last.fm/music/Chickenfoot/_/Sexy+Little+Thing'
p664
S'1268654856'
p665
tp666
a(S'Placebo'
p667
S'Every You Every Me'
p668
S'http://www.last.fm/music/Placebo/_/Every+You+Every+Me'
p669
S'1268654643'
p670
tp671
a(S'Queens of the Stone Age'
p672
S'Misfit Love'
p673
S'http://www.last.fm/music/Queens+of+the+Stone+Age/_/Misfit+Love'
p674
S'1268654303'
p675
tp676
a(S'The Mission'
p677
S'Severina'
p678
S'http://www.last.fm/music/The+Mission/_/Severina'
p679
S'1268508549'
p680
tp681
a(S'Misfits'
p682
S'Dust To Dust'
p683
S'http://www.last.fm/music/Misfits/_/Dust+To+Dust'
p684
S'1268508385'
p685
tp686
a(S'Metallica'
p687
S'Until It Sleeps'
p688
S'http://www.last.fm/music/Metallica/_/Until+It+Sleeps'
p689
S'1268508114'
p690
tp691
a(S'Soundgarden'
p692
S"Full On Kevin's Mom"
p693
S'http://www.last.fm/music/Soundgarden/_/Full+On+Kevin%27s+Mom'
p694
S'1268507896'
p695
tp696
a(S'The Toy Dolls'
p697
S'Quick to Quit the Quentin'
p698
S'http://www.last.fm/music/The+Toy+Dolls/_/Quick+to+Quit+the+Quentin'
p699
S'1268507727'
p700
tp701
a(S'Misfits'
p702
S'Bullet'
p703
S'http://www.last.fm/music/Misfits/_/Bullet'
p704
S'1268507629'
p705
tp706
a(S'Audioslave'
p707
S'Gasoline'
p708
S'http://www.last.fm/music/Audioslave/_/Gasoline'
p709
S'1268507350'
p710
tp711
a(S'Airbourne'
p712
S'Diamond in the Rough'
p713
S'http://www.last.fm/music/Airbourne/_/Diamond+in+the+Rough'
p714
S'1268507176'
p715
tp716
a(S'Them Crooked Vultures'
p717
S'Gunman'
p718
S'http://www.last.fm/music/Them+Crooked+Vultures/_/Gunman'
p719
S'1268506890'
p720
tp721
a(S'The Toy Dolls'
p722
S'Howza Bouta Kiss Babe??!'
p723
S'http://www.last.fm/music/The+Toy+Dolls/_/Howza+Bouta+Kiss+Babe%3F%3F!'
p724
S'1268506719'
p725
tp726
a(S'Diamond Head'
p727
S'Calling Out'
p728
S'http://www.last.fm/music/Diamond+Head/_/Calling+Out'
p729
S'1268506491'
p730
tp731
a(S'Audioslave'
p732
S'Cochise'
p733
S'http://www.last.fm/music/Audioslave/_/Cochise'
p734
S'1268506226'
p735
tp736
a(S'Diamond Head'
p737
S'This Planet and Me'
p738
S'http://www.last.fm/music/Diamond+Head/_/This+Planet+and+Me'
p739
S'1268505929'
p740
tp741
a(S'Jerry Cantrell'
p742
S'Hurt A Long Time'
p743
S'http://www.last.fm/music/Jerry+Cantrell/_/Hurt+A+Long+Time'
p744
S'1268505588'
p745
tp746
a(S'Misfits'
p747
S'Monster Mash'
p748
S'http://www.last.fm/music/Misfits/_/Monster+Mash'
p749
S'1268505396'
p750
tp751
a(S'Megadeth'
p752
S'Addicted to Chaos'
p753
S'http://www.last.fm/music/Megadeth/_/Addicted+to+Chaos'
p754
S'1268505070'
p755
tp756
a(S'Them Crooked Vultures'
p757
S'New Fang'
p758
S'http://www.last.fm/music/Them+Crooked+Vultures/_/New+Fang'
p759
S'1268504841'
p760
tp761
a(S'Soundgarden'
p762
S'Hands All Over'
p763
S'http://www.last.fm/music/Soundgarden/_/Hands+All+Over'
p764
S'1268504481'
p765
tp766
a(S'Soundgarden'
p767
S'Loud Love'
p768
S'http://www.last.fm/music/Soundgarden/_/Loud+Love'
p769
S'1268504184'
p770
tp771
a(S'Misfits'
p772
S'The Hunger'
p773
S'http://www.last.fm/music/Misfits/_/The+Hunger'
p774
S'1268504080'
p775
tp776
a(S'The Toy Dolls'
p777
S"The Ashbrooke Launderette (You'll Stink... Your Clothes Shrink, Your White'll Be As Black As Ink)"
p778
S'http://www.last.fm/music/The+Toy+Dolls/_/The+Ashbrooke+Launderette+(You%27ll+Stink...+Your+Clothes+Shrink,+Your+White%27ll+Be+As+Black+As+Ink)'
p779
S'1268503871'
p780
tp781
a(S'Bad Religion'
p782
S'Leave Mine to Me'
p783
S'http://www.last.fm/music/Bad+Religion/_/Leave+Mine+to+Me'
p784
S'1268503743'
p785
tp786
a(S'Diamond Head'
p787
S'Muddy Waters'
p788
S'http://www.last.fm/music/Diamond+Head/_/Muddy+Waters'
p789
S'1268503468'
p790
tp791
a(S'Misfits'
p792
S'Descending Angel'
p793
S'http://www.last.fm/music/Misfits/_/Descending+Angel'
p794
S'1268503242'
p795
tp796
a(S'Jupiter One'
p797
S'Countdown'
p798
S'http://www.last.fm/music/Jupiter+One/_/Countdown'
p799
S'1268503014'
p800
tp801
a(S'Iron Maiden'
p802
S'Purgatory'
p803
S'http://www.last.fm/music/Iron+Maiden/_/Purgatory'
p804
S'1268502814'
p805
tp806
a(S'Bad Religion'
p807
S'Better Off Dead'
p808
S'http://www.last.fm/music/Bad+Religion/_/Better+Off+Dead'
p809
S'1268502655'
p810
tp811
a(S'Misfits'
p812
S'Hollywood Babylon'
p813
S'http://www.last.fm/music/Misfits/_/Hollywood+Babylon'
p814
S'1268502515'
p815
tp816
a(S'Airbourne'
p817
S"Runnin' Wild"
p818
S'http://www.last.fm/music/Airbourne/_/Runnin%27+Wild'
p819
S'1268502296'
p820
tp821
a(S'Iron Maiden'
p822
S'Innocent Exile'
p823
S'http://www.last.fm/music/Iron+Maiden/_/Innocent+Exile'
p824
S'1268502064'
p825
tp826
a(S'Alice in Chains'
p827
S'Bleed the Freak'
p828
S'http://www.last.fm/music/Alice+in+Chains/_/Bleed+the+Freak'
p829
S'1268501822'
p830
tp831
a(S'Soundgarden'
p832
S'Full On (Reprise)'
p833
S'http://www.last.fm/music/Soundgarden/_/Full+On+(Reprise)'
p834
S'1268501660'
p835
tp836
a(S'Bad Religion'
p837
S'The Handshake'
p838
S'http://www.last.fm/music/Bad+Religion/_/The+Handshake'
p839
S'1268501490'
p840
tp841
a(S'Soundgarden'
p842
S'Big Dumb Sex'
p843
S'http://www.last.fm/music/Soundgarden/_/Big+Dumb+Sex'
p844
S'1268501239'
p845
tp846
a(S'Soundgarden'
p847
S'Let Me Drown'
p848
S'http://www.last.fm/music/Soundgarden/_/Let+Me+Drown'
p849
S'1268501003'
p850
tp851
a(S'Audioslave'
p852
S'Like A Stone'
p853
S'http://www.last.fm/music/Audioslave/_/Like+A+Stone'
p854
S'1268500709'
p855
tp856
a(S'Soundgarden'
p857
S'Superunknown'
p858
S'http://www.last.fm/music/Soundgarden/_/Superunknown'
p859
S'1268500402'
p860
tp861
a(S'Alice Cooper'
p862
S"You're My Temptation"
p863
S'http://www.last.fm/music/Alice+Cooper/_/You%27re+My+Temptation'
p864
S'1268500093'
p865
tp866
a(S'Queens of the Stone Age'
p867
S'Misfit Love'
p868
S'http://www.last.fm/music/Queens+of+the+Stone+Age/_/Misfit+Love'
p869
S'1268499753'
p870
tp871
a(S'Misfits'
p872
S'Hybrid Moments'
p873
S'http://www.last.fm/music/Misfits/_/Hybrid+Moments'
p874
S'1268499653'
p875
tp876
a(S'ZZ Top'
p877
S'Fuzzbox Voodoo'
p878
S'http://www.last.fm/music/ZZ+Top/_/Fuzzbox+Voodoo'
p879
S'1268499370'
p880
tp881
a(S'Bad Religion'
p882
S'Marked'
p883
S'http://www.last.fm/music/Bad+Religion/_/Marked'
p884
S'1268499262'
p885
tp886
a(S'Audioslave'
p887
S'Moth'
p888
S'http://www.last.fm/music/Audioslave/_/Moth'
p889
S'1268498967'
p890
tp891
a(S'Jerry Cantrell'
p892
S'Keep The Light On'
p893
S'http://www.last.fm/music/Jerry+Cantrell/_/Keep+The+Light+On'
p894
S'1268498680'
p895
tp896
a(S'Misfits'
p897
S'This Island Earth'
p898
S'http://www.last.fm/music/Misfits/_/This+Island+Earth'
p899
S'1268498545'
p900
tp901
a(S'Audioslave'
p902
S"Heaven's Dead"
p903
S'http://www.last.fm/music/Audioslave/_/Heaven%27s+Dead'
p904
S'1268498268'
p905
tp906
a(S'Bad Religion'
p907
S'What It Is'
p908
S'http://www.last.fm/music/Bad+Religion/_/What+It+Is'
p909
S'1268498140'
p910
tp911
a(S'Iron Maiden'
p912
S'Drifter'
p913
S'http://www.last.fm/music/Iron+Maiden/_/Drifter'
p914
S'1268497851'
p915
tp916
a(S'Chickenfoot'
p917
S'Sexy Little Thing'
p918
S'http://www.last.fm/music/Chickenfoot/_/Sexy+Little+Thing'
p919
S'1268497596'
p920
tp921
a(S'Alice in Chains'
p922
S'Check My Brain'
p923
S'http://www.last.fm/music/Alice+in+Chains/_/Check+My+Brain'
p924
S'1268497358'
p925
tp926
a(S'Soundgarden'
p927
S"Full On Kevin's Mom"
p928
S'http://www.last.fm/music/Soundgarden/_/Full+On+Kevin%27s+Mom'
p929
S'1268426195'
p930
tp931
a(S'Misfits'
p932
S'This Island Earth'
p933
S'http://www.last.fm/music/Misfits/_/This+Island+Earth'
p934
S'1268426059'
p935
tp936
a(S'Bad Religion'
p937
S'The Handshake'
p938
S'http://www.last.fm/music/Bad+Religion/_/The+Handshake'
p939
S'1268425889'
p940
tp941
a(S'Misfits'
p942
S'Hollywood Babylon'
p943
S'http://www.last.fm/music/Misfits/_/Hollywood+Babylon'
p944
S'1268425749'
p945
tp946
a(S'Audioslave'
p947
S'Be Yourself'
p948
S'http://www.last.fm/music/Audioslave/_/Be+Yourself'
p949
S'1268425470'
p950
tp951
a(S'The Mission'
p952
S'Severina'
p953
S'http://www.last.fm/music/The+Mission/_/Severina'
p954
S'1268425207'
p955
tp956
a(S'Yes'
p957
S'Changes'
p958
S'http://www.last.fm/music/Yes/_/Changes'
p959
S'1268424828'
p960
tp961
a(S'ZZ Top'
p962
S'Pincushion'
p963
S'http://www.last.fm/music/ZZ+Top/_/Pincushion'
p964
S'1268423993'
p965
tp966
a(S'Jupiter One'
p967
S'Countdown'
p968
S'http://www.last.fm/music/Jupiter+One/_/Countdown'
p969
S'1268423765'
p970
tp971
a(S'Them Crooked Vultures'
p972
S'Gunman'
p973
S'http://www.last.fm/music/Them+Crooked+Vultures/_/Gunman'
p974
S'1268423353'
p975
tp976
a(S'ZZ Top'
p977
S'Cherry Red'
p978
S'http://www.last.fm/music/ZZ+Top/_/Cherry+Red'
p979
S'1268423006'
p980
tp981
a(S'Airbourne'
p982
S"Runnin' Wild"
p983
S'http://www.last.fm/music/Airbourne/_/Runnin%27+Wild'
p984
S'1268422788'
p985
tp986
a(S'Soundgarden'
p987
S'Full On (Reprise)'
p988
S'http://www.last.fm/music/Soundgarden/_/Full+On+(Reprise)'
p989
S'1268422625'
p990
tp991
a(S'Misfits'
p992
S'The Hunger'
p993
S'http://www.last.fm/music/Misfits/_/The+Hunger'
p994
S'1268422522'
p995
tp996
a(S'Airbourne'
p997
S'Diamond in the Rough'
p998
S'http://www.last.fm/music/Airbourne/_/Diamond+in+the+Rough'
p999
S'1268422348'
p1000
tp1001
a.