(lp1
(S'Alice in Chains'
p2
S'Rain When I Die'
p3
S'http://www.last.fm/music/Alice+in+Chains/_/Rain+When+I+Die'
p4
S'1277125940'
p5
tp6
a(S'Anthrax'
p7
S'Only'
p8
S'http://www.last.fm/music/Anthrax/_/Only'
p9
S'1277125578'
p10
tp11
a(S'Stone Temple Pilots'
p12
S'Seven Caged Tigers'
p13
S'http://www.last.fm/music/Stone+Temple+Pilots/_/Seven+Caged+Tigers'
p14
S'1277125282'
p15
tp16
a(S'Rainbow'
p17
S'Kill the King'
p18
S'http://www.last.fm/music/Rainbow/_/Kill+the+King'
p19
S'1277123506'
p20
tp21
a(S'Audioslave'
p22
S'Jewel Of The Summertime'
p23
S'http://www.last.fm/music/Audioslave/_/Jewel+Of+The+Summertime'
p24
S'1277123237'
p25
tp26
a(S'Stone Temple Pilots'
p27
S'First Kiss on Mars'
p28
S'http://www.last.fm/music/Stone+Temple+Pilots/_/First+Kiss+on+Mars'
p29
S'1276895938'
p30
tp31
a(S'Metallica'
p32
S'Holier Than Thou'
p33
S'http://www.last.fm/music/Metallica/_/Holier+Than+Thou'
p34
S'1276894814'
p35
tp36
a(S'Soundgarden'
p37
S'Jesus Christ Pose'
p38
S'http://www.last.fm/music/Soundgarden/_/Jesus+Christ+Pose'
p39
S'1276894637'
p40
tp41
a(S'Ozzy Osbourne'
p42
S'Thunder Underground'
p43
S'http://www.last.fm/music/Ozzy+Osbourne/_/Thunder+Underground'
p44
S'1276894286'
p45
tp46
a(S'Alice in Chains'
p47
S'Dam That River'
p48
S'http://www.last.fm/music/Alice+in+Chains/_/Dam+That+River'
p49
S'1276893900'
p50
tp51
a(S'Stone Temple Pilots'
p52
S'Silvergun Superman'
p53
S'http://www.last.fm/music/Stone+Temple+Pilots/_/Silvergun+Superman'
p54
S'1276893710'
p55
tp56
a(S'Velvet Revolver'
p57
S'Fall To Pieces'
p58
S'http://www.last.fm/music/Velvet+Revolver/_/Fall+To+Pieces'
p59
S'1276893516'
p60
tp61
a(S'Nirvana'
p62
S'The Man Who Sold the World'
p63
S'http://www.last.fm/music/Nirvana/_/The+Man+Who+Sold+the+World'
p64
S'1276893245'
p65
tp66
a(S'Alice in Chains'
p67
S'Got Me Wrong'
p68
S'http://www.last.fm/music/Alice+in+Chains/_/Got+Me+Wrong'
p69
S'1276892984'
p70
tp71
a(S'Ozzy Osbourne'
p72
S'Let Me Hear You Scream'
p73
S'http://www.last.fm/music/Ozzy+Osbourne/_/Let+Me+Hear+You+Scream'
p74
S'1276892732'
p75
tp76
a(S'Audioslave'
p77
S'Sound Of A Gun'
p78
S'http://www.last.fm/music/Audioslave/_/Sound+Of+A+Gun'
p79
S'1276892528'
p80
tp81
a(S'Alice in Chains'
p82
S'Sludge Factory'
p83
S'http://www.last.fm/music/Alice+in+Chains/_/Sludge+Factory'
p84
S'1276892306'
p85
tp86
a(S'Audioslave'
p87
S'Jewel Of The Summertime'
p88
S'http://www.last.fm/music/Audioslave/_/Jewel+Of+The+Summertime'
p89
S'1276892030'
p90
tp91
a(S'Stone Temple Pilots'
p92
S'Vasoline'
p93
S'http://www.last.fm/music/Stone+Temple+Pilots/_/Vasoline'
p94
S'1276891665'
p95
tp96
a(S'Audioslave'
p97
S'Set It Off'
p98
S'http://www.last.fm/music/Audioslave/_/Set+It+Off'
p99
S'1276890287'
p100
tp101
a(S'Anthrax'
p102
S'Indians'
p103
S'http://www.last.fm/music/Anthrax/_/Indians'
p104
S'1276890024'
p105
tp106
a(S'Them Crooked Vultures'
p107
S'Mind Eraser, No Chaser'
p108
S'http://www.last.fm/music/Them+Crooked+Vultures/_/Mind+Eraser,+No+Chaser'
p109
S'1276889682'
p110
tp111
a(S'Stone Temple Pilots'
p112
S'Huckleberry Crumble'
p113
S'http://www.last.fm/music/Stone+Temple+Pilots/_/Huckleberry+Crumble'
p114
S'1276889436'
p115
tp116
a(S'Ozzy Osbourne'
p117
S'Desire'
p118
S'http://www.last.fm/music/Ozzy+Osbourne/_/Desire'
p119
S'1276889246'
p120
tp121
a(S'Stone Temple Pilots'
p122
S'Meat Plow'
p123
S'http://www.last.fm/music/Stone+Temple+Pilots/_/Meat+Plow'
p124
S'1276888900'
p125
tp126
a(S'Alice in Chains'
p127
S'Your Decision'
p128
S'http://www.last.fm/music/Alice+in+Chains/_/Your+Decision'
p129
S'1276888683'
p130
tp131
a(S'Metallica'
p132
S'Of Wolf and Man'
p133
S'http://www.last.fm/music/Metallica/_/Of+Wolf+and+Man'
p134
S'1276888401'
p135
tp136
a(S'Stone Temple Pilots'
p137
S'Between the Lines'
p138
S'http://www.last.fm/music/Stone+Temple+Pilots/_/Between+the+Lines'
p139
S'1276888143'
p140
tp141
a(S'Anthrax'
p142
S'Only'
p143
S'http://www.last.fm/music/Anthrax/_/Only'
p144
S'1276887297'
p145
tp146
a(S'Nirvana'
p147
S'Breed'
p148
S'http://www.last.fm/music/Nirvana/_/Breed'
p149
S'1276887000'
p150
tp151
a(S'Rainbow'
p152
S'Kill the King'
p153
S'http://www.last.fm/music/Rainbow/_/Kill+the+King'
p154
S'1276886816'
p155
tp156
a(S'Nirvana'
p157
S'Lake Of Fire'
p158
S'http://www.last.fm/music/Nirvana/_/Lake+Of+Fire'
p159
S'1276886547'
p160
tp161
a(S'Metallica'
p162
S'The Four Horseman'
p163
S'http://www.last.fm/music/Metallica/_/The+Four+Horseman'
p164
S'1276886303'
p165
tp166
a(S'Judas Priest'
p167
S'Hot for Love'
p168
S'http://www.last.fm/music/Judas+Priest/_/Hot+for+Love'
p169
S'1276885869'
p170
tp171
a(S'Velvet Revolver'
p172
S'Do It For The Kids'
p173
S'http://www.last.fm/music/Velvet+Revolver/_/Do+It+For+The+Kids'
p174
S'1276885617'
p175
tp176
a(S'Anthrax'
p177
S'Hy Pro Glo'
p178
S'http://www.last.fm/music/Anthrax/_/Hy+Pro+Glo'
p179
S'1276885382'
p180
tp181
a(S'Ozzy Osbourne'
p182
S'The Ultimate Sin'
p183
S'http://www.last.fm/music/Ozzy+Osbourne/_/The+Ultimate+Sin'
p184
S'1276883646'
p185
tp186
a(S'Alice in Chains'
p187
S'Them Bones'
p188
S'http://www.last.fm/music/Alice+in+Chains/_/Them+Bones'
p189
S'1276883422'
p190
tp191
a(S'Ozzy Osbourne'
p192
S'Denial'
p193
S'http://www.last.fm/music/Ozzy+Osbourne/_/Denial'
p194
S'1276883272'
p195
tp196
a(S'Alice in Chains'
p197
S'Right Turn'
p198
S'http://www.last.fm/music/Alice+in+Chains/_/Right+Turn'
p199
S'1276882962'
p200
tp201
a(S'Ozzy Osbourne'
p202
S"I Don't Wanna Stop"
p203
S'http://www.last.fm/music/Ozzy+Osbourne/_/I+Don%27t+Wanna+Stop'
p204
S'1276882765'
p205
tp206
a(S'The Cult'
p207
S"Lil' Devil"
p208
S'http://www.last.fm/music/The+Cult/_/Lil%27+Devil'
p209
S'1276882525'
p210
tp211
a(S'Stone Temple Pilots'
p212
S'Transmissions From a Lonely Room'
p213
S'http://www.last.fm/music/Stone+Temple+Pilots/_/Transmissions+From+a+Lonely+Room'
p214
S'1276882339'
p215
tp216
a(S'Iron Maiden'
p217
S'The Loneliness of the Long Distance Runner'
p218
S'http://www.last.fm/music/Iron+Maiden/_/The+Loneliness+of+the+Long+Distance+Runner'
p219
S'1276881415'
p220
tp221
a(S'Rainbow'
p222
S'Gates of Babylon'
p223
S'http://www.last.fm/music/Rainbow/_/Gates+of+Babylon'
p224
S'1276881029'
p225
tp226
a(S'Stone Temple Pilots'
p227
S'Peacoat'
p228
S'http://www.last.fm/music/Stone+Temple+Pilots/_/Peacoat'
p229
S'1276880620'
p230
tp231
a(S'Audioslave'
p232
S"Heaven's Dead"
p233
S'http://www.last.fm/music/Audioslave/_/Heaven%27s+Dead'
p234
S'1276880410'
p235
tp236
a(S'Diamond Head'
p237
S'Muddy Waters'
p238
S'http://www.last.fm/music/Diamond+Head/_/Muddy+Waters'
p239
S'1276880133'
p240
tp241
a(S'Ozzy Osbourne'
p242
S'Secret Loser'
p243
S'http://www.last.fm/music/Ozzy+Osbourne/_/Secret+Loser'
p244
S'1276879858'
p245
tp246
a(S'Audioslave'
p247
S'Shadow On The Sun'
p248
S'http://www.last.fm/music/Audioslave/_/Shadow+On+The+Sun'
p249
S'1276879609'
p250
tp251
a(S'Alice Cooper'
p252
S'Run Down the Devil'
p253
S'http://www.last.fm/music/Alice+Cooper/_/Run+Down+the+Devil'
p254
S'1276879266'
p255
tp256
a(S'Stone Temple Pilots'
p257
S'Lounge Fly'
p258
S'http://www.last.fm/music/Stone+Temple+Pilots/_/Lounge+Fly'
p259
S'1276879057'
p260
tp261
a(S'Yes'
p262
S'Changes'
p263
S'http://www.last.fm/music/Yes/_/Changes'
p264
S'1276878738'
p265
tp266
a(S'Anthrax'
p267
S'Room For One More'
p268
S'http://www.last.fm/music/Anthrax/_/Room+For+One+More'
p269
S'1276878358'
p270
tp271
a(S'Alice Cooper'
p272
S"Nothing's Free"
p273
S'http://www.last.fm/music/Alice+Cooper/_/Nothing%27s+Free'
p274
S'1276878062'
p275
tp276
a(S'Audioslave'
p277
S'Your Time Has Come'
p278
S'http://www.last.fm/music/Audioslave/_/Your+Time+Has+Come'
p279
S'1276877761'
p280
tp281
a(S'Alice Cooper'
p282
S'Little By Little'
p283
S'http://www.last.fm/music/Alice+Cooper/_/Little+By+Little'
p284
S'1276877505'
p285
tp286
a(S'Metallica'
p287
S'My Friend of Misery'
p288
S'http://www.last.fm/music/Metallica/_/My+Friend+of+Misery'
p289
S'1276877230'
p290
tp291
a(S'The Cult'
p292
S'She Sells Sanctuary'
p293
S'http://www.last.fm/music/The+Cult/_/She+Sells+Sanctuary'
p294
S'1276876821'
p295
tp296
a(S'Nirvana'
p297
S'Plateau'
p298
S'http://www.last.fm/music/Nirvana/_/Plateau'
p299
S'1276876567'
p300
tp301
a(S'Iron Maiden'
p302
S'Wrathchild'
p303
S'http://www.last.fm/music/Iron+Maiden/_/Wrathchild'
p304
S'1276876349'
p305
tp306
a(S'Stone Temple Pilots'
p307
S'Hickory Dichotomy'
p308
S'http://www.last.fm/music/Stone+Temple+Pilots/_/Hickory+Dichotomy'
p309
S'1276876175'
p310
tp311
a(S'Alice in Chains'
p312
S'Sunshine'
p313
S'http://www.last.fm/music/Alice+in+Chains/_/Sunshine'
p314
S'1276875972'
p315
tp316
a(S'Them Crooked Vultures'
p317
S'New Fang'
p318
S'http://www.last.fm/music/Them+Crooked+Vultures/_/New+Fang'
p319
S'1276875686'
p320
tp321
a(S'The Cult'
p322
S'Fire Woman'
p323
S'http://www.last.fm/music/The+Cult/_/Fire+Woman'
p324
S'1276875457'
p325
tp326
a(S'Judas Priest'
p327
S'Reckless'
p328
S'http://www.last.fm/music/Judas+Priest/_/Reckless'
p329
S'1276875145'
p330
tp331
a(S'Soundgarden'
p332
S'Drawing Flies'
p333
S'http://www.last.fm/music/Soundgarden/_/Drawing+Flies'
p334
S'1276874885'
p335
tp336
a(S'Stone Temple Pilots'
p337
S'Pruno'
p338
S'http://www.last.fm/music/Stone+Temple+Pilots/_/Pruno'
p339
S'1276874738'
p340
tp341
a(S'Ozzy Osbourne'
p342
S"Mama, I'm Coming Home"
p343
S'http://www.last.fm/music/Ozzy+Osbourne/_/Mama,+I%27m+Coming+Home'
p344
S'1276874543'
p345
tp346
a(S'Army Of Anyone'
p347
S'Generation'
p348
S'http://www.last.fm/music/Army+Of+Anyone/_/Generation'
p349
S'1276874292'
p350
tp351
a(S'Alice in Chains'
p352
S'Acid Bubble'
p353
S'http://www.last.fm/music/Alice+in+Chains/_/Acid+Bubble'
p354
S'1276874081'
p355
tp356
a(S'Alice Cooper'
p357
S'Zombie Dance'
p358
S'http://www.last.fm/music/Alice+Cooper/_/Zombie+Dance'
p359
S'1276873665'
p360
tp361
a(S'Audioslave'
p362
S'Somedays'
p363
S'http://www.last.fm/music/Audioslave/_/Somedays'
p364
S'1276873402'
p365
tp366
a(S'Alice in Chains'
p367
S'Private Hell'
p368
S'http://www.last.fm/music/Alice+in+Chains/_/Private+Hell'
p369
S'1276873189'
p370
tp371
a(S'Stone Temple Pilots'
p372
S'Seven Caged Tigers'
p373
S'http://www.last.fm/music/Stone+Temple+Pilots/_/Seven+Caged+Tigers'
p374
S'1276872851'
p375
tp376
a(S'Alice in Chains'
p377
S'Lesson Learned'
p378
S'http://www.last.fm/music/Alice+in+Chains/_/Lesson+Learned'
p379
S'1276872594'
p380
tp381
a(S'Ozzy Osbourne'
p382
S'Trap Door'
p383
S'http://www.last.fm/music/Ozzy+Osbourne/_/Trap+Door'
p384
S'1276872337'
p385
tp386
a(S'Soundgarden'
p387
S'Mind Riot'
p388
S'http://www.last.fm/music/Soundgarden/_/Mind+Riot'
p389
S'1276872091'
p390
tp391
a(S'Them Crooked Vultures'
p392
S'Dead End Friends'
p393
S'http://www.last.fm/music/Them+Crooked+Vultures/_/Dead+End+Friends'
p394
S'1276871796'
p395
tp396
a(S'Diamond Head'
p397
S'This Planet and Me'
p398
S'http://www.last.fm/music/Diamond+Head/_/This+Planet+and+Me'
p399
S'1276871601'
p400
tp401
a(S'Stone Temple Pilots'
p402
S'Bagman'
p403
S'http://www.last.fm/music/Stone+Temple+Pilots/_/Bagman'
p404
S'1276871305'
p405
tp406
a(S'Alice in Chains'
p407
S'Heaven Beside You'
p408
S'http://www.last.fm/music/Alice+in+Chains/_/Heaven+Beside+You'
p409
S'1276871139'
p410
tp411
a(S'Ozzy Osbourne'
p412
S"You're No Different"
p413
S'http://www.last.fm/music/Ozzy+Osbourne/_/You%27re+No+Different'
p414
S'1276870811'
p415
tp416
a(S'Judas Priest'
p417
S'Turbo Lover'
p418
S'http://www.last.fm/music/Judas+Priest/_/Turbo+Lover'
p419
S'1276870512'
p420
tp421
a(S'Stone Temple Pilots'
p422
S'Take a Load Off'
p423
S'http://www.last.fm/music/Stone+Temple+Pilots/_/Take+a+Load+Off'
p424
S'1276870179'
p425
tp426
a(S'Stone Temple Pilots'
p427
S"Trippin' on a Hole in a Paper Heart"
p428
S'http://www.last.fm/music/Stone+Temple+Pilots/_/Trippin%27+on+a+Hole+in+a+Paper+Heart'
p429
S'1276869987'
p430
tp431
a(S'Soundgarden'
p432
S'Jesus Christ Pose'
p433
S'http://www.last.fm/music/Soundgarden/_/Jesus+Christ+Pose'
p434
S'1276868881'
p435
tp436
a(S'Ozzy Osbourne'
p437
S'Thunder Underground'
p438
S'http://www.last.fm/music/Ozzy+Osbourne/_/Thunder+Underground'
p439
S'1276868530'
p440
tp441
a(S'Alice in Chains'
p442
S'Dam That River'
p443
S'http://www.last.fm/music/Alice+in+Chains/_/Dam+That+River'
p444
S'1276868144'
p445
tp446
a(S'Stone Temple Pilots'
p447
S'Silvergun Superman'
p448
S'http://www.last.fm/music/Stone+Temple+Pilots/_/Silvergun+Superman'
p449
S'1276867797'
p450
tp451
a(S'Velvet Revolver'
p452
S'Fall To Pieces'
p453
S'http://www.last.fm/music/Velvet+Revolver/_/Fall+To+Pieces'
p454
S'1276867480'
p455
tp456
a(S'Nirvana'
p457
S'The Man Who Sold the World'
p458
S'http://www.last.fm/music/Nirvana/_/The+Man+Who+Sold+the+World'
p459
S'1276867209'
p460
tp461
a(S'Alice in Chains'
p462
S'Got Me Wrong'
p463
S'http://www.last.fm/music/Alice+in+Chains/_/Got+Me+Wrong'
p464
S'1276866948'
p465
tp466
a(S'Ozzy Osbourne'
p467
S'Let Me Hear You Scream'
p468
S'http://www.last.fm/music/Ozzy+Osbourne/_/Let+Me+Hear+You+Scream'
p469
S'1276866696'
p470
tp471
a(S'Ozzy Osbourne'
p472
S'Let Me Hear You Scream'
p473
S'http://www.last.fm/music/Ozzy+Osbourne/_/Let+Me+Hear+You+Scream'
p474
S'1276813739'
p475
tp476
a(S'Ozzy Osbourne'
p477
S'Let Me Hear You Scream'
p478
S'http://www.last.fm/music/Ozzy+Osbourne/_/Let+Me+Hear+You+Scream'
p479
S'1276813509'
p480
tp481
a(S'Bee Gees'
p482
S'E.S.P.'
p483
S'http://www.last.fm/music/Bee+Gees/_/E.S.P.'
p484
S'1276813053'
p485
tp486
a(S'Stone Temple Pilots'
p487
S'Between the Lines'
p488
S'http://www.last.fm/music/Stone+Temple+Pilots/_/Between+the+Lines'
p489
S'1276812846'
p490
tp491
a(S'Soundgarden'
p492
S'Drawing Flies'
p493
S'http://www.last.fm/music/Soundgarden/_/Drawing+Flies'
p494
S'1276812675'
p495
tp496
a(S'Ozzy Osbourne'
p497
S"I Don't Wanna Stop"
p498
S'http://www.last.fm/music/Ozzy+Osbourne/_/I+Don%27t+Wanna+Stop'
p499
S'1276812528'
p500
tp501
a(S'Soundgarden'
p502
S'Jesus Christ Pose'
p503
S'http://www.last.fm/music/Soundgarden/_/Jesus+Christ+Pose'
p504
S'1276812289'
p505
tp506
a(S'Judas Priest'
p507
S'Reckless'
p508
S'http://www.last.fm/music/Judas+Priest/_/Reckless'
p509
S'1276811938'
p510
tp511
a(S'Stone Temple Pilots'
p512
S'Hickory Dichotomy'
p513
S'http://www.last.fm/music/Stone+Temple+Pilots/_/Hickory+Dichotomy'
p514
S'1276811677'
p515
tp516
a(S'Stone Temple Pilots'
p517
S'Transmissions From a Lonely Room'
p518
S'http://www.last.fm/music/Stone+Temple+Pilots/_/Transmissions+From+a+Lonely+Room'
p519
S'1276811475'
p520
tp521
a(S'Alice Cooper'
p522
S'Snakebite'
p523
S'http://www.last.fm/music/Alice+Cooper/_/Snakebite'
p524
S'1276811280'
p525
tp526
a(S'Alice in Chains'
p527
S'Got Me Wrong'
p528
S'http://www.last.fm/music/Alice+in+Chains/_/Got+Me+Wrong'
p529
S'1276811006'
p530
tp531
a(S'Anthrax'
p532
S'Hy Pro Glo'
p533
S'http://www.last.fm/music/Anthrax/_/Hy+Pro+Glo'
p534
S'1276810754'
p535
tp536
a(S'Iron Maiden'
p537
S'The Loneliness of the Long Distance Runner'
p538
S'http://www.last.fm/music/Iron+Maiden/_/The+Loneliness+of+the+Long+Distance+Runner'
p539
S'1276809738'
p540
tp541
a(S'The Cult'
p542
S"Lil' Devil"
p543
S'http://www.last.fm/music/The+Cult/_/Lil%27+Devil'
p544
S'1276809352'
p545
tp546
a(S'Stone Temple Pilots'
p547
S'Seven Caged Tigers'
p548
S'http://www.last.fm/music/Stone+Temple+Pilots/_/Seven+Caged+Tigers'
p549
S'1276809186'
p550
tp551
a(S'Stone Temple Pilots'
p552
S"Trippin' on a Hole in a Paper Heart"
p553
S'http://www.last.fm/music/Stone+Temple+Pilots/_/Trippin%27+on+a+Hole+in+a+Paper+Heart'
p554
S'1276808929'
p555
tp556
a(S'Alice Cooper'
p557
S'Little By Little'
p558
S'http://www.last.fm/music/Alice+Cooper/_/Little+By+Little'
p559
S'1276808753'
p560
tp561
a(S'Ozzy Osbourne'
p562
S'Thunder Underground'
p563
S'http://www.last.fm/music/Ozzy+Osbourne/_/Thunder+Underground'
p564
S'1276808477'
p565
tp566
a(S'Stone Temple Pilots'
p567
S'Take a Load Off'
p568
S'http://www.last.fm/music/Stone+Temple+Pilots/_/Take+a+Load+Off'
p569
S'1276808090'
p570
tp571
a(S'Velvet Revolver'
p572
S'Fall To Pieces'
p573
S'http://www.last.fm/music/Velvet+Revolver/_/Fall+To+Pieces'
p574
S'1276802323'
p575
tp576
a(S'Audioslave'
p577
S'Jewel Of The Summertime'
p578
S'http://www.last.fm/music/Audioslave/_/Jewel+Of+The+Summertime'
p579
S'1276802052'
p580
tp581
a(S'Ozzy Osbourne'
p582
S"You're No Different"
p583
S'http://www.last.fm/music/Ozzy+Osbourne/_/You%27re+No+Different'
p584
S'1276801728'
p585
tp586
a(S'Alice in Chains'
p587
S'Heaven Beside You'
p588
S'http://www.last.fm/music/Alice+in+Chains/_/Heaven+Beside+You'
p589
S'1276801413'
p590
tp591
a(S'Them Crooked Vultures'
p592
S'Mind Eraser, No Chaser'
p593
S'http://www.last.fm/music/Them+Crooked+Vultures/_/Mind+Eraser,+No+Chaser'
p594
S'1276801086'
p595
tp596
a(S'Ozzy Osbourne'
p597
S'Let Me Hear You Scream'
p598
S'http://www.last.fm/music/Ozzy+Osbourne/_/Let+Me+Hear+You+Scream'
p599
S'1276800824'
p600
tp601
a(S'Anthrax'
p602
S'Indians'
p603
S'http://www.last.fm/music/Anthrax/_/Indians'
p604
S'1276800618'
p605
tp606
a(S'Ozzy Osbourne'
p607
S"Mama, I'm Coming Home"
p608
S'http://www.last.fm/music/Ozzy+Osbourne/_/Mama,+I%27m+Coming+Home'
p609
S'1276800380'
p610
tp611
a(S'Metallica'
p612
S'My Friend of Misery'
p613
S'http://www.last.fm/music/Metallica/_/My+Friend+of+Misery'
p614
S'1276800128'
p615
tp616
a(S'Ozzy Osbourne'
p617
S'Shot in the Dark'
p618
S'http://www.last.fm/music/Ozzy+Osbourne/_/Shot+in+the+Dark'
p619
S'1276799719'
p620
tp621
a(S'Metallica'
p622
S'Holier Than Thou'
p623
S'http://www.last.fm/music/Metallica/_/Holier+Than+Thou'
p624
S'1276797913'
p625
tp626
a(S'Them Crooked Vultures'
p627
S'New Fang'
p628
S'http://www.last.fm/music/Them+Crooked+Vultures/_/New+Fang'
p629
S'1276797686'
p630
tp631
a(S'Alice in Chains'
p632
S'Acid Bubble'
p633
S'http://www.last.fm/music/Alice+in+Chains/_/Acid+Bubble'
p634
S'1276797458'
p635
tp636
a(S'Stone Temple Pilots'
p637
S"Trippin' on a Hole in a Paper Heart"
p638
S'http://www.last.fm/music/Stone+Temple+Pilots/_/Trippin%27+on+a+Hole+in+a+Paper+Heart'
p639
S'1276797042'
p640
tp641
a(S'Anthrax'
p642
S'Only'
p643
S'http://www.last.fm/music/Anthrax/_/Only'
p644
S'1276796865'
p645
tp646
a(S'Nirvana'
p647
S'Plateau'
p648
S'http://www.last.fm/music/Nirvana/_/Plateau'
p649
S'1276796569'
p650
tp651
a(S'Ozzy Osbourne'
p652
S'Denial'
p653
S'http://www.last.fm/music/Ozzy+Osbourne/_/Denial'
p654
S'1276796351'
p655
tp656
a(S'Alice in Chains'
p657
S'Sunshine'
p658
S'http://www.last.fm/music/Alice+in+Chains/_/Sunshine'
p659
S'1276796040'
p660
tp661
a(S'Ozzy Osbourne'
p662
S'Trap Door'
p663
S'http://www.last.fm/music/Ozzy+Osbourne/_/Trap+Door'
p664
S'1276795755'
p665
tp666
a(S'Ozzy Osbourne'
p667
S"Mama, I'm Coming Home"
p668
S'http://www.last.fm/music/Ozzy+Osbourne/_/Mama,+I%27m+Coming+Home'
p669
S'1276795509'
p670
tp671
a(S'Yes'
p672
S'Changes'
p673
S'http://www.last.fm/music/Yes/_/Changes'
p674
S'1276795258'
p675
tp676
a(S'Ozzy Osbourne'
p677
S'The Ultimate Sin'
p678
S'http://www.last.fm/music/Ozzy+Osbourne/_/The+Ultimate+Sin'
p679
S'1276794878'
p680
tp681
a(S'Stone Temple Pilots'
p682
S'Silvergun Superman'
p683
S'http://www.last.fm/music/Stone+Temple+Pilots/_/Silvergun+Superman'
p684
S'1276794647'
p685
tp686
a(S'Nirvana'
p687
S'Plateau'
p688
S'http://www.last.fm/music/Nirvana/_/Plateau'
p689
S'1276794331'
p690
tp691
a(S'Iron Maiden'
p692
S'The Ides Of March'
p693
S'http://www.last.fm/music/Iron+Maiden/_/The+Ides+Of+March'
p694
S'1276794113'
p695
tp696
a(S'Them Crooked Vultures'
p697
S'Dead End Friends'
p698
S'http://www.last.fm/music/Them+Crooked+Vultures/_/Dead+End+Friends'
p699
S'1276794006'
p700
tp701
a(S'Them Crooked Vultures'
p702
S'Gunman'
p703
S'http://www.last.fm/music/Them+Crooked+Vultures/_/Gunman'
p704
S'1276787672'
p705
tp706
a(S'Audioslave'
p707
S'Set It Off'
p708
S'http://www.last.fm/music/Audioslave/_/Set+It+Off'
p709
S'1276787385'
p710
tp711
a(S'Stone Temple Pilots'
p712
S'Pruno'
p713
S'http://www.last.fm/music/Stone+Temple+Pilots/_/Pruno'
p714
S'1276787122'
p715
tp716
a(S'Soundgarden'
p717
S'Fresh Tendrils'
p718
S'http://www.last.fm/music/Soundgarden/_/Fresh+Tendrils'
p719
S'1276786927'
p720
tp721
a(S'Rainbow'
p722
S'Kill the King'
p723
S'http://www.last.fm/music/Rainbow/_/Kill+the+King'
p724
S'1276786671'
p725
tp726
a(S'Judas Priest'
p727
S'Hot for Love'
p728
S'http://www.last.fm/music/Judas+Priest/_/Hot+for+Love'
p729
S'1276786402'
p730
tp731
a(S'Ozzy Osbourne'
p732
S'Thunder Underground'
p733
S'http://www.last.fm/music/Ozzy+Osbourne/_/Thunder+Underground'
p734
S'1276786149'
p735
tp736
a(S'Velvet Revolver'
p737
S'Fall To Pieces'
p738
S'http://www.last.fm/music/Velvet+Revolver/_/Fall+To+Pieces'
p739
S'1276785762'
p740
tp741
a(S'Stone Temple Pilots'
p742
S'First Kiss on Mars'
p743
S'http://www.last.fm/music/Stone+Temple+Pilots/_/First+Kiss+on+Mars'
p744
S'1276785491'
p745
tp746
a(S'Stone Temple Pilots'
p747
S'Hickory Dichotomy'
p748
S'http://www.last.fm/music/Stone+Temple+Pilots/_/Hickory+Dichotomy'
p749
S'1276785308'
p750
tp751
a(S'Audioslave'
p752
S'Set It Off'
p753
S'http://www.last.fm/music/Audioslave/_/Set+It+Off'
p754
S'1276784889'
p755
tp756
a(S'Ozzy Osbourne'
p757
S'Let Me Hear You Scream'
p758
S'http://www.last.fm/music/Ozzy+Osbourne/_/Let+Me+Hear+You+Scream'
p759
S'1276784626'
p760
tp761
a(S'Judas Priest'
p762
S'Turbo Lover'
p763
S'http://www.last.fm/music/Judas+Priest/_/Turbo+Lover'
p764
S'1276783492'
p765
tp766
a(S'Audioslave'
p767
S'Set It Off'
p768
S'http://www.last.fm/music/Audioslave/_/Set+It+Off'
p769
S'1276783159'
p770
tp771
a(S'Ozzy Osbourne'
p772
S'Let Me Hear You Scream'
p773
S'http://www.last.fm/music/Ozzy+Osbourne/_/Let+Me+Hear+You+Scream'
p774
S'1276782895'
p775
tp776
a(S'Audioslave'
p777
S'Set It Off'
p778
S'http://www.last.fm/music/Audioslave/_/Set+It+Off'
p779
S'1276782580'
p780
tp781
a(S'Ozzy Osbourne'
p782
S'Let Me Hear You Scream'
p783
S'http://www.last.fm/music/Ozzy+Osbourne/_/Let+Me+Hear+You+Scream'
p784
S'1276782317'
p785
tp786
a(S'Audioslave'
p787
S'Jewel Of The Summertime'
p788
S'http://www.last.fm/music/Audioslave/_/Jewel+Of+The+Summertime'
p789
S'1276781322'
p790
tp791
a(S'Alice in Chains'
p792
S'Dam That River'
p793
S'http://www.last.fm/music/Alice+in+Chains/_/Dam+That+River'
p794
S'1276781090'
p795
tp796
a(S'Ozzy Osbourne'
p797
S'Trap Door'
p798
S'http://www.last.fm/music/Ozzy+Osbourne/_/Trap+Door'
p799
S'1276780901'
p800
tp801
a(S'Judas Priest'
p802
S'Turbo Lover'
p803
S'http://www.last.fm/music/Judas+Priest/_/Turbo+Lover'
p804
S'1276780653'
p805
tp806
a(S'Audioslave'
p807
S'Set It Off'
p808
S'http://www.last.fm/music/Audioslave/_/Set+It+Off'
p809
S'1276780321'
p810
tp811
a(S'Ozzy Osbourne'
p812
S'Let Me Hear You Scream'
p813
S'http://www.last.fm/music/Ozzy+Osbourne/_/Let+Me+Hear+You+Scream'
p814
S'1276780058'
p815
tp816
a(S'Ozzy Osbourne'
p817
S'Let Me Hear You Scream'
p818
S'http://www.last.fm/music/Ozzy+Osbourne/_/Let+Me+Hear+You+Scream'
p819
S'1276779856'
p820
tp821
a(S'Nirvana'
p822
S'Plateau'
p823
S'http://www.last.fm/music/Nirvana/_/Plateau'
p824
S'1276779381'
p825
tp826
a(S'Alice in Chains'
p827
S'Private Hell'
p828
S'http://www.last.fm/music/Alice+in+Chains/_/Private+Hell'
p829
S'1276779163'
p830
tp831
a(S'Soundgarden'
p832
S'Drawing Flies'
p833
S'http://www.last.fm/music/Soundgarden/_/Drawing+Flies'
p834
S'1276778824'
p835
tp836
a(S'Stone Temple Pilots'
p837
S'Take a Load Off'
p838
S'http://www.last.fm/music/Stone+Temple+Pilots/_/Take+a+Load+Off'
p839
S'1276778678'
p840
tp841
a(S'Stone Temple Pilots'
p842
S'Huckleberry Crumble'
p843
S'http://www.last.fm/music/Stone+Temple+Pilots/_/Huckleberry+Crumble'
p844
S'1276778487'
p845
tp846
a(S'The Cult'
p847
S"Lil' Devil"
p848
S'http://www.last.fm/music/The+Cult/_/Lil%27+Devil'
p849
S'1276726274'
p850
tp851
a(S'Velvet Revolver'
p852
S'Do It For The Kids'
p853
S'http://www.last.fm/music/Velvet+Revolver/_/Do+It+For+The+Kids'
p854
S'1276726122'
p855
tp856
a(S'Audioslave'
p857
S'Your Time Has Come'
p858
S'http://www.last.fm/music/Audioslave/_/Your+Time+Has+Come'
p859
S'1276725886'
p860
tp861
a(S'Yes'
p862
S'Changes'
p863
S'http://www.last.fm/music/Yes/_/Changes'
p864
S'1276725630'
p865
tp866
a(S'Alice in Chains'
p867
S'Lesson Learned'
p868
S'http://www.last.fm/music/Alice+in+Chains/_/Lesson+Learned'
p869
S'1276725250'
p870
tp871
a(S'Soundgarden'
p872
S'Jesus Christ Pose'
p873
S'http://www.last.fm/music/Soundgarden/_/Jesus+Christ+Pose'
p874
S'1276724989'
p875
tp876
a(S'Alice in Chains'
p877
S'Dam That River'
p878
S'http://www.last.fm/music/Alice+in+Chains/_/Dam+That+River'
p879
S'1276724638'
p880
tp881
a(S'Metallica'
p882
S'Holier Than Thou'
p883
S'http://www.last.fm/music/Metallica/_/Holier+Than+Thou'
p884
S'1276724449'
p885
tp886
a(S'Iron Maiden'
p887
S'The Ides Of March'
p888
S'http://www.last.fm/music/Iron+Maiden/_/The+Ides+Of+March'
p889
S'1276724219'
p890
tp891
a(S'Anthrax'
p892
S'Random Acts Of Senseless Violence'
p893
S'http://www.last.fm/music/Anthrax/_/Random+Acts+Of+Senseless+Violence'
p894
S'1276724113'
p895
tp896
a(S'Ozzy Osbourne'
p897
S'Perry Mason'
p898
S'http://www.last.fm/music/Ozzy+Osbourne/_/Perry+Mason'
p899
S'1276723869'
p900
tp901
a(S'Stone Temple Pilots'
p902
S"Trippin' on a Hole in a Paper Heart"
p903
S'http://www.last.fm/music/Stone+Temple+Pilots/_/Trippin%27+on+a+Hole+in+a+Paper+Heart'
p904
S'1276723516'
p905
tp906
a(S'Anthrax'
p907
S'Only'
p908
S'http://www.last.fm/music/Anthrax/_/Only'
p909
S'1276723340'
p910
tp911
a(S'Alice in Chains'
p912
S'Got Me Wrong'
p913
S'http://www.last.fm/music/Alice+in+Chains/_/Got+Me+Wrong'
p914
S'1276723043'
p915
tp916
a(S'Alice in Chains'
p917
S'Sludge Factory'
p918
S'http://www.last.fm/music/Alice+in+Chains/_/Sludge+Factory'
p919
S'1276722791'
p920
tp921
a(S'Nirvana'
p922
S'The Man Who Sold the World'
p923
S'http://www.last.fm/music/Nirvana/_/The+Man+Who+Sold+the+World'
p924
S'1276722513'
p925
tp926
a(S'Soundgarden'
p927
S'Fresh Tendrils'
p928
S'http://www.last.fm/music/Soundgarden/_/Fresh+Tendrils'
p929
S'1276722252'
p930
tp931
a(S'Audioslave'
p932
S'Sound Of A Gun'
p933
S'http://www.last.fm/music/Audioslave/_/Sound+Of+A+Gun'
p934
S'1276721996'
p935
tp936
a(S'Stone Temple Pilots'
p937
S'Between the Lines'
p938
S'http://www.last.fm/music/Stone+Temple+Pilots/_/Between+the+Lines'
p939
S'1276721738'
p940
tp941
a(S'Stone Temple Pilots'
p942
S'Seven Caged Tigers'
p943
S'http://www.last.fm/music/Stone+Temple+Pilots/_/Seven+Caged+Tigers'
p944
S'1276721567'
p945
tp946
a(S'Army Of Anyone'
p947
S'Generation'
p948
S'http://www.last.fm/music/Army+Of+Anyone/_/Generation'
p949
S'1276721311'
p950
tp951
a(S'Ozzy Osbourne'
p952
S'Trap Door'
p953
S'http://www.last.fm/music/Ozzy+Osbourne/_/Trap+Door'
p954
S'1276721100'
p955
tp956
a(S'Alice Cooper'
p957
S'Zombie Dance'
p958
S'http://www.last.fm/music/Alice+Cooper/_/Zombie+Dance'
p959
S'1276720854'
p960
tp961
a(S'Metallica'
p962
S'The Four Horseman'
p963
S'http://www.last.fm/music/Metallica/_/The+Four+Horseman'
p964
S'1276720590'
p965
tp966
a(S'Rainbow'
p967
S'Lady Of The Lake'
p968
S'http://www.last.fm/music/Rainbow/_/Lady+Of+The+Lake'
p969
S'1276720157'
p970
tp971
a(S'Judas Priest'
p972
S'Turbo Lover'
p973
S'http://www.last.fm/music/Judas+Priest/_/Turbo+Lover'
p974
S'1276719938'
p975
tp976
a(S'Audioslave'
p977
S"Heaven's Dead"
p978
S'http://www.last.fm/music/Audioslave/_/Heaven%27s+Dead'
p979
S'1276719604'
p980
tp981
a(S'Them Crooked Vultures'
p982
S'Mind Eraser, No Chaser'
p983
S'http://www.last.fm/music/Them+Crooked+Vultures/_/Mind+Eraser,+No+Chaser'
p984
S'1276719327'
p985
tp986
a(S'Audioslave'
p987
S'Somedays'
p988
S'http://www.last.fm/music/Audioslave/_/Somedays'
p989
S'1276719081'
p990
tp991
a(S'Nirvana'
p992
S'Lake Of Fire'
p993
S'http://www.last.fm/music/Nirvana/_/Lake+Of+Fire'
p994
S'1276718868'
p995
tp996
a(S'Stone Temple Pilots'
p997
S'Silvergun Superman'
p998
S'http://www.last.fm/music/Stone+Temple+Pilots/_/Silvergun+Superman'
p999
S'1276718692'
p1000
tp1001
a.