(lp1
(S'The Rolling Stones'
p2
S'Beast of Burden'
p3
S'http://www.last.fm/music/The+Rolling+Stones/_/Beast+of+Burden'
p4
S'1205265365'
p5
tp6
a(S'Iron Maiden'
p7
S'The Trooper'
p8
S'http://www.last.fm/music/Iron+Maiden/_/The+Trooper'
p9
S'1205264455'
p10
tp11
a(S'Iron Maiden'
p12
S'2 Minutes to Midnight'
p13
S'http://www.last.fm/music/Iron+Maiden/_/2+Minutes+to+Midnight'
p14
S'1205261047'
p15
tp16
a(S'Weezer'
p17
S'Buddy Holly'
p18
S'http://www.last.fm/music/Weezer/_/Buddy+Holly'
p19
S'1205260881'
p20
tp21
a(S'The Police'
p22
S'Roxanne'
p23
S'http://www.last.fm/music/The+Police/_/Roxanne'
p24
S'1205260674'
p25
tp26
a(S'Iron Maiden'
p27
S'Chains of Misery'
p28
S'http://www.last.fm/music/Iron+Maiden/_/Chains+of+Misery'
p29
S'1205260456'
p30
tp31
a(S'Iron Maiden'
p32
S'Public Enema Number One'
p33
S'http://www.last.fm/music/Iron+Maiden/_/Public+Enema+Number+One'
p34
S'1205260192'
p35
tp36
a(S'Iron Maiden'
p37
S'Wasted Years'
p38
S'http://www.last.fm/music/Iron+Maiden/_/Wasted+Years'
p39
S'1205181317'
p40
tp41
a(S'Jerry Cantrell'
p42
S'Devil By His Side'
p43
S'http://www.last.fm/music/Jerry+Cantrell/_/Devil+By+His+Side'
p44
S'1205181017'
p45
tp46
a(S'Butthole Surfers'
p47
S'Pepper'
p48
S'http://www.last.fm/music/Butthole+Surfers/_/Pepper'
p49
S'1205180679'
p50
tp51
a(S'Iron Maiden'
p52
S'Aces High'
p53
S'http://www.last.fm/music/Iron+Maiden/_/Aces+High'
p54
S'1205180408'
p55
tp56
a(S'Led Zeppelin'
p57
S'Black Dog'
p58
S'http://www.last.fm/music/Led+Zeppelin/_/Black+Dog'
p59
S'1205180100'
p60
tp61
a(S'Audioslave'
p62
S'Somedays'
p63
S'http://www.last.fm/music/Audioslave/_/Somedays'
p64
S'1205178820'
p65
tp66
a(S'Iron Maiden'
p67
S'The Prophecy'
p68
S'http://www.last.fm/music/Iron+Maiden/_/The+Prophecy'
p69
S'1205178494'
p70
tp71
a(S'Iron Maiden'
p72
S'Holy Smoke'
p73
S'http://www.last.fm/music/Iron+Maiden/_/Holy+Smoke'
p74
S'1205178265'
p75
tp76
a(S'Michael Jackson'
p77
S'Billie Jean'
p78
S'http://www.last.fm/music/Michael+Jackson/_/Billie+Jean'
p79
S'1205177970'
p80
tp81
a(S'Iron Maiden'
p82
S'Chains of Misery'
p83
S'http://www.last.fm/music/Iron+Maiden/_/Chains+of+Misery'
p84
S'1205175774'
p85
tp86
a(S'The Who'
p87
S"Won't Get Fooled Again"
p88
S'http://www.last.fm/music/The+Who/_/Won%27t+Get+Fooled+Again'
p89
S'1205175261'
p90
tp91
a(S'Queen'
p92
S'Bohemian Rhapsody'
p93
S'http://www.last.fm/music/Queen/_/Bohemian+Rhapsody'
p94
S'1205174727'
p95
tp96
a(S'Iron Maiden'
p97
S'Public Enema Number One'
p98
S'http://www.last.fm/music/Iron+Maiden/_/Public+Enema+Number+One'
p99
S'1205174474'
p100
tp101
a(S'Jerry Cantrell'
p102
S'Keep The Light On'
p103
S'http://www.last.fm/music/Jerry+Cantrell/_/Keep+The+Light+On'
p104
S'1205174195'
p105
tp106
a(S'Iron Maiden'
p107
S'The Clairvoyant'
p108
S'http://www.last.fm/music/Iron+Maiden/_/The+Clairvoyant'
p109
S'1205173969'
p110
tp111
a(S'Iron Maiden'
p112
S'Be Quick or Be Dead'
p113
S'http://www.last.fm/music/Iron+Maiden/_/Be+Quick+or+Be+Dead'
p114
S'1205173741'
p115
tp116
a(S'Jerry Cantrell'
p117
S'Between'
p118
S'http://www.last.fm/music/Jerry+Cantrell/_/Between'
p119
S'1205173524'
p120
tp121
a(S'Metallica'
p122
S'2 X 4'
p123
S'http://www.last.fm/music/Metallica/_/2+X+4'
p124
S'1205173000'
p125
tp126
a(S'Iron Maiden'
p127
S'2 Minutes to Midnight'
p128
S'http://www.last.fm/music/Iron+Maiden/_/2+Minutes+to+Midnight'
p129
S'1205172628'
p130
tp131
a(S'Black Sabbath'
p132
S'Iron Man'
p133
S'http://www.last.fm/music/Black+Sabbath/_/Iron+Man'
p134
S'1205172275'
p135
tp136
a(S'Dion'
p137
S'Runaround Sue'
p138
S'http://www.last.fm/music/Dion/_/Runaround+Sue'
p139
S'1205172117'
p140
tp141
a(S'Queens of the Stone Age'
p142
S'Little Sister'
p143
S'http://www.last.fm/music/Queens+of+the+Stone+Age/_/Little+Sister'
p144
S'1205166353'
p145
tp146
a(S'Blondie'
p147
S'Call Me'
p148
S'http://www.last.fm/music/Blondie/_/Call+Me'
p149
S'1205166130'
p150
tp151
a(S'Iron Maiden'
p152
S'Sea of Madness'
p153
S'http://www.last.fm/music/Iron+Maiden/_/Sea+of+Madness'
p154
S'1205165788'
p155
tp156
a(S'The Police'
p157
S'Roxanne'
p158
S'http://www.last.fm/music/The+Police/_/Roxanne'
p159
S'1205165584'
p160
tp161
a(S'Iron Maiden'
p162
S'Stranger In a Strange Land'
p163
S'http://www.last.fm/music/Iron+Maiden/_/Stranger+In+a+Strange+Land'
p164
S'1205161364'
p165
tp166
a(S'Jerry Cantrell'
p167
S'Keep The Light On'
p168
S'http://www.last.fm/music/Jerry+Cantrell/_/Keep+The+Light+On'
p169
S'1205161077'
p170
tp171
a(S'Iron Maiden'
p172
S'The Evil That Men Do'
p173
S'http://www.last.fm/music/Iron+Maiden/_/The+Evil+That+Men+Do'
p174
S'1205160538'
p175
tp176
a(S'Iron Maiden'
p177
S'Aces High'
p178
S'http://www.last.fm/music/Iron+Maiden/_/Aces+High'
p179
S'1205160267'
p180
tp181
a(S'Iron Maiden'
p182
S'The Clansman'
p183
S'http://www.last.fm/music/Iron+Maiden/_/The+Clansman'
p184
S'1205159673'
p185
tp186
a(S'Iron Maiden'
p187
S'The Clansman'
p188
S'http://www.last.fm/music/Iron+Maiden/_/The+Clansman'
p189
S'1205151510'
p190
tp191
a(S'The Clash'
p192
S'Should I Stay or Should I Go'
p193
S'http://www.last.fm/music/The+Clash/_/Should+I+Stay+or+Should+I+Go'
p194
S'1204904261'
p195
tp196
a(S'Black Sabbath'
p197
S'Paranoid'
p198
S'http://www.last.fm/music/Black+Sabbath/_/Paranoid'
p199
S'1204904090'
p200
tp201
a(S'Iron Maiden'
p202
S'The Trooper'
p203
S'http://www.last.fm/music/Iron+Maiden/_/The+Trooper'
p204
S'1204903839'
p205
tp206
a(S'Iron Maiden'
p207
S'The Clairvoyant'
p208
S'http://www.last.fm/music/Iron+Maiden/_/The+Clairvoyant'
p209
S'1204903571'
p210
tp211
a(S'The Everly Brothers'
p212
S'Wake up Little Susie'
p213
S'http://www.last.fm/music/The+Everly+Brothers/_/Wake+up+Little+Susie'
p214
S'1204903452'
p215
tp216
a(S'Iron Maiden'
p217
S'Only the Good Die Young'
p218
S'http://www.last.fm/music/Iron+Maiden/_/Only+the+Good+Die+Young'
p219
S'1204903168'
p220
tp221
a(S'Iron Maiden'
p222
S'Only the Good Die Young'
p223
S'http://www.last.fm/music/Iron+Maiden/_/Only+the+Good+Die+Young'
p224
S'1204892931'
p225
tp226
a(S'The Smashing Pumpkins'
p227
S'Bullet With Butterfly Wings'
p228
S'http://www.last.fm/music/The+Smashing+Pumpkins/_/Bullet+With+Butterfly+Wings'
p229
S'1204892674'
p230
tp231
a(S'Mother Love Bone'
p232
S'Heartshine'
p233
S'http://www.last.fm/music/Mother+Love+Bone/_/Heartshine'
p234
S'1204892396'
p235
tp236
a(S'Iron Maiden'
p237
S'Rainmaker'
p238
S'http://www.last.fm/music/Iron+Maiden/_/Rainmaker'
p239
S'1204892167'
p240
tp241
a(S'Queens of the Stone Age'
p242
S'Little Sister'
p243
S'http://www.last.fm/music/Queens+of+the+Stone+Age/_/Little+Sister'
p244
S'1204891955'
p245
tp246
a(S'Iron Maiden'
p247
S'The Clansman'
p248
S'http://www.last.fm/music/Iron+Maiden/_/The+Clansman'
p249
S'1204891377'
p250
tp251
a(S'Jerry Cantrell'
p252
S'Keep The Light On'
p253
S'http://www.last.fm/music/Jerry+Cantrell/_/Keep+The+Light+On'
p254
S'1204891074'
p255
tp256
a(S'Jerry Cantrell'
p257
S'Settling Down'
p258
S'http://www.last.fm/music/Jerry+Cantrell/_/Settling+Down'
p259
S'1204890662'
p260
tp261
a(S'Green Day'
p262
S'Basket Case'
p263
S'http://www.last.fm/music/Green+Day/_/Basket+Case'
p264
S'1204890483'
p265
tp266
a(S'Atlantic Starr'
p267
S'Always'
p268
S'http://www.last.fm/music/Atlantic+Starr/_/Always'
p269
S'1204890169'
p270
tp271
a(S'Jerry Cantrell'
p272
S'Between'
p273
S'http://www.last.fm/music/Jerry+Cantrell/_/Between'
p274
S'1204889952'
p275
tp276
a(S'Tina Turner'
p277
S"What's Love Got to Do With It"
p278
S'http://www.last.fm/music/Tina+Turner/_/What%27s+Love+Got+to+Do+With+It'
p279
S'1204889719'
p280
tp281
a(S'Metallica'
p282
S'The Call of Ktulu'
p283
S'http://www.last.fm/music/Metallica/_/The+Call+of+Ktulu'
p284
S'1204889178'
p285
tp286
a(S'Iron Maiden'
p287
S'Rime of the Ancient Mariner'
p288
S'http://www.last.fm/music/Iron+Maiden/_/Rime+of+the+Ancient+Mariner'
p289
S'1204888283'
p290
tp291
a(S'Iron Maiden'
p292
S'Stranger In a Strange Land'
p293
S'http://www.last.fm/music/Iron+Maiden/_/Stranger+In+a+Strange+Land'
p294
S'1204835111'
p295
tp296
a(S'Iron Maiden'
p297
S'The Evil That Men Do'
p298
S'http://www.last.fm/music/Iron+Maiden/_/The+Evil+That+Men+Do'
p299
S'1204834838'
p300
tp301
a(S'The Bangles'
p302
S'Eternal Flame'
p303
S'http://www.last.fm/music/The+Bangles/_/Eternal+Flame'
p304
S'1204834594'
p305
tp306
a(S'Metallica'
p307
S'For Whom the Bell Tolls'
p308
S'http://www.last.fm/music/Metallica/_/For+Whom+the+Bell+Tolls'
p309
S'1204834284'
p310
tp311
a(S'Bobby Fuller Four'
p312
S'I Fought the Law'
p313
S'http://www.last.fm/music/Bobby+Fuller+Four/_/I+Fought+the+Law'
p314
S'1204834145'
p315
tp316
a(S'Iron Maiden'
p317
S'Rainmaker'
p318
S'http://www.last.fm/music/Iron+Maiden/_/Rainmaker'
p319
S'1204833880'
p320
tp321
a(S'Iron Maiden'
p322
S'Aces High'
p323
S'http://www.last.fm/music/Iron+Maiden/_/Aces+High'
p324
S'1204833407'
p325
tp326
a(S'Queens of the Stone Age'
p327
S'Little Sister'
p328
S'http://www.last.fm/music/Queens+of+the+Stone+Age/_/Little+Sister'
p329
S'1204833229'
p330
tp331
a(S'Buddy Holly & The Crickets'
p332
S'Everyday'
p333
S'http://www.last.fm/music/Buddy+Holly+&+The+Crickets/_/Everyday'
p334
S'1204833166'
p335
tp336
a(S'Metallica'
p337
S'2 X 4'
p338
S'http://www.last.fm/music/Metallica/_/2+X+4'
p339
S'1204832838'
p340
tp341
a(S'Metallica'
p342
S'Fade to Black'
p343
S'http://www.last.fm/music/Metallica/_/Fade+to+Black'
p344
S'1204832410'
p345
tp346
a(S'Iron Maiden'
p347
S'2 Minutes to Midnight'
p348
S'http://www.last.fm/music/Iron+Maiden/_/2+Minutes+to+Midnight'
p349
S'1204832047'
p350
tp351
a(S'Metallica'
p352
S'King Nothing'
p353
S'http://www.last.fm/music/Metallica/_/King+Nothing'
p354
S'1204831719'
p355
tp356
a(S'Pearl Jam'
p357
S'Even Flow'
p358
S'http://www.last.fm/music/Pearl+Jam/_/Even+Flow'
p359
S'1204831425'
p360
tp361
a(S'The Mamas & the Papas'
p362
S"California Dreamin'"
p363
S'http://www.last.fm/music/The+Mamas+&+the+Papas/_/California+Dreamin%27'
p364
S'1204831264'
p365
tp366
a(S'Iron Maiden'
p367
S'Weekend Warrior'
p368
S'http://www.last.fm/music/Iron+Maiden/_/Weekend+Warrior'
p369
S'1204830924'
p370
tp371
a(S'Jerry Cantrell'
p372
S'Hurt A Long Time'
p373
S'http://www.last.fm/music/Jerry+Cantrell/_/Hurt+A+Long+Time'
p374
S'1204830584'
p375
tp376
a(S'Buddy Holly'
p377
S'Peggy Sue'
p378
S'http://www.last.fm/music/Buddy+Holly/_/Peggy+Sue'
p379
S'1204830434'
p380
tp381
a(S'The Smashing Pumpkins'
p382
S'Bullet With Butterfly Wings'
p383
S'http://www.last.fm/music/The+Smashing+Pumpkins/_/Bullet+With+Butterfly+Wings'
p384
S'1204830176'
p385
tp386
a(S'Jerry Cantrell'
p387
S'Devil By His Side'
p388
S'http://www.last.fm/music/Jerry+Cantrell/_/Devil+By+His+Side'
p389
S'1204829887'
p390
tp391
a(S'Jerry Cantrell'
p392
S'Breaks My Back'
p393
S'http://www.last.fm/music/Jerry+Cantrell/_/Breaks+My+Back'
p394
S'1204829462'
p395
tp396
a(S'Iron Maiden'
p397
S'Sea of Madness'
p398
S'http://www.last.fm/music/Iron+Maiden/_/Sea+of+Madness'
p399
S'1204829120'
p400
tp401
a(S'Army Of Anyone'
p402
S'Generation'
p403
S'http://www.last.fm/music/Army+Of+Anyone/_/Generation'
p404
S'1204828910'
p405
tp406
a(S'Queens of the Stone Age'
p407
S"3's & 7's"
p408
S'http://www.last.fm/music/Queens+of+the+Stone+Age/_/3%27s+&+7%27s'
p409
S'1204828696'
p410
tp411
a(S'Iron Maiden'
p412
S'The Clansman'
p413
S'http://www.last.fm/music/Iron+Maiden/_/The+Clansman'
p414
S'1204828257'
p415
tp416
a(S'Army Of Anyone'
p417
S'Non Stop'
p418
S'http://www.last.fm/music/Army+Of+Anyone/_/Non+Stop'
p419
S'1204828010'
p420
tp421
a(S'Donita Sparks & The Stellar Moments'
p422
S"He's Got The Honey"
p423
S'http://www.last.fm/music/Donita+Sparks+&+The+Stellar+Moments/_/He%27s+Got+The+Honey'
p424
S'1204827819'
p425
tp426
a(S'Iron Maiden'
p427
S'Holy Smoke'
p428
S'http://www.last.fm/music/Iron+Maiden/_/Holy+Smoke'
p429
S'1204827570'
p430
tp431
a(S'Iron Maiden'
p432
S'Rime of the Ancient Mariner'
p433
S'http://www.last.fm/music/Iron+Maiden/_/Rime+of+the+Ancient+Mariner'
p434
S'1204826759'
p435
tp436
a(S'Audioslave'
p437
S'Light My Way'
p438
S'http://www.last.fm/music/Audioslave/_/Light+My+Way'
p439
S'1204826092'
p440
tp441
a(S'Jerry Cantrell'
p442
S'My Song'
p443
S'http://www.last.fm/music/Jerry+Cantrell/_/My+Song'
p444
S'1204817361'
p445
tp446
a(S'Dion'
p447
S'Runaround Sue'
p448
S'http://www.last.fm/music/Dion/_/Runaround+Sue'
p449
S'1204817206'
p450
tp451
a(S'Fleetwood Mac'
p452
S'Rhiannon'
p453
S'http://www.last.fm/music/Fleetwood+Mac/_/Rhiannon'
p454
S'1204816948'
p455
tp456
a(S'Weezer'
p457
S'Buddy Holly'
p458
S'http://www.last.fm/music/Weezer/_/Buddy+Holly'
p459
S'1204816789'
p460
tp461
a(S'Metallica'
p462
S'Seek & Destroy'
p463
S'http://www.last.fm/music/Metallica/_/Seek+&+Destroy'
p464
S'1204816364'
p465
tp466
a(S"Guns N' Roses"
p467
S"Sweet Child o' Mine"
p468
S'http://www.last.fm/music/Guns+N%27+Roses/_/Sweet+Child+o%27+Mine'
p469
S'1204816011'
p470
tp471
a(S'Butthole Surfers'
p472
S'Pepper'
p473
S'http://www.last.fm/music/Butthole+Surfers/_/Pepper'
p474
S'1204815710'
p475
tp476
a(S'Metallica'
p477
S'(Anesthesia) Pulling Teeth'
p478
S'http://www.last.fm/music/Metallica/_/(Anesthesia)+Pulling+Teeth'
p479
S'1204815455'
p480
tp481
a(S'Jerry Cantrell'
p482
S'Dickeye'
p483
S'http://www.last.fm/music/Jerry+Cantrell/_/Dickeye'
p484
S'1204815152'
p485
tp486
a(S'Metallica'
p487
S'Fade to Black'
p488
S'http://www.last.fm/music/Metallica/_/Fade+to+Black'
p489
S'1204808684'
p490
tp491
a(S'Metallica'
p492
S'The Memory Remains'
p493
S'http://www.last.fm/music/Metallica/_/The+Memory+Remains'
p494
S'1204808405'
p495
tp496
a(S'Green Day'
p497
S'Basket Case'
p498
S'http://www.last.fm/music/Green+Day/_/Basket+Case'
p499
S'1204808226'
p500
tp501
a(S'Iron Maiden'
p502
S'Rainmaker'
p503
S'http://www.last.fm/music/Iron+Maiden/_/Rainmaker'
p504
S'1204807998'
p505
tp506
a(S'Nirvana'
p507
S'Lithium'
p508
S'http://www.last.fm/music/Nirvana/_/Lithium'
p509
S'1204807741'
p510
tp511
a(S'Buddy Holly & The Crickets'
p512
S'Everyday'
p513
S'http://www.last.fm/music/Buddy+Holly+&+The+Crickets/_/Everyday'
p514
S'1204807613'
p515
tp516
a(S'Aretha Franklin'
p517
S'Respect'
p518
S'http://www.last.fm/music/Aretha+Franklin/_/Respect'
p519
S'1204807466'
p520
tp521
a(S'Bo Diddley'
p522
S'Who Do You Love'
p523
S'http://www.last.fm/music/Bo+Diddley/_/Who+Do+You+Love'
p524
S'1204807316'
p525
tp526
a(S'The Police'
p527
S'Roxanne'
p528
S'http://www.last.fm/music/The+Police/_/Roxanne'
p529
S'1204807120'
p530
tp531
a(S'Jerry Cantrell'
p532
S'Dickeye'
p533
S'http://www.last.fm/music/Jerry+Cantrell/_/Dickeye'
p534
S'1204806803'
p535
tp536
a(S'Iron Maiden'
p537
S'Rime of the Ancient Mariner'
p538
S'http://www.last.fm/music/Iron+Maiden/_/Rime+of+the+Ancient+Mariner'
p539
S'1204805671'
p540
tp541
a(S'Iron Maiden'
p542
S'Rime of the Ancient Mariner'
p543
S'http://www.last.fm/music/Iron+Maiden/_/Rime+of+the+Ancient+Mariner'
p544
S'1204749573'
p545
tp546
a(S'Iron Maiden'
p547
S'The Clairvoyant'
p548
S'http://www.last.fm/music/Iron+Maiden/_/The+Clairvoyant'
p549
S'1204749306'
p550
tp551
a(S'Jerry Cantrell'
p552
S'Satisfy'
p553
S'http://www.last.fm/music/Jerry+Cantrell/_/Satisfy'
p554
S'1204748069'
p555
tp556
a(S'The Beach Boys'
p557
S'California Girls'
p558
S'http://www.last.fm/music/The+Beach+Boys/_/California+Girls'
p559
S'1204747893'
p560
tp561
a(S'Jerry Cantrell'
p562
S'My Song'
p563
S'http://www.last.fm/music/Jerry+Cantrell/_/My+Song'
p564
S'1204747657'
p565
tp566
a(S'Blondie'
p567
S'Call Me'
p568
S'http://www.last.fm/music/Blondie/_/Call+Me'
p569
S'1204747445'
p570
tp571
a(S'Al Green'
p572
S"Let's Stay Together"
p573
S'http://www.last.fm/music/Al+Green/_/Let%27s+Stay+Together'
p574
S'1204747180'
p575
tp576
a(S'The Police'
p577
S'Roxanne'
p578
S'http://www.last.fm/music/The+Police/_/Roxanne'
p579
S'1204746985'
p580
tp581
a(S'Iron Maiden'
p582
S'Weekend Warrior'
p583
S'http://www.last.fm/music/Iron+Maiden/_/Weekend+Warrior'
p584
S'1204746631'
p585
tp586
a(S'Dion'
p587
S'Runaround Sue'
p588
S'http://www.last.fm/music/Dion/_/Runaround+Sue'
p589
S'1204746465'
p590
tp591
a(S'The Rolling Stones'
p592
S'Beast of Burden'
p593
S'http://www.last.fm/music/The+Rolling+Stones/_/Beast+of+Burden'
p594
S'1204746298'
p595
tp596
a(S'Tina Turner'
p597
S"What's Love Got to Do With It"
p598
S'http://www.last.fm/music/Tina+Turner/_/What%27s+Love+Got+to+Do+With+It'
p599
S'1204746068'
p600
tp601
a(S'Iron Maiden'
p602
S'The Trooper'
p603
S'http://www.last.fm/music/Iron+Maiden/_/The+Trooper'
p604
S'1204745812'
p605
tp606
a(S'Pearl Jam'
p607
S'Even Flow'
p608
S'http://www.last.fm/music/Pearl+Jam/_/Even+Flow'
p609
S'1204744138'
p610
tp611
a(S'The Jimi Hendrix Experience'
p612
S'All Along the Watchtower'
p613
S'http://www.last.fm/music/The+Jimi+Hendrix+Experience/_/All+Along+the+Watchtower'
p614
S'1204743898'
p615
tp616
a(S'Iron Maiden'
p617
S'Rime of the Ancient Mariner'
p618
S'http://www.last.fm/music/Iron+Maiden/_/Rime+of+the+Ancient+Mariner'
p619
S'1204742972'
p620
tp621
a(S'Army Of Anyone'
p622
S'Generation'
p623
S'http://www.last.fm/music/Army+Of+Anyone/_/Generation'
p624
S'1204742728'
p625
tp626
a(S'Iron Maiden'
p627
S'Only the Good Die Young'
p628
S'http://www.last.fm/music/Iron+Maiden/_/Only+the+Good+Die+Young'
p629
S'1204742438'
p630
tp631
a(S'Jerry Cantrell'
p632
S'Dickeye'
p633
S'http://www.last.fm/music/Jerry+Cantrell/_/Dickeye'
p634
S'1204742078'
p635
tp636
a(S'Jerry Cantrell'
p637
S'Between'
p638
S'http://www.last.fm/music/Jerry+Cantrell/_/Between'
p639
S'1204741682'
p640
tp641
a(S'Iron Maiden'
p642
S'2 Minutes to Midnight'
p643
S'http://www.last.fm/music/Iron+Maiden/_/2+Minutes+to+Midnight'
p644
S'1204741290'
p645
tp646
a(S'Metallica'
p647
S'Hit the Lights'
p648
S'http://www.last.fm/music/Metallica/_/Hit+the+Lights'
p649
S'1204741032'
p650
tp651
a(S'Queens of the Stone Age'
p652
S'Little Sister'
p653
S'http://www.last.fm/music/Queens+of+the+Stone+Age/_/Little+Sister'
p654
S'1204740852'
p655
tp656
a(S'Jerry Cantrell'
p657
S'Breaks My Back'
p658
S'http://www.last.fm/music/Jerry+Cantrell/_/Breaks+My+Back'
p659
S'1204739710'
p660
tp661
a(S'Army Of Anyone'
p662
S'Generation'
p663
S'http://www.last.fm/music/Army+Of+Anyone/_/Generation'
p664
S'1204739499'
p665
tp666
a(S'Iron Maiden'
p667
S'Public Enema Number One'
p668
S'http://www.last.fm/music/Iron+Maiden/_/Public+Enema+Number+One'
p669
S'1204739246'
p670
tp671
a(S'Jerry Cantrell'
p672
S'Dickeye'
p673
S'http://www.last.fm/music/Jerry+Cantrell/_/Dickeye'
p674
S'1204738932'
p675
tp676
a(S'Iron Maiden'
p677
S'Charlotte the Harlot'
p678
S'http://www.last.fm/music/Iron+Maiden/_/Charlotte+the+Harlot'
p679
S'1204664791'
p680
tp681
a(S'The Mamas & the Papas'
p682
S"California Dreamin'"
p683
S'http://www.last.fm/music/The+Mamas+&+the+Papas/_/California+Dreamin%27'
p684
S'1204664628'
p685
tp686
a(S'Marvin Gaye'
p687
S'Sexual Healing'
p688
S'http://www.last.fm/music/Marvin+Gaye/_/Sexual+Healing'
p689
S'1204664383'
p690
tp691
a(S'Audioslave'
p692
S'Yesterday To Tomorrow'
p693
S'http://www.last.fm/music/Audioslave/_/Yesterday+To+Tomorrow'
p694
S'1204664110'
p695
tp696
a(S'Iron Maiden'
p697
S'The Prophecy'
p698
S'http://www.last.fm/music/Iron+Maiden/_/The+Prophecy'
p699
S'1204663804'
p700
tp701
a(S'The Rolling Stones'
p702
S"You Can't Always Get What You Want"
p703
S'http://www.last.fm/music/The+Rolling+Stones/_/You+Can%27t+Always+Get+What+You+Want'
p704
S'1204663349'
p705
tp706
a(S'Iron Maiden'
p707
S'Rime of the Ancient Mariner'
p708
S'http://www.last.fm/music/Iron+Maiden/_/Rime+of+the+Ancient+Mariner'
p709
S'1204661876'
p710
tp711
a(S'Iron Maiden'
p712
S'Rime of the Ancient Mariner'
p713
S'http://www.last.fm/music/Iron+Maiden/_/Rime+of+the+Ancient+Mariner'
p714
S'1204661876'
p715
tp716
a(S'Sheryl Crow'
p717
S"Sweet Child O'Mine"
p718
S'http://www.last.fm/music/Sheryl+Crow/_/Sweet+Child+O%27Mine'
p719
S'1204661724'
p720
tp721
a(S"Guns N' Roses"
p722
S"Sweet Child o' Mine"
p723
S'http://www.last.fm/music/Guns+N%27+Roses/_/Sweet+Child+o%27+Mine'
p724
S'1204661368'
p725
tp726
a(S'Fleetwood Mac'
p727
S'Rhiannon'
p728
S'http://www.last.fm/music/Fleetwood+Mac/_/Rhiannon'
p729
S'1204661117'
p730
tp731
a(S"Howlin' Wolf"
p732
S'Spoonful'
p733
S'http://www.last.fm/music/Howlin%27+Wolf/_/Spoonful'
p734
S'1204659894'
p735
tp736
a(S'Iron Maiden'
p737
S'Wasted Years'
p738
S'http://www.last.fm/music/Iron+Maiden/_/Wasted+Years'
p739
S'1204658456'
p740
tp741
a(S'Iron Maiden'
p742
S'Wasted Years'
p743
S'http://www.last.fm/music/Iron+Maiden/_/Wasted+Years'
p744
S'1204658456'
p745
tp746
a(S'Iron Maiden'
p747
S'The Clansman'
p748
S'http://www.last.fm/music/Iron+Maiden/_/The+Clansman'
p749
S'1204577225'
p750
tp751
a(S'Run-D.M.C.'
p752
S'Walk This Way'
p753
S'http://www.last.fm/music/Run-D.M.C./_/Walk+This+Way'
p754
S'1204576610'
p755
tp756
a(S'Jerry Cantrell'
p757
S'Devil By His Side'
p758
S'http://www.last.fm/music/Jerry+Cantrell/_/Devil+By+His+Side'
p759
S'1204576304'
p760
tp761
a(S'Iron Maiden'
p762
S'No Prayer for the Dying'
p763
S'http://www.last.fm/music/Iron+Maiden/_/No+Prayer+for+the+Dying'
p764
S'1204576014'
p765
tp766
a(S'Al Green'
p767
S'Take Me To The River'
p768
S'http://www.last.fm/music/Al+Green/_/Take+Me+To+The+River'
p769
S'1204575588'
p770
tp771
a(S'Thin Lizzy'
p772
S'The Boys Are Back in Town'
p773
S'http://www.last.fm/music/Thin+Lizzy/_/The+Boys+Are+Back+in+Town'
p774
S'1204575444'
p775
tp776
a(S'Marvin Gaye'
p777
S'Lets Get It On'
p778
S'http://www.last.fm/music/Marvin+Gaye/_/Lets+Get+It+On'
p779
S'1204575214'
p780
tp781
a(S'The Temptations'
p782
S'My Girl'
p783
S'http://www.last.fm/music/The+Temptations/_/My+Girl'
p784
S'1204575048'
p785
tp786
a(S'Metallica'
p787
S'For Whom the Bell Tolls'
p788
S'http://www.last.fm/music/Metallica/_/For+Whom+the+Bell+Tolls'
p789
S'1204574701'
p790
tp791
a(S'The Police'
p792
S'Roxanne'
p793
S'http://www.last.fm/music/The+Police/_/Roxanne'
p794
S'1204574320'
p795
tp796
a(S'Iron Maiden'
p797
S'Wasted Years'
p798
S'http://www.last.fm/music/Iron+Maiden/_/Wasted+Years'
p799
S'1204574009'
p800
tp801
a(S'Iron Maiden'
p802
S'Stranger In a Strange Land'
p803
S'http://www.last.fm/music/Iron+Maiden/_/Stranger+In+a+Strange+Land'
p804
S'1204573664'
p805
tp806
a(S'Iron Maiden'
p807
S'Chains of Misery'
p808
S'http://www.last.fm/music/Iron+Maiden/_/Chains+of+Misery'
p809
S'1204573002'
p810
tp811
a(S'The Beach Boys'
p812
S'California Girls'
p813
S'http://www.last.fm/music/The+Beach+Boys/_/California+Girls'
p814
S'1204572653'
p815
tp816
a(S'Queens of the Stone Age'
p817
S'Little Sister'
p818
S'http://www.last.fm/music/Queens+of+the+Stone+Age/_/Little+Sister'
p819
S'1204572480'
p820
tp821
a(S'Queens of the Stone Age'
p822
S"3's & 7's"
p823
S'http://www.last.fm/music/Queens+of+the+Stone+Age/_/3%27s+&+7%27s'
p824
S'1204572265'
p825
tp826
a(S'Fleetwood Mac'
p827
S'Rhiannon'
p828
S'http://www.last.fm/music/Fleetwood+Mac/_/Rhiannon'
p829
S'1204572005'
p830
tp831
a(S'Iron Maiden'
p832
S'Public Enema Number One'
p833
S'http://www.last.fm/music/Iron+Maiden/_/Public+Enema+Number+One'
p834
S'1204571751'
p835
tp836
a(S'Iron Maiden'
p837
S'The Clairvoyant'
p838
S'http://www.last.fm/music/Iron+Maiden/_/The+Clairvoyant'
p839
S'1204570875'
p840
tp841
a(S'Michael Jackson'
p842
S'Billie Jean'
p843
S'http://www.last.fm/music/Michael+Jackson/_/Billie+Jean'
p844
S'1204570580'
p845
tp846
a(S'Iron Maiden'
p847
S'Rime of the Ancient Mariner'
p848
S'http://www.last.fm/music/Iron+Maiden/_/Rime+of+the+Ancient+Mariner'
p849
S'1204569751'
p850
tp851
a(S'Iron Maiden'
p852
S'Public Enema Number One'
p853
S'http://www.last.fm/music/Iron+Maiden/_/Public+Enema+Number+One'
p854
S'1204569402'
p855
tp856
a(S'Iron Maiden'
p857
S'Rime of the Ancient Mariner'
p858
S'http://www.last.fm/music/Iron+Maiden/_/Rime+of+the+Ancient+Mariner'
p859
S'1204315238'
p860
tp861
a(S'Iron Maiden'
p862
S'Rime of the Ancient Mariner'
p863
S'http://www.last.fm/music/Iron+Maiden/_/Rime+of+the+Ancient+Mariner'
p864
S'1204315238'
p865
tp866
a(S'Iron Maiden'
p867
S'Only the Good Die Young'
p868
S'http://www.last.fm/music/Iron+Maiden/_/Only+the+Good+Die+Young'
p869
S'1204314164'
p870
tp871
a(S'Iron Maiden'
p872
S'Can I Play With Madness'
p873
S'http://www.last.fm/music/Iron+Maiden/_/Can+I+Play+With+Madness'
p874
S'1204313862'
p875
tp876
a(S'Iron Maiden'
p877
S'Rime of the Ancient Mariner'
p878
S'http://www.last.fm/music/Iron+Maiden/_/Rime+of+the+Ancient+Mariner'
p879
S'1204313394'
p880
tp881
a(S'Iron Maiden'
p882
S'Rainmaker'
p883
S'http://www.last.fm/music/Iron+Maiden/_/Rainmaker'
p884
S'1204313152'
p885
tp886
a(S'Iron Maiden'
p887
S'Stranger In a Strange Land'
p888
S'http://www.last.fm/music/Iron+Maiden/_/Stranger+In+a+Strange+Land'
p889
S'1204312807'
p890
tp891
a(S'Iron Maiden'
p892
S'Wasted Years'
p893
S'http://www.last.fm/music/Iron+Maiden/_/Wasted+Years'
p894
S'1204312499'
p895
tp896
a(S'Iron Maiden'
p897
S'The Clairvoyant'
p898
S'http://www.last.fm/music/Iron+Maiden/_/The+Clairvoyant'
p899
S'1204312212'
p900
tp901
a(S'Iron Maiden'
p902
S'The Assassin'
p903
S'http://www.last.fm/music/Iron+Maiden/_/The+Assassin'
p904
S'1204311561'
p905
tp906
a(S'Iron Maiden'
p907
S'Charlotte the Harlot'
p908
S'http://www.last.fm/music/Iron+Maiden/_/Charlotte+the+Harlot'
p909
S'1204311321'
p910
tp911
a(S'Iron Maiden'
p912
S'Infinite Dreams'
p913
S'http://www.last.fm/music/Iron+Maiden/_/Infinite+Dreams'
p914
S'1204310953'
p915
tp916
a(S'Iron Maiden'
p917
S'Stranger In a Strange Land'
p918
S'http://www.last.fm/music/Iron+Maiden/_/Stranger+In+a+Strange+Land'
p919
S'1204310608'
p920
tp921
a(S'Iron Maiden'
p922
S'Public Enema Number One'
p923
S'http://www.last.fm/music/Iron+Maiden/_/Public+Enema+Number+One'
p924
S'1204310354'
p925
tp926
a(S'Iron Maiden'
p927
S'No Prayer for the Dying'
p928
S'http://www.last.fm/music/Iron+Maiden/_/No+Prayer+for+the+Dying'
p929
S'1204310091'
p930
tp931
a(S'Iron Maiden'
p932
S'Rime of the Ancient Mariner'
p933
S'http://www.last.fm/music/Iron+Maiden/_/Rime+of+the+Ancient+Mariner'
p934
S'1204309171'
p935
tp936
a(S'Iron Maiden'
p937
S'The Evil That Men Do'
p938
S'http://www.last.fm/music/Iron+Maiden/_/The+Evil+That+Men+Do'
p939
S'1204308544'
p940
tp941
a(S'Iron Maiden'
p942
S'Public Enema Number One'
p943
S'http://www.last.fm/music/Iron+Maiden/_/Public+Enema+Number+One'
p944
S'1204306972'
p945
tp946
a(S'Iron Maiden'
p947
S'Sea of Madness'
p948
S'http://www.last.fm/music/Iron+Maiden/_/Sea+of+Madness'
p949
S'1204306126'
p950
tp951
a(S'Iron Maiden'
p952
S'Rime of the Ancient Mariner'
p953
S'http://www.last.fm/music/Iron+Maiden/_/Rime+of+the+Ancient+Mariner'
p954
S'1204305603'
p955
tp956
a(S'The Who'
p957
S"Baba O'Riley"
p958
S'http://www.last.fm/music/The+Who/_/Baba+O%27Riley'
p959
S'1204296627'
p960
tp961
a(S'Iron Maiden'
p962
S'The Trooper'
p963
S'http://www.last.fm/music/Iron+Maiden/_/The+Trooper'
p964
S'1204296236'
p965
tp966
a(S'The Everly Brothers'
p967
S'Wake up Little Susie'
p968
S'http://www.last.fm/music/The+Everly+Brothers/_/Wake+up+Little+Susie'
p969
S'1204296028'
p970
tp971
a(S'The Dixie Cups'
p972
S'Chapel of Love'
p973
S'http://www.last.fm/music/The+Dixie+Cups/_/Chapel+of+Love'
p974
S'1204295547'
p975
tp976
a(S'Dusty Springfield'
p977
S"You Don't Have To Say You Love Me"
p978
S'http://www.last.fm/music/Dusty+Springfield/_/You+Don%27t+Have+To+Say+You+Love+Me'
p979
S'1204295230'
p980
tp981
a(S'Iron Maiden'
p982
S'Only the Good Die Young'
p983
S'http://www.last.fm/music/Iron+Maiden/_/Only+the+Good+Die+Young'
p984
S'1204294948'
p985
tp986
a(S'Stevie Wonder'
p987
S'Superstition'
p988
S'http://www.last.fm/music/Stevie+Wonder/_/Superstition'
p989
S'1204294745'
p990
tp991
a(S'Marvin Gaye'
p992
S'Lets Get It On'
p993
S'http://www.last.fm/music/Marvin+Gaye/_/Lets+Get+It+On'
p994
S'1204294448'
p995
tp996
a(S'Jerry Cantrell'
p997
S'Dickeye'
p998
S'http://www.last.fm/music/Jerry+Cantrell/_/Dickeye'
p999
S'1204294131'
p1000
tp1001
a.