(lp1
(S'Rainbow'
p2
S'Lady Of The Lake'
p3
S'http://www.last.fm/music/Rainbow/_/Lady+Of+The+Lake'
p4
S'1368643131'
p5
tp6
a(S'Bad Religion'
p7
S'Marked'
p8
S'http://www.last.fm/music/Bad+Religion/_/Marked'
p9
S'1368643023'
p10
tp11
a(S'Bad Religion'
p12
S'Nobody Listens'
p13
S'http://www.last.fm/music/Bad+Religion/_/Nobody+Listens'
p14
S'1368642907'
p15
tp16
a(S'Bad Religion'
p17
S'The Handshake'
p18
S'http://www.last.fm/music/Bad+Religion/_/The+Handshake'
p19
S'1368642737'
p20
tp21
a(S'Bad Religion'
p22
S'Atheist Peace'
p23
S'http://www.last.fm/music/Bad+Religion/_/Atheist+Peace'
p24
S'1368641883'
p25
tp26
a(S'Bad Religion'
p27
S'What It Is'
p28
S'http://www.last.fm/music/Bad+Religion/_/What+It+Is'
p29
S'1368641755'
p30
tp31
a(S'Bad Religion'
p32
S'The Empire Strikes First'
p33
S'http://www.last.fm/music/Bad+Religion/_/The+Empire+Strikes+First'
p34
S'1368641552'
p35
tp36
a(S'Bad Religion'
p37
S'American Jesus'
p38
S'http://www.last.fm/music/Bad+Religion/_/American+Jesus'
p39
S'1368623008'
p40
tp41
a(S'Bad Religion'
p42
S'Nobody Listens'
p43
S'http://www.last.fm/music/Bad+Religion/_/Nobody+Listens'
p44
S'1368622892'
p45
tp46
a(S'Rainbow'
p47
S'Lady Of The Lake'
p48
S'http://www.last.fm/music/Rainbow/_/Lady+Of+The+Lake'
p49
S'1368622673'
p50
tp51
a(S'Rainbow'
p52
S'Kill the King'
p53
S'http://www.last.fm/music/Rainbow/_/Kill+the+King'
p54
S'1368622403'
p55
tp56
a(S'Bad Religion'
p57
S'What It Is'
p58
S'http://www.last.fm/music/Bad+Religion/_/What+It+Is'
p59
S'1368622275'
p60
tp61
a(S'Bad Religion'
p62
S'Tiny Voices'
p63
S'http://www.last.fm/music/Bad+Religion/_/Tiny+Voices'
p64
S'1368622117'
p65
tp66
a(S'Bad Religion'
p67
S'Atheist Peace'
p68
S'http://www.last.fm/music/Bad+Religion/_/Atheist+Peace'
p69
S'1368622000'
p70
tp71
a(S'Bad Religion'
p72
S'Inner Logic'
p73
S'http://www.last.fm/music/Bad+Religion/_/Inner+Logic'
p74
S'1368621823'
p75
tp76
a(S'Bad Religion'
p77
S'The Empire Strikes First'
p78
S'http://www.last.fm/music/Bad+Religion/_/The+Empire+Strikes+First'
p79
S'1368621620'
p80
tp81
a(S'Rainbow'
p82
S'Lady Of The Lake'
p83
S'http://www.last.fm/music/Rainbow/_/Lady+Of+The+Lake'
p84
S'1368572099'
p85
tp86
a(S'Bad Religion'
p87
S'Tiny Voices'
p88
S'http://www.last.fm/music/Bad+Religion/_/Tiny+Voices'
p89
S'1368571942'
p90
tp91
a(S'Bad Religion'
p92
S'Marked'
p93
S'http://www.last.fm/music/Bad+Religion/_/Marked'
p94
S'1368571829'
p95
tp96
a(S'Rainbow'
p97
S'Kill the King'
p98
S'http://www.last.fm/music/Rainbow/_/Kill+the+King'
p99
S'1368571560'
p100
tp101
a(S'Bad Religion'
p102
S'Atheist Peace'
p103
S'http://www.last.fm/music/Bad+Religion/_/Atheist+Peace'
p104
S'1368571442'
p105
tp106
a(S'Bad Religion'
p107
S'What It Is'
p108
S'http://www.last.fm/music/Bad+Religion/_/What+It+Is'
p109
S'1368571315'
p110
tp111
a(S'Bad Religion'
p112
S'The Handshake'
p113
S'http://www.last.fm/music/Bad+Religion/_/The+Handshake'
p114
S'1368571144'
p115
tp116
a(S'Bad Religion'
p117
S'The Empire Strikes First'
p118
S'http://www.last.fm/music/Bad+Religion/_/The+Empire+Strikes+First'
p119
S'1368570942'
p120
tp121
a(S'Bad Religion'
p122
S'Nobody Listens'
p123
S'http://www.last.fm/music/Bad+Religion/_/Nobody+Listens'
p124
S'1368570825'
p125
tp126
a(S'Rainbow'
p127
S'Catch the Rainbow'
p128
S'http://www.last.fm/music/Rainbow/_/Catch+the+Rainbow'
p129
S'1368570434'
p130
tp131
a(S'Bad Religion'
p132
S'American Jesus'
p133
S'http://www.last.fm/music/Bad+Religion/_/American+Jesus'
p134
S'1368570236'
p135
tp136
a(S'Bad Religion'
p137
S'Inner Logic'
p138
S'http://www.last.fm/music/Bad+Religion/_/Inner+Logic'
p139
S'1368570059'
p140
tp141
a(S'Rainbow'
p142
S'Lady Of The Lake'
p143
S'http://www.last.fm/music/Rainbow/_/Lady+Of+The+Lake'
p144
S'1368569840'
p145
tp146
a(S'Bad Religion'
p147
S'Tiny Voices'
p148
S'http://www.last.fm/music/Bad+Religion/_/Tiny+Voices'
p149
S'1368569684'
p150
tp151
a(S'Bad Religion'
p152
S'Marked'
p153
S'http://www.last.fm/music/Bad+Religion/_/Marked'
p154
S'1368569575'
p155
tp156
a(S'Bad Religion'
p157
S'Atheist Peace'
p158
S'http://www.last.fm/music/Bad+Religion/_/Atheist+Peace'
p159
S'1368565095'
p160
tp161
a(S'Bad Religion'
p162
S'What It Is'
p163
S'http://www.last.fm/music/Bad+Religion/_/What+It+Is'
p164
S'1368564968'
p165
tp166
a(S'Bad Religion'
p167
S'The Handshake'
p168
S'http://www.last.fm/music/Bad+Religion/_/The+Handshake'
p169
S'1368564797'
p170
tp171
a(S'Bad Religion'
p172
S'The Empire Strikes First'
p173
S'http://www.last.fm/music/Bad+Religion/_/The+Empire+Strikes+First'
p174
S'1368564594'
p175
tp176
a(S'Bad Religion'
p177
S'Nobody Listens'
p178
S'http://www.last.fm/music/Bad+Religion/_/Nobody+Listens'
p179
S'1368564477'
p180
tp181
a(S'Rainbow'
p182
S'Catch the Rainbow'
p183
S'http://www.last.fm/music/Rainbow/_/Catch+the+Rainbow'
p184
S'1368560420'
p185
tp186
a(S'Bad Religion'
p187
S'American Jesus'
p188
S'http://www.last.fm/music/Bad+Religion/_/American+Jesus'
p189
S'1368560223'
p190
tp191
a(S'Bad Religion'
p192
S'Inner Logic'
p193
S'http://www.last.fm/music/Bad+Religion/_/Inner+Logic'
p194
S'1368560047'
p195
tp196
a(S'Rainbow'
p197
S'Lady Of The Lake'
p198
S'http://www.last.fm/music/Rainbow/_/Lady+Of+The+Lake'
p199
S'1368559828'
p200
tp201
a(S'Bad Religion'
p202
S'Tiny Voices'
p203
S'http://www.last.fm/music/Bad+Religion/_/Tiny+Voices'
p204
S'1368559672'
p205
tp206
a(S'Bad Religion'
p207
S'Marked'
p208
S'http://www.last.fm/music/Bad+Religion/_/Marked'
p209
S'1368559563'
p210
tp211
a(S'Rainbow'
p212
S'Kill the King'
p213
S'http://www.last.fm/music/Rainbow/_/Kill+the+King'
p214
S'1368559293'
p215
tp216
a(S'Bad Religion'
p217
S'Atheist Peace'
p218
S'http://www.last.fm/music/Bad+Religion/_/Atheist+Peace'
p219
S'1368559176'
p220
tp221
a(S'Bad Religion'
p222
S'What It Is'
p223
S'http://www.last.fm/music/Bad+Religion/_/What+It+Is'
p224
S'1368559049'
p225
tp226
a(S'Bad Religion'
p227
S'The Handshake'
p228
S'http://www.last.fm/music/Bad+Religion/_/The+Handshake'
p229
S'1368558878'
p230
tp231
a(S'Bad Religion'
p232
S'The Empire Strikes First'
p233
S'http://www.last.fm/music/Bad+Religion/_/The+Empire+Strikes+First'
p234
S'1368558676'
p235
tp236
a(S'Bad Religion'
p237
S'Nobody Listens'
p238
S'http://www.last.fm/music/Bad+Religion/_/Nobody+Listens'
p239
S'1368558559'
p240
tp241
a(S'Rainbow'
p242
S'Catch the Rainbow'
p243
S'http://www.last.fm/music/Rainbow/_/Catch+the+Rainbow'
p244
S'1368558168'
p245
tp246
a(S'Bad Religion'
p247
S'American Jesus'
p248
S'http://www.last.fm/music/Bad+Religion/_/American+Jesus'
p249
S'1368557970'
p250
tp251
a(S'Bad Religion'
p252
S'Inner Logic'
p253
S'http://www.last.fm/music/Bad+Religion/_/Inner+Logic'
p254
S'1368557794'
p255
tp256
a(S'Rainbow'
p257
S'Lady Of The Lake'
p258
S'http://www.last.fm/music/Rainbow/_/Lady+Of+The+Lake'
p259
S'1368557576'
p260
tp261
a(S'Bad Religion'
p262
S'Tiny Voices'
p263
S'http://www.last.fm/music/Bad+Religion/_/Tiny+Voices'
p264
S'1368557419'
p265
tp266
a(S'Bad Religion'
p267
S'Marked'
p268
S'http://www.last.fm/music/Bad+Religion/_/Marked'
p269
S'1368557310'
p270
tp271
a(S'Rainbow'
p272
S'Kill the King'
p273
S'http://www.last.fm/music/Rainbow/_/Kill+the+King'
p274
S'1368557040'
p275
tp276
a(S'Bad Religion'
p277
S'Atheist Peace'
p278
S'http://www.last.fm/music/Bad+Religion/_/Atheist+Peace'
p279
S'1368556922'
p280
tp281
a(S'Bad Religion'
p282
S'What It Is'
p283
S'http://www.last.fm/music/Bad+Religion/_/What+It+Is'
p284
S'1368556795'
p285
tp286
a(S'Bad Religion'
p287
S'The Handshake'
p288
S'http://www.last.fm/music/Bad+Religion/_/The+Handshake'
p289
S'1368556624'
p290
tp291
a(S'Bad Religion'
p292
S'The Empire Strikes First'
p293
S'http://www.last.fm/music/Bad+Religion/_/The+Empire+Strikes+First'
p294
S'1368556422'
p295
tp296
a(S'Bad Religion'
p297
S'Nobody Listens'
p298
S'http://www.last.fm/music/Bad+Religion/_/Nobody+Listens'
p299
S'1368556305'
p300
tp301
a(S'Rainbow'
p302
S'Catch the Rainbow'
p303
S'http://www.last.fm/music/Rainbow/_/Catch+the+Rainbow'
p304
S'1368555914'
p305
tp306
a(S'Bad Religion'
p307
S'American Jesus'
p308
S'http://www.last.fm/music/Bad+Religion/_/American+Jesus'
p309
S'1368555716'
p310
tp311
a(S'Bad Religion'
p312
S'Inner Logic'
p313
S'http://www.last.fm/music/Bad+Religion/_/Inner+Logic'
p314
S'1368555540'
p315
tp316
a(S'Rainbow'
p317
S'Lady Of The Lake'
p318
S'http://www.last.fm/music/Rainbow/_/Lady+Of+The+Lake'
p319
S'1368555322'
p320
tp321
a(S'Bad Religion'
p322
S'Tiny Voices'
p323
S'http://www.last.fm/music/Bad+Religion/_/Tiny+Voices'
p324
S'1368555165'
p325
tp326
a(S'Bad Religion'
p327
S'Marked'
p328
S'http://www.last.fm/music/Bad+Religion/_/Marked'
p329
S'1368555056'
p330
tp331
a(S'Rainbow'
p332
S'Kill the King'
p333
S'http://www.last.fm/music/Rainbow/_/Kill+the+King'
p334
S'1368554787'
p335
tp336
a(S'Bad Religion'
p337
S'Atheist Peace'
p338
S'http://www.last.fm/music/Bad+Religion/_/Atheist+Peace'
p339
S'1368554670'
p340
tp341
a(S'Bad Religion'
p342
S'What It Is'
p343
S'http://www.last.fm/music/Bad+Religion/_/What+It+Is'
p344
S'1368554542'
p345
tp346
a(S'Bad Religion'
p347
S'The Handshake'
p348
S'http://www.last.fm/music/Bad+Religion/_/The+Handshake'
p349
S'1368554371'
p350
tp351
a(S'Bad Religion'
p352
S'The Empire Strikes First'
p353
S'http://www.last.fm/music/Bad+Religion/_/The+Empire+Strikes+First'
p354
S'1368554169'
p355
tp356
a(S'Bad Religion'
p357
S'Nobody Listens'
p358
S'http://www.last.fm/music/Bad+Religion/_/Nobody+Listens'
p359
S'1368554053'
p360
tp361
a(S'Rainbow'
p362
S'Catch the Rainbow'
p363
S'http://www.last.fm/music/Rainbow/_/Catch+the+Rainbow'
p364
S'1368553660'
p365
tp366
a(S'Bad Religion'
p367
S'American Jesus'
p368
S'http://www.last.fm/music/Bad+Religion/_/American+Jesus'
p369
S'1368553297'
p370
tp371
a(S'Bad Religion'
p372
S'Inner Logic'
p373
S'http://www.last.fm/music/Bad+Religion/_/Inner+Logic'
p374
S'1368553120'
p375
tp376
a(S'Rainbow'
p377
S'Lady Of The Lake'
p378
S'http://www.last.fm/music/Rainbow/_/Lady+Of+The+Lake'
p379
S'1368552902'
p380
tp381
a(S'Bad Religion'
p382
S'Tiny Voices'
p383
S'http://www.last.fm/music/Bad+Religion/_/Tiny+Voices'
p384
S'1368552746'
p385
tp386
a(S'Bad Religion'
p387
S'Marked'
p388
S'http://www.last.fm/music/Bad+Religion/_/Marked'
p389
S'1368552636'
p390
tp391
a(S'Rainbow'
p392
S'Kill the King'
p393
S'http://www.last.fm/music/Rainbow/_/Kill+the+King'
p394
S'1368552367'
p395
tp396
a(S'Bad Religion'
p397
S'Atheist Peace'
p398
S'http://www.last.fm/music/Bad+Religion/_/Atheist+Peace'
p399
S'1368552249'
p400
tp401
a(S'Bad Religion'
p402
S'What It Is'
p403
S'http://www.last.fm/music/Bad+Religion/_/What+It+Is'
p404
S'1368552122'
p405
tp406
a(S'Bad Religion'
p407
S'The Handshake'
p408
S'http://www.last.fm/music/Bad+Religion/_/The+Handshake'
p409
S'1368551951'
p410
tp411
a(S'Bad Religion'
p412
S'The Empire Strikes First'
p413
S'http://www.last.fm/music/Bad+Religion/_/The+Empire+Strikes+First'
p414
S'1368551748'
p415
tp416
a(S'Bad Religion'
p417
S'Nobody Listens'
p418
S'http://www.last.fm/music/Bad+Religion/_/Nobody+Listens'
p419
S'1368551632'
p420
tp421
a(S'Rainbow'
p422
S'Catch the Rainbow'
p423
S'http://www.last.fm/music/Rainbow/_/Catch+the+Rainbow'
p424
S'1368540429'
p425
tp426
a(S'Bad Religion'
p427
S'American Jesus'
p428
S'http://www.last.fm/music/Bad+Religion/_/American+Jesus'
p429
S'1368540231'
p430
tp431
a(S'Bad Religion'
p432
S'Inner Logic'
p433
S'http://www.last.fm/music/Bad+Religion/_/Inner+Logic'
p434
S'1368540055'
p435
tp436
a(S'Rainbow'
p437
S'Lady Of The Lake'
p438
S'http://www.last.fm/music/Rainbow/_/Lady+Of+The+Lake'
p439
S'1368539836'
p440
tp441
a(S'Bad Religion'
p442
S'Tiny Voices'
p443
S'http://www.last.fm/music/Bad+Religion/_/Tiny+Voices'
p444
S'1368539680'
p445
tp446
a(S'Bad Religion'
p447
S'Marked'
p448
S'http://www.last.fm/music/Bad+Religion/_/Marked'
p449
S'1368539571'
p450
tp451
a(S'Rainbow'
p452
S'Kill the King'
p453
S'http://www.last.fm/music/Rainbow/_/Kill+the+King'
p454
S'1368539302'
p455
tp456
a(S'Bad Religion'
p457
S'Atheist Peace'
p458
S'http://www.last.fm/music/Bad+Religion/_/Atheist+Peace'
p459
S'1368539184'
p460
tp461
a(S'Bad Religion'
p462
S'What It Is'
p463
S'http://www.last.fm/music/Bad+Religion/_/What+It+Is'
p464
S'1368539057'
p465
tp466
a(S'Bad Religion'
p467
S'The Handshake'
p468
S'http://www.last.fm/music/Bad+Religion/_/The+Handshake'
p469
S'1368538886'
p470
tp471
a(S'Bad Religion'
p472
S'The Empire Strikes First'
p473
S'http://www.last.fm/music/Bad+Religion/_/The+Empire+Strikes+First'
p474
S'1368538684'
p475
tp476
a(S'Bad Religion'
p477
S'The Empire Strikes First'
p478
S'http://www.last.fm/music/Bad+Religion/_/The+Empire+Strikes+First'
p479
S'1368536780'
p480
tp481
a(S'Bad Religion'
p482
S'Nobody Listens'
p483
S'http://www.last.fm/music/Bad+Religion/_/Nobody+Listens'
p484
S'1368536663'
p485
tp486
a(S'Rainbow'
p487
S'Catch the Rainbow'
p488
S'http://www.last.fm/music/Rainbow/_/Catch+the+Rainbow'
p489
S'1368536256'
p490
tp491
a(S'Bad Religion'
p492
S'What It Is'
p493
S'http://www.last.fm/music/Bad+Religion/_/What+It+Is'
p494
S'1368464042'
p495
tp496
a(S'Bad Religion'
p497
S'The Handshake'
p498
S'http://www.last.fm/music/Bad+Religion/_/The+Handshake'
p499
S'1368463871'
p500
tp501
a(S'Rainbow'
p502
S'Kill the King'
p503
S'http://www.last.fm/music/Rainbow/_/Kill+the+King'
p504
S'1368463601'
p505
tp506
a(S'Bad Religion'
p507
S'Nobody Listens'
p508
S'http://www.last.fm/music/Bad+Religion/_/Nobody+Listens'
p509
S'1368463484'
p510
tp511
a(S'Bad Religion'
p512
S'American Jesus'
p513
S'http://www.last.fm/music/Bad+Religion/_/American+Jesus'
p514
S'1368463287'
p515
tp516
a(S'Bad Religion'
p517
S'Tiny Voices'
p518
S'http://www.last.fm/music/Bad+Religion/_/Tiny+Voices'
p519
S'1368463130'
p520
tp521
a(S'Bad Religion'
p522
S'Atheist Peace'
p523
S'http://www.last.fm/music/Bad+Religion/_/Atheist+Peace'
p524
S'1368463013'
p525
tp526
a(S'Bad Religion'
p527
S'Inner Logic'
p528
S'http://www.last.fm/music/Bad+Religion/_/Inner+Logic'
p529
S'1368462837'
p530
tp531
a(S'Rainbow'
p532
S'Lady Of The Lake'
p533
S'http://www.last.fm/music/Rainbow/_/Lady+Of+The+Lake'
p534
S'1368462618'
p535
tp536
a(S'Bad Religion'
p537
S'The Empire Strikes First'
p538
S'http://www.last.fm/music/Bad+Religion/_/The+Empire+Strikes+First'
p539
S'1368462416'
p540
tp541
a(S'Rainbow'
p542
S'Catch the Rainbow'
p543
S'http://www.last.fm/music/Rainbow/_/Catch+the+Rainbow'
p544
S'1368462025'
p545
tp546
a(S'Bad Religion'
p547
S'Marked'
p548
S'http://www.last.fm/music/Bad+Religion/_/Marked'
p549
S'1368461917'
p550
tp551
a(S'Bad Religion'
p552
S'What It Is'
p553
S'http://www.last.fm/music/Bad+Religion/_/What+It+Is'
p554
S'1368461787'
p555
tp556
a(S'Bad Religion'
p557
S'The Handshake'
p558
S'http://www.last.fm/music/Bad+Religion/_/The+Handshake'
p559
S'1368461616'
p560
tp561
a(S'Rainbow'
p562
S'Kill the King'
p563
S'http://www.last.fm/music/Rainbow/_/Kill+the+King'
p564
S'1368461346'
p565
tp566
a(S'Bad Religion'
p567
S'Nobody Listens'
p568
S'http://www.last.fm/music/Bad+Religion/_/Nobody+Listens'
p569
S'1368461230'
p570
tp571
a(S'Bad Religion'
p572
S'American Jesus'
p573
S'http://www.last.fm/music/Bad+Religion/_/American+Jesus'
p574
S'1368461033'
p575
tp576
a(S'Bad Religion'
p577
S'Tiny Voices'
p578
S'http://www.last.fm/music/Bad+Religion/_/Tiny+Voices'
p579
S'1368459996'
p580
tp581
a(S'Bad Religion'
p582
S'Atheist Peace'
p583
S'http://www.last.fm/music/Bad+Religion/_/Atheist+Peace'
p584
S'1368459879'
p585
tp586
a(S'Bad Religion'
p587
S'Inner Logic'
p588
S'http://www.last.fm/music/Bad+Religion/_/Inner+Logic'
p589
S'1368459702'
p590
tp591
a(S'Rainbow'
p592
S'Lady Of The Lake'
p593
S'http://www.last.fm/music/Rainbow/_/Lady+Of+The+Lake'
p594
S'1368459484'
p595
tp596
a(S'Bad Religion'
p597
S'The Empire Strikes First'
p598
S'http://www.last.fm/music/Bad+Religion/_/The+Empire+Strikes+First'
p599
S'1368459281'
p600
tp601
a(S'Rainbow'
p602
S'Catch the Rainbow'
p603
S'http://www.last.fm/music/Rainbow/_/Catch+the+Rainbow'
p604
S'1368458890'
p605
tp606
a(S'Bad Religion'
p607
S'Marked'
p608
S'http://www.last.fm/music/Bad+Religion/_/Marked'
p609
S'1368458783'
p610
tp611
a(S'Bad Religion'
p612
S'What It Is'
p613
S'http://www.last.fm/music/Bad+Religion/_/What+It+Is'
p614
S'1368458654'
p615
tp616
a(S'Bad Religion'
p617
S'The Handshake'
p618
S'http://www.last.fm/music/Bad+Religion/_/The+Handshake'
p619
S'1368458483'
p620
tp621
a(S'Rainbow'
p622
S'Kill the King'
p623
S'http://www.last.fm/music/Rainbow/_/Kill+the+King'
p624
S'1368458214'
p625
tp626
a(S'Bad Religion'
p627
S'Nobody Listens'
p628
S'http://www.last.fm/music/Bad+Religion/_/Nobody+Listens'
p629
S'1368458098'
p630
tp631
a(S'Bad Religion'
p632
S'American Jesus'
p633
S'http://www.last.fm/music/Bad+Religion/_/American+Jesus'
p634
S'1368457901'
p635
tp636
a(S'Bad Religion'
p637
S'Tiny Voices'
p638
S'http://www.last.fm/music/Bad+Religion/_/Tiny+Voices'
p639
S'1368457745'
p640
tp641
a(S'Bad Religion'
p642
S'Atheist Peace'
p643
S'http://www.last.fm/music/Bad+Religion/_/Atheist+Peace'
p644
S'1368457627'
p645
tp646
a(S'Bad Religion'
p647
S'Inner Logic'
p648
S'http://www.last.fm/music/Bad+Religion/_/Inner+Logic'
p649
S'1368457451'
p650
tp651
a(S'Rainbow'
p652
S'Lady Of The Lake'
p653
S'http://www.last.fm/music/Rainbow/_/Lady+Of+The+Lake'
p654
S'1368457233'
p655
tp656
a(S'Bad Religion'
p657
S'The Empire Strikes First'
p658
S'http://www.last.fm/music/Bad+Religion/_/The+Empire+Strikes+First'
p659
S'1368457031'
p660
tp661
a(S'Rainbow'
p662
S'Catch the Rainbow'
p663
S'http://www.last.fm/music/Rainbow/_/Catch+the+Rainbow'
p664
S'1368456640'
p665
tp666
a(S'Bad Religion'
p667
S'Marked'
p668
S'http://www.last.fm/music/Bad+Religion/_/Marked'
p669
S'1368456533'
p670
tp671
a(S'Bad Religion'
p672
S'What It Is'
p673
S'http://www.last.fm/music/Bad+Religion/_/What+It+Is'
p674
S'1368456403'
p675
tp676
a(S'Bad Religion'
p677
S'The Handshake'
p678
S'http://www.last.fm/music/Bad+Religion/_/The+Handshake'
p679
S'1368456232'
p680
tp681
a(S'Rainbow'
p682
S'Kill the King'
p683
S'http://www.last.fm/music/Rainbow/_/Kill+the+King'
p684
S'1368455963'
p685
tp686
a(S'Bad Religion'
p687
S'Nobody Listens'
p688
S'http://www.last.fm/music/Bad+Religion/_/Nobody+Listens'
p689
S'1368455847'
p690
tp691
a(S'Bad Religion'
p692
S'American Jesus'
p693
S'http://www.last.fm/music/Bad+Religion/_/American+Jesus'
p694
S'1368455650'
p695
tp696
a(S'Bad Religion'
p697
S'Tiny Voices'
p698
S'http://www.last.fm/music/Bad+Religion/_/Tiny+Voices'
p699
S'1368455494'
p700
tp701
a(S'Bad Religion'
p702
S'Atheist Peace'
p703
S'http://www.last.fm/music/Bad+Religion/_/Atheist+Peace'
p704
S'1368455376'
p705
tp706
a(S'Bad Religion'
p707
S'Inner Logic'
p708
S'http://www.last.fm/music/Bad+Religion/_/Inner+Logic'
p709
S'1368455200'
p710
tp711
a(S'Bad Religion'
p712
S'American Jesus'
p713
S'http://www.last.fm/music/Bad+Religion/_/American+Jesus'
p714
S'1368455004'
p715
tp716
a(S'Bad Religion'
p717
S'Tiny Voices'
p718
S'http://www.last.fm/music/Bad+Religion/_/Tiny+Voices'
p719
S'1368454847'
p720
tp721
a(S'Rainbow'
p722
S'Catch the Rainbow'
p723
S'http://www.last.fm/music/Rainbow/_/Catch+the+Rainbow'
p724
S'1368454456'
p725
tp726
a(S'Bad Religion'
p727
S'The Handshake'
p728
S'http://www.last.fm/music/Bad+Religion/_/The+Handshake'
p729
S'1368454287'
p730
tp731
a(S'Bad Religion'
p732
S'Atheist Peace'
p733
S'http://www.last.fm/music/Bad+Religion/_/Atheist+Peace'
p734
S'1368454169'
p735
tp736
a(S'Bad Religion'
p737
S'A Walk'
p738
S'http://www.last.fm/music/Bad+Religion/_/A+Walk'
p739
S'1368453763'
p740
tp741
a(S'Oasis'
p742
S'Stand By Me'
p743
S'http://www.last.fm/music/Oasis/_/Stand+By+Me'
p744
S'1368453408'
p745
tp746
a(S'Oasis'
p747
S'Acquiesce'
p748
S'http://www.last.fm/music/Oasis/_/Acquiesce'
p749
S'1368452911'
p750
tp751
a(S'Bad Religion'
p752
S'Atheist Peace'
p753
S'http://www.last.fm/music/Bad+Religion/_/Atheist+Peace'
p754
S'1368452794'
p755
tp756
a(S'Bad Religion'
p757
S'The Empire Strikes First'
p758
S'http://www.last.fm/music/Bad+Religion/_/The+Empire+Strikes+First'
p759
S'1368452590'
p760
tp761
a(S'Oasis'
p762
S'Stand By Me'
p763
S'http://www.last.fm/music/Oasis/_/Stand+By+Me'
p764
S'1368452234'
p765
tp766
a(S'Bad Religion'
p767
S'Marked'
p768
S'http://www.last.fm/music/Bad+Religion/_/Marked'
p769
S'1368452106'
p770
tp771
a(S'Bad Religion'
p772
S'Drunk Sincerity'
p773
S'http://www.last.fm/music/Bad+Religion/_/Drunk+Sincerity'
p774
S'1368451973'
p775
tp776
a(S'Bad Religion'
p777
S'Nobody Listens'
p778
S'http://www.last.fm/music/Bad+Religion/_/Nobody+Listens'
p779
S'1368451855'
p780
tp781
a(S'Rainbow'
p782
S'Kill the King'
p783
S'http://www.last.fm/music/Rainbow/_/Kill+the+King'
p784
S'1368451585'
p785
tp786
a(S'Bad Religion'
p787
S'Supersonic'
p788
S'http://www.last.fm/music/Bad+Religion/_/Supersonic'
p789
S'1368451479'
p790
tp791
a(S'Rainbow'
p792
S'Catch the Rainbow'
p793
S'http://www.last.fm/music/Rainbow/_/Catch+the+Rainbow'
p794
S'1368451087'
p795
tp796
a(S'Bad Religion'
p797
S'Inner Logic'
p798
S'http://www.last.fm/music/Bad+Religion/_/Inner+Logic'
p799
S'1368450911'
p800
tp801
a(S'Bad Religion'
p802
S'The Handshake'
p803
S'http://www.last.fm/music/Bad+Religion/_/The+Handshake'
p804
S'1368450740'
p805
tp806
a(S'Bad Religion'
p807
S'At the Mercy of Imbeciles'
p808
S'http://www.last.fm/music/Bad+Religion/_/At+the+Mercy+of+Imbeciles'
p809
S'1368450647'
p810
tp811
a(S'Bad Religion'
p812
S'Sorrow'
p813
S'http://www.last.fm/music/Bad+Religion/_/Sorrow'
p814
S'1368450447'
p815
tp816
a(S'Bad Religion'
p817
S'Tiny Voices'
p818
S'http://www.last.fm/music/Bad+Religion/_/Tiny+Voices'
p819
S'1368450290'
p820
tp821
a(S'Rainbow'
p822
S'Lady Of The Lake'
p823
S'http://www.last.fm/music/Rainbow/_/Lady+Of+The+Lake'
p824
S'1368450071'
p825
tp826
a(S'Oasis'
p827
S"D'You Know What I Mean?"
p828
S'http://www.last.fm/music/Oasis/_/D%27You+Know+What+I+Mean%3F'
p829
S'1368446565'
p830
tp831
a(S'Bad Religion'
p832
S'A Walk'
p833
S'http://www.last.fm/music/Bad+Religion/_/A+Walk'
p834
S'1368446003'
p835
tp836
a(S'Bad Religion'
p837
S'What It Is'
p838
S'http://www.last.fm/music/Bad+Religion/_/What+It+Is'
p839
S'1368445875'
p840
tp841
a(S'Oasis'
p842
S'Acquiesce'
p843
S'http://www.last.fm/music/Oasis/_/Acquiesce'
p844
S'1368445611'
p845
tp846
a(S'Rainbow'
p847
S'Lady Of The Lake'
p848
S'http://www.last.fm/music/Rainbow/_/Lady+Of+The+Lake'
p849
S'1368210137'
p850
tp851
a(S'Bad Religion'
p852
S'Nobody Listens'
p853
S'http://www.last.fm/music/Bad+Religion/_/Nobody+Listens'
p854
S'1368193957'
p855
tp856
a(S'Bad Religion'
p857
S'At the Mercy of Imbeciles'
p858
S'http://www.last.fm/music/Bad+Religion/_/At+the+Mercy+of+Imbeciles'
p859
S'1368193863'
p860
tp861
a(S'Bad Religion'
p862
S'A Walk'
p863
S'http://www.last.fm/music/Bad+Religion/_/A+Walk'
p864
S'1368193735'
p865
tp866
a(S'Rainbow'
p867
S'Catch the Rainbow'
p868
S'http://www.last.fm/music/Rainbow/_/Catch+the+Rainbow'
p869
S'1368193343'
p870
tp871
a(S'Bad Religion'
p872
S'Supersonic'
p873
S'http://www.last.fm/music/Bad+Religion/_/Supersonic'
p874
S'1368193237'
p875
tp876
a(S'Bad Religion'
p877
S'Drunk Sincerity'
p878
S'http://www.last.fm/music/Bad+Religion/_/Drunk+Sincerity'
p879
S'1368193105'
p880
tp881
a(S'Bad Religion'
p882
S'What It Is'
p883
S'http://www.last.fm/music/Bad+Religion/_/What+It+Is'
p884
S'1368192978'
p885
tp886
a(S'Bad Religion'
p887
S'Tiny Voices'
p888
S'http://www.last.fm/music/Bad+Religion/_/Tiny+Voices'
p889
S'1368192820'
p890
tp891
a(S'Rainbow'
p892
S'Kill the King'
p893
S'http://www.last.fm/music/Rainbow/_/Kill+the+King'
p894
S'1368192549'
p895
tp896
a(S'Bad Religion'
p897
S'Atheist Peace'
p898
S'http://www.last.fm/music/Bad+Religion/_/Atheist+Peace'
p899
S'1368189767'
p900
tp901
a(S'Bad Religion'
p902
S'No Substance'
p903
S'http://www.last.fm/music/Bad+Religion/_/No+Substance'
p904
S'1368189666'
p905
tp906
a(S'Bad Religion'
p907
S'Atheist Peace'
p908
S'http://www.last.fm/music/Bad+Religion/_/Atheist+Peace'
p909
S'1368189549'
p910
tp911
a(S'Rainbow'
p912
S'Kill the King'
p913
S'http://www.last.fm/music/Rainbow/_/Kill+the+King'
p914
S'1368188297'
p915
tp916
a(S'Rainbow'
p917
S'Snake Charmer'
p918
S'http://www.last.fm/music/Rainbow/_/Snake+Charmer'
p919
S'1368188011'
p920
tp921
a(S'Rainbow'
p922
S'Gates of Babylon'
p923
S'http://www.last.fm/music/Rainbow/_/Gates+of+Babylon'
p924
S'1368126010'
p925
tp926
a(S'Rainbow'
p927
S'Lady Of The Lake'
p928
S'http://www.last.fm/music/Rainbow/_/Lady+Of+The+Lake'
p929
S'1368125790'
p930
tp931
a(S'Bad Religion'
p932
S'The Empire Strikes First'
p933
S'http://www.last.fm/music/Bad+Religion/_/The+Empire+Strikes+First'
p934
S'1368125587'
p935
tp936
a(S'Bad Religion'
p937
S'Atheist Peace'
p938
S'http://www.last.fm/music/Bad+Religion/_/Atheist+Peace'
p939
S'1368125467'
p940
tp941
a(S'Bad Religion'
p942
S'Supersonic'
p943
S'http://www.last.fm/music/Bad+Religion/_/Supersonic'
p944
S'1368125360'
p945
tp946
a(S'Bad Religion'
p947
S'A Walk'
p948
S'http://www.last.fm/music/Bad+Religion/_/A+Walk'
p949
S'1368125232'
p950
tp951
a(S'Bad Religion'
p952
S'What It Is'
p953
S'http://www.last.fm/music/Bad+Religion/_/What+It+Is'
p954
S'1368125104'
p955
tp956
a(S'Bad Religion'
p957
S'Marked'
p958
S'http://www.last.fm/music/Bad+Religion/_/Marked'
p959
S'1368124995'
p960
tp961
a(S'Bad Religion'
p962
S'Inner Logic'
p963
S'http://www.last.fm/music/Bad+Religion/_/Inner+Logic'
p964
S'1368124816'
p965
tp966
a(S'Bad Religion'
p967
S'Tiny Voices'
p968
S'http://www.last.fm/music/Bad+Religion/_/Tiny+Voices'
p969
S'1368124658'
p970
tp971
a(S'Bad Religion'
p972
S'The Handshake'
p973
S'http://www.last.fm/music/Bad+Religion/_/The+Handshake'
p974
S'1368124487'
p975
tp976
a(S'Bad Religion'
p977
S'American Jesus'
p978
S'http://www.last.fm/music/Bad+Religion/_/American+Jesus'
p979
S'1368123988'
p980
tp981
a(S'Bad Religion'
p982
S'The Empire Strikes First'
p983
S'http://www.last.fm/music/Bad+Religion/_/The+Empire+Strikes+First'
p984
S'1368108983'
p985
tp986
a(S'Rainbow'
p987
S'Lady Of The Lake'
p988
S'http://www.last.fm/music/Rainbow/_/Lady+Of+The+Lake'
p989
S'1368107910'
p990
tp991
a(S'Rainbow'
p992
S'Gates of Babylon'
p993
S'http://www.last.fm/music/Rainbow/_/Gates+of+Babylon'
p994
S'1368107500'
p995
tp996
a(S'Rainbow'
p997
S'Kill the King'
p998
S'http://www.last.fm/music/Rainbow/_/Kill+the+King'
p999
S'1368107017'
p1000
tp1001
a.