(lp1
(S'Diamond Head'
p2
S'Give It to Me'
p3
S'http://www.last.fm/music/Diamond+Head/_/Give+It+to+Me'
p4
S'1242396276'
p5
tp6
a(S'Stone Temple Pilots'
p7
S'Tumble in the Rough'
p8
S'http://www.last.fm/music/Stone+Temple+Pilots/_/Tumble+in+the+Rough'
p9
S'1242396077'
p10
tp11
a(S'Jamiroquai'
p12
S'Feels Like It Should'
p13
S'http://www.last.fm/music/Jamiroquai/_/Feels+Like+It+Should'
p14
S'1242395804'
p15
tp16
a(S'Live'
p17
S'They Stood Up For Love'
p18
S'http://www.last.fm/music/Live/_/They+Stood+Up+For+Love'
p19
S'1242395529'
p20
tp21
a(S'Billy Idol'
p22
S'Sweet Sixteen'
p23
S'http://www.last.fm/music/Billy+Idol/_/Sweet+Sixteen'
p24
S'1242395275'
p25
tp26
a(S'Live'
p27
S"The Dolphin's Cry"
p28
S'http://www.last.fm/music/Live/_/The+Dolphin%27s+Cry'
p29
S'1242395010'
p30
tp31
a(S'Sting'
p32
S"We'll Be Together"
p33
S'http://www.last.fm/music/Sting/_/We%27ll+Be+Together'
p34
S'1242394779'
p35
tp36
a(S'Iommi'
p37
S'Into The Night'
p38
S'http://www.last.fm/music/Iommi/_/Into+The+Night'
p39
S'1242394477'
p40
tp41
a(S'Diamond Head'
p42
S"What's in Your Head?"
p43
S'http://www.last.fm/music/Diamond+Head/_/What%27s+in+Your+Head%3F'
p44
S'1242394134'
p45
tp46
a(S'Billy Idol'
p47
S'Sweet Sixteen'
p48
S'http://www.last.fm/music/Billy+Idol/_/Sweet+Sixteen'
p49
S'1242393900'
p50
tp51
a(S'Live'
p52
S"The Dolphin's Cry"
p53
S'http://www.last.fm/music/Live/_/The+Dolphin%27s+Cry'
p54
S'1242393635'
p55
tp56
a(S'Sting'
p57
S"We'll Be Together"
p58
S'http://www.last.fm/music/Sting/_/We%27ll+Be+Together'
p59
S'1242393404'
p60
tp61
a(S'Iommi'
p62
S'Into The Night'
p63
S'http://www.last.fm/music/Iommi/_/Into+The+Night'
p64
S'1242393102'
p65
tp66
a(S'Soundgarden'
p67
S'Searching With My Good Eye Closed'
p68
S'http://www.last.fm/music/Soundgarden/_/Searching+With+My+Good+Eye+Closed'
p69
S'1242392711'
p70
tp71
a(S'Megadeth'
p72
S'A Secret Place'
p73
S'http://www.last.fm/music/Megadeth/_/A+Secret+Place'
p74
S'1242392386'
p75
tp76
a(S'Alice Cooper'
p77
S'Bed of Nails'
p78
S'http://www.last.fm/music/Alice+Cooper/_/Bed+of+Nails'
p79
S'1242392099'
p80
tp81
a(S'Megadeth'
p82
S'Diadems'
p83
S'http://www.last.fm/music/Megadeth/_/Diadems'
p84
S'1242332607'
p85
tp86
a(S'Iommi'
p87
S'Wasted Again'
p88
S'http://www.last.fm/music/Iommi/_/Wasted+Again'
p89
S'1242332366'
p90
tp91
a(S'Ozzy Osbourne'
p92
S"Countdown's Begun"
p93
S'http://www.last.fm/music/Ozzy+Osbourne/_/Countdown%27s+Begun'
p94
S'1242332072'
p95
tp96
a(S'AC/DC'
p97
S'Rock N Roll Dream'
p98
S'http://www.last.fm/music/AC%2FDC/_/Rock+N+Roll+Dream'
p99
S'1242331791'
p100
tp101
a(S'Pantera'
p102
S'A New Level'
p103
S'http://www.last.fm/music/Pantera/_/A+New+Level'
p104
S'1242331554'
p105
tp106
a(S'Iron Maiden'
p107
S'The Evil That Men Do'
p108
S'http://www.last.fm/music/Iron+Maiden/_/The+Evil+That+Men+Do'
p109
S'1242331276'
p110
tp111
a(S'Iron Maiden'
p112
S'Only the Good Die Young'
p113
S'http://www.last.fm/music/Iron+Maiden/_/Only+the+Good+Die+Young'
p114
S'1242326995'
p115
tp116
a(S'Dio'
p117
S'Rainbow in the Dark'
p118
S'http://www.last.fm/music/Dio/_/Rainbow+in+the+Dark'
p119
S'1242326746'
p120
tp121
a(S'Jerry Cantrell'
p122
S'Dickeye'
p123
S'http://www.last.fm/music/Jerry+Cantrell/_/Dickeye'
p124
S'1242326443'
p125
tp126
a(S'Pantera'
p127
S'Hollow'
p128
S'http://www.last.fm/music/Pantera/_/Hollow'
p129
S'1242326097'
p130
tp131
a(S'Audioslave'
p132
S'Sound Of A Gun'
p133
S'http://www.last.fm/music/Audioslave/_/Sound+Of+A+Gun'
p134
S'1242325839'
p135
tp136
a(S'Ozzy Osbourne'
p137
S'Nightmare'
p138
S'http://www.last.fm/music/Ozzy+Osbourne/_/Nightmare'
p139
S'1242318566'
p140
tp141
a(S'AC/DC'
p142
S'Wheels'
p143
S'http://www.last.fm/music/AC%2FDC/_/Wheels'
p144
S'1242318357'
p145
tp146
a(S'Live'
p147
S'Good Pain'
p148
S'http://www.last.fm/music/Live/_/Good+Pain'
p149
S'1242318018'
p150
tp151
a(S'The Bar-Kays'
p152
S'Summer Of Our Love'
p153
S'http://www.last.fm/music/The+Bar-Kays/_/Summer+Of+Our+Love'
p154
S'1242317754'
p155
tp156
a(S'Kiss'
p157
S'Sure Know Something'
p158
S'http://www.last.fm/music/Kiss/_/Sure+Know+Something'
p159
S'1242317500'
p160
tp161
a(S'AC/DC'
p162
S"Spoilin' For A Fight"
p163
S'http://www.last.fm/music/AC%2FDC/_/Spoilin%27+For+A+Fight'
p164
S'1242317303'
p165
tp166
a(S'Megadeth'
p167
S'Sleepwalker'
p168
S'http://www.last.fm/music/Megadeth/_/Sleepwalker'
p169
S'1242316949'
p170
tp171
a(S'Diamond Head'
p172
S"What's in Your Head?"
p173
S'http://www.last.fm/music/Diamond+Head/_/What%27s+in+Your+Head%3F'
p174
S'1242316697'
p175
tp176
a(S'Megadeth'
p177
S'Youthanasia'
p178
S'http://www.last.fm/music/Megadeth/_/Youthanasia'
p179
S'1242316447'
p180
tp181
a(S'Pantera'
p182
S'Cemetery Gates'
p183
S'http://www.last.fm/music/Pantera/_/Cemetery+Gates'
p184
S'1242316013'
p185
tp186
a(S'Diamond Head'
p187
S'Muddy Waters'
p188
S'http://www.last.fm/music/Diamond+Head/_/Muddy+Waters'
p189
S'1242315675'
p190
tp191
a(S'Iron Maiden'
p192
S'Stranger In a Strange Land'
p193
S'http://www.last.fm/music/Iron+Maiden/_/Stranger+In+a+Strange+Land'
p194
S'1242315323'
p195
tp196
a(S'Metallica'
p197
S'All Nightmare Long'
p198
S'http://www.last.fm/music/Metallica/_/All+Nightmare+Long'
p199
S'1242311601'
p200
tp201
a(S'Pantera'
p202
S'No Good (Attack the Radical)'
p203
S'http://www.last.fm/music/Pantera/_/No+Good+(Attack+the+Radical)'
p204
S'1242311311'
p205
tp206
a(S'Live'
p207
S'The Sanctity Of Dreams'
p208
S'http://www.last.fm/music/Live/_/The+Sanctity+Of+Dreams'
p209
S'1242311098'
p210
tp211
a(S'Jerry Cantrell'
p212
S'Jesus Hands'
p213
S'http://www.last.fm/music/Jerry+Cantrell/_/Jesus+Hands'
p214
S'1242310761'
p215
tp216
a(S'Iommi'
p217
S'Saviour of the Real'
p218
S'http://www.last.fm/music/Iommi/_/Saviour+of+the+Real'
p219
S'1242309760'
p220
tp221
a(S'Megadeth'
p222
S'Train of Consequences'
p223
S'http://www.last.fm/music/Megadeth/_/Train+of+Consequences'
p224
S'1242309554'
p225
tp226
a(S'ZZ Top'
p227
S'Loaded'
p228
S'http://www.last.fm/music/ZZ+Top/_/Loaded'
p229
S'1242309295'
p230
tp231
a(S'Jamiroquai'
p232
S'Electric Mistress'
p233
S'http://www.last.fm/music/Jamiroquai/_/Electric+Mistress'
p234
S'1242234044'
p235
tp236
a(S'Metallica'
p237
S"Ain't My Bitch"
p238
S'http://www.last.fm/music/Metallica/_/Ain%27t+My+Bitch'
p239
S'1242233738'
p240
tp241
a(S'Bush'
p242
S'Machinehead'
p243
S'http://www.last.fm/music/Bush/_/Machinehead'
p244
S'1242233479'
p245
tp246
a(S'Iron Maiden'
p247
S'The Clansman'
p248
S'http://www.last.fm/music/Iron+Maiden/_/The+Clansman'
p249
S'1242232906'
p250
tp251
a(S'Alice in Chains'
p252
S'Sunshine'
p253
S'http://www.last.fm/music/Alice+in+Chains/_/Sunshine'
p254
S'1242232621'
p255
tp256
a(S'Soundgarden'
p257
S'Holy Water'
p258
S'http://www.last.fm/music/Soundgarden/_/Holy+Water'
p259
S'1242232314'
p260
tp261
a(S'Alice in Chains'
p262
S'Heaven Beside You'
p263
S'http://www.last.fm/music/Alice+in+Chains/_/Heaven+Beside+You'
p264
S'1242231986'
p265
tp266
a(S'Stone Temple Pilots'
p267
S'Army Ants'
p268
S'http://www.last.fm/music/Stone+Temple+Pilots/_/Army+Ants'
p269
S'1242231752'
p270
tp271
a(S'Skid Row'
p272
S'Into Another'
p273
S'http://www.last.fm/music/Skid+Row/_/Into+Another'
p274
S'1242231509'
p275
tp276
a(S'New Model Army'
p277
S'51st State'
p278
S'http://www.last.fm/music/New+Model+Army/_/51st+State'
p279
S'1242220232'
p280
tp281
a(S'Megadeth'
p282
S'A Secret Place'
p283
S'http://www.last.fm/music/Megadeth/_/A+Secret+Place'
p284
S'1242219907'
p285
tp286
a(S'Iommi'
p287
S'I Go Insane'
p288
S'http://www.last.fm/music/Iommi/_/I+Go+Insane'
p289
S'1242150232'
p290
tp291
a(S'Diamond Head'
p292
S'Broken Pieces'
p293
S'http://www.last.fm/music/Diamond+Head/_/Broken+Pieces'
p294
S'1242149937'
p295
tp296
a(S'Live'
p297
S'Feel The Quiet River Rage'
p298
S'http://www.last.fm/music/Live/_/Feel+The+Quiet+River+Rage'
p299
S'1242149660'
p300
tp301
a(S'Kiss'
p302
S'She'
p303
S'http://www.last.fm/music/Kiss/_/She'
p304
S'1242149414'
p305
tp306
a(S'Billy Idol'
p307
S'Sweet Sixteen'
p308
S'http://www.last.fm/music/Billy+Idol/_/Sweet+Sixteen'
p309
S'1242149159'
p310
tp311
a(S'Pantera'
p312
S'The Art of Shredding'
p313
S'http://www.last.fm/music/Pantera/_/The+Art+of+Shredding'
p314
S'1242148899'
p315
tp316
a(S'Megadeth'
p317
S'The Killing Road'
p318
S'http://www.last.fm/music/Megadeth/_/The+Killing+Road'
p319
S'1242148572'
p320
tp321
a(S'Stone Temple Pilots'
p322
S'Meat Plow'
p323
S'http://www.last.fm/music/Stone+Temple+Pilots/_/Meat+Plow'
p324
S'1242148356'
p325
tp326
a(S'Stone Temple Pilots'
p327
S'Daisy'
p328
S'http://www.last.fm/music/Stone+Temple+Pilots/_/Daisy'
p329
S'1242148217'
p330
tp331
a(S'Roxette'
p332
S'Spending My Time'
p333
S'http://www.last.fm/music/Roxette/_/Spending+My+Time'
p334
S'1242147939'
p335
tp336
a(S'Yes'
p337
S'Changes'
p338
S'http://www.last.fm/music/Yes/_/Changes'
p339
S'1242147559'
p340
tp341
a(S'AC/DC'
p342
S'Rocking All the Way'
p343
S'http://www.last.fm/music/AC%2FDC/_/Rocking+All+the+Way'
p344
S'1242145757'
p345
tp346
a(S'Iommi'
p347
S'Saviour of the Real'
p348
S'http://www.last.fm/music/Iommi/_/Saviour+of+the+Real'
p349
S'1242145509'
p350
tp351
a(S'Alice in Chains'
p352
S'So Close'
p353
S'http://www.last.fm/music/Alice+in+Chains/_/So+Close'
p354
S'1242145199'
p355
tp356
a(S'Stone Temple Pilots'
p357
S'Interstate Love Song'
p358
S'http://www.last.fm/music/Stone+Temple+Pilots/_/Interstate+Love+Song'
p359
S'1242145005'
p360
tp361
a(S'Iommi'
p362
S'Grace'
p363
S'http://www.last.fm/music/Iommi/_/Grace'
p364
S'1242144691'
p365
tp366
a(S'Iron Maiden'
p367
S'Public Enema Number One'
p368
S'http://www.last.fm/music/Iron+Maiden/_/Public+Enema+Number+One'
p369
S'1242144437'
p370
tp371
a(S'Stone Temple Pilots'
p372
S'"Unglued"'
p373
S'http://www.last.fm/music/Stone+Temple+Pilots/_/%22Unglued%22'
p374
S'1242144276'
p375
tp376
a(S'Alice Cooper'
p377
S'Hell Is Living Without You'
p378
S'http://www.last.fm/music/Alice+Cooper/_/Hell+Is+Living+Without+You'
p379
S'1242144025'
p380
tp381
a(S'Alice in Chains'
p382
S'Nutshell'
p383
S'http://www.last.fm/music/Alice+in+Chains/_/Nutshell'
p384
S'1242138957'
p385
tp386
a(S'Alice Cooper'
p387
S'Hell Is Living Without You'
p388
S'http://www.last.fm/music/Alice+Cooper/_/Hell+Is+Living+Without+You'
p389
S'1242138706'
p390
tp391
a(S'Alice in Chains'
p392
S'Sludge Factory'
p393
S'http://www.last.fm/music/Alice+in+Chains/_/Sludge+Factory'
p394
S'1242138273'
p395
tp396
a(S'Joan Jett and the Blackhearts'
p397
S'Cherry Bomb'
p398
S'http://www.last.fm/music/Joan+Jett+and+the+Blackhearts/_/Cherry+Bomb'
p399
S'1242138119'
p400
tp401
a(S'Metallica'
p402
S'The House Jack Built'
p403
S'http://www.last.fm/music/Metallica/_/The+House+Jack+Built'
p404
S'1242137718'
p405
tp406
a(S'Alice in Chains'
p407
S'Put You Down'
p408
S'http://www.last.fm/music/Alice+in+Chains/_/Put+You+Down'
p409
S'1242137514'
p410
tp411
a(S'Placebo'
p412
S'Pure Morning'
p413
S'http://www.last.fm/music/Placebo/_/Pure+Morning'
p414
S'1242137259'
p415
tp416
a(S'Liz Phair'
p417
S'Polyester Bride'
p418
S'http://www.last.fm/music/Liz+Phair/_/Polyester+Bride'
p419
S'1242137014'
p420
tp421
a(S'Joan Jett and the Blackhearts'
p422
S'Bad Reputation'
p423
S'http://www.last.fm/music/Joan+Jett+and+the+Blackhearts/_/Bad+Reputation'
p424
S'1242136846'
p425
tp426
a(S'Stone Temple Pilots'
p427
S'Interstate Love Song'
p428
S'http://www.last.fm/music/Stone+Temple+Pilots/_/Interstate+Love+Song'
p429
S'1242136651'
p430
tp431
a(S'Jamiroquai'
p432
S'Starchild'
p433
S'http://www.last.fm/music/Jamiroquai/_/Starchild'
p434
S'1242136340'
p435
tp436
a(S'Jamiroquai'
p437
S'Feels Like It Should'
p438
S'http://www.last.fm/music/Jamiroquai/_/Feels+Like+It+Should'
p439
S'1242136067'
p440
tp441
a(S'Bush'
p442
S'Machinehead'
p443
S'http://www.last.fm/music/Bush/_/Machinehead'
p444
S'1242135808'
p445
tp446
a(S'Ozzy Osbourne'
p447
S'Nightmare'
p448
S'http://www.last.fm/music/Ozzy+Osbourne/_/Nightmare'
p449
S'1242135528'
p450
tp451
a(S'Pantera'
p452
S'The Art of Shredding'
p453
S'http://www.last.fm/music/Pantera/_/The+Art+of+Shredding'
p454
S'1242135268'
p455
tp456
a(S'Jamiroquai'
p457
S'Cosmic Girl'
p458
S'http://www.last.fm/music/Jamiroquai/_/Cosmic+Girl'
p459
S'1242135013'
p460
tp461
a(S'Iommi'
p462
S'Wasted Again'
p463
S'http://www.last.fm/music/Iommi/_/Wasted+Again'
p464
S'1242134777'
p465
tp466
a(S'Live'
p467
S'Mirror Song'
p468
S'http://www.last.fm/music/Live/_/Mirror+Song'
p469
S'1242127845'
p470
tp471
a(S'Diamond Head'
p472
S'Victim'
p473
S'http://www.last.fm/music/Diamond+Head/_/Victim'
p474
S'1242127608'
p475
tp476
a(S'Liz Phair'
p477
S'Rock Me'
p478
S'http://www.last.fm/music/Liz+Phair/_/Rock+Me'
p479
S'1242127407'
p480
tp481
a(S'Judas Priest'
p482
S'Diamonds and Rust'
p483
S'http://www.last.fm/music/Judas+Priest/_/Diamonds+and+Rust'
p484
S'1242126262'
p485
tp486
a(S'Billy Idol'
p487
S'Dancing With Myself'
p488
S'http://www.last.fm/music/Billy+Idol/_/Dancing+With+Myself'
p489
S'1242062379'
p490
tp491
a(S'Liz Phair'
p492
S'Polyester Bride'
p493
S'http://www.last.fm/music/Liz+Phair/_/Polyester+Bride'
p494
S'1242062133'
p495
tp496
a(S'Jamiroquai'
p497
S'Electric Mistress'
p498
S'http://www.last.fm/music/Jamiroquai/_/Electric+Mistress'
p499
S'1242061899'
p500
tp501
a(S'Jethro Tull'
p502
S'Aqualung'
p503
S'http://www.last.fm/music/Jethro+Tull/_/Aqualung'
p504
S'1242061500'
p505
tp506
a(S'Jamiroquai'
p507
S'Alright'
p508
S'http://www.last.fm/music/Jamiroquai/_/Alright'
p509
S'1242061327'
p510
tp511
a(S'Iommi'
p512
S'I Go Insane'
p513
S'http://www.last.fm/music/Iommi/_/I+Go+Insane'
p514
S'1242060773'
p515
tp516
a(S'AC/DC'
p517
S"Spoilin' For A Fight"
p518
S'http://www.last.fm/music/AC%2FDC/_/Spoilin%27+For+A+Fight'
p519
S'1242054444'
p520
tp521
a(S'Metallica'
p522
S'The House Jack Built'
p523
S'http://www.last.fm/music/Metallica/_/The+House+Jack+Built'
p524
S'1242053963'
p525
tp526
a(S'Jerry Cantrell'
p527
S'Breaks My Back'
p528
S'http://www.last.fm/music/Jerry+Cantrell/_/Breaks+My+Back'
p529
S'1242053538'
p530
tp531
a(S'Alice in Chains'
p532
S'I Stay Away'
p533
S'http://www.last.fm/music/Alice+in+Chains/_/I+Stay+Away'
p534
S'1242053257'
p535
tp536
a(S'Butthole Surfers'
p537
S'Pepper'
p538
S'http://www.last.fm/music/Butthole+Surfers/_/Pepper'
p539
S'1242052959'
p540
tp541
a(S'Jerry Cantrell'
p542
S'Devil By His Side'
p543
S'http://www.last.fm/music/Jerry+Cantrell/_/Devil+By+His+Side'
p544
S'1242052670'
p545
tp546
a(S'Megadeth'
p547
S'The Killing Road'
p548
S'http://www.last.fm/music/Megadeth/_/The+Killing+Road'
p549
S'1241812955'
p550
tp551
a(S'Live'
p552
S'Pain Lies On The Riverside'
p553
S'http://www.last.fm/music/Live/_/Pain+Lies+On+The+Riverside'
p554
S'1241812644'
p555
tp556
a(S'Jamiroquai'
p557
S'Everyday'
p558
S'http://www.last.fm/music/Jamiroquai/_/Everyday'
p559
S'1241812375'
p560
tp561
a(S'The Bar-Kays'
p562
S'Too Hot To Stop'
p563
S'http://www.last.fm/music/The+Bar-Kays/_/Too+Hot+To+Stop'
p564
S'1241811906'
p565
tp566
a(S'Iommi'
p567
S'Dopamine'
p568
S'http://www.last.fm/music/Iommi/_/Dopamine'
p569
S'1241811656'
p570
tp571
a(S'Metallica'
p572
S'Wasted My Hate'
p573
S'http://www.last.fm/music/Metallica/_/Wasted+My+Hate'
p574
S'1241811415'
p575
tp576
a(S'Megadeth'
p577
S'Symphony of Destruction'
p578
S'http://www.last.fm/music/Megadeth/_/Symphony+of+Destruction'
p579
S'1241811175'
p580
tp581
a(S'Iron Maiden'
p582
S'Sea of Madness'
p583
S'http://www.last.fm/music/Iron+Maiden/_/Sea+of+Madness'
p584
S'1241810833'
p585
tp586
a(S'Megadeth'
p587
S'Breadline'
p588
S'http://www.last.fm/music/Megadeth/_/Breadline'
p589
S'1241810560'
p590
tp591
a(S'Metallica'
p592
S'The Outlaw Torn'
p593
S'http://www.last.fm/music/Metallica/_/The+Outlaw+Torn'
p594
S'1241809973'
p595
tp596
a(S'Soundgarden'
p597
S'Face Pollution'
p598
S'http://www.last.fm/music/Soundgarden/_/Face+Pollution'
p599
S'1241809829'
p600
tp601
a(S'AC/DC'
p602
S'Rocking All the Way'
p603
S'http://www.last.fm/music/AC%2FDC/_/Rocking+All+the+Way'
p604
S'1241809626'
p605
tp606
a(S'ZZ Top'
p607
S"She's Just Killing Me"
p608
S'http://www.last.fm/music/ZZ+Top/_/She%27s+Just+Killing+Me'
p609
S'1241809329'
p610
tp611
a(S'Ozzy Osbourne'
p612
S'Trap Door'
p613
S'http://www.last.fm/music/Ozzy+Osbourne/_/Trap+Door'
p614
S'1241809084'
p615
tp616
a(S'Megadeth'
p617
S'Killing Is My Business... and Business Is Good!'
p618
S'http://www.last.fm/music/Megadeth/_/Killing+Is+My+Business...+and+Business+Is+Good!'
p619
S'1241808896'
p620
tp621
a(S'Metallica'
p622
S'The Unforgiven III'
p623
S'http://www.last.fm/music/Metallica/_/The+Unforgiven+III'
p624
S'1241808429'
p625
tp626
a(S'Judas Priest'
p627
S'Beyond the Realms of Death'
p628
S'http://www.last.fm/music/Judas+Priest/_/Beyond+the+Realms+of+Death'
p629
S'1241808018'
p630
tp631
a(S'Iron Maiden'
p632
S'The Evil That Men Do'
p633
S'http://www.last.fm/music/Iron+Maiden/_/The+Evil+That+Men+Do'
p634
S'1241807740'
p635
tp636
a(S'Alice in Chains'
p637
S'Right Turn'
p638
S'http://www.last.fm/music/Alice+in+Chains/_/Right+Turn'
p639
S'1241807542'
p640
tp641
a(S'Stone Temple Pilots'
p642
S'Lounge Fly'
p643
S'http://www.last.fm/music/Stone+Temple+Pilots/_/Lounge+Fly'
p644
S'1241807224'
p645
tp646
a(S'Soundgarden'
p647
S'Mind Riot'
p648
S'http://www.last.fm/music/Soundgarden/_/Mind+Riot'
p649
S'1241806934'
p650
tp651
a(S'Pantera'
p652
S'Mouth for War'
p653
S'http://www.last.fm/music/Pantera/_/Mouth+for+War'
p654
S'1241806698'
p655
tp656
a(S'Yes'
p657
S'Changes'
p658
S'http://www.last.fm/music/Yes/_/Changes'
p659
S'1241806318'
p660
tp661
a(S'Pantera'
p662
S'The Art of Shredding'
p663
S'http://www.last.fm/music/Pantera/_/The+Art+of+Shredding'
p664
S'1241702651'
p665
tp666
a(S'Jamiroquai'
p667
S"Time Won't Wait"
p668
S'http://www.last.fm/music/Jamiroquai/_/Time+Won%27t+Wait'
p669
S'1241702004'
p670
tp671
a(S'ZZ Top'
p672
S'Zipper Job'
p673
S'http://www.last.fm/music/ZZ+Top/_/Zipper+Job'
p674
S'1241701749'
p675
tp676
a(S'Diamond Head'
p677
S'All Will Be Revealed'
p678
S'http://www.last.fm/music/Diamond+Head/_/All+Will+Be+Revealed'
p679
S'1241701509'
p680
tp681
a(S'Diamond Head'
p682
S'Nightmare'
p683
S'http://www.last.fm/music/Diamond+Head/_/Nightmare'
p684
S'1241701286'
p685
tp686
a(S'Live'
p687
S'Brothers Unaware'
p688
S'http://www.last.fm/music/Live/_/Brothers+Unaware'
p689
S'1241701001'
p690
tp691
a(S'Pantera'
p692
S'Shattered'
p693
S'http://www.last.fm/music/Pantera/_/Shattered'
p694
S'1241700799'
p695
tp696
a(S'Kiss'
p697
S"Strutter '78"
p698
S'http://www.last.fm/music/Kiss/_/Strutter+%2778'
p699
S'1241700575'
p700
tp701
a(S'Alice Cooper'
p702
S'Trash'
p703
S'http://www.last.fm/music/Alice+Cooper/_/Trash'
p704
S'1241700336'
p705
tp706
a(S'The Bar-Kays'
p707
S"Bang, Bang (Stick 'Em Up)"
p708
S'http://www.last.fm/music/The+Bar-Kays/_/Bang,+Bang+(Stick+%27Em+Up)'
p709
S'1241700108'
p710
tp711
a(S'The Bar-Kays'
p712
S'Summer Of Our Love'
p713
S'http://www.last.fm/music/The+Bar-Kays/_/Summer+Of+Our+Love'
p714
S'1241699843'
p715
tp716
a(S'Live'
p717
S'Where Fishes Go'
p718
S'http://www.last.fm/music/Live/_/Where+Fishes+Go'
p719
S'1241699581'
p720
tp721
a(S'Alice in Chains'
p722
S'Got Me Wrong'
p723
S'http://www.last.fm/music/Alice+in+Chains/_/Got+Me+Wrong'
p724
S'1241699329'
p725
tp726
a(S'Roxette'
p727
S'(Do You Get) Excited'
p728
S'http://www.last.fm/music/Roxette/_/(Do+You+Get)+Excited'
p729
S'1241699066'
p730
tp731
a(S'Jamiroquai'
p732
S'Dynamite'
p733
S'http://www.last.fm/music/Jamiroquai/_/Dynamite'
p734
S'1241698771'
p735
tp736
a(S'Jamiroquai'
p737
S'You Give Me Something'
p738
S'http://www.last.fm/music/Jamiroquai/_/You+Give+Me+Something'
p739
S'1241698487'
p740
tp741
a(S'Soundgarden'
p742
S'Searching With My Good Eye Closed'
p743
S'http://www.last.fm/music/Soundgarden/_/Searching+With+My+Good+Eye+Closed'
p744
S'1241698089'
p745
tp746
a(S'Megadeth'
p747
S'Black Curtains'
p748
S'http://www.last.fm/music/Megadeth/_/Black+Curtains'
p749
S'1241697870'
p750
tp751
a(S'Megadeth'
p752
S'Blood of Heroes'
p753
S'http://www.last.fm/music/Megadeth/_/Blood+of+Heroes'
p754
S'1241697632'
p755
tp756
a(S'Yes'
p757
S'Changes'
p758
S'http://www.last.fm/music/Yes/_/Changes'
p759
S'1241696917'
p760
tp761
a(S'Iommi'
p762
S'Into The Night'
p763
S'http://www.last.fm/music/Iommi/_/Into+The+Night'
p764
S'1241627214'
p765
tp766
a(S'Iommi'
p767
S'Dopamine'
p768
S'http://www.last.fm/music/Iommi/_/Dopamine'
p769
S'1241626964'
p770
tp771
a(S'Pantera'
p772
S'The Art of Shredding'
p773
S'http://www.last.fm/music/Pantera/_/The+Art+of+Shredding'
p774
S'1241526256'
p775
tp776
a(S'Yes'
p777
S'Changes'
p778
S'http://www.last.fm/music/Yes/_/Changes'
p779
S'1241525822'
p780
tp781
a(S'Billy Idol'
p782
S'White Wedding'
p783
S'http://www.last.fm/music/Billy+Idol/_/White+Wedding'
p784
S'1241525569'
p785
tp786
a(S'Alice Cooper'
p787
S'Hell Is Living Without You'
p788
S'http://www.last.fm/music/Alice+Cooper/_/Hell+Is+Living+Without+You'
p789
S'1241525318'
p790
tp791
a(S'Ozzy Osbourne'
p792
S'Civilize the Universe'
p793
S'http://www.last.fm/music/Ozzy+Osbourne/_/Civilize+the+Universe'
p794
S'1241525035'
p795
tp796
a(S'Yes'
p797
S'Changes'
p798
S'http://www.last.fm/music/Yes/_/Changes'
p799
S'1241524665'
p800
tp801
a(S'Dio'
p802
S'Rainbow in the Dark'
p803
S'http://www.last.fm/music/Dio/_/Rainbow+in+the+Dark'
p804
S'1241469016'
p805
tp806
a(S'Pantera'
p807
S'The Art of Shredding'
p808
S'http://www.last.fm/music/Pantera/_/The+Art+of+Shredding'
p809
S'1241454919'
p810
tp811
a(S'Yes'
p812
S'Changes'
p813
S'http://www.last.fm/music/Yes/_/Changes'
p814
S'1241454200'
p815
tp816
a(S'Yes'
p817
S'Changes'
p818
S'http://www.last.fm/music/Yes/_/Changes'
p819
S'1241271670'
p820
tp821
a(S'Yes'
p822
S'Changes'
p823
S'http://www.last.fm/music/Yes/_/Changes'
p824
S'1241223918'
p825
tp826
a(S'Yes'
p827
S'Changes'
p828
S'http://www.last.fm/music/Yes/_/Changes'
p829
S'1241102442'
p830
tp831
a(S'Judas Priest'
p832
S'Out in the Cold'
p833
S'http://www.last.fm/music/Judas+Priest/_/Out+in+the+Cold'
p834
S'1241094259'
p835
tp836
a(S'Jamiroquai'
p837
S'Corner of the Earth'
p838
S'http://www.last.fm/music/Jamiroquai/_/Corner+of+the+Earth'
p839
S'1241093917'
p840
tp841
a(S'Stone Temple Pilots'
p842
S'Big Bang Baby'
p843
S'http://www.last.fm/music/Stone+Temple+Pilots/_/Big+Bang+Baby'
p844
S'1241093505'
p845
tp846
a(S'Megadeth'
p847
S'Reckoning Day'
p848
S'http://www.last.fm/music/Megadeth/_/Reckoning+Day'
p849
S'1241093230'
p850
tp851
a(S'Ozzy Osbourne'
p852
S'Trap Door'
p853
S'http://www.last.fm/music/Ozzy+Osbourne/_/Trap+Door'
p854
S'1241092972'
p855
tp856
a(S'Pantera'
p857
S'Shattered'
p858
S'http://www.last.fm/music/Pantera/_/Shattered'
p859
S'1241092771'
p860
tp861
a(S'Yes'
p862
S'Changes'
p863
S'http://www.last.fm/music/Yes/_/Changes'
p864
S'1241092166'
p865
tp866
a(S'Pantera'
p867
S'Shattered'
p868
S'http://www.last.fm/music/Pantera/_/Shattered'
p869
S'1240946519'
p870
tp871
a(S'Pantera'
p872
S'Heresy'
p873
S'http://www.last.fm/music/Pantera/_/Heresy'
p874
S'1240946163'
p875
tp876
a(S'Megadeth'
p877
S'Killing Is My Business... and Business Is Good!'
p878
S'http://www.last.fm/music/Megadeth/_/Killing+Is+My+Business...+and+Business+Is+Good!'
p879
S'1240945975'
p880
tp881
a(S'Faith No More'
p882
S'Falling to Pieces'
p883
S'http://www.last.fm/music/Faith+No+More/_/Falling+to+Pieces'
p884
S'1240945457'
p885
tp886
a(S'Stone Temple Pilots'
p887
S'Lounge Fly'
p888
S'http://www.last.fm/music/Stone+Temple+Pilots/_/Lounge+Fly'
p889
S'1240945138'
p890
tp891
a(S'Yes'
p892
S'Changes'
p893
S'http://www.last.fm/music/Yes/_/Changes'
p894
S'1240944758'
p895
tp896
a(S'Stone Temple Pilots'
p897
S'Lounge Fly'
p898
S'http://www.last.fm/music/Stone+Temple+Pilots/_/Lounge+Fly'
p899
S'1240944473'
p900
tp901
a(S'Yes'
p902
S'Changes'
p903
S'http://www.last.fm/music/Yes/_/Changes'
p904
S'1240944093'
p905
tp906
a(S'Yes'
p907
S'Changes'
p908
S'http://www.last.fm/music/Yes/_/Changes'
p909
S'1240937437'
p910
tp911
a(S'Iron Maiden'
p912
S'Public Enema Number One'
p913
S'http://www.last.fm/music/Iron+Maiden/_/Public+Enema+Number+One'
p914
S'1240937105'
p915
tp916
a(S'Iommi'
p917
S'Saviour of the Real'
p918
S'http://www.last.fm/music/Iommi/_/Saviour+of+the+Real'
p919
S'1240932102'
p920
tp921
a(S'Alice in Chains'
p922
S'Shame in You'
p923
S'http://www.last.fm/music/Alice+in+Chains/_/Shame+in+You'
p924
S'1240931766'
p925
tp926
a(S'Alice Cooper'
p927
S"This Maniac's in Love With You"
p928
S'http://www.last.fm/music/Alice+Cooper/_/This+Maniac%27s+in+Love+With+You'
p929
S'1240931538'
p930
tp931
a(S'Alice in Chains'
p932
S'Brush Away'
p933
S'http://www.last.fm/music/Alice+in+Chains/_/Brush+Away'
p934
S'1240931336'
p935
tp936
a(S'Scorpions'
p937
S'Still Loving You'
p938
S'http://www.last.fm/music/Scorpions/_/Still+Loving+You'
p939
S'1240931048'
p940
tp941
a(S'Alice in Chains'
p942
S"It Ain't Like That"
p943
S'http://www.last.fm/music/Alice+in+Chains/_/It+Ain%27t+Like+That'
p944
S'1240930770'
p945
tp946
a(S'ZZ Top'
p947
S"What's Up With That"
p948
S'http://www.last.fm/music/ZZ+Top/_/What%27s+Up+With+That'
p949
S'1240930450'
p950
tp951
a(S'Live'
p952
S'She'
p953
S'http://www.last.fm/music/Live/_/She'
p954
S'1240930290'
p955
tp956
a(S'The Bar-Kays'
p957
S'Shake Your Rump to the Funk'
p958
S'http://www.last.fm/music/The+Bar-Kays/_/Shake+Your+Rump+to+the+Funk'
p959
S'1240930076'
p960
tp961
a(S'Iron Maiden'
p962
S'Sea of Madness'
p963
S'http://www.last.fm/music/Iron+Maiden/_/Sea+of+Madness'
p964
S'1240929734'
p965
tp966
a(S'Ozzy Osbourne'
p967
S'Lay Your World on Me'
p968
S'http://www.last.fm/music/Ozzy+Osbourne/_/Lay+Your+World+on+Me'
p969
S'1240929478'
p970
tp971
a(S'Iommi'
p972
S'Meat'
p973
S'http://www.last.fm/music/Iommi/_/Meat'
p974
S'1240929184'
p975
tp976
a(S'Pantera'
p977
S'Cowboys from Hell'
p978
S'http://www.last.fm/music/Pantera/_/Cowboys+from+Hell'
p979
S'1240928937'
p980
tp981
a(S'Pantera'
p982
S'This Love'
p983
S'http://www.last.fm/music/Pantera/_/This+Love'
p984
S'1240928544'
p985
tp986
a(S'Megadeth'
p987
S'Breadline'
p988
S'http://www.last.fm/music/Megadeth/_/Breadline'
p989
S'1240928272'
p990
tp991
a(S'Megadeth'
p992
S'Youthanasia'
p993
S'http://www.last.fm/music/Megadeth/_/Youthanasia'
p994
S'1240928022'
p995
tp996
a(S'Alice in Chains'
p997
S"Don't Follow"
p998
S'http://www.last.fm/music/Alice+in+Chains/_/Don%27t+Follow'
p999
S'1240927760'
p1000
tp1001
a.