(lp1
(S'Alice Cooper'
p2
S'Novocaine'
p3
S'http://www.last.fm/music/Alice+Cooper/_/Novocaine'
p4
S'1281039823'
p5
tp6
a(S'Audioslave'
p7
S'Jewel Of The Summertime'
p8
S'http://www.last.fm/music/Audioslave/_/Jewel+Of+The+Summertime'
p9
S'1281039635'
p10
tp11
a(S'Queens of the Stone Age'
p12
S'Skin on Skin'
p13
S'http://www.last.fm/music/Queens+of+the+Stone+Age/_/Skin+on+Skin'
p14
S'1281038644'
p15
tp16
a(S'Queen'
p17
S'Party'
p18
S'http://www.last.fm/music/Queen/_/Party'
p19
S'1281038422'
p20
tp21
a(S'Misfits'
p22
S'20 Eyes'
p23
S'http://www.last.fm/music/Misfits/_/20+Eyes'
p24
S'1281038277'
p25
tp26
a(S'Linkin Park'
p27
S'Hands Held High'
p28
S'http://www.last.fm/music/Linkin+Park/_/Hands+Held+High'
p29
S'1281038126'
p30
tp31
a(S'Diamond Head'
p32
S'Muddy Waters'
p33
S'http://www.last.fm/music/Diamond+Head/_/Muddy+Waters'
p34
S'1281034060'
p35
tp36
a(S'Live'
p37
S'Brothers Unaware'
p38
S'http://www.last.fm/music/Live/_/Brothers+Unaware'
p39
S'1281033785'
p40
tp41
a(S'Ramones'
p42
S'Needles & Pins'
p43
S'http://www.last.fm/music/Ramones/_/Needles+&+Pins'
p44
S'1281033258'
p45
tp46
a(S'Black Sabbath'
p47
S'Am I Going Insane (Radio)'
p48
S'http://www.last.fm/music/Black+Sabbath/_/Am+I+Going+Insane+(Radio)'
p49
S'1281033116'
p50
tp51
a(S'Joe Satriani'
p52
S'Flying in a Blue Dream'
p53
S'http://www.last.fm/music/Joe+Satriani/_/Flying+in+a+Blue+Dream'
p54
S'1281032860'
p55
tp56
a(S'Pantera'
p57
S'Psycho Holiday'
p58
S'http://www.last.fm/music/Pantera/_/Psycho+Holiday'
p59
S'1281032170'
p60
tp61
a(S'Stone Temple Pilots'
p62
S'Peacoat'
p63
S'http://www.last.fm/music/Stone+Temple+Pilots/_/Peacoat'
p64
S'1281031851'
p65
tp66
a(S'Black Sabbath'
p67
S'Lonely Is the Word'
p68
S'http://www.last.fm/music/Black+Sabbath/_/Lonely+Is+the+Word'
p69
S'1281031635'
p70
tp71
a(S'Black Sabbath'
p72
S'Lady Evil'
p73
S'http://www.last.fm/music/Black+Sabbath/_/Lady+Evil'
p74
S'1281030706'
p75
tp76
a(S'Black Sabbath'
p77
S'Neon Knights'
p78
S'http://www.last.fm/music/Black+Sabbath/_/Neon+Knights'
p79
S'1281030437'
p80
tp81
a(S'Black Sabbath'
p82
S'Lonely Is the Word'
p83
S'http://www.last.fm/music/Black+Sabbath/_/Lonely+Is+the+Word'
p84
S'1281029935'
p85
tp86
a(S'Black Sabbath'
p87
S'Lady Evil'
p88
S'http://www.last.fm/music/Black+Sabbath/_/Lady+Evil'
p89
S'1281029356'
p90
tp91
a(S'Black Sabbath'
p92
S'Lady Evil'
p93
S'http://www.last.fm/music/Black+Sabbath/_/Lady+Evil'
p94
S'1281029222'
p95
tp96
a(S'Black Sabbath'
p97
S'Heaven and Hell'
p98
S'http://www.last.fm/music/Black+Sabbath/_/Heaven+and+Hell'
p99
S'1281028689'
p100
tp101
a(S'Black Sabbath'
p102
S'Die Young'
p103
S'http://www.last.fm/music/Black+Sabbath/_/Die+Young'
p104
S'1281022142'
p105
tp106
a(S'Linkin Park'
p107
S'The Little Things Give You Away'
p108
S'http://www.last.fm/music/Linkin+Park/_/The+Little+Things+Give+You+Away'
p109
S'1281020474'
p110
tp111
a(S'Linkin Park'
p112
S'In Pieces'
p113
S'http://www.last.fm/music/Linkin+Park/_/In+Pieces'
p114
S'1281020091'
p115
tp116
a(S'Linkin Park'
p117
S'In Between'
p118
S'http://www.last.fm/music/Linkin+Park/_/In+Between'
p119
S'1281019873'
p120
tp121
a(S'Linkin Park'
p122
S'No More Sorrow'
p123
S'http://www.last.fm/music/Linkin+Park/_/No+More+Sorrow'
p124
S'1281019566'
p125
tp126
a(S'Linkin Park'
p127
S'Hands Held High'
p128
S'http://www.last.fm/music/Linkin+Park/_/Hands+Held+High'
p129
S'1281019344'
p130
tp131
a(S'Linkin Park'
p132
S"What I've Done"
p133
S'http://www.last.fm/music/Linkin+Park/_/What+I%27ve+Done'
p134
S'1281019111'
p135
tp136
a(S'Linkin Park'
p137
S'Shadow of the Day'
p138
S'http://www.last.fm/music/Linkin+Park/_/Shadow+of+the+Day'
p139
S'1281018815'
p140
tp141
a(S'Linkin Park'
p142
S'Bleed It Out'
p143
S'http://www.last.fm/music/Linkin+Park/_/Bleed+It+Out'
p144
S'1281018545'
p145
tp146
a(S'Linkin Park'
p147
S'Leave Out All the Rest'
p148
S'http://www.last.fm/music/Linkin+Park/_/Leave+Out+All+the+Rest'
p149
S'1281018372'
p150
tp151
a(S'Linkin Park'
p152
S'Given Up'
p153
S'http://www.last.fm/music/Linkin+Park/_/Given+Up'
p154
S'1281018173'
p155
tp156
a(S'Linkin Park'
p157
S'Wake'
p158
S'http://www.last.fm/music/Linkin+Park/_/Wake'
p159
S'1281017984'
p160
tp161
a(S'Linkin Park'
p162
S'From the Inside'
p163
S'http://www.last.fm/music/Linkin+Park/_/From+the+Inside'
p164
S'1281017867'
p165
tp166
a(S'Linkin Park'
p167
S'From the Inside'
p168
S'http://www.last.fm/music/Linkin+Park/_/From+the+Inside'
p169
S'1281017689'
p170
tp171
a(S'Linkin Park'
p172
S'High Voltage'
p173
S'http://www.last.fm/music/Linkin+Park/_/High+Voltage'
p174
S'1281016170'
p175
tp176
a(S'Linkin Park'
p177
S'The Little Things Give You Away'
p178
S'http://www.last.fm/music/Linkin+Park/_/The+Little+Things+Give+You+Away'
p179
S'1281015959'
p180
tp181
a(S'Linkin Park'
p182
S'In Pieces'
p183
S'http://www.last.fm/music/Linkin+Park/_/In+Pieces'
p184
S'1281015575'
p185
tp186
a(S'Linkin Park'
p187
S'In Between'
p188
S'http://www.last.fm/music/Linkin+Park/_/In+Between'
p189
S'1281015357'
p190
tp191
a(S'Linkin Park'
p192
S'No More Sorrow'
p193
S'http://www.last.fm/music/Linkin+Park/_/No+More+Sorrow'
p194
S'1281015154'
p195
tp196
a(S'Linkin Park'
p197
S'Hands Held High'
p198
S'http://www.last.fm/music/Linkin+Park/_/Hands+Held+High'
p199
S'1281014798'
p200
tp201
a(S'Linkin Park'
p202
S'Hands Held High'
p203
S'http://www.last.fm/music/Linkin+Park/_/Hands+Held+High'
p204
S'1281014680'
p205
tp206
a(S'Linkin Park'
p207
S"What I've Done"
p208
S'http://www.last.fm/music/Linkin+Park/_/What+I%27ve+Done'
p209
S'1281014399'
p210
tp211
a(S'Linkin Park'
p212
S'Shadow of the Day'
p213
S'http://www.last.fm/music/Linkin+Park/_/Shadow+of+the+Day'
p214
S'1281014136'
p215
tp216
a(S'Linkin Park'
p217
S'Bleed It Out'
p218
S'http://www.last.fm/music/Linkin+Park/_/Bleed+It+Out'
p219
S'1281013764'
p220
tp221
a(S'Linkin Park'
p222
S'Leave Out All the Rest'
p223
S'http://www.last.fm/music/Linkin+Park/_/Leave+Out+All+the+Rest'
p224
S'1281013431'
p225
tp226
a(S'Linkin Park'
p227
S'Given Up'
p228
S'http://www.last.fm/music/Linkin+Park/_/Given+Up'
p229
S'1281013235'
p230
tp231
a(S'Linkin Park'
p232
S'Wake'
p233
S'http://www.last.fm/music/Linkin+Park/_/Wake'
p234
S'1281013046'
p235
tp236
a(S'Linkin Park'
p237
S'Numb'
p238
S'http://www.last.fm/music/Linkin+Park/_/Numb'
p239
S'1281012945'
p240
tp241
a(S'Linkin Park'
p242
S'From the Inside'
p243
S'http://www.last.fm/music/Linkin+Park/_/From+the+Inside'
p244
S'1281012748'
p245
tp246
a(S'Linkin Park'
p247
S'From the Inside'
p248
S'http://www.last.fm/music/Linkin+Park/_/From+the+Inside'
p249
S'1281012528'
p250
tp251
a(S'Linkin Park'
p252
S'From the Inside'
p253
S'http://www.last.fm/music/Linkin+Park/_/From+the+Inside'
p254
S'1281011420'
p255
tp256
a(S'Linkin Park'
p257
S'Lying from You'
p258
S'http://www.last.fm/music/Linkin+Park/_/Lying+from+You'
p259
S'1281011103'
p260
tp261
a(S'Linkin Park'
p262
S'Somewhere I Belong'
p263
S'http://www.last.fm/music/Linkin+Park/_/Somewhere+I+Belong'
p264
S'1281010928'
p265
tp266
a(S'Linkin Park'
p267
S'Faint'
p268
S'http://www.last.fm/music/Linkin+Park/_/Faint'
p269
S'1281010715'
p270
tp271
a(S'Linkin Park'
p272
S'Breaking the Habit'
p273
S'http://www.last.fm/music/Linkin+Park/_/Breaking+the+Habit'
p274
S'1281010553'
p275
tp276
a(S'Live'
p277
S'Deep Enough (Hip Hop Mix)'
p278
S'http://www.last.fm/music/Live/_/Deep+Enough+(Hip+Hop+Mix)'
p279
S'1281010329'
p280
tp281
a(S'Daft Punk'
p282
S'Voyager'
p283
S'http://www.last.fm/music/Daft+Punk/_/Voyager'
p284
S'1280956186'
p285
tp286
a(S'Linkin Park'
p287
S'The Little Things Give You Away'
p288
S'http://www.last.fm/music/Linkin+Park/_/The+Little+Things+Give+You+Away'
p289
S'1280955380'
p290
tp291
a(S'Judas Priest'
p292
S'Reckless'
p293
S'http://www.last.fm/music/Judas+Priest/_/Reckless'
p294
S'1280954055'
p295
tp296
a(S'Slash'
p297
S'Nothing To Say (feat. M. Shadows Of Avenged Sevenfold)'
p298
S'http://www.last.fm/music/Slash/_/Nothing+To+Say+(feat.+M.+Shadows+Of+Avenged+Sevenfold)'
p299
S'1280951918'
p300
tp301
a(S'Slash'
p302
S'I Hold On (Feat. Kid Rock)'
p303
S'http://www.last.fm/music/Slash/_/I+Hold+On+(Feat.+Kid+Rock)'
p304
S'1280951591'
p305
tp306
a(S'Slash'
p307
S'Watch This (Feat. Dave Grohl/Duff McKagan)'
p308
S'http://www.last.fm/music/Slash/_/Watch+This+(Feat.+Dave+Grohl%2FDuff+McKagan)'
p309
S'1280951335'
p310
tp311
a(S'Slash'
p312
S'Doctor Alibi (Feat. Lemmy Kilmeister)'
p313
S'http://www.last.fm/music/Slash/_/Doctor+Alibi+(Feat.+Lemmy+Kilmeister)'
p314
S'1280951108'
p315
tp316
a(S'Slash'
p317
S'Gotten (Feat. Adam Levine)'
p318
S'http://www.last.fm/music/Slash/_/Gotten+(Feat.+Adam+Levine)'
p319
S'1280950918'
p320
tp321
a(S'Slash'
p322
S'Promise (Feat. Chris Cornell)'
p323
S'http://www.last.fm/music/Slash/_/Promise+(Feat.+Chris+Cornell)'
p324
S'1280950521'
p325
tp326
a(S'Slash'
p327
S'Back From Cali (Feat. Myles Kennedy)'
p328
S'http://www.last.fm/music/Slash/_/Back+From+Cali+(Feat.+Myles+Kennedy)'
p329
S'1280950175'
p330
tp331
a(S'Slash'
p332
S'Beautiful Dangerous (feat. Fergie)'
p333
S'http://www.last.fm/music/Slash/_/Beautiful+Dangerous+(feat.+Fergie)'
p334
S'1280949928'
p335
tp336
a(S'Slash'
p337
S'Crucify The Dead (Feat. Ozzy Osbourne)'
p338
S'http://www.last.fm/music/Slash/_/Crucify+The+Dead+(Feat.+Ozzy+Osbourne)'
p339
S'1280949650'
p340
tp341
a(S'Slash'
p342
S'Ghost (Feat. Ian Astbury)'
p343
S'http://www.last.fm/music/Slash/_/Ghost+(Feat.+Ian+Astbury)'
p344
S'1280949387'
p345
tp346
a(S'Alice in Chains'
p347
S'Frogs'
p348
S'http://www.last.fm/music/Alice+in+Chains/_/Frogs'
p349
S'1280949026'
p350
tp351
a(S'Stevie Wonder'
p352
S'Higher Ground'
p353
S'http://www.last.fm/music/Stevie+Wonder/_/Higher+Ground'
p354
S'1280948008'
p355
tp356
a(S'Pantera'
p357
S'Walk'
p358
S'http://www.last.fm/music/Pantera/_/Walk'
p359
S'1280947815'
p360
tp361
a(S'Alice Cooper'
p362
S"It's Me"
p363
S'http://www.last.fm/music/Alice+Cooper/_/It%27s+Me'
p364
S'1280947485'
p365
tp366
a(S'L7'
p367
S'Monster'
p368
S'http://www.last.fm/music/L7/_/Monster'
p369
S'1280947205'
p370
tp371
a(S'Foo Fighters'
p372
S'Live-In Skin'
p373
S'http://www.last.fm/music/Foo+Fighters/_/Live-In+Skin'
p374
S'1280946992'
p375
tp376
a(S'Foo Fighters'
p377
S'Times Like These'
p378
S'http://www.last.fm/music/Foo+Fighters/_/Times+Like+These'
p379
S'1280946748'
p380
tp381
a(S'Queen'
p382
S'Chinese Torture'
p383
S'http://www.last.fm/music/Queen/_/Chinese+Torture'
p384
S'1280946390'
p385
tp386
a(S'Van Halen'
p387
S"Ain't Talkin' 'Bout Love"
p388
S'http://www.last.fm/music/Van+Halen/_/Ain%27t+Talkin%27+%27Bout+Love'
p389
S'1280946284'
p390
tp391
a(S'Yes'
p392
S'Hold On'
p393
S'http://www.last.fm/music/Yes/_/Hold+On'
p394
S'1280946052'
p395
tp396
a(S'Stone Temple Pilots'
p397
S'Maver'
p398
S'http://www.last.fm/music/Stone+Temple+Pilots/_/Maver'
p399
S'1280945634'
p400
tp401
a(S'Stone Temple Pilots'
p402
S'First Kiss on Mars'
p403
S'http://www.last.fm/music/Stone+Temple+Pilots/_/First+Kiss+on+Mars'
p404
S'1280945342'
p405
tp406
a(S'Stone Temple Pilots'
p407
S'Fast as I Can'
p408
S'http://www.last.fm/music/Stone+Temple+Pilots/_/Fast+as+I+Can'
p409
S'1280945159'
p410
tp411
a(S'Stone Temple Pilots'
p412
S'Peacoat'
p413
S'http://www.last.fm/music/Stone+Temple+Pilots/_/Peacoat'
p414
S'1280944945'
p415
tp416
a(S'Stone Temple Pilots'
p417
S'Hazy Daze'
p418
S'http://www.last.fm/music/Stone+Temple+Pilots/_/Hazy+Daze'
p419
S'1280944733'
p420
tp421
a(S'Stone Temple Pilots'
p422
S'Hickory Dichotomy'
p423
S'http://www.last.fm/music/Stone+Temple+Pilots/_/Hickory+Dichotomy'
p424
S'1280944490'
p425
tp426
a(S'Stone Temple Pilots'
p427
S'Huckleberry Crumble'
p428
S'http://www.last.fm/music/Stone+Temple+Pilots/_/Huckleberry+Crumble'
p429
S'1280944288'
p430
tp431
a(S'Stone Temple Pilots'
p432
S'Take a Load Off'
p433
S'http://www.last.fm/music/Stone+Temple+Pilots/_/Take+a+Load+Off'
p434
S'1280944097'
p435
tp436
a(S'Stone Temple Pilots'
p437
S'Between the Lines'
p438
S'http://www.last.fm/music/Stone+Temple+Pilots/_/Between+the+Lines'
p439
S'1280943905'
p440
tp441
a(S'Black Sabbath'
p442
S'Electric Funeral'
p443
S'http://www.last.fm/music/Black+Sabbath/_/Electric+Funeral'
p444
S'1280943718'
p445
tp446
a(S'Black Sabbath'
p447
S'Wishing Well'
p448
S'http://www.last.fm/music/Black+Sabbath/_/Wishing+Well'
p449
S'1280943425'
p450
tp451
a(S'Black Sabbath'
p452
S'Walk Away'
p453
S'http://www.last.fm/music/Black+Sabbath/_/Walk+Away'
p454
S'1280943179'
p455
tp456
a(S'Black Sabbath'
p457
S'Neon Knights'
p458
S'http://www.last.fm/music/Black+Sabbath/_/Neon+Knights'
p459
S'1280942919'
p460
tp461
a(S'Black Sabbath'
p462
S'Lonely Is the Word'
p463
S'http://www.last.fm/music/Black+Sabbath/_/Lonely+Is+the+Word'
p464
S'1280942627'
p465
tp466
a(S'Black Sabbath'
p467
S'Lady Evil'
p468
S'http://www.last.fm/music/Black+Sabbath/_/Lady+Evil'
p469
S'1280933972'
p470
tp471
a(S'Black Sabbath'
p472
S'Heaven and Hell'
p473
S'http://www.last.fm/music/Black+Sabbath/_/Heaven+and+Hell'
p474
S'1280933707'
p475
tp476
a(S'Black Sabbath'
p477
S'Die Young'
p478
S'http://www.last.fm/music/Black+Sabbath/_/Die+Young'
p479
S'1280933291'
p480
tp481
a(S'Red Hot Chili Peppers'
p482
S'Higher Ground'
p483
S'http://www.last.fm/music/Red+Hot+Chili+Peppers/_/Higher+Ground'
p484
S'1280932889'
p485
tp486
a(S'Red Hot Chili Peppers'
p487
S"They're Red Hot"
p488
S'http://www.last.fm/music/Red+Hot+Chili+Peppers/_/They%27re+Red+Hot'
p489
S'1280932694'
p490
tp491
a(S'Red Hot Chili Peppers'
p492
S'Sir Psycho Sexy'
p493
S'http://www.last.fm/music/Red+Hot+Chili+Peppers/_/Sir+Psycho+Sexy'
p494
S'1280932622'
p495
tp496
a(S'Red Hot Chili Peppers'
p497
S'My Lovely Man'
p498
S'http://www.last.fm/music/Red+Hot+Chili+Peppers/_/My+Lovely+Man'
p499
S'1280932056'
p500
tp501
a(S'Red Hot Chili Peppers'
p502
S'The Greeting Song'
p503
S'http://www.last.fm/music/Red+Hot+Chili+Peppers/_/The+Greeting+Song'
p504
S'1280931750'
p505
tp506
a(S'Red Hot Chili Peppers'
p507
S'Apache Rose Peacock'
p508
S'http://www.last.fm/music/Red+Hot+Chili+Peppers/_/Apache+Rose+Peacock'
p509
S'1280931556'
p510
tp511
a(S'Red Hot Chili Peppers'
p512
S'Naked in the Rain'
p513
S'http://www.last.fm/music/Red+Hot+Chili+Peppers/_/Naked+in+the+Rain'
p514
S'1280931293'
p515
tp516
a(S'Red Hot Chili Peppers'
p517
S'Under the Bridge'
p518
S'http://www.last.fm/music/Red+Hot+Chili+Peppers/_/Under+the+Bridge'
p519
S'1280931027'
p520
tp521
a(S'Red Hot Chili Peppers'
p522
S'Blood Sugar Sex Magik'
p523
S'http://www.last.fm/music/Red+Hot+Chili+Peppers/_/Blood+Sugar+Sex+Magik'
p524
S'1280930691'
p525
tp526
a(S'Red Hot Chili Peppers'
p527
S'Give It Away'
p528
S'http://www.last.fm/music/Red+Hot+Chili+Peppers/_/Give+It+Away'
p529
S'1280930283'
p530
tp531
a(S'Red Hot Chili Peppers'
p532
S'The Righteous & The Wicked'
p533
S'http://www.last.fm/music/Red+Hot+Chili+Peppers/_/The+Righteous+&+The+Wicked'
p534
S'1280929999'
p535
tp536
a(S'Red Hot Chili Peppers'
p537
S'Mellowship Slinky in B Major'
p538
S'http://www.last.fm/music/Red+Hot+Chili+Peppers/_/Mellowship+Slinky+in+B+Major'
p539
S'1280929751'
p540
tp541
a(S'Red Hot Chili Peppers'
p542
S'I Could Have Lied'
p543
S'http://www.last.fm/music/Red+Hot+Chili+Peppers/_/I+Could+Have+Lied'
p544
S'1280929511'
p545
tp546
a(S'Red Hot Chili Peppers'
p547
S'Funky Monks'
p548
S'http://www.last.fm/music/Red+Hot+Chili+Peppers/_/Funky+Monks'
p549
S'1280929264'
p550
tp551
a(S'Red Hot Chili Peppers'
p552
S'If You Have to Ask'
p553
S'http://www.last.fm/music/Red+Hot+Chili+Peppers/_/If+You+Have+to+Ask'
p554
S'1280928860'
p555
tp556
a(S'Red Hot Chili Peppers'
p557
S'The Power of Equality'
p558
S'http://www.last.fm/music/Red+Hot+Chili+Peppers/_/The+Power+of+Equality'
p559
S'1280928137'
p560
tp561
a(S'Linkin Park'
p562
S'My December'
p563
S'http://www.last.fm/music/Linkin+Park/_/My+December'
p564
S'1280927886'
p565
tp566
a(S'Linkin Park'
p567
S'High Voltage'
p568
S'http://www.last.fm/music/Linkin+Park/_/High+Voltage'
p569
S'1280927671'
p570
tp571
a(S'Linkin Park'
p572
S'The Little Things Give You Away'
p573
S'http://www.last.fm/music/Linkin+Park/_/The+Little+Things+Give+You+Away'
p574
S'1280927460'
p575
tp576
a(S'Linkin Park'
p577
S'From the Inside'
p578
S'http://www.last.fm/music/Linkin+Park/_/From+the+Inside'
p579
S'1280927049'
p580
tp581
a(S'Linkin Park'
p582
S'Lying from You'
p583
S'http://www.last.fm/music/Linkin+Park/_/Lying+from+You'
p584
S'1280926874'
p585
tp586
a(S'Linkin Park'
p587
S'Somewhere I Belong'
p588
S'http://www.last.fm/music/Linkin+Park/_/Somewhere+I+Belong'
p589
S'1280926699'
p590
tp591
a(S'Linkin Park'
p592
S'Faint'
p593
S'http://www.last.fm/music/Linkin+Park/_/Faint'
p594
S'1280926486'
p595
tp596
a(S'Linkin Park'
p597
S'Breaking the Habit'
p598
S'http://www.last.fm/music/Linkin+Park/_/Breaking+the+Habit'
p599
S'1280926323'
p600
tp601
a(S'Linkin Park'
p602
S'Step Up'
p603
S'http://www.last.fm/music/Linkin+Park/_/Step+Up'
p604
S'1280926125'
p605
tp606
a(S'Linkin Park'
p607
S'My December'
p608
S'http://www.last.fm/music/Linkin+Park/_/My+December'
p609
S'1280925889'
p610
tp611
a(S'Linkin Park'
p612
S'High Voltage'
p613
S'http://www.last.fm/music/Linkin+Park/_/High+Voltage'
p614
S'1280925674'
p615
tp616
a(S'Linkin Park'
p617
S'The Little Things Give You Away'
p618
S'http://www.last.fm/music/Linkin+Park/_/The+Little+Things+Give+You+Away'
p619
S'1280925462'
p620
tp621
a(S'Linkin Park'
p622
S'In Between'
p623
S'http://www.last.fm/music/Linkin+Park/_/In+Between'
p624
S'1280925075'
p625
tp626
a(S'Linkin Park'
p627
S"Valentine's Day"
p628
S'http://www.last.fm/music/Linkin+Park/_/Valentine%27s+Day'
p629
S'1280924878'
p630
tp631
a(S'Linkin Park'
p632
S'No More Sorrow'
p633
S'http://www.last.fm/music/Linkin+Park/_/No+More+Sorrow'
p634
S'1280924729'
p635
tp636
a(S'Linkin Park'
p637
S'Hands Held High'
p638
S'http://www.last.fm/music/Linkin+Park/_/Hands+Held+High'
p639
S'1280924507'
p640
tp641
a(S'Linkin Park'
p642
S"What I've Done"
p643
S'http://www.last.fm/music/Linkin+Park/_/What+I%27ve+Done'
p644
S'1280924274'
p645
tp646
a(S'Linkin Park'
p647
S'Shadow of the Day'
p648
S'http://www.last.fm/music/Linkin+Park/_/Shadow+of+the+Day'
p649
S'1280924069'
p650
tp651
a(S'Linkin Park'
p652
S'From the Inside'
p653
S'http://www.last.fm/music/Linkin+Park/_/From+the+Inside'
p654
S'1280923748'
p655
tp656
a(S'Army Of Anyone'
p657
S'A Better Place'
p658
S'http://www.last.fm/music/Army+Of+Anyone/_/A+Better+Place'
p659
S'1280856146'
p660
tp661
a(S'Blues Traveler'
p662
S'Freedom'
p663
S'http://www.last.fm/music/Blues+Traveler/_/Freedom'
p664
S'1280855620'
p665
tp666
a(S'Stone Temple Pilots'
p667
S'Sin'
p668
S'http://www.last.fm/music/Stone+Temple+Pilots/_/Sin'
p669
S'1280855378'
p670
tp671
a(S'The Toy Dolls'
p672
S"The Ashbrooke Launderette (You'll Stink... Your Clothes Shrink, Your White'll Be As Black As Ink)"
p673
S'http://www.last.fm/music/The+Toy+Dolls/_/The+Ashbrooke+Launderette+(You%27ll+Stink...+Your+Clothes+Shrink,+Your+White%27ll+Be+As+Black+As+Ink)'
p674
S'1280849407'
p675
tp676
a(S'Red Hot Chili Peppers'
p677
S'Funky Monks'
p678
S'http://www.last.fm/music/Red+Hot+Chili+Peppers/_/Funky+Monks'
p679
S'1280845742'
p680
tp681
a(S'Pantera'
p682
S'Walk'
p683
S'http://www.last.fm/music/Pantera/_/Walk'
p684
S'1280845221'
p685
tp686
a(S'Pearl Jam'
p687
S'Animal'
p688
S'http://www.last.fm/music/Pearl+Jam/_/Animal'
p689
S'1280844435'
p690
tp691
a(S'Linkin Park'
p692
S'Breaking the Habit'
p693
S'http://www.last.fm/music/Linkin+Park/_/Breaking+the+Habit'
p694
S'1280844261'
p695
tp696
a(S'Linkin Park'
p697
S'Numb'
p698
S'http://www.last.fm/music/Linkin+Park/_/Numb'
p699
S'1280844060'
p700
tp701
a(S'Linkin Park'
p702
S'Wake'
p703
S'http://www.last.fm/music/Linkin+Park/_/Wake'
p704
S'1280843865'
p705
tp706
a(S'Linkin Park'
p707
S'Somewhere I Belong'
p708
S'http://www.last.fm/music/Linkin+Park/_/Somewhere+I+Belong'
p709
S'1280843747'
p710
tp711
a(S'Linkin Park'
p712
S'Bleed It Out'
p713
S'http://www.last.fm/music/Linkin+Park/_/Bleed+It+Out'
p714
S'1280843520'
p715
tp716
a(S'Linkin Park'
p717
S'Pushing Me Away'
p718
S'http://www.last.fm/music/Linkin+Park/_/Pushing+Me+Away'
p719
S'1280843212'
p720
tp721
a(S'Linkin Park'
p722
S'Faint'
p723
S'http://www.last.fm/music/Linkin+Park/_/Faint'
p724
S'1280843015'
p725
tp726
a(S'Linkin Park'
p727
S'Lying from You'
p728
S'http://www.last.fm/music/Linkin+Park/_/Lying+from+You'
p729
S'1280842853'
p730
tp731
a(S'Linkin Park'
p732
S'Forgotten'
p733
S'http://www.last.fm/music/Linkin+Park/_/Forgotten'
p734
S'1280842660'
p735
tp736
a(S'Linkin Park'
p737
S'The Little Things Give You Away'
p738
S'http://www.last.fm/music/Linkin+Park/_/The+Little+Things+Give+You+Away'
p739
S'1280842453'
p740
tp741
a(S'Linkin Park'
p742
S'One Step Closer'
p743
S'http://www.last.fm/music/Linkin+Park/_/One+Step+Closer'
p744
S'1280842059'
p745
tp746
a(S'Linkin Park'
p747
S'Breaking the Habit'
p748
S'http://www.last.fm/music/Linkin+Park/_/Breaking+the+Habit'
p749
S'1280841857'
p750
tp751
a(S'Alice in Chains'
p752
S'Real Thing'
p753
S'http://www.last.fm/music/Alice+in+Chains/_/Real+Thing'
p754
S'1280841656'
p755
tp756
a(S'Queen'
p757
S'Dead On Time'
p758
S'http://www.last.fm/music/Queen/_/Dead+On+Time'
p759
S'1280841384'
p760
tp761
a(S'Linkin Park'
p762
S'No More Sorrow'
p763
S'http://www.last.fm/music/Linkin+Park/_/No+More+Sorrow'
p764
S'1280841181'
p765
tp766
a(S'Stone Temple Pilots'
p767
S'Atlanta'
p768
S'http://www.last.fm/music/Stone+Temple+Pilots/_/Atlanta'
p769
S'1280840946'
p770
tp771
a(S'Queen'
p772
S'I Want It All'
p773
S'http://www.last.fm/music/Queen/_/I+Want+It+All'
p774
S'1280840628'
p775
tp776
a(S'The Cult'
p777
S"Lil' Devil"
p778
S'http://www.last.fm/music/The+Cult/_/Lil%27+Devil'
p779
S'1280840347'
p780
tp781
a(S'AC/DC'
p782
S'High Voltage'
p783
S'http://www.last.fm/music/AC%2FDC/_/High+Voltage'
p784
S'1280840181'
p785
tp786
a(S'Collective Soul'
p787
S'Why, Pt. 2'
p788
S'http://www.last.fm/music/Collective+Soul/_/Why,+Pt.+2'
p789
S'1280839877'
p790
tp791
a(S'Black Sabbath'
p792
S'Who Are You?'
p793
S'http://www.last.fm/music/Black+Sabbath/_/Who+Are+You%3F'
p794
S'1280839649'
p795
tp796
a(S'Linkin Park'
p797
S'Leave Out All the Rest'
p798
S'http://www.last.fm/music/Linkin+Park/_/Leave+Out+All+the+Rest'
p799
S'1280839383'
p800
tp801
a(S'Judas Priest'
p802
S'Reckless'
p803
S'http://www.last.fm/music/Judas+Priest/_/Reckless'
p804
S'1280839165'
p805
tp806
a(S'Walter Murphy'
p807
S'A Fifth of Beethoven'
p808
S'http://www.last.fm/music/Walter+Murphy/_/A+Fifth+of+Beethoven'
p809
S'1280838905'
p810
tp811
a(S'Velvet Revolver'
p812
S'Just Sixteen'
p813
S'http://www.last.fm/music/Velvet+Revolver/_/Just+Sixteen'
p814
S'1280838723'
p815
tp816
a(S'Wesley Willis'
p817
S'Feel the Power of Rock & Roll'
p818
S'http://www.last.fm/music/Wesley+Willis/_/Feel+the+Power+of+Rock+&+Roll'
p819
S'1280809908'
p820
tp821
a(S'L7'
p822
S'Riding With a Movie Star'
p823
S'http://www.last.fm/music/L7/_/Riding+With+a+Movie+Star'
p824
S'1280809767'
p825
tp826
a(S'Queens of the Stone Age'
p827
S"Turnin' on the Screw"
p828
S'http://www.last.fm/music/Queens+of+the+Stone+Age/_/Turnin%27+on+the+Screw'
p829
S'1280809568'
p830
tp831
a(S'Stone Temple Pilots'
p832
S'Between the Lines'
p833
S'http://www.last.fm/music/Stone+Temple+Pilots/_/Between+the+Lines'
p834
S'1280809247'
p835
tp836
a(S'Faith No More'
p837
S'From Out of Nowhere'
p838
S'http://www.last.fm/music/Faith+No+More/_/From+Out+of+Nowhere'
p839
S'1280809068'
p840
tp841
a(S'Linkin Park'
p842
S'In the End'
p843
S'http://www.last.fm/music/Linkin+Park/_/In+the+End'
p844
S'1280808850'
p845
tp846
a(S'Oscar Peterson'
p847
S'In the Still of the Night'
p848
S'http://www.last.fm/music/Oscar+Peterson/_/In+the+Still+of+the+Night'
p849
S'1280808623'
p850
tp851
a(S'Linkin Park'
p852
S'Bleed It Out'
p853
S'http://www.last.fm/music/Linkin+Park/_/Bleed+It+Out'
p854
S'1280808450'
p855
tp856
a(S'Linkin Park'
p857
S'No More Sorrow'
p858
S'http://www.last.fm/music/Linkin+Park/_/No+More+Sorrow'
p859
S'1280808271'
p860
tp861
a(S'Linkin Park'
p862
S'Numb'
p863
S'http://www.last.fm/music/Linkin+Park/_/Numb'
p864
S'1280808041'
p865
tp866
a(S'Linkin Park'
p867
S'Breaking the Habit'
p868
S'http://www.last.fm/music/Linkin+Park/_/Breaking+the+Habit'
p869
S'1280807767'
p870
tp871
a(S'Linkin Park'
p872
S'The Little Things Give You Away'
p873
S'http://www.last.fm/music/Linkin+Park/_/The+Little+Things+Give+You+Away'
p874
S'1280807514'
p875
tp876
a(S'Black Sabbath'
p877
S'Die Young'
p878
S'http://www.last.fm/music/Black+Sabbath/_/Die+Young'
p879
S'1280807123'
p880
tp881
a(S'Red Hot Chili Peppers'
p882
S'I Could Have Lied'
p883
S'http://www.last.fm/music/Red+Hot+Chili+Peppers/_/I+Could+Have+Lied'
p884
S'1280806836'
p885
tp886
a(S'Red Hot Chili Peppers'
p887
S'Suck My Kiss'
p888
S'http://www.last.fm/music/Red+Hot+Chili+Peppers/_/Suck+My+Kiss'
p889
S'1280806581'
p890
tp891
a(S'Red Hot Chili Peppers'
p892
S'Funky Monks'
p893
S'http://www.last.fm/music/Red+Hot+Chili+Peppers/_/Funky+Monks'
p894
S'1280806363'
p895
tp896
a(S'Red Hot Chili Peppers'
p897
S'If You Have to Ask'
p898
S'http://www.last.fm/music/Red+Hot+Chili+Peppers/_/If+You+Have+to+Ask'
p899
S'1280806019'
p900
tp901
a(S'Red Hot Chili Peppers'
p902
S'Magic Johnson'
p903
S'http://www.last.fm/music/Red+Hot+Chili+Peppers/_/Magic+Johnson'
p904
S'1280805802'
p905
tp906
a(S'Red Hot Chili Peppers'
p907
S'Subway to Venus'
p908
S'http://www.last.fm/music/Red+Hot+Chili+Peppers/_/Subway+to+Venus'
p909
S'1280805680'
p910
tp911
a(S'Red Hot Chili Peppers'
p912
S'Higher Ground'
p913
S'http://www.last.fm/music/Red+Hot+Chili+Peppers/_/Higher+Ground'
p914
S'1280805414'
p915
tp916
a(S'Red Hot Chili Peppers'
p917
S'Good Time Boys'
p918
S'http://www.last.fm/music/Red+Hot+Chili+Peppers/_/Good+Time+Boys'
p919
S'1280805211'
p920
tp921
a(S'Red Hot Chili Peppers'
p922
S"They're Red Hot"
p923
S'http://www.last.fm/music/Red+Hot+Chili+Peppers/_/They%27re+Red+Hot'
p924
S'1280804909'
p925
tp926
a(S'Red Hot Chili Peppers'
p927
S'Sir Psycho Sexy'
p928
S'http://www.last.fm/music/Red+Hot+Chili+Peppers/_/Sir+Psycho+Sexy'
p929
S'1280804837'
p930
tp931
a(S'Red Hot Chili Peppers'
p932
S'My Lovely Man'
p933
S'http://www.last.fm/music/Red+Hot+Chili+Peppers/_/My+Lovely+Man'
p934
S'1280804340'
p935
tp936
a(S'Red Hot Chili Peppers'
p937
S'The Greeting Song'
p938
S'http://www.last.fm/music/Red+Hot+Chili+Peppers/_/The+Greeting+Song'
p939
S'1280804060'
p940
tp941
a(S'Red Hot Chili Peppers'
p942
S'Blood Sugar Sex Magik'
p943
S'http://www.last.fm/music/Red+Hot+Chili+Peppers/_/Blood+Sugar+Sex+Magik'
p944
S'1280803857'
p945
tp946
a(S'Red Hot Chili Peppers'
p947
S'Give It Away'
p948
S'http://www.last.fm/music/Red+Hot+Chili+Peppers/_/Give+It+Away'
p949
S'1280803586'
p950
tp951
a(S'Red Hot Chili Peppers'
p952
S'The Righteous & The Wicked'
p953
S'http://www.last.fm/music/Red+Hot+Chili+Peppers/_/The+Righteous+&+The+Wicked'
p954
S'1280803365'
p955
tp956
a(S'Red Hot Chili Peppers'
p957
S'Mellowship Slinky in B Major'
p958
S'http://www.last.fm/music/Red+Hot+Chili+Peppers/_/Mellowship+Slinky+in+B+Major'
p959
S'1280803117'
p960
tp961
a(S'Red Hot Chili Peppers'
p962
S'I Could Have Lied'
p963
S'http://www.last.fm/music/Red+Hot+Chili+Peppers/_/I+Could+Have+Lied'
p964
S'1280802876'
p965
tp966
a(S'Red Hot Chili Peppers'
p967
S'Suck My Kiss'
p968
S'http://www.last.fm/music/Red+Hot+Chili+Peppers/_/Suck+My+Kiss'
p969
S'1280802632'
p970
tp971
a(S'Red Hot Chili Peppers'
p972
S'Funky Monks'
p973
S'http://www.last.fm/music/Red+Hot+Chili+Peppers/_/Funky+Monks'
p974
S'1280802414'
p975
tp976
a(S'Red Hot Chili Peppers'
p977
S'If You Have to Ask'
p978
S'http://www.last.fm/music/Red+Hot+Chili+Peppers/_/If+You+Have+to+Ask'
p979
S'1280802035'
p980
tp981
a(S'Red Hot Chili Peppers'
p982
S'The Power of Equality'
p983
S'http://www.last.fm/music/Red+Hot+Chili+Peppers/_/The+Power+of+Equality'
p984
S'1280801818'
p985
tp986
a(S'Oscar Peterson'
p987
S'Love for Sale'
p988
S'http://www.last.fm/music/Oscar+Peterson/_/Love+for+Sale'
p989
S'1280801571'
p990
tp991
a(S'AC/DC'
p992
S"Rock 'N' Roll Singer"
p993
S'http://www.last.fm/music/AC%2FDC/_/Rock+%27N%27+Roll+Singer'
p994
S'1280775365'
p995
tp996
a(S'Judas Priest'
p997
S'Turbo Lover'
p998
S'http://www.last.fm/music/Judas+Priest/_/Turbo+Lover'
p999
S'1280775062'
p1000
tp1001
a.