(lp1
(S'Stone Temple Pilots'
p2
S"Trippin' on a Hole in a Paper Heart"
p3
S'http://www.last.fm/music/Stone+Temple+Pilots/_/Trippin%27+on+a+Hole+in+a+Paper+Heart'
p4
S'1401902335'
p5
tp6
a(S'Stone Temple Pilots'
p7
S'Black Again'
p8
S'http://www.last.fm/music/Stone+Temple+Pilots/_/Black+Again'
p9
S'1401886600'
p10
tp11
a(S'Army Of Anyone'
p12
S'Non Stop'
p13
S'http://www.last.fm/music/Army+Of+Anyone/_/Non+Stop'
p14
S'1401886393'
p15
tp16
a(S'Stone Temple Pilots'
p17
S'Lady Picture Show'
p18
S'http://www.last.fm/music/Stone+Temple+Pilots/_/Lady+Picture+Show'
p19
S'1401885565'
p20
tp21
a(S'Stone Temple Pilots'
p22
S'Bi-Polar Bear'
p23
S'http://www.last.fm/music/Stone+Temple+Pilots/_/Bi-Polar+Bear'
p24
S'1401885315'
p25
tp26
a(S'Stone Temple Pilots'
p27
S'Vasoline'
p28
S'http://www.last.fm/music/Stone+Temple+Pilots/_/Vasoline'
p29
S'1401885010'
p30
tp31
a(S'Stone Temple Pilots'
p32
S'Seven Caged Tigers'
p33
S'http://www.last.fm/music/Stone+Temple+Pilots/_/Seven+Caged+Tigers'
p34
S'1401884833'
p35
tp36
a(S'Stone Temple Pilots'
p37
S'Transmissions From a Lonely Room'
p38
S'http://www.last.fm/music/Stone+Temple+Pilots/_/Transmissions+From+a+Lonely+Room'
p39
S'1401884576'
p40
tp41
a(S'Stone Temple Pilots'
p42
S'Dumb Love'
p43
S'http://www.last.fm/music/Stone+Temple+Pilots/_/Dumb+Love'
p44
S'1401884380'
p45
tp46
a(S'Stone Temple Pilots'
p47
S'Huckleberry Crumble'
p48
S'http://www.last.fm/music/Stone+Temple+Pilots/_/Huckleberry+Crumble'
p49
S'1401884209'
p50
tp51
a(S'Stone Temple Pilots'
p52
S'Lounge Fly'
p53
S'http://www.last.fm/music/Stone+Temple+Pilots/_/Lounge+Fly'
p54
S'1401884018'
p55
tp56
a(S'Army Of Anyone'
p57
S'Father Figure'
p58
S'http://www.last.fm/music/Army+Of+Anyone/_/Father+Figure'
p59
S'1401883699'
p60
tp61
a(S'Army Of Anyone'
p62
S'A Better Place'
p63
S'http://www.last.fm/music/Army+Of+Anyone/_/A+Better+Place'
p64
S'1401883455'
p65
tp66
a(S'Talk Show'
p67
S'John'
p68
S'http://www.last.fm/music/Talk+Show/_/John'
p69
S'1401883156'
p70
tp71
a(S'Stone Temple Pilots'
p72
S'Pruno'
p73
S'http://www.last.fm/music/Stone+Temple+Pilots/_/Pruno'
p74
S'1401882973'
p75
tp76
a(S'Stone Temple Pilots'
p77
S'Peacoat'
p78
S'http://www.last.fm/music/Stone+Temple+Pilots/_/Peacoat'
p79
S'1401882778'
p80
tp81
a(S'Stone Temple Pilots'
p82
S'Lady Picture Show'
p83
S'http://www.last.fm/music/Stone+Temple+Pilots/_/Lady+Picture+Show'
p84
S'1401822468'
p85
tp86
a(S'Talk Show'
p87
S'Peeling an Orange'
p88
S'http://www.last.fm/music/Talk+Show/_/Peeling+an+Orange'
p89
S'1401822218'
p90
tp91
a(S'Talk Show'
p92
S'Hello Hello'
p93
S'http://www.last.fm/music/Talk+Show/_/Hello+Hello'
p94
S'1401821969'
p95
tp96
a(S'Stone Temple Pilots'
p97
S'Huckleberry Crumble'
p98
S'http://www.last.fm/music/Stone+Temple+Pilots/_/Huckleberry+Crumble'
p99
S'1401821791'
p100
tp101
a(S'Stone Temple Pilots'
p102
S'Unglued'
p103
S'http://www.last.fm/music/Stone+Temple+Pilots/_/Unglued'
p104
S'1401821600'
p105
tp106
a(S'Stone Temple Pilots'
p107
S'Regeneration'
p108
S'http://www.last.fm/music/Stone+Temple+Pilots/_/Regeneration'
p109
S'1401821446'
p110
tp111
a(S'Stone Temple Pilots'
p112
S'Between the Lines'
p113
S'http://www.last.fm/music/Stone+Temple+Pilots/_/Between+the+Lines'
p114
S'1401821210'
p115
tp116
a(S'Stone Temple Pilots'
p117
S'Lounge Fly'
p118
S'http://www.last.fm/music/Stone+Temple+Pilots/_/Lounge+Fly'
p119
S'1401821040'
p120
tp121
a(S'Army Of Anyone'
p122
S'Generation'
p123
S'http://www.last.fm/music/Army+Of+Anyone/_/Generation'
p124
S'1401818281'
p125
tp126
a(S'Army Of Anyone'
p127
S'Non Stop'
p128
S'http://www.last.fm/music/Army+Of+Anyone/_/Non+Stop'
p129
S'1401818070'
p130
tp131
a(S'Stone Temple Pilots'
p132
S'Too Cool Queenie'
p133
S'http://www.last.fm/music/Stone+Temple+Pilots/_/Too+Cool+Queenie'
p134
S'1401802903'
p135
tp136
a(S'Stone Temple Pilots'
p137
S'Still Remains'
p138
S'http://www.last.fm/music/Stone+Temple+Pilots/_/Still+Remains'
p139
S'1401802735'
p140
tp141
a(S'Stone Temple Pilots'
p142
S'Dumb Love'
p143
S'http://www.last.fm/music/Stone+Temple+Pilots/_/Dumb+Love'
p144
S'1401802522'
p145
tp146
a(S'Stone Temple Pilots'
p147
S'Pruno'
p148
S'http://www.last.fm/music/Stone+Temple+Pilots/_/Pruno'
p149
S'1401802351'
p150
tp151
a(S'Talk Show'
p152
S'Hide'
p153
S'http://www.last.fm/music/Talk+Show/_/Hide'
p154
S'1401802156'
p155
tp156
a(S'Stone Temple Pilots'
p157
S'Black Again'
p158
S'http://www.last.fm/music/Stone+Temple+Pilots/_/Black+Again'
p159
S'1401801946'
p160
tp161
a(S'Stone Temple Pilots'
p162
S'Transmissions From a Lonely Room'
p163
S'http://www.last.fm/music/Stone+Temple+Pilots/_/Transmissions+From+a+Lonely+Room'
p164
S'1401801739'
p165
tp166
a(S'Army Of Anyone'
p167
S'Father Figure'
p168
S'http://www.last.fm/music/Army+Of+Anyone/_/Father+Figure'
p169
S'1401801544'
p170
tp171
a(S'Talk Show'
p172
S'End of the World'
p173
S'http://www.last.fm/music/Talk+Show/_/End+of+the+World'
p174
S'1401801299'
p175
tp176
a(S'Stone Temple Pilots'
p177
S'Interstate Love Song'
p178
S'http://www.last.fm/music/Stone+Temple+Pilots/_/Interstate+Love+Song'
p179
S'1401801086'
p180
tp181
a(S'Stone Temple Pilots'
p182
S'Army Ants'
p183
S'http://www.last.fm/music/Stone+Temple+Pilots/_/Army+Ants'
p184
S'1401800892'
p185
tp186
a(S'Stone Temple Pilots'
p187
S'Bi-Polar Bear'
p188
S'http://www.last.fm/music/Stone+Temple+Pilots/_/Bi-Polar+Bear'
p189
S'1401800665'
p190
tp191
a(S'Stone Temple Pilots'
p192
S'Big Bang Baby'
p193
S'http://www.last.fm/music/Stone+Temple+Pilots/_/Big+Bang+Baby'
p194
S'1401800360'
p195
tp196
a(S'Stone Temple Pilots'
p197
S'Pruno'
p198
S'http://www.last.fm/music/Stone+Temple+Pilots/_/Pruno'
p199
S'1401734669'
p200
tp201
a(S'Army Of Anyone'
p202
S'Generation'
p203
S'http://www.last.fm/music/Army+Of+Anyone/_/Generation'
p204
S'1401734474'
p205
tp206
a(S'Stone Temple Pilots'
p207
S'Interstate Love Song'
p208
S'http://www.last.fm/music/Stone+Temple+Pilots/_/Interstate+Love+Song'
p209
S'1401733230'
p210
tp211
a(S'Stone Temple Pilots'
p212
S'Between the Lines'
p213
S'http://www.last.fm/music/Stone+Temple+Pilots/_/Between+the+Lines'
p214
S'1401733035'
p215
tp216
a(S'Stone Temple Pilots'
p217
S'First Kiss on Mars'
p218
S'http://www.last.fm/music/Stone+Temple+Pilots/_/First+Kiss+on+Mars'
p219
S'1401732864'
p220
tp221
a(S'Talk Show'
p222
S'Wash Me Down'
p223
S'http://www.last.fm/music/Talk+Show/_/Wash+Me+Down'
p224
S'1401732680'
p225
tp226
a(S'Stone Temple Pilots'
p227
S'Hickory Dichotomy'
p228
S'http://www.last.fm/music/Stone+Temple+Pilots/_/Hickory+Dichotomy'
p229
S'1401731882'
p230
tp231
a(S'Talk Show'
p232
S'End of the World'
p233
S'http://www.last.fm/music/Talk+Show/_/End+of+the+World'
p234
S'1401731679'
p235
tp236
a(S'Stone Temple Pilots'
p237
S'Black Again'
p238
S'http://www.last.fm/music/Stone+Temple+Pilots/_/Black+Again'
p239
S'1401731466'
p240
tp241
a(S'Talk Show'
p242
S'John'
p243
S'http://www.last.fm/music/Talk+Show/_/John'
p244
S'1401731260'
p245
tp246
a(S'Stone Temple Pilots'
p247
S'Vasoline'
p248
S'http://www.last.fm/music/Stone+Temple+Pilots/_/Vasoline'
p249
S'1401730616'
p250
tp251
a(S'Stone Temple Pilots'
p252
S'Lady Picture Show'
p253
S'http://www.last.fm/music/Stone+Temple+Pilots/_/Lady+Picture+Show'
p254
S'1401730438'
p255
tp256
a(S'Army Of Anyone'
p257
S'Father Figure'
p258
S'http://www.last.fm/music/Army+Of+Anyone/_/Father+Figure'
p259
S'1401730189'
p260
tp261
a(S'Stone Temple Pilots'
p262
S'Too Cool Queenie'
p263
S'http://www.last.fm/music/Stone+Temple+Pilots/_/Too+Cool+Queenie'
p264
S'1401729945'
p265
tp266
a(S'Talk Show'
p267
S'Hello Hello'
p268
S'http://www.last.fm/music/Talk+Show/_/Hello+Hello'
p269
S'1401715259'
p270
tp271
a(S'Talk Show'
p272
S'Peeling an Orange'
p273
S'http://www.last.fm/music/Talk+Show/_/Peeling+an+Orange'
p274
S'1401715082'
p275
tp276
a(S'Stone Temple Pilots'
p277
S'Still Remains'
p278
S'http://www.last.fm/music/Stone+Temple+Pilots/_/Still+Remains'
p279
S'1401714867'
p280
tp281
a(S'Stone Temple Pilots'
p282
S'Take a Load Off'
p283
S'http://www.last.fm/music/Stone+Temple+Pilots/_/Take+a+Load+Off'
p284
S'1401714653'
p285
tp286
a(S'Stone Temple Pilots'
p287
S'Army Ants'
p288
S'http://www.last.fm/music/Stone+Temple+Pilots/_/Army+Ants'
p289
S'1401714462'
p290
tp291
a(S'Stone Temple Pilots'
p292
S'Silvergun Superman'
p293
S'http://www.last.fm/music/Stone+Temple+Pilots/_/Silvergun+Superman'
p294
S'1401714235'
p295
tp296
a(S'Stone Temple Pilots'
p297
S"Trippin' on a Hole in a Paper Heart"
p298
S'http://www.last.fm/music/Stone+Temple+Pilots/_/Trippin%27+on+a+Hole+in+a+Paper+Heart'
p299
S'1401713919'
p300
tp301
a(S'Stone Temple Pilots'
p302
S'Huckleberry Crumble'
p303
S'http://www.last.fm/music/Stone+Temple+Pilots/_/Huckleberry+Crumble'
p304
S'1401713742'
p305
tp306
a(S'Stone Temple Pilots'
p307
S'Regeneration'
p308
S'http://www.last.fm/music/Stone+Temple+Pilots/_/Regeneration'
p309
S'1401395285'
p310
tp311
a(S'Army Of Anyone'
p312
S'Non Stop'
p313
S'http://www.last.fm/music/Army+Of+Anyone/_/Non+Stop'
p314
S'1401395049'
p315
tp316
a(S'Stone Temple Pilots'
p317
S'Seven Caged Tigers'
p318
S'http://www.last.fm/music/Stone+Temple+Pilots/_/Seven+Caged+Tigers'
p319
S'1401394811'
p320
tp321
a(S'Stone Temple Pilots'
p322
S'Big Bang Baby'
p323
S'http://www.last.fm/music/Stone+Temple+Pilots/_/Big+Bang+Baby'
p324
S'1401394554'
p325
tp326
a(S'Talk Show'
p327
S'Wash Me Down'
p328
S'http://www.last.fm/music/Talk+Show/_/Wash+Me+Down'
p329
S'1401394343'
p330
tp331
a(S'Stone Temple Pilots'
p332
S"Trippin' on a Hole in a Paper Heart"
p333
S'http://www.last.fm/music/Stone+Temple+Pilots/_/Trippin%27+on+a+Hole+in+a+Paper+Heart'
p334
S'1401394116'
p335
tp336
a(S'Stone Temple Pilots'
p337
S'Black Again'
p338
S'http://www.last.fm/music/Stone+Temple+Pilots/_/Black+Again'
p339
S'1401393939'
p340
tp341
a(S'Stone Temple Pilots'
p342
S'Too Cool Queenie'
p343
S'http://www.last.fm/music/Stone+Temple+Pilots/_/Too+Cool+Queenie'
p344
S'1401393733'
p345
tp346
a(S'Stone Temple Pilots'
p347
S'Pruno'
p348
S'http://www.last.fm/music/Stone+Temple+Pilots/_/Pruno'
p349
S'1401393565'
p350
tp351
a(S'Stone Temple Pilots'
p352
S'Bi-Polar Bear'
p353
S'http://www.last.fm/music/Stone+Temple+Pilots/_/Bi-Polar+Bear'
p354
S'1401389006'
p355
tp356
a(S'Talk Show'
p357
S'Peeling an Orange'
p358
S'http://www.last.fm/music/Talk+Show/_/Peeling+an+Orange'
p359
S'1401380811'
p360
tp361
a(S'Talk Show'
p362
S'End of the World'
p363
S'http://www.last.fm/music/Talk+Show/_/End+of+the+World'
p364
S'1401374465'
p365
tp366
a(S'Army Of Anyone'
p367
S'Generation'
p368
S'http://www.last.fm/music/Army+Of+Anyone/_/Generation'
p369
S'1401370345'
p370
tp371
a(S'Army Of Anyone'
p372
S'A Better Place'
p373
S'http://www.last.fm/music/Army+Of+Anyone/_/A+Better+Place'
p374
S'1401370133'
p375
tp376
a(S'Stone Temple Pilots'
p377
S'Army Ants'
p378
S'http://www.last.fm/music/Stone+Temple+Pilots/_/Army+Ants'
p379
S'1401369835'
p380
tp381
a(S'Stone Temple Pilots'
p382
S'Regeneration'
p383
S'http://www.last.fm/music/Stone+Temple+Pilots/_/Regeneration'
p384
S'1401369608'
p385
tp386
a(S'Stone Temple Pilots'
p387
S"Trippin' on a Hole in a Paper Heart"
p388
S'http://www.last.fm/music/Stone+Temple+Pilots/_/Trippin%27+on+a+Hole+in+a+Paper+Heart'
p389
S'1401369372'
p390
tp391
a(S'Stone Temple Pilots'
p392
S'Transmissions From a Lonely Room'
p393
S'http://www.last.fm/music/Stone+Temple+Pilots/_/Transmissions+From+a+Lonely+Room'
p394
S'1401369196'
p395
tp396
a(S'Stone Temple Pilots'
p397
S'Dumb Love'
p398
S'http://www.last.fm/music/Stone+Temple+Pilots/_/Dumb+Love'
p399
S'1401369000'
p400
tp401
a(S'Stone Temple Pilots'
p402
S'Black Again'
p403
S'http://www.last.fm/music/Stone+Temple+Pilots/_/Black+Again'
p404
S'1401368829'
p405
tp406
a(S'Stone Temple Pilots'
p407
S'Take a Load Off'
p408
S'http://www.last.fm/music/Stone+Temple+Pilots/_/Take+a+Load+Off'
p409
S'1401368621'
p410
tp411
a(S'Army Of Anyone'
p412
S'Father Figure'
p413
S'http://www.last.fm/music/Army+Of+Anyone/_/Father+Figure'
p414
S'1401300249'
p415
tp416
a(S'Talk Show'
p417
S'Hello Hello'
p418
S'http://www.last.fm/music/Talk+Show/_/Hello+Hello'
p419
S'1401300004'
p420
tp421
a(S'Stone Temple Pilots'
p422
S'Lady Picture Show'
p423
S'http://www.last.fm/music/Stone+Temple+Pilots/_/Lady+Picture+Show'
p424
S'1401299827'
p425
tp426
a(S'Stone Temple Pilots'
p427
S'Big Bang Baby'
p428
S'http://www.last.fm/music/Stone+Temple+Pilots/_/Big+Bang+Baby'
p429
S'1401299578'
p430
tp431
a(S'Stone Temple Pilots'
p432
S'Interstate Love Song'
p433
S'http://www.last.fm/music/Stone+Temple+Pilots/_/Interstate+Love+Song'
p434
S'1401299374'
p435
tp436
a(S'Talk Show'
p437
S'Wash Me Down'
p438
S'http://www.last.fm/music/Talk+Show/_/Wash+Me+Down'
p439
S'1401299179'
p440
tp441
a(S'Talk Show'
p442
S'Hide'
p443
S'http://www.last.fm/music/Talk+Show/_/Hide'
p444
S'1401298952'
p445
tp446
a(S'Stone Temple Pilots'
p447
S'Too Cool Queenie'
p448
S'http://www.last.fm/music/Stone+Temple+Pilots/_/Too+Cool+Queenie'
p449
S'1401298742'
p450
tp451
a(S'Stone Temple Pilots'
p452
S'First Kiss on Mars'
p453
S'http://www.last.fm/music/Stone+Temple+Pilots/_/First+Kiss+on+Mars'
p454
S'1401298574'
p455
tp456
a(S'Stone Temple Pilots'
p457
S'Black Again'
p458
S'http://www.last.fm/music/Stone+Temple+Pilots/_/Black+Again'
p459
S'1401298391'
p460
tp461
a(S'Stone Temple Pilots'
p462
S'Peacoat'
p463
S'http://www.last.fm/music/Stone+Temple+Pilots/_/Peacoat'
p464
S'1401298184'
p465
tp466
a(S'Talk Show'
p467
S'Wash Me Down'
p468
S'http://www.last.fm/music/Talk+Show/_/Wash+Me+Down'
p469
S'1401123543'
p470
tp471
a(S'Talk Show'
p472
S'Peeling an Orange'
p473
S'http://www.last.fm/music/Talk+Show/_/Peeling+an+Orange'
p474
S'1401123315'
p475
tp476
a(S'Stone Temple Pilots'
p477
S'Still Remains'
p478
S'http://www.last.fm/music/Stone+Temple+Pilots/_/Still+Remains'
p479
S'1401123100'
p480
tp481
a(S'Stone Temple Pilots'
p482
S'Too Cool Queenie'
p483
S'http://www.last.fm/music/Stone+Temple+Pilots/_/Too+Cool+Queenie'
p484
S'1401122887'
p485
tp486
a(S'Talk Show'
p487
S'Hello Hello'
p488
S'http://www.last.fm/music/Talk+Show/_/Hello+Hello'
p489
S'1401122719'
p490
tp491
a(S'Stone Temple Pilots'
p492
S'Lounge Fly'
p493
S'http://www.last.fm/music/Stone+Temple+Pilots/_/Lounge+Fly'
p494
S'1401122542'
p495
tp496
a(S'Army Of Anyone'
p497
S'Father Figure'
p498
S'http://www.last.fm/music/Army+Of+Anyone/_/Father+Figure'
p499
S'1401122223'
p500
tp501
a(S'Stone Temple Pilots'
p502
S'Transmissions From a Lonely Room'
p503
S'http://www.last.fm/music/Stone+Temple+Pilots/_/Transmissions+From+a+Lonely+Room'
p504
S'1401121979'
p505
tp506
a(S'Talk Show'
p507
S'End of the World'
p508
S'http://www.last.fm/music/Talk+Show/_/End+of+the+World'
p509
S'1401121783'
p510
tp511
a(S'Stone Temple Pilots'
p512
S'Silvergun Superman'
p513
S'http://www.last.fm/music/Stone+Temple+Pilots/_/Silvergun+Superman'
p514
S'1401121570'
p515
tp516
a(S'Stone Temple Pilots'
p517
S'Unglued'
p518
S'http://www.last.fm/music/Stone+Temple+Pilots/_/Unglued'
p519
S'1401121254'
p520
tp521
a(S'Stone Temple Pilots'
p522
S'Regeneration'
p523
S'http://www.last.fm/music/Stone+Temple+Pilots/_/Regeneration'
p524
S'1401121099'
p525
tp526
a(S'Stone Temple Pilots'
p527
S'Bi-Polar Bear'
p528
S'http://www.last.fm/music/Stone+Temple+Pilots/_/Bi-Polar+Bear'
p529
S'1401120864'
p530
tp531
a(S'Stone Temple Pilots'
p532
S'Vasoline'
p533
S'http://www.last.fm/music/Stone+Temple+Pilots/_/Vasoline'
p534
S'1401120559'
p535
tp536
a(S'Stone Temple Pilots'
p537
S'Pruno'
p538
S'http://www.last.fm/music/Stone+Temple+Pilots/_/Pruno'
p539
S'1401115405'
p540
tp541
a(S'Stone Temple Pilots'
p542
S"Trippin' on a Hole in a Paper Heart"
p543
S'http://www.last.fm/music/Stone+Temple+Pilots/_/Trippin%27+on+a+Hole+in+a+Paper+Heart'
p544
S'1401115210'
p545
tp546
a(S'Stone Temple Pilots'
p547
S'Huckleberry Crumble'
p548
S'http://www.last.fm/music/Stone+Temple+Pilots/_/Huckleberry+Crumble'
p549
S'1401115033'
p550
tp551
a(S'Stone Temple Pilots'
p552
S'Hickory Dichotomy'
p553
S'http://www.last.fm/music/Stone+Temple+Pilots/_/Hickory+Dichotomy'
p554
S'1401114842'
p555
tp556
a(S'Army Of Anyone'
p557
S'A Better Place'
p558
S'http://www.last.fm/music/Army+Of+Anyone/_/A+Better+Place'
p559
S'1401114640'
p560
tp561
a(S'Stone Temple Pilots'
p562
S'Seven Caged Tigers'
p563
S'http://www.last.fm/music/Stone+Temple+Pilots/_/Seven+Caged+Tigers'
p564
S'1401109780'
p565
tp566
a(S'Stone Temple Pilots'
p567
S'Dumb Love'
p568
S'http://www.last.fm/music/Stone+Temple+Pilots/_/Dumb+Love'
p569
S'1401109523'
p570
tp571
a(S'Stone Temple Pilots'
p572
S'Army Ants'
p573
S'http://www.last.fm/music/Stone+Temple+Pilots/_/Army+Ants'
p574
S'1401109352'
p575
tp576
a(S'Stone Temple Pilots'
p577
S'Lady Picture Show'
p578
S'http://www.last.fm/music/Stone+Temple+Pilots/_/Lady+Picture+Show'
p579
S'1401109125'
p580
tp581
a(S'Stone Temple Pilots'
p582
S'Big Bang Baby'
p583
S'http://www.last.fm/music/Stone+Temple+Pilots/_/Big+Bang+Baby'
p584
S'1401108876'
p585
tp586
a(S'Army Of Anyone'
p587
S'Generation'
p588
S'http://www.last.fm/music/Army+Of+Anyone/_/Generation'
p589
S'1401108673'
p590
tp591
a(S'Stone Temple Pilots'
p592
S'Black Again'
p593
S'http://www.last.fm/music/Stone+Temple+Pilots/_/Black+Again'
p594
S'1401108461'
p595
tp596
a(S'Stone Temple Pilots'
p597
S'Lounge Fly'
p598
S'http://www.last.fm/music/Stone+Temple+Pilots/_/Lounge+Fly'
p599
S'1400782940'
p600
tp601
a(S'Talk Show'
p602
S'Hello Hello'
p603
S'http://www.last.fm/music/Talk+Show/_/Hello+Hello'
p604
S'1400782522'
p605
tp606
a(S'Stone Temple Pilots'
p607
S'Vasoline'
p608
S'http://www.last.fm/music/Stone+Temple+Pilots/_/Vasoline'
p609
S'1400782344'
p610
tp611
a(S'Stone Temple Pilots'
p612
S'Regeneration'
p613
S'http://www.last.fm/music/Stone+Temple+Pilots/_/Regeneration'
p614
S'1400782167'
p615
tp616
a(S'Stone Temple Pilots'
p617
S'Between the Lines'
p618
S'http://www.last.fm/music/Stone+Temple+Pilots/_/Between+the+Lines'
p619
S'1400781931'
p620
tp621
a(S'Stone Temple Pilots'
p622
S'Too Cool Queenie'
p623
S'http://www.last.fm/music/Stone+Temple+Pilots/_/Too+Cool+Queenie'
p624
S'1400781761'
p625
tp626
a(S'Stone Temple Pilots'
p627
S'Take a Load Off'
p628
S'http://www.last.fm/music/Stone+Temple+Pilots/_/Take+a+Load+Off'
p629
S'1400781593'
p630
tp631
a(S'Stone Temple Pilots'
p632
S'Unglued'
p633
S'http://www.last.fm/music/Stone+Temple+Pilots/_/Unglued'
p634
S'1400781401'
p635
tp636
a(S'Stone Temple Pilots'
p637
S'Peacoat'
p638
S'http://www.last.fm/music/Stone+Temple+Pilots/_/Peacoat'
p639
S'1400781247'
p640
tp641
a(S'Stone Temple Pilots'
p642
S'Interstate Love Song'
p643
S'http://www.last.fm/music/Stone+Temple+Pilots/_/Interstate+Love+Song'
p644
S'1400781037'
p645
tp646
a(S'Talk Show'
p647
S'Wash Me Down'
p648
S'http://www.last.fm/music/Talk+Show/_/Wash+Me+Down'
p649
S'1400780843'
p650
tp651
a(S'Stone Temple Pilots'
p652
S'Big Bang Baby'
p653
S'http://www.last.fm/music/Stone+Temple+Pilots/_/Big+Bang+Baby'
p654
S'1400780616'
p655
tp656
a(S'Army Of Anyone'
p657
S'Father Figure'
p658
S'http://www.last.fm/music/Army+Of+Anyone/_/Father+Figure'
p659
S'1400780412'
p660
tp661
a(S'Talk Show'
p662
S'Hide'
p663
S'http://www.last.fm/music/Talk+Show/_/Hide'
p664
S'1400780167'
p665
tp666
a(S'Stone Temple Pilots'
p667
S'Dumb Love'
p668
S'http://www.last.fm/music/Stone+Temple+Pilots/_/Dumb+Love'
p669
S'1400779957'
p670
tp671
a(S'Stone Temple Pilots'
p672
S'Huckleberry Crumble'
p673
S'http://www.last.fm/music/Stone+Temple+Pilots/_/Huckleberry+Crumble'
p674
S'1400779786'
p675
tp676
a(S'Army Of Anyone'
p677
S'A Better Place'
p678
S'http://www.last.fm/music/Army+Of+Anyone/_/A+Better+Place'
p679
S'1400779579'
p680
tp681
a(S'Talk Show'
p682
S'End of the World'
p683
S'http://www.last.fm/music/Talk+Show/_/End+of+the+World'
p684
S'1400779280'
p685
tp686
a(S'Army Of Anyone'
p687
S'Generation'
p688
S'http://www.last.fm/music/Army+Of+Anyone/_/Generation'
p689
S'1400779067'
p690
tp691
a(S'Stone Temple Pilots'
p692
S'Pruno'
p693
S'http://www.last.fm/music/Stone+Temple+Pilots/_/Pruno'
p694
S'1400778856'
p695
tp696
a(S'Talk Show'
p697
S'John'
p698
S'http://www.last.fm/music/Talk+Show/_/John'
p699
S'1400778661'
p700
tp701
a(S'Stone Temple Pilots'
p702
S"Trippin' on a Hole in a Paper Heart"
p703
S'http://www.last.fm/music/Stone+Temple+Pilots/_/Trippin%27+on+a+Hole+in+a+Paper+Heart'
p704
S'1400778479'
p705
tp706
a(S'Stone Temple Pilots'
p707
S'Bi-Polar Bear'
p708
S'http://www.last.fm/music/Stone+Temple+Pilots/_/Bi-Polar+Bear'
p709
S'1400778302'
p710
tp711
a(S'Stone Temple Pilots'
p712
S'Silvergun Superman'
p713
S'http://www.last.fm/music/Stone+Temple+Pilots/_/Silvergun+Superman'
p714
S'1400266045'
p715
tp716
a(S'Talk Show'
p717
S'Peeling an Orange'
p718
S'http://www.last.fm/music/Talk+Show/_/Peeling+an+Orange'
p719
S'1400265728'
p720
tp721
a(S'Army Of Anyone'
p722
S'Generation'
p723
S'http://www.last.fm/music/Army+Of+Anyone/_/Generation'
p724
S'1400265513'
p725
tp726
a(S'Stone Temple Pilots'
p727
S"Trippin' on a Hole in a Paper Heart"
p728
S'http://www.last.fm/music/Stone+Temple+Pilots/_/Trippin%27+on+a+Hole+in+a+Paper+Heart'
p729
S'1400265302'
p730
tp731
a(S'Stone Temple Pilots'
p732
S'Lady Picture Show'
p733
S'http://www.last.fm/music/Stone+Temple+Pilots/_/Lady+Picture+Show'
p734
S'1400265125'
p735
tp736
a(S'Stone Temple Pilots'
p737
S'Dumb Love'
p738
S'http://www.last.fm/music/Stone+Temple+Pilots/_/Dumb+Love'
p739
S'1400264876'
p740
tp741
a(S'Stone Temple Pilots'
p742
S'Still Remains'
p743
S'http://www.last.fm/music/Stone+Temple+Pilots/_/Still+Remains'
p744
S'1400264705'
p745
tp746
a(S'Stone Temple Pilots'
p747
S'Hickory Dichotomy'
p748
S'http://www.last.fm/music/Stone+Temple+Pilots/_/Hickory+Dichotomy'
p749
S'1400264492'
p750
tp751
a(S'Stone Temple Pilots'
p752
S'Peacoat'
p753
S'http://www.last.fm/music/Stone+Temple+Pilots/_/Peacoat'
p754
S'1400264289'
p755
tp756
a(S'Talk Show'
p757
S'Hello Hello'
p758
S'http://www.last.fm/music/Talk+Show/_/Hello+Hello'
p759
S'1400264079'
p760
tp761
a(S'Stone Temple Pilots'
p762
S'Lounge Fly'
p763
S'http://www.last.fm/music/Stone+Temple+Pilots/_/Lounge+Fly'
p764
S'1400263902'
p765
tp766
a(S'Stone Temple Pilots'
p767
S'Unglued'
p768
S'http://www.last.fm/music/Stone+Temple+Pilots/_/Unglued'
p769
S'1400263583'
p770
tp771
a(S'Stone Temple Pilots'
p772
S'Too Cool Queenie'
p773
S'http://www.last.fm/music/Stone+Temple+Pilots/_/Too+Cool+Queenie'
p774
S'1400263429'
p775
tp776
a(S'Stone Temple Pilots'
p777
S'Regeneration'
p778
S'http://www.last.fm/music/Stone+Temple+Pilots/_/Regeneration'
p779
S'1400263261'
p780
tp781
a(S'Stone Temple Pilots'
p782
S'First Kiss on Mars'
p783
S'http://www.last.fm/music/Stone+Temple+Pilots/_/First+Kiss+on+Mars'
p784
S'1400263026'
p785
tp786
a(S'Army Of Anyone'
p787
S'Father Figure'
p788
S'http://www.last.fm/music/Army+Of+Anyone/_/Father+Figure'
p789
S'1400262842'
p790
tp791
a(S'Stone Temple Pilots'
p792
S'Bi-Polar Bear'
p793
S'http://www.last.fm/music/Stone+Temple+Pilots/_/Bi-Polar+Bear'
p794
S'1400262598'
p795
tp796
a(S'Stone Temple Pilots'
p797
S'Big Bang Baby'
p798
S'http://www.last.fm/music/Stone+Temple+Pilots/_/Big+Bang+Baby'
p799
S'1400245537'
p800
tp801
a(S'Stone Temple Pilots'
p802
S'Take a Load Off'
p803
S'http://www.last.fm/music/Stone+Temple+Pilots/_/Take+a+Load+Off'
p804
S'1400245333'
p805
tp806
a(S'Stone Temple Pilots'
p807
S'Black Again'
p808
S'http://www.last.fm/music/Stone+Temple+Pilots/_/Black+Again'
p809
S'1400181800'
p810
tp811
a(S'Talk Show'
p812
S'Peeling an Orange'
p813
S'http://www.last.fm/music/Talk+Show/_/Peeling+an+Orange'
p814
S'1400181594'
p815
tp816
a(S'Stone Temple Pilots'
p817
S'Lounge Fly'
p818
S'http://www.last.fm/music/Stone+Temple+Pilots/_/Lounge+Fly'
p819
S'1400181378'
p820
tp821
a(S'Stone Temple Pilots'
p822
S'Transmissions From a Lonely Room'
p823
S'http://www.last.fm/music/Stone+Temple+Pilots/_/Transmissions+From+a+Lonely+Room'
p824
S'1400181060'
p825
tp826
a(S'Stone Temple Pilots'
p827
S'Vasoline'
p828
S'http://www.last.fm/music/Stone+Temple+Pilots/_/Vasoline'
p829
S'1400180486'
p830
tp831
a(S'Army Of Anyone'
p832
S'Generation'
p833
S'http://www.last.fm/music/Army+Of+Anyone/_/Generation'
p834
S'1400180309'
p835
tp836
a(S'Stone Temple Pilots'
p837
S'Huckleberry Crumble'
p838
S'http://www.last.fm/music/Stone+Temple+Pilots/_/Huckleberry+Crumble'
p839
S'1400180098'
p840
tp841
a(S'Stone Temple Pilots'
p842
S'Big Bang Baby'
p843
S'http://www.last.fm/music/Stone+Temple+Pilots/_/Big+Bang+Baby'
p844
S'1400179907'
p845
tp846
a(S'Stone Temple Pilots'
p847
S'Silvergun Superman'
p848
S'http://www.last.fm/music/Stone+Temple+Pilots/_/Silvergun+Superman'
p849
S'1400179703'
p850
tp851
a(S'Stone Temple Pilots'
p852
S'Still Remains'
p853
S'http://www.last.fm/music/Stone+Temple+Pilots/_/Still+Remains'
p854
S'1400179386'
p855
tp856
a(S'Army Of Anyone'
p857
S'A Better Place'
p858
S'http://www.last.fm/music/Army+Of+Anyone/_/A+Better+Place'
p859
S'1400179173'
p860
tp861
a(S'Army Of Anyone'
p862
S'Father Figure'
p863
S'http://www.last.fm/music/Army+Of+Anyone/_/Father+Figure'
p864
S'1400178874'
p865
tp866
a(S'Stone Temple Pilots'
p867
S'Bi-Polar Bear'
p868
S'http://www.last.fm/music/Stone+Temple+Pilots/_/Bi-Polar+Bear'
p869
S'1400178630'
p870
tp871
a(S'Stone Temple Pilots'
p872
S'Lady Picture Show'
p873
S'http://www.last.fm/music/Stone+Temple+Pilots/_/Lady+Picture+Show'
p874
S'1400178324'
p875
tp876
a(S'Army Of Anyone'
p877
S'Non Stop'
p878
S'http://www.last.fm/music/Army+Of+Anyone/_/Non+Stop'
p879
S'1400178075'
p880
tp881
a(S'Talk Show'
p882
S'John'
p883
S'http://www.last.fm/music/Talk+Show/_/John'
p884
S'1400177837'
p885
tp886
a(S'Stone Temple Pilots'
p887
S'First Kiss on Mars'
p888
S'http://www.last.fm/music/Stone+Temple+Pilots/_/First+Kiss+on+Mars'
p889
S'1400177654'
p890
tp891
a(S'Stone Temple Pilots'
p892
S'Army Ants'
p893
S'http://www.last.fm/music/Stone+Temple+Pilots/_/Army+Ants'
p894
S'1400177471'
p895
tp896
a(S'Stone Temple Pilots'
p897
S'Peacoat'
p898
S'http://www.last.fm/music/Stone+Temple+Pilots/_/Peacoat'
p899
S'1400177244'
p900
tp901
a(S'Stone Temple Pilots'
p902
S'Hickory Dichotomy'
p903
S'http://www.last.fm/music/Stone+Temple+Pilots/_/Hickory+Dichotomy'
p904
S'1400177034'
p905
tp906
a(S'Stone Temple Pilots'
p907
S'Pruno'
p908
S'http://www.last.fm/music/Stone+Temple+Pilots/_/Pruno'
p909
S'1400176831'
p910
tp911
a(S'Stone Temple Pilots'
p912
S'Lady Picture Show'
p913
S'http://www.last.fm/music/Stone+Temple+Pilots/_/Lady+Picture+Show'
p914
S'1400170696'
p915
tp916
a(S'Talk Show'
p917
S'Peeling an Orange'
p918
S'http://www.last.fm/music/Talk+Show/_/Peeling+an+Orange'
p919
S'1400170447'
p920
tp921
a(S'Stone Temple Pilots'
p922
S'Vasoline'
p923
S'http://www.last.fm/music/Stone+Temple+Pilots/_/Vasoline'
p924
S'1400170232'
p925
tp926
a(S'Talk Show'
p927
S'Wash Me Down'
p928
S'http://www.last.fm/music/Talk+Show/_/Wash+Me+Down'
p929
S'1400170052'
p930
tp931
a(S'Stone Temple Pilots'
p932
S'Dumb Love'
p933
S'http://www.last.fm/music/Stone+Temple+Pilots/_/Dumb+Love'
p934
S'1400169825'
p935
tp936
a(S'Stone Temple Pilots'
p937
S'Between the Lines'
p938
S'http://www.last.fm/music/Stone+Temple+Pilots/_/Between+the+Lines'
p939
S'1400169654'
p940
tp941
a(S'Army Of Anyone'
p942
S'A Better Place'
p943
S'http://www.last.fm/music/Army+Of+Anyone/_/A+Better+Place'
p944
S'1400165434'
p945
tp946
a(S'Stone Temple Pilots'
p947
S'Peacoat'
p948
S'http://www.last.fm/music/Stone+Temple+Pilots/_/Peacoat'
p949
S'1400165135'
p950
tp951
a(S'Stone Temple Pilots'
p952
S'Unglued'
p953
S'http://www.last.fm/music/Stone+Temple+Pilots/_/Unglued'
p954
S'1400164925'
p955
tp956
a(S'Stone Temple Pilots'
p957
S'Transmissions From a Lonely Room'
p958
S'http://www.last.fm/music/Stone+Temple+Pilots/_/Transmissions+From+a+Lonely+Room'
p959
S'1400164771'
p960
tp961
a(S'Stone Temple Pilots'
p962
S'Seven Caged Tigers'
p963
S'http://www.last.fm/music/Stone+Temple+Pilots/_/Seven+Caged+Tigers'
p964
S'1400162645'
p965
tp966
a(S'Stone Temple Pilots'
p967
S'Silvergun Superman'
p968
S'http://www.last.fm/music/Stone+Temple+Pilots/_/Silvergun+Superman'
p969
S'1400162388'
p970
tp971
a(S'Talk Show'
p972
S'John'
p973
S'http://www.last.fm/music/Talk+Show/_/John'
p974
S'1400162071'
p975
tp976
a(S'Stone Temple Pilots'
p977
S'Big Bang Baby'
p978
S'http://www.last.fm/music/Stone+Temple+Pilots/_/Big+Bang+Baby'
p979
S'1400161857'
p980
tp981
a(S'Stone Temple Pilots'
p982
S'Interstate Love Song'
p983
S'http://www.last.fm/music/Stone+Temple+Pilots/_/Interstate+Love+Song'
p984
S'1400161653'
p985
tp986
a(S'Stone Temple Pilots'
p987
S'Regeneration'
p988
S'http://www.last.fm/music/Stone+Temple+Pilots/_/Regeneration'
p989
S'1400161458'
p990
tp991
a(S'Stone Temple Pilots'
p992
S'Black Again'
p993
S'http://www.last.fm/music/Stone+Temple+Pilots/_/Black+Again'
p994
S'1400161223'
p995
tp996
a(S'Stone Temple Pilots'
p997
S'Too Cool Queenie'
p998
S'http://www.last.fm/music/Stone+Temple+Pilots/_/Too+Cool+Queenie'
p999
S'1400157860'
p1000
tp1001
a.