(lp1
(S'Stone Temple Pilots'
p2
S'Hickory Dichotomy (Live from Chicago)'
p3
S'http://www.last.fm/music/Stone+Temple+Pilots/_/Hickory+Dichotomy+(Live+from+Chicago)'
p4
S'1275683695'
p5
tp6
a(S'Stone Temple Pilots'
p7
S'Heaven & Hot Rods'
p8
S'http://www.last.fm/music/Stone+Temple+Pilots/_/Heaven+&+Hot+Rods'
p9
S'1275683495'
p10
tp11
a(S'Stone Temple Pilots'
p12
S'Naked Sunday'
p13
S'http://www.last.fm/music/Stone+Temple+Pilots/_/Naked+Sunday'
p14
S'1275683289'
p15
tp16
a(S'Stone Temple Pilots'
p17
S'Army Ants'
p18
S'http://www.last.fm/music/Stone+Temple+Pilots/_/Army+Ants'
p19
S'1275683059'
p20
tp21
a(S'Stone Temple Pilots'
p22
S"Trippin' on a Hole in a Paper Heart"
p23
S'http://www.last.fm/music/Stone+Temple+Pilots/_/Trippin%27+on+a+Hole+in+a+Paper+Heart'
p24
S'1275682752'
p25
tp26
a(S'Stone Temple Pilots'
p27
S'Church on Tuesday'
p28
S'http://www.last.fm/music/Stone+Temple+Pilots/_/Church+on+Tuesday'
p29
S'1275682613'
p30
tp31
a(S'Stone Temple Pilots'
p32
S'Lounge Fly'
p33
S'http://www.last.fm/music/Stone+Temple+Pilots/_/Lounge+Fly'
p34
S'1275682432'
p35
tp36
a(S'Stone Temple Pilots'
p37
S'Regeneration'
p38
S'http://www.last.fm/music/Stone+Temple+Pilots/_/Regeneration'
p39
S'1275681438'
p40
tp41
a(S'Stone Temple Pilots'
p42
S'Maver'
p43
S'http://www.last.fm/music/Stone+Temple+Pilots/_/Maver'
p44
S'1275681194'
p45
tp46
a(S'Stone Temple Pilots'
p47
S'Take a Load Off'
p48
S'http://www.last.fm/music/Stone+Temple+Pilots/_/Take+a+Load+Off'
p49
S'1275679043'
p50
tp51
a(S'Stone Temple Pilots'
p52
S'Down'
p53
S'http://www.last.fm/music/Stone+Temple+Pilots/_/Down'
p54
S'1275678846'
p55
tp56
a(S'Stone Temple Pilots'
p57
S'Peacoat'
p58
S'http://www.last.fm/music/Stone+Temple+Pilots/_/Peacoat'
p59
S'1275678617'
p60
tp61
a(S'Stone Temple Pilots'
p62
S'Seven Caged Tigers'
p63
S'http://www.last.fm/music/Stone+Temple+Pilots/_/Seven+Caged+Tigers'
p64
S'1275678319'
p65
tp66
a(S'Stone Temple Pilots'
p67
S'Between the Lines'
p68
S'http://www.last.fm/music/Stone+Temple+Pilots/_/Between+the+Lines'
p69
S'1275678055'
p70
tp71
a(S'Stone Temple Pilots'
p72
S'Pretty Penny'
p73
S'http://www.last.fm/music/Stone+Temple+Pilots/_/Pretty+Penny'
p74
S'1275677885'
p75
tp76
a(S'Stone Temple Pilots'
p77
S'Adhesive'
p78
S'http://www.last.fm/music/Stone+Temple+Pilots/_/Adhesive'
p79
S'1275677663'
p80
tp81
a(S'Stone Temple Pilots'
p82
S'Dancing Days'
p83
S'http://www.last.fm/music/Stone+Temple+Pilots/_/Dancing+Days'
p84
S'1275677328'
p85
tp86
a(S'Stone Temple Pilots'
p87
S'Between The Lines (Live from Chicago)'
p88
S'http://www.last.fm/music/Stone+Temple+Pilots/_/Between+The+Lines+(Live+from+Chicago)'
p89
S'1275677102'
p90
tp91
a(S'Stone Temple Pilots'
p92
S'Transmissions From a Lonely Room'
p93
S'http://www.last.fm/music/Stone+Temple+Pilots/_/Transmissions+From+a+Lonely+Room'
p94
S'1275676927'
p95
tp96
a(S'Stone Temple Pilots'
p97
S'Bagman'
p98
S'http://www.last.fm/music/Stone+Temple+Pilots/_/Bagman'
p99
S'1275676732'
p100
tp101
a(S'Stone Temple Pilots'
p102
S"Hello It's Late"
p103
S'http://www.last.fm/music/Stone+Temple+Pilots/_/Hello+It%27s+Late'
p104
S'1275675248'
p105
tp106
a(S'Stone Temple Pilots'
p107
S"Pop's Love Suicide"
p108
S'http://www.last.fm/music/Stone+Temple+Pilots/_/Pop%27s+Love+Suicide'
p109
S'1275674204'
p110
tp111
a(S'Stone Temple Pilots'
p112
S'Creep'
p113
S'http://www.last.fm/music/Stone+Temple+Pilots/_/Creep'
p114
S'1275673972'
p115
tp116
a(S'Stone Temple Pilots'
p117
S'And So I Know'
p118
S'http://www.last.fm/music/Stone+Temple+Pilots/_/And+So+I+Know'
p119
S'1275673725'
p120
tp121
a(S'Stone Temple Pilots'
p122
S'Bi-Polar Bear'
p123
S'http://www.last.fm/music/Stone+Temple+Pilots/_/Bi-Polar+Bear'
p124
S'1275673397'
p125
tp126
a(S'Stone Temple Pilots'
p127
S'"Unglued"'
p128
S'http://www.last.fm/music/Stone+Temple+Pilots/_/%22Unglued%22'
p129
S'1275665989'
p130
tp131
a(S'Stone Temple Pilots'
p132
S'Piece of Pie'
p133
S'http://www.last.fm/music/Stone+Temple+Pilots/_/Piece+of+Pie'
p134
S'1275665806'
p135
tp136
a(S'Stone Temple Pilots'
p137
S'Days of the Week'
p138
S'http://www.last.fm/music/Stone+Temple+Pilots/_/Days+of+the+Week'
p139
S'1275665476'
p140
tp141
a(S'Stone Temple Pilots'
p142
S'Ride the Cliche'
p143
S'http://www.last.fm/music/Stone+Temple+Pilots/_/Ride+the+Cliche'
p144
S'1275665320'
p145
tp146
a(S'Stone Temple Pilots'
p147
S'Sex Type Thing'
p148
S'http://www.last.fm/music/Stone+Temple+Pilots/_/Sex+Type+Thing'
p149
S'1275665122'
p150
tp151
a(S'Stone Temple Pilots'
p152
S'Sex Type Thing'
p153
S'http://www.last.fm/music/Stone+Temple+Pilots/_/Sex+Type+Thing'
p154
S'1275665014'
p155
tp156
a(S'Stone Temple Pilots'
p157
S'MC5'
p158
S'http://www.last.fm/music/Stone+Temple+Pilots/_/MC5'
p159
S'1275664904'
p160
tp161
a(S'Stone Temple Pilots'
p162
S'Interstate Love Song'
p163
S'http://www.last.fm/music/Stone+Temple+Pilots/_/Interstate+Love+Song'
p164
S'1275664741'
p165
tp166
a(S'Stone Temple Pilots'
p167
S'Lady Picture Show'
p168
S'http://www.last.fm/music/Stone+Temple+Pilots/_/Lady+Picture+Show'
p169
S'1275664543'
p170
tp171
a(S'Stone Temple Pilots'
p172
S'I Got You'
p173
S'http://www.last.fm/music/Stone+Temple+Pilots/_/I+Got+You'
p174
S'1275664294'
p175
tp176
a(S'Stone Temple Pilots'
p177
S'Sex & Violence'
p178
S'http://www.last.fm/music/Stone+Temple+Pilots/_/Sex+&+Violence'
p179
S'1275664038'
p180
tp181
a(S'Stone Temple Pilots'
p182
S'Black Again'
p183
S'http://www.last.fm/music/Stone+Temple+Pilots/_/Black+Again'
p184
S'1275663864'
p185
tp186
a(S'Stone Temple Pilots'
p187
S'Hickory Dichotomy'
p188
S'http://www.last.fm/music/Stone+Temple+Pilots/_/Hickory+Dichotomy'
p189
S'1275663657'
p190
tp191
a(S'The Cult'
p192
S'Fire Woman'
p193
S'http://www.last.fm/music/The+Cult/_/Fire+Woman'
p194
S'1275663455'
p195
tp196
a(S'Ozzy Osbourne'
p197
S'Shot in the Dark'
p198
S'http://www.last.fm/music/Ozzy+Osbourne/_/Shot+in+the+Dark'
p199
S'1275663252'
p200
tp201
a(S'The Cult'
p202
S'Sweet Soul Sister'
p203
S'http://www.last.fm/music/The+Cult/_/Sweet+Soul+Sister'
p204
S'1275662947'
p205
tp206
a(S'Live'
p207
S'All I Need'
p208
S'http://www.last.fm/music/Live/_/All+I+Need'
p209
S'1275662686'
p210
tp211
a(S'Velvet Revolver'
p212
S'She Mine'
p213
S'http://www.last.fm/music/Velvet+Revolver/_/She+Mine'
p214
S'1275662473'
p215
tp216
a(S'Ozzy Osbourne'
p217
S'The Ultimate Sin'
p218
S'http://www.last.fm/music/Ozzy+Osbourne/_/The+Ultimate+Sin'
p219
S'1275662263'
p220
tp221
a(S'Audioslave'
p222
S'Gasoline'
p223
S'http://www.last.fm/music/Audioslave/_/Gasoline'
p224
S'1275662039'
p225
tp226
a(S'Them Crooked Vultures'
p227
S'Mind Eraser, No Chaser'
p228
S'http://www.last.fm/music/Them+Crooked+Vultures/_/Mind+Eraser,+No+Chaser'
p229
S'1275660370'
p230
tp231
a(S'Queens of the Stone Age'
p232
S'Monsters in the Parasol'
p233
S'http://www.last.fm/music/Queens+of+the+Stone+Age/_/Monsters+in+the+Parasol'
p234
S'1275660123'
p235
tp236
a(S'Audioslave'
p237
S'Gasoline'
p238
S'http://www.last.fm/music/Audioslave/_/Gasoline'
p239
S'1275658519'
p240
tp241
a(S'Them Crooked Vultures'
p242
S'Mind Eraser, No Chaser'
p243
S'http://www.last.fm/music/Them+Crooked+Vultures/_/Mind+Eraser,+No+Chaser'
p244
S'1275658240'
p245
tp246
a(S'Stone Temple Pilots'
p247
S'Huckleberry Crumble'
p248
S'http://www.last.fm/music/Stone+Temple+Pilots/_/Huckleberry+Crumble'
p249
S'1275657941'
p250
tp251
a(S'Alice in Chains'
p252
S'Angry Chair'
p253
S'http://www.last.fm/music/Alice+in+Chains/_/Angry+Chair'
p254
S'1275657750'
p255
tp256
a(S'Queen'
p257
S'Bicycle Race'
p258
S'http://www.last.fm/music/Queen/_/Bicycle+Race'
p259
S'1275657509'
p260
tp261
a(S'Stone Temple Pilots'
p262
S'Huckleberry Crumble'
p263
S'http://www.last.fm/music/Stone+Temple+Pilots/_/Huckleberry+Crumble'
p264
S'1275657317'
p265
tp266
a(S'Stone Temple Pilots'
p267
S'Huckleberry Crumble'
p268
S'http://www.last.fm/music/Stone+Temple+Pilots/_/Huckleberry+Crumble'
p269
S'1275656251'
p270
tp271
a(S'Stone Temple Pilots'
p272
S'Take a Load Off'
p273
S'http://www.last.fm/music/Stone+Temple+Pilots/_/Take+a+Load+Off'
p274
S'1275656054'
p275
tp276
a(S'Alice Cooper'
p277
S'Lost in America'
p278
S'http://www.last.fm/music/Alice+Cooper/_/Lost+in+America'
p279
S'1275655863'
p280
tp281
a(S'Stone Temple Pilots'
p282
S'Take a Load Off'
p283
S'http://www.last.fm/music/Stone+Temple+Pilots/_/Take+a+Load+Off'
p284
S'1275603057'
p285
tp286
a(S'Stone Temple Pilots'
p287
S'Hickory Dichotomy'
p288
S'http://www.last.fm/music/Stone+Temple+Pilots/_/Hickory+Dichotomy'
p289
S'1275602821'
p290
tp291
a(S'Black Sabbath'
p292
S'Planet Caravan'
p293
S'http://www.last.fm/music/Black+Sabbath/_/Planet+Caravan'
p294
S'1275602617'
p295
tp296
a(S'Stone Temple Pilots'
p297
S'Huckleberry Crumble'
p298
S'http://www.last.fm/music/Stone+Temple+Pilots/_/Huckleberry+Crumble'
p299
S'1275602392'
p300
tp301
a(S'Stone Temple Pilots'
p302
S'Art School Girl'
p303
S'http://www.last.fm/music/Stone+Temple+Pilots/_/Art+School+Girl'
p304
S'1275602193'
p305
tp306
a(S'Ozzy Osbourne'
p307
S'The Ultimate Sin'
p308
S'http://www.last.fm/music/Ozzy+Osbourne/_/The+Ultimate+Sin'
p309
S'1275601978'
p310
tp311
a(S'Jamiroquai'
p312
S'Starchild'
p313
S'http://www.last.fm/music/Jamiroquai/_/Starchild'
p314
S'1275601741'
p315
tp316
a(S'Audioslave'
p317
S'Light My Way'
p318
S'http://www.last.fm/music/Audioslave/_/Light+My+Way'
p319
S'1275601430'
p320
tp321
a(S'Alice Cooper'
p322
S'Spirits Rebellious'
p323
S'http://www.last.fm/music/Alice+Cooper/_/Spirits+Rebellious'
p324
S'1275601127'
p325
tp326
a(S'Velvet Revolver'
p327
S'Gas and a Dollar Laugh'
p328
S'http://www.last.fm/music/Velvet+Revolver/_/Gas+and+a+Dollar+Laugh'
p329
S'1275600912'
p330
tp331
a(S'Metallica'
p332
S'Wherever I May Roam'
p333
S'http://www.last.fm/music/Metallica/_/Wherever+I+May+Roam'
p334
S'1275600714'
p335
tp336
a(S'Live'
p337
S'The Sanctity Of Dreams'
p338
S'http://www.last.fm/music/Live/_/The+Sanctity+Of+Dreams'
p339
S'1275600300'
p340
tp341
a(S'Iron Maiden'
p342
S'Another Life'
p343
S'http://www.last.fm/music/Iron+Maiden/_/Another+Life'
p344
S'1275600087'
p345
tp346
a(S'AC/DC'
p347
S'High Voltage'
p348
S'http://www.last.fm/music/AC%2FDC/_/High+Voltage'
p349
S'1275599884'
p350
tp351
a(S'Alice in Chains'
p352
S'Down in a Hole'
p353
S'http://www.last.fm/music/Alice+in+Chains/_/Down+in+a+Hole'
p354
S'1275599579'
p355
tp356
a(S'Live'
p357
S'Nobody Knows'
p358
S'http://www.last.fm/music/Live/_/Nobody+Knows'
p359
S'1275599233'
p360
tp361
a(S'Yes'
p362
S'Changes'
p363
S'http://www.last.fm/music/Yes/_/Changes'
p364
S'1275598966'
p365
tp366
a(S'Stone Temple Pilots'
p367
S'Art School Girl'
p368
S'http://www.last.fm/music/Stone+Temple+Pilots/_/Art+School+Girl'
p369
S'1275598579'
p370
tp371
a(S'Ozzy Osbourne'
p372
S'The Ultimate Sin'
p373
S'http://www.last.fm/music/Ozzy+Osbourne/_/The+Ultimate+Sin'
p374
S'1275598363'
p375
tp376
a(S'Black Sabbath'
p377
S'Planet Caravan'
p378
S'http://www.last.fm/music/Black+Sabbath/_/Planet+Caravan'
p379
S'1275598044'
p380
tp381
a(S'Stone Temple Pilots'
p382
S'Huckleberry Crumble'
p383
S'http://www.last.fm/music/Stone+Temple+Pilots/_/Huckleberry+Crumble'
p384
S'1275597770'
p385
tp386
a(S'Black Sabbath'
p387
S'Planet Caravan'
p388
S'http://www.last.fm/music/Black+Sabbath/_/Planet+Caravan'
p389
S'1275597513'
p390
tp391
a(S'Stone Temple Pilots'
p392
S'Huckleberry Crumble'
p393
S'http://www.last.fm/music/Stone+Temple+Pilots/_/Huckleberry+Crumble'
p394
S'1275597239'
p395
tp396
a(S'Led Zeppelin'
p397
S'Whole Lotta Love'
p398
S'http://www.last.fm/music/Led+Zeppelin/_/Whole+Lotta+Love'
p399
S'1275597043'
p400
tp401
a(S'Ozzy Osbourne'
p402
S'Perry Mason'
p403
S'http://www.last.fm/music/Ozzy+Osbourne/_/Perry+Mason'
p404
S'1275596709'
p405
tp406
a(S'Queens of the Stone Age'
p407
S"You Think I Ain't Worth a Dollar, But I Feel Like a Millionaire"
p408
S'http://www.last.fm/music/Queens+of+the+Stone+Age/_/You+Think+I+Ain%27t+Worth+a+Dollar,+But+I+Feel+Like+a+Millionaire'
p409
S'1275596356'
p410
tp411
a(S'Soundgarden'
p412
S'Mailman'
p413
S'http://www.last.fm/music/Soundgarden/_/Mailman'
p414
S'1275596147'
p415
tp416
a(S'Lynyrd Skynyrd'
p417
S'Preacher Man'
p418
S'http://www.last.fm/music/Lynyrd+Skynyrd/_/Preacher+Man'
p419
S'1275595879'
p420
tp421
a(S'AC/DC'
p422
S'Live Wire'
p423
S'http://www.last.fm/music/AC%2FDC/_/Live+Wire'
p424
S'1275595583'
p425
tp426
a(S'Queen'
p427
S'Radio Ga Ga'
p428
S'http://www.last.fm/music/Queen/_/Radio+Ga+Ga'
p429
S'1275595201'
p430
tp431
a(S'Alice in Chains'
p432
S'Lesson Learned'
p433
S'http://www.last.fm/music/Alice+in+Chains/_/Lesson+Learned'
p434
S'1275594852'
p435
tp436
a(S'Velvet Revolver'
p437
S'Set Me Free'
p438
S'http://www.last.fm/music/Velvet+Revolver/_/Set+Me+Free'
p439
S'1275594401'
p440
tp441
a(S'Daft Punk'
p442
S'Harder, Better, Faster, Stronger'
p443
S'http://www.last.fm/music/Daft+Punk/_/Harder,+Better,+Faster,+Stronger'
p444
S'1275594277'
p445
tp446
a(S'Daft Punk'
p447
S'Digital Love'
p448
S'http://www.last.fm/music/Daft+Punk/_/Digital+Love'
p449
S'1275594039'
p450
tp451
a(S'ZZ Top'
p452
S'Vincent Price Blues'
p453
S'http://www.last.fm/music/ZZ+Top/_/Vincent+Price+Blues'
p454
S'1275593738'
p455
tp456
a(S'Live'
p457
S'Take My Anthem'
p458
S'http://www.last.fm/music/Live/_/Take+My+Anthem'
p459
S'1275593480'
p460
tp461
a(S'ZZ Top'
p462
S'Cherry Red'
p463
S'http://www.last.fm/music/ZZ+Top/_/Cherry+Red'
p464
S'1275593149'
p465
tp466
a(S'Stone Temple Pilots'
p467
S'Hickory Dichotomy (Live from Chicago)'
p468
S'http://www.last.fm/music/Stone+Temple+Pilots/_/Hickory+Dichotomy+(Live+from+Chicago)'
p469
S'1275592852'
p470
tp471
a(S'Audioslave'
p472
S'Set It Off'
p473
S'http://www.last.fm/music/Audioslave/_/Set+It+Off'
p474
S'1275592652'
p475
tp476
a(S'Stone Temple Pilots'
p477
S'Take a Load Off'
p478
S'http://www.last.fm/music/Stone+Temple+Pilots/_/Take+a+Load+Off'
p479
S'1275592373'
p480
tp481
a(S'Nirvana'
p482
S'In Bloom'
p483
S'http://www.last.fm/music/Nirvana/_/In+Bloom'
p484
S'1275592166'
p485
tp486
a(S'Stone Temple Pilots'
p487
S'"Unglued"'
p488
S'http://www.last.fm/music/Stone+Temple+Pilots/_/%22Unglued%22'
p489
S'1275591934'
p490
tp491
a(S'Alice Cooper'
p492
S'Lost in America'
p493
S'http://www.last.fm/music/Alice+Cooper/_/Lost+in+America'
p494
S'1275591780'
p495
tp496
a(S'Stone Temple Pilots'
p497
S'Take a Load Off'
p498
S'http://www.last.fm/music/Stone+Temple+Pilots/_/Take+a+Load+Off'
p499
S'1275591546'
p500
tp501
a(S'Stone Temple Pilots'
p502
S'Huckleberry Crumble'
p503
S'http://www.last.fm/music/Stone+Temple+Pilots/_/Huckleberry+Crumble'
p504
S'1275591347'
p505
tp506
a(S'Blues Traveler'
p507
S'Stand'
p508
S'http://www.last.fm/music/Blues+Traveler/_/Stand'
p509
S'1275591150'
p510
tp511
a(S'The Cult'
p512
S'She Sells Sanctuary'
p513
S'http://www.last.fm/music/The+Cult/_/She+Sells+Sanctuary'
p514
S'1275590831'
p515
tp516
a(S'Garbage'
p517
S'Special'
p518
S'http://www.last.fm/music/Garbage/_/Special'
p519
S'1275590577'
p520
tp521
a(S'Live'
p522
S'Call Me A Fool'
p523
S'http://www.last.fm/music/Live/_/Call+Me+A+Fool'
p524
S'1275590349'
p525
tp526
a(S'Stone Temple Pilots'
p527
S'Art School Girl'
p528
S'http://www.last.fm/music/Stone+Temple+Pilots/_/Art+School+Girl'
p529
S'1275590185'
p530
tp531
a(S'Ozzy Osbourne'
p532
S'The Ultimate Sin'
p533
S'http://www.last.fm/music/Ozzy+Osbourne/_/The+Ultimate+Sin'
p534
S'1275589969'
p535
tp536
a(S'Them Crooked Vultures'
p537
S'Mind Eraser, No Chaser'
p538
S'http://www.last.fm/music/Them+Crooked+Vultures/_/Mind+Eraser,+No+Chaser'
p539
S'1275576360'
p540
tp541
a(S'Iron Maiden'
p542
S'Caught Somewhere In Time'
p543
S'http://www.last.fm/music/Iron+Maiden/_/Caught+Somewhere+In+Time'
p544
S'1275576105'
p545
tp546
a(S'Them Crooked Vultures'
p547
S'Gunman'
p548
S'http://www.last.fm/music/Them+Crooked+Vultures/_/Gunman'
p549
S'1275575658'
p550
tp551
a(S'Bon Jovi'
p552
S'Keep the Faith'
p553
S'http://www.last.fm/music/Bon+Jovi/_/Keep+the+Faith'
p554
S'1275575363'
p555
tp556
a(S'Jerry Cantrell'
p557
S'Dickeye'
p558
S'http://www.last.fm/music/Jerry+Cantrell/_/Dickeye'
p559
S'1275575013'
p560
tp561
a(S'Rainbow'
p562
S'Lady Of The Lake'
p563
S'http://www.last.fm/music/Rainbow/_/Lady+Of+The+Lake'
p564
S'1275574710'
p565
tp566
a(S'The Cult'
p567
S'Love Removal Machine'
p568
S'http://www.last.fm/music/The+Cult/_/Love+Removal+Machine'
p569
S'1275574491'
p570
tp571
a(S'Velvet Revolver'
p572
S'Dirty Little Thing'
p573
S'http://www.last.fm/music/Velvet+Revolver/_/Dirty+Little+Thing'
p574
S'1275574233'
p575
tp576
a(S'Judas Priest'
p577
S'Turbo Lover'
p578
S'http://www.last.fm/music/Judas+Priest/_/Turbo+Lover'
p579
S'1275573995'
p580
tp581
a(S'Stone Temple Pilots'
p582
S'Art School Girl'
p583
S'http://www.last.fm/music/Stone+Temple+Pilots/_/Art+School+Girl'
p584
S'1275573562'
p585
tp586
a(S'Ozzy Osbourne'
p587
S'The Ultimate Sin'
p588
S'http://www.last.fm/music/Ozzy+Osbourne/_/The+Ultimate+Sin'
p589
S'1275573346'
p590
tp591
a(S'Nirvana'
p592
S'Breed'
p593
S'http://www.last.fm/music/Nirvana/_/Breed'
p594
S'1275573054'
p595
tp596
a(S'Them Crooked Vultures'
p597
S'Mind Eraser, No Chaser'
p598
S'http://www.last.fm/music/Them+Crooked+Vultures/_/Mind+Eraser,+No+Chaser'
p599
S'1275572866'
p600
tp601
a(S'Ozzy Osbourne'
p602
S'Shot in the Dark'
p603
S'http://www.last.fm/music/Ozzy+Osbourne/_/Shot+in+the+Dark'
p604
S'1275572619'
p605
tp606
a(S'Stone Temple Pilots'
p607
S'Huckleberry Crumble'
p608
S'http://www.last.fm/music/Stone+Temple+Pilots/_/Huckleberry+Crumble'
p609
S'1275572472'
p610
tp611
a(S'Alice Cooper'
p612
S'Sideshow'
p613
S'http://www.last.fm/music/Alice+Cooper/_/Sideshow'
p614
S'1275572272'
p615
tp616
a(S'Live'
p617
S'Sweet Release'
p618
S'http://www.last.fm/music/Live/_/Sweet+Release'
p619
S'1275571858'
p620
tp621
a(S'ZZ Top'
p622
S'Loaded'
p623
S'http://www.last.fm/music/ZZ+Top/_/Loaded'
p624
S'1275571676'
p625
tp626
a(S'Soundgarden'
p627
S'Superunknown'
p628
S'http://www.last.fm/music/Soundgarden/_/Superunknown'
p629
S'1275571448'
p630
tp631
a(S'Alice in Chains'
p632
S'Grind'
p633
S'http://www.last.fm/music/Alice+in+Chains/_/Grind'
p634
S'1275571135'
p635
tp636
a(S'Stone Temple Pilots'
p637
S'Hickory Dichotomy'
p638
S'http://www.last.fm/music/Stone+Temple+Pilots/_/Hickory+Dichotomy'
p639
S'1275570849'
p640
tp641
a(S'Stone Temple Pilots'
p642
S'Take a Load Off'
p643
S'http://www.last.fm/music/Stone+Temple+Pilots/_/Take+a+Load+Off'
p644
S'1275570628'
p645
tp646
a(S'Black Sabbath'
p647
S'Planet Caravan'
p648
S'http://www.last.fm/music/Black+Sabbath/_/Planet+Caravan'
p649
S'1275570438'
p650
tp651
a(S'Stone Temple Pilots'
p652
S'Huckleberry Crumble'
p653
S'http://www.last.fm/music/Stone+Temple+Pilots/_/Huckleberry+Crumble'
p654
S'1275570240'
p655
tp656
a(S'Live'
p657
S'Mirror Song'
p658
S'http://www.last.fm/music/Live/_/Mirror+Song'
p659
S'1275570036'
p660
tp661
a(S'Iron Maiden'
p662
S'The Evil That Men Do'
p663
S'http://www.last.fm/music/Iron+Maiden/_/The+Evil+That+Men+Do'
p664
S'1275569818'
p665
tp666
a(S'Queen'
p667
S"Don't Stop Me Now"
p668
S'http://www.last.fm/music/Queen/_/Don%27t+Stop+Me+Now'
p669
S'1275569540'
p670
tp671
a(S'The Cult'
p672
S'Wild Flower'
p673
S'http://www.last.fm/music/The+Cult/_/Wild+Flower'
p674
S'1275569331'
p675
tp676
a(S'Stone Temple Pilots'
p677
S'Huckleberry Crumble'
p678
S'http://www.last.fm/music/Stone+Temple+Pilots/_/Huckleberry+Crumble'
p679
S'1275568989'
p680
tp681
a(S'Stone Temple Pilots'
p682
S'Huckleberry Crumble'
p683
S'http://www.last.fm/music/Stone+Temple+Pilots/_/Huckleberry+Crumble'
p684
S'1275568352'
p685
tp686
a(S'Stone Temple Pilots'
p687
S'Art School Girl'
p688
S'http://www.last.fm/music/Stone+Temple+Pilots/_/Art+School+Girl'
p689
S'1275568128'
p690
tp691
a(S'Ozzy Osbourne'
p692
S'The Ultimate Sin'
p693
S'http://www.last.fm/music/Ozzy+Osbourne/_/The+Ultimate+Sin'
p694
S'1275567913'
p695
tp696
a(S'Iron Maiden'
p697
S'Prodigal Son'
p698
S'http://www.last.fm/music/Iron+Maiden/_/Prodigal+Son'
p699
S'1275511092'
p700
tp701
a(S'Alice in Chains'
p702
S'Junkhead'
p703
S'http://www.last.fm/music/Alice+in+Chains/_/Junkhead'
p704
S'1275510687'
p705
tp706
a(S'Alice in Chains'
p707
S'Hate to Feel'
p708
S'http://www.last.fm/music/Alice+in+Chains/_/Hate+to+Feel'
p709
S'1275510378'
p710
tp711
a(S'Ozzy Osbourne'
p712
S'Shot in the Dark'
p713
S'http://www.last.fm/music/Ozzy+Osbourne/_/Shot+in+the+Dark'
p714
S'1275510094'
p715
tp716
a(S'Velvet Revolver'
p717
S'Money'
p718
S'http://www.last.fm/music/Velvet+Revolver/_/Money'
p719
S'1275509789'
p720
tp721
a(S'Daft Punk'
p722
S'Digital Love'
p723
S'http://www.last.fm/music/Daft+Punk/_/Digital+Love'
p724
S'1275509446'
p725
tp726
a(S'Velvet Revolver'
p727
S'Money'
p728
S'http://www.last.fm/music/Velvet+Revolver/_/Money'
p729
S'1275509077'
p730
tp731
a(S'Daft Punk'
p732
S'Digital Love'
p733
S'http://www.last.fm/music/Daft+Punk/_/Digital+Love'
p734
S'1275508734'
p735
tp736
a(S'Queens of the Stone Age'
p737
S"3's & 7's"
p738
S'http://www.last.fm/music/Queens+of+the+Stone+Age/_/3%27s+&+7%27s'
p739
S'1275508424'
p740
tp741
a(S'Metallica'
p742
S'Pulling Teeth'
p743
S'http://www.last.fm/music/Metallica/_/Pulling+Teeth'
p744
S'1275508193'
p745
tp746
a(S'Black Sabbath'
p747
S'Megalomania'
p748
S'http://www.last.fm/music/Black+Sabbath/_/Megalomania'
p749
S'1275507939'
p750
tp751
a(S'Nirvana'
p752
S'The Man Who Sold the World'
p753
S'http://www.last.fm/music/Nirvana/_/The+Man+Who+Sold+the+World'
p754
S'1275507335'
p755
tp756
a(S'Nirvana'
p757
S"Jesus Doesn't Want Me For A Sunbeam"
p758
S'http://www.last.fm/music/Nirvana/_/Jesus+Doesn%27t+Want+Me+For+A+Sunbeam'
p759
S'1275507071'
p760
tp761
a(S'Soundgarden'
p762
S'Half'
p763
S'http://www.last.fm/music/Soundgarden/_/Half'
p764
S'1275506686'
p765
tp766
a(S'Lynyrd Skynyrd'
p767
S'Preacher Man'
p768
S'http://www.last.fm/music/Lynyrd+Skynyrd/_/Preacher+Man'
p769
S'1275506553'
p770
tp771
a(S'Queens of the Stone Age'
p772
S"You Think I Ain't Worth a Dollar, But I Feel Like a Millionaire"
p773
S'http://www.last.fm/music/Queens+of+the+Stone+Age/_/You+Think+I+Ain%27t+Worth+a+Dollar,+But+I+Feel+Like+a+Millionaire'
p774
S'1275506236'
p775
tp776
a(S'Nirvana'
p777
S'Breed'
p778
S'http://www.last.fm/music/Nirvana/_/Breed'
p779
S'1275505979'
p780
tp781
a(S'Live'
p782
S'Sparkle'
p783
S'http://www.last.fm/music/Live/_/Sparkle'
p784
S'1275505790'
p785
tp786
a(S'Judas Priest'
p787
S'Reckless'
p788
S'http://www.last.fm/music/Judas+Priest/_/Reckless'
p789
S'1275505515'
p790
tp791
a(S'Iron Maiden'
p792
S'Caught Somewhere In Time'
p793
S'http://www.last.fm/music/Iron+Maiden/_/Caught+Somewhere+In+Time'
p794
S'1275505255'
p795
tp796
a(S'AC/DC'
p797
S'Little Lover'
p798
S'http://www.last.fm/music/AC%2FDC/_/Little+Lover'
p799
S'1275504774'
p800
tp801
a(S'Bee Gees'
p802
S'E.S.P.'
p803
S'http://www.last.fm/music/Bee+Gees/_/E.S.P.'
p804
S'1275504431'
p805
tp806
a(S'Alice in Chains'
p807
S'Your Decision'
p808
S'http://www.last.fm/music/Alice+in+Chains/_/Your+Decision'
p809
S'1275504065'
p810
tp811
a(S'Live'
p812
S'Sweet Release'
p813
S'http://www.last.fm/music/Live/_/Sweet+Release'
p814
S'1275503781'
p815
tp816
a(S'ZZ Top'
p817
S'Cherry Red'
p818
S'http://www.last.fm/music/ZZ+Top/_/Cherry+Red'
p819
S'1275503576'
p820
tp821
a(S'Stone Temple Pilots'
p822
S'Hickory Dichotomy'
p823
S'http://www.last.fm/music/Stone+Temple+Pilots/_/Hickory+Dichotomy'
p824
S'1275503262'
p825
tp826
a(S'Audioslave'
p827
S'Like A Stone'
p828
S'http://www.last.fm/music/Audioslave/_/Like+A+Stone'
p829
S'1275503059'
p830
tp831
a(S'Jamiroquai'
p832
S'2001'
p833
S'http://www.last.fm/music/Jamiroquai/_/2001'
p834
S'1275502765'
p835
tp836
a(S'Them Crooked Vultures'
p837
S'Mind Eraser, No Chaser'
p838
S'http://www.last.fm/music/Them+Crooked+Vultures/_/Mind+Eraser,+No+Chaser'
p839
S'1275502448'
p840
tp841
a(S'Soundgarden'
p842
S'My Wave'
p843
S'http://www.last.fm/music/Soundgarden/_/My+Wave'
p844
S'1275502163'
p845
tp846
a(S'Jamiroquai'
p847
S'You Give Me Something'
p848
S'http://www.last.fm/music/Jamiroquai/_/You+Give+Me+Something'
p849
S'1275501501'
p850
tp851
a(S'Alice Cooper'
p852
S'Novocaine'
p853
S'http://www.last.fm/music/Alice+Cooper/_/Novocaine'
p854
S'1275501295'
p855
tp856
a(S'Nirvana'
p857
S'Frances Farmer Will Have Her Revenge On Seattle'
p858
S'http://www.last.fm/music/Nirvana/_/Frances+Farmer+Will+Have+Her+Revenge+On+Seattle'
p859
S'1275501107'
p860
tp861
a(S'Velvet Revolver'
p862
S'She Mine'
p863
S'http://www.last.fm/music/Velvet+Revolver/_/She+Mine'
p864
S'1275500860'
p865
tp866
a(S'Live'
p867
S'Selling The Drama'
p868
S'http://www.last.fm/music/Live/_/Selling+The+Drama'
p869
S'1275500655'
p870
tp871
a(S'Jerry Cantrell'
p872
S'Dickeye'
p873
S'http://www.last.fm/music/Jerry+Cantrell/_/Dickeye'
p874
S'1275500449'
p875
tp876
a(S'Iron Maiden'
p877
S'Deja Vu'
p878
S'http://www.last.fm/music/Iron+Maiden/_/Deja+Vu'
p879
S'1275500146'
p880
tp881
a(S'The Rolling Stones'
p882
S'Hearts For Sale'
p883
S'http://www.last.fm/music/The+Rolling+Stones/_/Hearts+For+Sale'
p884
S'1275499850'
p885
tp886
a(S'Stone Temple Pilots'
p887
S'Church on Tuesday'
p888
S'http://www.last.fm/music/Stone+Temple+Pilots/_/Church+on+Tuesday'
p889
S'1275499569'
p890
tp891
a(S'Stone Temple Pilots'
p892
S'Bi-Polar Bear'
p893
S'http://www.last.fm/music/Stone+Temple+Pilots/_/Bi-Polar+Bear'
p894
S'1275499388'
p895
tp896
a(S'Stone Temple Pilots'
p897
S'Hickory Dichotomy'
p898
S'http://www.last.fm/music/Stone+Temple+Pilots/_/Hickory+Dichotomy'
p899
S'1275490622'
p900
tp901
a(S'Audioslave'
p902
S'Like A Stone'
p903
S'http://www.last.fm/music/Audioslave/_/Like+A+Stone'
p904
S'1275490420'
p905
tp906
a(S'Jamiroquai'
p907
S'2001'
p908
S'http://www.last.fm/music/Jamiroquai/_/2001'
p909
S'1275490126'
p910
tp911
a(S'Them Crooked Vultures'
p912
S'Mind Eraser, No Chaser'
p913
S'http://www.last.fm/music/Them+Crooked+Vultures/_/Mind+Eraser,+No+Chaser'
p914
S'1275489808'
p915
tp916
a(S'Metallica'
p917
S'Of Wolf and Man'
p918
S'http://www.last.fm/music/Metallica/_/Of+Wolf+and+Man'
p919
S'1275489061'
p920
tp921
a(S'Audioslave'
p922
S'Your Time Has Come'
p923
S'http://www.last.fm/music/Audioslave/_/Your+Time+Has+Come'
p924
S'1275488780'
p925
tp926
a(S'The Rolling Stones'
p927
S'Slipping Away'
p928
S'http://www.last.fm/music/The+Rolling+Stones/_/Slipping+Away'
p929
S'1275487822'
p930
tp931
a(S'Live'
p932
S'Lightning Crashes'
p933
S'http://www.last.fm/music/Live/_/Lightning+Crashes'
p934
S'1275487458'
p935
tp936
a(S'Stone Temple Pilots'
p937
S'Huckleberry Crumble'
p938
S'http://www.last.fm/music/Stone+Temple+Pilots/_/Huckleberry+Crumble'
p939
S'1275487132'
p940
tp941
a(S'Nirvana'
p942
S'Hairspray Queen'
p943
S'http://www.last.fm/music/Nirvana/_/Hairspray+Queen'
p944
S'1275486743'
p945
tp946
a(S'Ozzy Osbourne'
p947
S'The Ultimate Sin'
p948
S'http://www.last.fm/music/Ozzy+Osbourne/_/The+Ultimate+Sin'
p949
S'1275486489'
p950
tp951
a(S'Jerry Cantrell'
p952
S'Cut You In'
p953
S'http://www.last.fm/music/Jerry+Cantrell/_/Cut+You+In'
p954
S'1275486244'
p955
tp956
a(S'Live'
p957
S'She'
p958
S'http://www.last.fm/music/Live/_/She'
p959
S'1275486043'
p960
tp961
a(S'Alice in Chains'
p962
S'Real Thing'
p963
S'http://www.last.fm/music/Alice+in+Chains/_/Real+Thing'
p964
S'1275485882'
p965
tp966
a(S'Led Zeppelin'
p967
S'Moby Dick'
p968
S'http://www.last.fm/music/Led+Zeppelin/_/Moby+Dick'
p969
S'1275485639'
p970
tp971
a(S'Alice in Chains'
p972
S'Bleed the Freak'
p973
S'http://www.last.fm/music/Alice+in+Chains/_/Bleed+the+Freak'
p974
S'1275485441'
p975
tp976
a(S'Alice in Chains'
p977
S'Hate to Feel'
p978
S'http://www.last.fm/music/Alice+in+Chains/_/Hate+to+Feel'
p979
S'1275485199'
p980
tp981
a(S'Ozzy Osbourne'
p982
S'Shot in the Dark'
p983
S'http://www.last.fm/music/Ozzy+Osbourne/_/Shot+in+the+Dark'
p984
S'1275484916'
p985
tp986
a(S'Metallica'
p987
S'The Struggle Within'
p988
S'http://www.last.fm/music/Metallica/_/The+Struggle+Within'
p989
S'1275483701'
p990
tp991
a(S'Metallica'
p992
S'Hit the Lights'
p993
S'http://www.last.fm/music/Metallica/_/Hit+the+Lights'
p994
S'1275483209'
p995
tp996
a(S'Yes'
p997
S'Changes'
p998
S'http://www.last.fm/music/Yes/_/Changes'
p999
S'1275482952'
p1000
tp1001
a.