(lp1
(S'Foreigner'
p2
S'Cold as Ice'
p3
S'http://www.last.fm/music/Foreigner/_/Cold+as+Ice'
p4
S'1380912030'
p5
tp6
a(S'Linkin Park'
p7
S'New Divide'
p8
S'http://www.last.fm/music/Linkin+Park/_/New+Divide'
p9
S'1380911757'
p10
tp11
a(S'Monster Magnet'
p12
S'Space Lord'
p13
S'http://www.last.fm/music/Monster+Magnet/_/Space+Lord'
p14
S'1380911401'
p15
tp16
a(S'Scorpions'
p17
S'Big City Nights'
p18
S'http://www.last.fm/music/Scorpions/_/Big+City+Nights'
p19
S'1380911151'
p20
tp21
a(S'Judas Priest'
p22
S'Reckless'
p23
S'http://www.last.fm/music/Judas+Priest/_/Reckless'
p24
S'1380910892'
p25
tp26
a(S'Foreigner'
p27
S'Double Vision'
p28
S'http://www.last.fm/music/Foreigner/_/Double+Vision'
p29
S'1380908404'
p30
tp31
a(S'Yes'
p32
S'Changes'
p33
S'http://www.last.fm/music/Yes/_/Changes'
p34
S'1380908025'
p35
tp36
a(S'Beastie Boys'
p37
S'Intergalactic'
p38
S'http://www.last.fm/music/Beastie+Boys/_/Intergalactic'
p39
S'1380907794'
p40
tp41
a(S'Velvet Revolver'
p42
S'You Got No Right'
p43
S'http://www.last.fm/music/Velvet+Revolver/_/You+Got+No+Right'
p44
S'1380907459'
p45
tp46
a(S'Wesley Willis'
p47
S'Rock n Roll McDonalds'
p48
S'http://www.last.fm/music/Wesley+Willis/_/Rock+n+Roll+McDonalds'
p49
S'1380907312'
p50
tp51
a(S'Judas Priest'
p52
S'Locked In'
p53
S'http://www.last.fm/music/Judas+Priest/_/Locked+In'
p54
S'1380907052'
p55
tp56
a(S'Wesley Willis'
p57
S'Feel the Power of Rock & Roll'
p58
S'http://www.last.fm/music/Wesley+Willis/_/Feel+the+Power+of+Rock+&+Roll'
p59
S'1380906911'
p60
tp61
a(S'Them Crooked Vultures'
p62
S'Mind Eraser, No Chaser'
p63
S'http://www.last.fm/music/Them+Crooked+Vultures/_/Mind+Eraser,+No+Chaser'
p64
S'1380900526'
p65
tp66
a(S'Velvet Revolver'
p67
S'Headspace'
p68
S'http://www.last.fm/music/Velvet+Revolver/_/Headspace'
p69
S'1380900100'
p70
tp71
a(S'Beastie Boys'
p72
S"So What'cha Want"
p73
S'http://www.last.fm/music/Beastie+Boys/_/So+What%27cha+Want'
p74
S'1380899880'
p75
tp76
a(S'Judas Priest'
p77
S'Hot for Love'
p78
S'http://www.last.fm/music/Judas+Priest/_/Hot+for+Love'
p79
S'1380899401'
p80
tp81
a(S'Velvet Revolver'
p82
S'Superhuman'
p83
S'http://www.last.fm/music/Velvet+Revolver/_/Superhuman'
p84
S'1380899147'
p85
tp86
a(S"Class of '99"
p87
S'Another Brick in the Wall, Part 2'
p88
S'http://www.last.fm/music/Class+of+%2799/_/Another+Brick+in+the+Wall,+Part+2'
p89
S'1380898887'
p90
tp91
a(S'Beastie Boys'
p92
S'Triple Trouble'
p93
S'http://www.last.fm/music/Beastie+Boys/_/Triple+Trouble'
p94
S'1380898722'
p95
tp96
a(S'Velvet Revolver'
p97
S'She Builds Quick Machines'
p98
S'http://www.last.fm/music/Velvet+Revolver/_/She+Builds+Quick+Machines'
p99
S'1380898480'
p100
tp101
a(S'Them Crooked Vultures'
p102
S'Dead End Friends'
p103
S'http://www.last.fm/music/Them+Crooked+Vultures/_/Dead+End+Friends'
p104
S'1380898285'
p105
tp106
a(S'Foreigner'
p107
S'Cold as Ice'
p108
S'http://www.last.fm/music/Foreigner/_/Cold+as+Ice'
p109
S'1380898086'
p110
tp111
a(S'Linkin Park'
p112
S'New Divide'
p113
S'http://www.last.fm/music/Linkin+Park/_/New+Divide'
p114
S'1380897817'
p115
tp116
a(S'Monster Magnet'
p117
S'Space Lord'
p118
S'http://www.last.fm/music/Monster+Magnet/_/Space+Lord'
p119
S'1380897462'
p120
tp121
a(S'Judas Priest'
p122
S'Reckless'
p123
S'http://www.last.fm/music/Judas+Priest/_/Reckless'
p124
S'1380896885'
p125
tp126
a(S'Foreigner'
p127
S'Double Vision'
p128
S'http://www.last.fm/music/Foreigner/_/Double+Vision'
p129
S'1380896246'
p130
tp131
a(S'Yes'
p132
S'Changes'
p133
S'http://www.last.fm/music/Yes/_/Changes'
p134
S'1380895866'
p135
tp136
a(S'Beastie Boys'
p137
S'Intergalactic'
p138
S'http://www.last.fm/music/Beastie+Boys/_/Intergalactic'
p139
S'1380895636'
p140
tp141
a(S'Velvet Revolver'
p142
S'You Got No Right'
p143
S'http://www.last.fm/music/Velvet+Revolver/_/You+Got+No+Right'
p144
S'1380895301'
p145
tp146
a(S'Wesley Willis'
p147
S'Rock n Roll McDonalds'
p148
S'http://www.last.fm/music/Wesley+Willis/_/Rock+n+Roll+McDonalds'
p149
S'1380895154'
p150
tp151
a(S'Judas Priest'
p152
S'Locked In'
p153
S'http://www.last.fm/music/Judas+Priest/_/Locked+In'
p154
S'1380894895'
p155
tp156
a(S'Wesley Willis'
p157
S'Feel the Power of Rock & Roll'
p158
S'http://www.last.fm/music/Wesley+Willis/_/Feel+the+Power+of+Rock+&+Roll'
p159
S'1380894753'
p160
tp161
a(S'Them Crooked Vultures'
p162
S'Mind Eraser, No Chaser'
p163
S'http://www.last.fm/music/Them+Crooked+Vultures/_/Mind+Eraser,+No+Chaser'
p164
S'1380894503'
p165
tp166
a(S'Velvet Revolver'
p167
S'Headspace'
p168
S'http://www.last.fm/music/Velvet+Revolver/_/Headspace'
p169
S'1380894281'
p170
tp171
a(S'Beastie Boys'
p172
S"So What'cha Want"
p173
S'http://www.last.fm/music/Beastie+Boys/_/So+What%27cha+Want'
p174
S'1380894062'
p175
tp176
a(S'Foreigner'
p177
S'Double Vision'
p178
S'http://www.last.fm/music/Foreigner/_/Double+Vision'
p179
S'1380893063'
p180
tp181
a(S'Yes'
p182
S'Changes'
p183
S'http://www.last.fm/music/Yes/_/Changes'
p184
S'1380828349'
p185
tp186
a(S'Wesley Willis'
p187
S'Feel the Power of Rock & Roll'
p188
S'http://www.last.fm/music/Wesley+Willis/_/Feel+the+Power+of+Rock+&+Roll'
p189
S'1380816180'
p190
tp191
a(S'Scorpions'
p192
S'Big City Nights'
p193
S'http://www.last.fm/music/Scorpions/_/Big+City+Nights'
p194
S'1380815931'
p195
tp196
a(S'Judas Priest'
p197
S'Reckless'
p198
S'http://www.last.fm/music/Judas+Priest/_/Reckless'
p199
S'1380815671'
p200
tp201
a(S'Judas Priest'
p202
S'Locked In'
p203
S'http://www.last.fm/music/Judas+Priest/_/Locked+In'
p204
S'1380810328'
p205
tp206
a(S'Judas Priest'
p207
S'Hot for Love'
p208
S'http://www.last.fm/music/Judas+Priest/_/Hot+for+Love'
p209
S'1380810075'
p210
tp211
a(S'Velvet Revolver'
p212
S'You Got No Right'
p213
S'http://www.last.fm/music/Velvet+Revolver/_/You+Got+No+Right'
p214
S'1380808361'
p215
tp216
a(S'Foreigner'
p217
S'Cold as Ice'
p218
S'http://www.last.fm/music/Foreigner/_/Cold+as+Ice'
p219
S'1380808160'
p220
tp221
a(S'Velvet Revolver'
p222
S'She Builds Quick Machines'
p223
S'http://www.last.fm/music/Velvet+Revolver/_/She+Builds+Quick+Machines'
p224
S'1380807917'
p225
tp226
a(S'Linkin Park'
p227
S'New Divide'
p228
S'http://www.last.fm/music/Linkin+Park/_/New+Divide'
p229
S'1380807646'
p230
tp231
a(S'Velvet Revolver'
p232
S'Superhuman'
p233
S'http://www.last.fm/music/Velvet+Revolver/_/Superhuman'
p234
S'1380807391'
p235
tp236
a(S'Velvet Revolver'
p237
S'Headspace'
p238
S'http://www.last.fm/music/Velvet+Revolver/_/Headspace'
p239
S'1380807072'
p240
tp241
a(S"Class of '99"
p242
S'Another Brick in the Wall, Part 2'
p243
S'http://www.last.fm/music/Class+of+%2799/_/Another+Brick+in+the+Wall,+Part+2'
p244
S'1380806453'
p245
tp246
a(S'Foreigner'
p247
S'Cold as Ice'
p248
S'http://www.last.fm/music/Foreigner/_/Cold+as+Ice'
p249
S'1380806145'
p250
tp251
a(S'Velvet Revolver'
p252
S'She Builds Quick Machines'
p253
S'http://www.last.fm/music/Velvet+Revolver/_/She+Builds+Quick+Machines'
p254
S'1380805902'
p255
tp256
a(S'Linkin Park'
p257
S'New Divide'
p258
S'http://www.last.fm/music/Linkin+Park/_/New+Divide'
p259
S'1380743983'
p260
tp261
a(S'Velvet Revolver'
p262
S'Superhuman'
p263
S'http://www.last.fm/music/Velvet+Revolver/_/Superhuman'
p264
S'1380743728'
p265
tp266
a(S'Velvet Revolver'
p267
S'Headspace'
p268
S'http://www.last.fm/music/Velvet+Revolver/_/Headspace'
p269
S'1380743503'
p270
tp271
a(S"Class of '99"
p272
S'Another Brick in the Wall, Part 2'
p273
S'http://www.last.fm/music/Class+of+%2799/_/Another+Brick+in+the+Wall,+Part+2'
p274
S'1380743245'
p275
tp276
a(S'Them Crooked Vultures'
p277
S'Dead End Friends'
p278
S'http://www.last.fm/music/Them+Crooked+Vultures/_/Dead+End+Friends'
p279
S'1380743049'
p280
tp281
a(S'Them Crooked Vultures'
p282
S'Mind Eraser, No Chaser'
p283
S'http://www.last.fm/music/Them+Crooked+Vultures/_/Mind+Eraser,+No+Chaser'
p284
S'1380742800'
p285
tp286
a(S'Wesley Willis'
p287
S'Rock n Roll McDonalds'
p288
S'http://www.last.fm/music/Wesley+Willis/_/Rock+n+Roll+McDonalds'
p289
S'1380742653'
p290
tp291
a(S'Beastie Boys'
p292
S'Intergalactic'
p293
S'http://www.last.fm/music/Beastie+Boys/_/Intergalactic'
p294
S'1380742421'
p295
tp296
a(S'Beastie Boys'
p297
S"So What'cha Want"
p298
S'http://www.last.fm/music/Beastie+Boys/_/So+What%27cha+Want'
p299
S'1380742203'
p300
tp301
a(S'Monster Magnet'
p302
S'Space Lord'
p303
S'http://www.last.fm/music/Monster+Magnet/_/Space+Lord'
p304
S'1380741848'
p305
tp306
a(S'Beastie Boys'
p307
S'Triple Trouble'
p308
S'http://www.last.fm/music/Beastie+Boys/_/Triple+Trouble'
p309
S'1380741685'
p310
tp311
a(S'Yes'
p312
S'Changes'
p313
S'http://www.last.fm/music/Yes/_/Changes'
p314
S'1380741305'
p315
tp316
a(S'Wesley Willis'
p317
S'Feel the Power of Rock & Roll'
p318
S'http://www.last.fm/music/Wesley+Willis/_/Feel+the+Power+of+Rock+&+Roll'
p319
S'1380741164'
p320
tp321
a(S'Beastie Boys'
p322
S'Paul Revere'
p323
S'http://www.last.fm/music/Beastie+Boys/_/Paul+Revere'
p324
S'1380740991'
p325
tp326
a(S'Beastie Boys'
p327
S'Intergalactic'
p328
S'http://www.last.fm/music/Beastie+Boys/_/Intergalactic'
p329
S'1380740761'
p330
tp331
a(S'Beastie Boys'
p332
S"So What'cha Want"
p333
S'http://www.last.fm/music/Beastie+Boys/_/So+What%27cha+Want'
p334
S'1380740543'
p335
tp336
a(S'Beastie Boys'
p337
S'Triple Trouble'
p338
S'http://www.last.fm/music/Beastie+Boys/_/Triple+Trouble'
p339
S'1380740381'
p340
tp341
a(S'Beastie Boys'
p342
S'Paul Revere'
p343
S'http://www.last.fm/music/Beastie+Boys/_/Paul+Revere'
p344
S'1380740201'
p345
tp346
a(S'Beastie Boys'
p347
S'Intergalactic'
p348
S'http://www.last.fm/music/Beastie+Boys/_/Intergalactic'
p349
S'1380739970'
p350
tp351
a(S'Beastie Boys'
p352
S"So What'cha Want"
p353
S'http://www.last.fm/music/Beastie+Boys/_/So+What%27cha+Want'
p354
S'1380739751'
p355
tp356
a(S'Beastie Boys'
p357
S'Triple Trouble'
p358
S'http://www.last.fm/music/Beastie+Boys/_/Triple+Trouble'
p359
S'1380739587'
p360
tp361
a(S'Jerry Cantrell'
p362
S'Anger Rising'
p363
S'http://www.last.fm/music/Jerry+Cantrell/_/Anger+Rising'
p364
S'1380307599'
p365
tp366
a(S'Audioslave'
p367
S'Light My Way'
p368
S'http://www.last.fm/music/Audioslave/_/Light+My+Way'
p369
S'1380307292'
p370
tp371
a(S'Audioslave'
p372
S'Exploder'
p373
S'http://www.last.fm/music/Audioslave/_/Exploder'
p374
S'1380307044'
p375
tp376
a(S'Daft Punk'
p377
S'Beyond'
p378
S'http://www.last.fm/music/Daft+Punk/_/Beyond'
p379
S'1380306633'
p380
tp381
a(S'Jerry Cantrell'
p382
S'Anger Rising'
p383
S'http://www.last.fm/music/Jerry+Cantrell/_/Anger+Rising'
p384
S'1380304977'
p385
tp386
a(S'Beastie Boys'
p387
S"So What'cha Want"
p388
S'http://www.last.fm/music/Beastie+Boys/_/So+What%27cha+Want'
p389
S'1380304757'
p390
tp391
a(S'Queens of the Stone Age'
p392
S'If I Had a Tail'
p393
S'http://www.last.fm/music/Queens+of+the+Stone+Age/_/If+I+Had+a+Tail'
p394
S'1380304257'
p395
tp396
a(S'Daft Punk'
p397
S'Instant Crush (feat. Julian Casablancas)'
p398
S'http://www.last.fm/music/Daft+Punk/_/Instant+Crush+(feat.+Julian+Casablancas)'
p399
S'1380303913'
p400
tp401
a(S'N.A.S.A.'
p402
S"Strange Enough (feat. Karen O, Ol' Dirty Bastard & Fatlip)"
p403
S'http://www.last.fm/music/N.A.S.A./_/Strange+Enough+(feat.+Karen+O,+Ol%27+Dirty+Bastard+&+Fatlip)'
p404
S'1380303657'
p405
tp406
a(S'Jerry Cantrell'
p407
S'Angel Eyes'
p408
S'http://www.last.fm/music/Jerry+Cantrell/_/Angel+Eyes'
p409
S'1380303370'
p410
tp411
a(S'Alice in Chains'
p412
S'Scalpel'
p413
S'http://www.last.fm/music/Alice+in+Chains/_/Scalpel'
p414
S'1380302145'
p415
tp416
a(S'Soundgarden'
p417
S'Attrition'
p418
S'http://www.last.fm/music/Soundgarden/_/Attrition'
p419
S'1380301970'
p420
tp421
a(S'Queens of the Stone Age'
p422
S'Smooth Sailing'
p423
S'http://www.last.fm/music/Queens+of+the+Stone+Age/_/Smooth+Sailing'
p424
S'1380301675'
p425
tp426
a(S'Live'
p427
S'The Distance'
p428
S'http://www.last.fm/music/Live/_/The+Distance'
p429
S'1380301435'
p430
tp431
a(S'Alice Cooper'
p432
S"Nothing's Free"
p433
S'http://www.last.fm/music/Alice+Cooper/_/Nothing%27s+Free'
p434
S'1380301129'
p435
tp436
a(S'Heart'
p437
S'Stairway to Heaven (Live At The Kennedy Center Honors)'
p438
S'http://www.last.fm/music/Heart/_/Stairway+to+Heaven+(Live+At+The+Kennedy+Center+Honors)'
p439
S'1380300646'
p440
tp441
a(S'Heart'
p442
S'Alone'
p443
S'http://www.last.fm/music/Heart/_/Alone'
p444
S'1380300425'
p445
tp446
a(S'Audioslave'
p447
S'Exploder'
p448
S'http://www.last.fm/music/Audioslave/_/Exploder'
p449
S'1380300215'
p450
tp451
a(S'Queens of the Stone Age'
p452
S'Smooth Sailing'
p453
S'http://www.last.fm/music/Queens+of+the+Stone+Age/_/Smooth+Sailing'
p454
S'1380299763'
p455
tp456
a(S'Heart'
p457
S'Alone'
p458
S'http://www.last.fm/music/Heart/_/Alone'
p459
S'1380299539'
p460
tp461
a(S'Alice Cooper'
p462
S"Nothing's Free"
p463
S'http://www.last.fm/music/Alice+Cooper/_/Nothing%27s+Free'
p464
S'1380299010'
p465
tp466
a(S'Beastie Boys'
p467
S"So What'cha Want"
p468
S'http://www.last.fm/music/Beastie+Boys/_/So+What%27cha+Want'
p469
S'1380298624'
p470
tp471
a(S'Alice in Chains'
p472
S'Scalpel'
p473
S'http://www.last.fm/music/Alice+in+Chains/_/Scalpel'
p474
S'1380298299'
p475
tp476
a(S'Daft Punk'
p477
S'Beyond'
p478
S'http://www.last.fm/music/Daft+Punk/_/Beyond'
p479
S'1380298005'
p480
tp481
a(S'The Smiths'
p482
S'There Is a Light That Never Goes Out'
p483
S'http://www.last.fm/music/The+Smiths/_/There+Is+a+Light+That+Never+Goes+Out'
p484
S'1380297757'
p485
tp486
a(S'Jerry Cantrell'
p487
S'Angel Eyes'
p488
S'http://www.last.fm/music/Jerry+Cantrell/_/Angel+Eyes'
p489
S'1380293383'
p490
tp491
a(S'Jerry Cantrell'
p492
S'Angel Eyes'
p493
S'http://www.last.fm/music/Jerry+Cantrell/_/Angel+Eyes'
p494
S'1380292178'
p495
tp496
a(S'Eric Clapton'
p497
S'Over The Rainbow (Live)'
p498
S'http://www.last.fm/music/Eric+Clapton/_/Over+The+Rainbow+(Live)'
p499
S'1380290843'
p500
tp501
a(S'Eric Clapton'
p502
S'No Alibis'
p503
S'http://www.last.fm/music/Eric+Clapton/_/No+Alibis'
p504
S'1380290502'
p505
tp506
a(S'Eric Clapton'
p507
S'Every Little Thing'
p508
S'http://www.last.fm/music/Eric+Clapton/_/Every+Little+Thing'
p509
S'1380290223'
p510
tp511
a(S'Eric Clapton'
p512
S'Traveling Riverside Blues'
p513
S'http://www.last.fm/music/Eric+Clapton/_/Traveling+Riverside+Blues'
p514
S'1380289950'
p515
tp516
a(S'Eric Clapton'
p517
S"My Father's Eyes"
p518
S'http://www.last.fm/music/Eric+Clapton/_/My+Father%27s+Eyes'
p519
S'1380289624'
p520
tp521
a(S'Eric Clapton'
p522
S'Mean Old Frisco'
p523
S'http://www.last.fm/music/Eric+Clapton/_/Mean+Old+Frisco'
p524
S'1380289338'
p525
tp526
a(S'Eric Clapton'
p527
S'The Core'
p528
S'http://www.last.fm/music/Eric+Clapton/_/The+Core'
p529
S'1380288807'
p530
tp531
a(S'Eric Clapton'
p532
S"Travelin' Light"
p533
S'http://www.last.fm/music/Eric+Clapton/_/Travelin%27+Light'
p534
S'1380288292'
p535
tp536
a(S'Eric Clapton'
p537
S"I've Got A Rock 'N' Roll Heart"
p538
S'http://www.last.fm/music/Eric+Clapton/_/I%27ve+Got+A+Rock+%27N%27+Roll+Heart'
p539
S'1380288096'
p540
tp541
a(S'Eric Clapton'
p542
S'Let It Grow'
p543
S'http://www.last.fm/music/Eric+Clapton/_/Let+It+Grow'
p544
S'1380287690'
p545
tp546
a(S'Jerry Cantrell'
p547
S'Angel Eyes'
p548
S'http://www.last.fm/music/Jerry+Cantrell/_/Angel+Eyes'
p549
S'1380224436'
p550
tp551
a(S'Alice in Chains'
p552
S'Breath on a Window'
p553
S'http://www.last.fm/music/Alice+in+Chains/_/Breath+on+a+Window'
p554
S'1380224113'
p555
tp556
a(S'Soundgarden'
p557
S'Attrition'
p558
S'http://www.last.fm/music/Soundgarden/_/Attrition'
p559
S'1380223936'
p560
tp561
a(S'Heart'
p562
S'Alone'
p563
S'http://www.last.fm/music/Heart/_/Alone'
p564
S'1380223714'
p565
tp566
a(S'The Smiths'
p567
S'There Is a Light That Never Goes Out'
p568
S'http://www.last.fm/music/The+Smiths/_/There+Is+a+Light+That+Never+Goes+Out'
p569
S'1380223466'
p570
tp571
a(S'Queens of the Stone Age'
p572
S'If I Had a Tail'
p573
S'http://www.last.fm/music/Queens+of+the+Stone+Age/_/If+I+Had+a+Tail'
p574
S'1380222965'
p575
tp576
a(S'Alice Cooper'
p577
S"Nothing's Free"
p578
S'http://www.last.fm/music/Alice+Cooper/_/Nothing%27s+Free'
p579
S'1380222660'
p580
tp581
a(S'Jerry Cantrell'
p582
S'Anger Rising'
p583
S'http://www.last.fm/music/Jerry+Cantrell/_/Anger+Rising'
p584
S'1380222282'
p585
tp586
a(S'Alice in Chains'
p587
S'Scalpel'
p588
S'http://www.last.fm/music/Alice+in+Chains/_/Scalpel'
p589
S'1380221956'
p590
tp591
a(S'Queens of the Stone Age'
p592
S'Smooth Sailing'
p593
S'http://www.last.fm/music/Queens+of+the+Stone+Age/_/Smooth+Sailing'
p594
S'1380221661'
p595
tp596
a(S'Jerry Cantrell'
p597
S'Angel Eyes'
p598
S'http://www.last.fm/music/Jerry+Cantrell/_/Angel+Eyes'
p599
S'1380221370'
p600
tp601
a(S'Soundgarden'
p602
S'Attrition'
p603
S'http://www.last.fm/music/Soundgarden/_/Attrition'
p604
S'1380220646'
p605
tp606
a(S'Heart'
p607
S'Alone'
p608
S'http://www.last.fm/music/Heart/_/Alone'
p609
S'1380220425'
p610
tp611
a(S'Heart'
p612
S'Stairway to Heaven (Live At The Kennedy Center Honors)'
p613
S'http://www.last.fm/music/Heart/_/Stairway+to+Heaven+(Live+At+The+Kennedy+Center+Honors)'
p614
S'1380220411'
p615
tp616
a(S'Queens of the Stone Age'
p617
S'If I Had a Tail'
p618
S'http://www.last.fm/music/Queens+of+the+Stone+Age/_/If+I+Had+a+Tail'
p619
S'1380212473'
p620
tp621
a(S'Alice Cooper'
p622
S"Nothing's Free"
p623
S'http://www.last.fm/music/Alice+Cooper/_/Nothing%27s+Free'
p624
S'1380212243'
p625
tp626
a(S'Alice in Chains'
p627
S'Scalpel'
p628
S'http://www.last.fm/music/Alice+in+Chains/_/Scalpel'
p629
S'1380205685'
p630
tp631
a(S'Queens of the Stone Age'
p632
S'Smooth Sailing'
p633
S'http://www.last.fm/music/Queens+of+the+Stone+Age/_/Smooth+Sailing'
p634
S'1380205390'
p635
tp636
a(S'Jerry Cantrell'
p637
S'Angel Eyes'
p638
S'http://www.last.fm/music/Jerry+Cantrell/_/Angel+Eyes'
p639
S'1380205099'
p640
tp641
a(S'Heart'
p642
S'Alone'
p643
S'http://www.last.fm/music/Heart/_/Alone'
p644
S'1380204860'
p645
tp646
a(S'Heart'
p647
S'Stairway to Heaven (Live At The Kennedy Center Honors)'
p648
S'http://www.last.fm/music/Heart/_/Stairway+to+Heaven+(Live+At+The+Kennedy+Center+Honors)'
p649
S'1380203592'
p650
tp651
a(S'Queens of the Stone Age'
p652
S'If I Had a Tail'
p653
S'http://www.last.fm/music/Queens+of+the+Stone+Age/_/If+I+Had+a+Tail'
p654
S'1380203358'
p655
tp656
a(S'Alice Cooper'
p657
S"Nothing's Free"
p658
S'http://www.last.fm/music/Alice+Cooper/_/Nothing%27s+Free'
p659
S'1380202826'
p660
tp661
a(S'Jerry Cantrell'
p662
S'Angel Eyes'
p663
S'http://www.last.fm/music/Jerry+Cantrell/_/Angel+Eyes'
p664
S'1380200375'
p665
tp666
a(S'Alice in Chains'
p667
S'Breath on a Window'
p668
S'http://www.last.fm/music/Alice+in+Chains/_/Breath+on+a+Window'
p669
S'1380200052'
p670
tp671
a(S'Soundgarden'
p672
S'Attrition'
p673
S'http://www.last.fm/music/Soundgarden/_/Attrition'
p674
S'1380199877'
p675
tp676
a(S'Heart'
p677
S'Alone'
p678
S'http://www.last.fm/music/Heart/_/Alone'
p679
S'1380199654'
p680
tp681
a(S'The Smiths'
p682
S'There Is a Light That Never Goes Out'
p683
S'http://www.last.fm/music/The+Smiths/_/There+Is+a+Light+That+Never+Goes+Out'
p684
S'1380199406'
p685
tp686
a(S'Heart'
p687
S'Stairway to Heaven (Live At The Kennedy Center Honors)'
p688
S'http://www.last.fm/music/Heart/_/Stairway+to+Heaven+(Live+At+The+Kennedy+Center+Honors)'
p689
S'1380198925'
p690
tp691
a(S'Queens of the Stone Age'
p692
S'If I Had a Tail'
p693
S'http://www.last.fm/music/Queens+of+the+Stone+Age/_/If+I+Had+a+Tail'
p694
S'1380198623'
p695
tp696
a(S'Alice Cooper'
p697
S"Nothing's Free"
p698
S'http://www.last.fm/music/Alice+Cooper/_/Nothing%27s+Free'
p699
S'1380198092'
p700
tp701
a(S'Jerry Cantrell'
p702
S'Anger Rising'
p703
S'http://www.last.fm/music/Jerry+Cantrell/_/Anger+Rising'
p704
S'1380197535'
p705
tp706
a(S'Alice in Chains'
p707
S'Scalpel'
p708
S'http://www.last.fm/music/Alice+in+Chains/_/Scalpel'
p709
S'1380197211'
p710
tp711
a(S'Queens of the Stone Age'
p712
S'Smooth Sailing'
p713
S'http://www.last.fm/music/Queens+of+the+Stone+Age/_/Smooth+Sailing'
p714
S'1380196884'
p715
tp716
a(S'Jerry Cantrell'
p717
S'Angel Eyes'
p718
S'http://www.last.fm/music/Jerry+Cantrell/_/Angel+Eyes'
p719
S'1380062003'
p720
tp721
a(S'Soundgarden'
p722
S'Attrition'
p723
S'http://www.last.fm/music/Soundgarden/_/Attrition'
p724
S'1380061577'
p725
tp726
a(S'Queens of the Stone Age'
p727
S'If I Had a Tail'
p728
S'http://www.last.fm/music/Queens+of+the+Stone+Age/_/If+I+Had+a+Tail'
p729
S'1380061281'
p730
tp731
a(S'Heart'
p732
S'Alone'
p733
S'http://www.last.fm/music/Heart/_/Alone'
p734
S'1380061061'
p735
tp736
a(S'Alice in Chains'
p737
S'Scalpel'
p738
S'http://www.last.fm/music/Alice+in+Chains/_/Scalpel'
p739
S'1380060739'
p740
tp741
a(S'Alice Cooper'
p742
S"Nothing's Free"
p743
S'http://www.last.fm/music/Alice+Cooper/_/Nothing%27s+Free'
p744
S'1380060437'
p745
tp746
a(S'Queens of the Stone Age'
p747
S'Smooth Sailing'
p748
S'http://www.last.fm/music/Queens+of+the+Stone+Age/_/Smooth+Sailing'
p749
S'1380060144'
p750
tp751
a(S'Alice in Chains'
p752
S'Breath on a Window'
p753
S'http://www.last.fm/music/Alice+in+Chains/_/Breath+on+a+Window'
p754
S'1380059252'
p755
tp756
a(S'The Smiths'
p757
S'There Is a Light That Never Goes Out'
p758
S'http://www.last.fm/music/The+Smiths/_/There+Is+a+Light+That+Never+Goes+Out'
p759
S'1380059005'
p760
tp761
a(S'Jerry Cantrell'
p762
S'Angel Eyes'
p763
S'http://www.last.fm/music/Jerry+Cantrell/_/Angel+Eyes'
p764
S'1380057217'
p765
tp766
a(S'Jerry Cantrell'
p767
S'Angel Eyes'
p768
S'http://www.last.fm/music/Jerry+Cantrell/_/Angel+Eyes'
p769
S'1380056919'
p770
tp771
a(S'Jerry Cantrell'
p772
S'Anger Rising'
p773
S'http://www.last.fm/music/Jerry+Cantrell/_/Anger+Rising'
p774
S'1380047569'
p775
tp776
a(S'Heart'
p777
S'Stairway to Heaven (Live At The Kennedy Center Honors)'
p778
S'http://www.last.fm/music/Heart/_/Stairway+to+Heaven+(Live+At+The+Kennedy+Center+Honors)'
p779
S'1380045814'
p780
tp781
a(S'Soundgarden'
p782
S'Attrition'
p783
S'http://www.last.fm/music/Soundgarden/_/Attrition'
p784
S'1380045639'
p785
tp786
a(S'Queens of the Stone Age'
p787
S'If I Had a Tail'
p788
S'http://www.last.fm/music/Queens+of+the+Stone+Age/_/If+I+Had+a+Tail'
p789
S'1380045341'
p790
tp791
a(S'Heart'
p792
S'Alone'
p793
S'http://www.last.fm/music/Heart/_/Alone'
p794
S'1380045121'
p795
tp796
a(S'Alice in Chains'
p797
S'Scalpel'
p798
S'http://www.last.fm/music/Alice+in+Chains/_/Scalpel'
p799
S'1380044799'
p800
tp801
a(S'Alice Cooper'
p802
S"Nothing's Free"
p803
S'http://www.last.fm/music/Alice+Cooper/_/Nothing%27s+Free'
p804
S'1380044499'
p805
tp806
a(S'Queens of the Stone Age'
p807
S'Smooth Sailing'
p808
S'http://www.last.fm/music/Queens+of+the+Stone+Age/_/Smooth+Sailing'
p809
S'1380043820'
p810
tp811
a(S'Alice in Chains'
p812
S'Breath on a Window'
p813
S'http://www.last.fm/music/Alice+in+Chains/_/Breath+on+a+Window'
p814
S'1380043269'
p815
tp816
a(S'The Smiths'
p817
S'There Is a Light That Never Goes Out'
p818
S'http://www.last.fm/music/The+Smiths/_/There+Is+a+Light+That+Never+Goes+Out'
p819
S'1380039239'
p820
tp821
a(S'Eric Clapton'
p822
S'Promises'
p823
S'http://www.last.fm/music/Eric+Clapton/_/Promises'
p824
S'1379079833'
p825
tp826
a(S'The Temptations'
p827
S"Papa Was a Rollin' Stone"
p828
S'http://www.last.fm/music/The+Temptations/_/Papa+Was+a+Rollin%27+Stone'
p829
S'1379079418'
p830
tp831
a(S'Daft Punk'
p832
S'Beyond'
p833
S'http://www.last.fm/music/Daft+Punk/_/Beyond'
p834
S'1379079085'
p835
tp836
a(S'Whitesnake'
p837
S'The Deeper The Love'
p838
S'http://www.last.fm/music/Whitesnake/_/The+Deeper+The+Love'
p839
S'1379078827'
p840
tp841
a(S'Judas Priest'
p842
S'Locked In'
p843
S'http://www.last.fm/music/Judas+Priest/_/Locked+In'
p844
S'1379078568'
p845
tp846
a(S'Alice in Chains'
p847
S'Lab Monkey'
p848
S'http://www.last.fm/music/Alice+in+Chains/_/Lab+Monkey'
p849
S'1379078210'
p850
tp851
a(S'Diamond Head'
p852
S'Muddy Waters'
p853
S'http://www.last.fm/music/Diamond+Head/_/Muddy+Waters'
p854
S'1379073220'
p855
tp856
a(S'Heart'
p857
S'Crazy on You'
p858
S'http://www.last.fm/music/Heart/_/Crazy+on+You'
p859
S'1379072928'
p860
tp861
a(S'Derek and the Dominos'
p862
S'Layla'
p863
S'http://www.last.fm/music/Derek+and+the+Dominos/_/Layla'
p864
S'1379072498'
p865
tp866
a(S'Alice in Chains'
p867
S'Scalpel'
p868
S'http://www.last.fm/music/Alice+in+Chains/_/Scalpel'
p869
S'1379072177'
p870
tp871
a(S'Clutch'
p872
S'Tripping the Alarm'
p873
S'http://www.last.fm/music/Clutch/_/Tripping+the+Alarm'
p874
S'1378914410'
p875
tp876
a(S'Interpol'
p877
S'Lights'
p878
S'http://www.last.fm/music/Interpol/_/Lights'
p879
S'1378914068'
p880
tp881
a(S'Kings of Leon'
p882
S'Crawl'
p883
S'http://www.last.fm/music/Kings+of+Leon/_/Crawl'
p884
S'1378913818'
p885
tp886
a(S'Red Fang'
p887
S'Sharks'
p888
S'http://www.last.fm/music/Red+Fang/_/Sharks'
p889
S'1378913599'
p890
tp891
a(S'Stone Temple Pilots'
p892
S'Still Remains'
p893
S'http://www.last.fm/music/Stone+Temple+Pilots/_/Still+Remains'
p894
S'1378913381'
p895
tp896
a(S'Dozer'
p897
S'Let the Shit Roll'
p898
S'http://www.last.fm/music/Dozer/_/Let+the+Shit+Roll'
p899
S'1378913215'
p900
tp901
a(S'The Black Keys'
p902
S'Thickfreakness'
p903
S'http://www.last.fm/music/The+Black+Keys/_/Thickfreakness'
p904
S'1378912983'
p905
tp906
a(S'Mondo Generator'
p907
S'All The Way Down'
p908
S'http://www.last.fm/music/Mondo+Generator/_/All+The+Way+Down'
p909
S'1378912804'
p910
tp911
a(S'The Dillinger Escape Plan'
p912
S'Endless Endings'
p913
S'http://www.last.fm/music/The+Dillinger+Escape+Plan/_/Endless+Endings'
p914
S'1378912647'
p915
tp916
a(S'Baroness'
p917
S'Cocainium'
p918
S'http://www.last.fm/music/Baroness/_/Cocainium'
p919
S'1378912325'
p920
tp921
a(S'Masters of Reality'
p922
S"Doraldina's Prophecies"
p923
S'http://www.last.fm/music/Masters+of+Reality/_/Doraldina%27s+Prophecies'
p924
S'1378911992'
p925
tp926
a(S'Tool'
p927
S'Cold and Ugly (live)'
p928
S'http://www.last.fm/music/Tool/_/Cold+and+Ugly+(live)'
p929
S'1378911741'
p930
tp931
a(S'Beaver'
p932
S"Infinity's Blacksmith"
p933
S'http://www.last.fm/music/Beaver/_/Infinity%27s+Blacksmith'
p934
S'1378911403'
p935
tp936
a(S'Stone Temple Pilots'
p937
S'Lady Picture Show'
p938
S'http://www.last.fm/music/Stone+Temple+Pilots/_/Lady+Picture+Show'
p939
S'1378911151'
p940
tp941
a(S'Mondo Generator'
p942
S"Meth, I Hear You Callin'"
p943
S'http://www.last.fm/music/Mondo+Generator/_/Meth,+I+Hear+You+Callin%27'
p944
S'1378911074'
p945
tp946
a(S'Red Hot Chili Peppers'
p947
S'Desecration Smile'
p948
S'http://www.last.fm/music/Red+Hot+Chili+Peppers/_/Desecration+Smile'
p949
S'1378910769'
p950
tp951
a(S'Slo Burn'
p952
S'July'
p953
S'http://www.last.fm/music/Slo+Burn/_/July'
p954
S'1378910475'
p955
tp956
a(S'Fu Manchu'
p957
S'Sleestak'
p958
S'http://www.last.fm/music/Fu+Manchu/_/Sleestak'
p959
S'1378910249'
p960
tp961
a(S'Red Fang'
p962
S'Prehistoric Dog'
p963
S'http://www.last.fm/music/Red+Fang/_/Prehistoric+Dog'
p964
S'1378909978'
p965
tp966
a(S'Stone Temple Pilots'
p967
S'Vasoline'
p968
S'http://www.last.fm/music/Stone+Temple+Pilots/_/Vasoline'
p969
S'1378909799'
p970
tp971
a(S'Queens of the Stone Age'
p972
S'Quick and to the Pointless'
p973
S'http://www.last.fm/music/Queens+of+the+Stone+Age/_/Quick+and+to+the+Pointless'
p974
S'1378909694'
p975
tp976
a(S'Red Fang'
p977
S'The Undertow'
p978
S'http://www.last.fm/music/Red+Fang/_/The+Undertow'
p979
S'1378909384'
p980
tp981
a(S'Mondo Generator'
p982
S'I Never Sleep'
p983
S'http://www.last.fm/music/Mondo+Generator/_/I+Never+Sleep'
p984
S'1378909253'
p985
tp986
a(S'Dozer'
p987
S'Speeder'
p988
S'http://www.last.fm/music/Dozer/_/Speeder'
p989
S'1378909020'
p990
tp991
a(S'The Mars Volta'
p992
S'Cut That City'
p993
S'http://www.last.fm/music/The+Mars+Volta/_/Cut+That+City'
p994
S'1378908768'
p995
tp996
a(S'The Black Keys'
p997
S'All Hands Against His Own'
p998
S'http://www.last.fm/music/The+Black+Keys/_/All+Hands+Against+His+Own'
p999
S'1378908569'
p1000
tp1001
a.