(lp1
(S'Army Of Anyone'
p2
S'Father Figure'
p3
S'http://www.last.fm/music/Army+Of+Anyone/_/Father+Figure'
p4
S'1400157692'
p5
tp6
a(S'Stone Temple Pilots'
p7
S'Lounge Fly'
p8
S'http://www.last.fm/music/Stone+Temple+Pilots/_/Lounge+Fly'
p9
S'1400157448'
p10
tp11
a(S'Talk Show'
p12
S'Hello Hello'
p13
S'http://www.last.fm/music/Talk+Show/_/Hello+Hello'
p14
S'1400157129'
p15
tp16
a(S'Stone Temple Pilots'
p17
S"Trippin' on a Hole in a Paper Heart"
p18
S'http://www.last.fm/music/Stone+Temple+Pilots/_/Trippin%27+on+a+Hole+in+a+Paper+Heart'
p19
S'1400156951'
p20
tp21
a(S'Stone Temple Pilots'
p22
S'Huckleberry Crumble'
p23
S'http://www.last.fm/music/Stone+Temple+Pilots/_/Huckleberry+Crumble'
p24
S'1400156775'
p25
tp26
a(S'Stone Temple Pilots'
p27
S'First Kiss on Mars'
p28
S'http://www.last.fm/music/Stone+Temple+Pilots/_/First+Kiss+on+Mars'
p29
S'1400156584'
p30
tp31
a(S'Talk Show'
p32
S'End of the World'
p33
S'http://www.last.fm/music/Talk+Show/_/End+of+the+World'
p34
S'1400156400'
p35
tp36
a(S'Army Of Anyone'
p37
S'Non Stop'
p38
S'http://www.last.fm/music/Army+Of+Anyone/_/Non+Stop'
p39
S'1400156188'
p40
tp41
a(S'Stone Temple Pilots'
p42
S'Take a Load Off'
p43
S'http://www.last.fm/music/Stone+Temple+Pilots/_/Take+a+Load+Off'
p44
S'1400155949'
p45
tp46
a(S'Stone Temple Pilots'
p47
S'Pruno'
p48
S'http://www.last.fm/music/Stone+Temple+Pilots/_/Pruno'
p49
S'1400155757'
p50
tp51
a(S'Stone Temple Pilots'
p52
S'Lady Picture Show'
p53
S'http://www.last.fm/music/Stone+Temple+Pilots/_/Lady+Picture+Show'
p54
S'1400155562'
p55
tp56
a(S'Talk Show'
p57
S'Peeling an Orange'
p58
S'http://www.last.fm/music/Talk+Show/_/Peeling+an+Orange'
p59
S'1400155313'
p60
tp61
a(S'Stone Temple Pilots'
p62
S'Vasoline'
p63
S'http://www.last.fm/music/Stone+Temple+Pilots/_/Vasoline'
p64
S'1400155098'
p65
tp66
a(S'Talk Show'
p67
S'Hide'
p68
S'http://www.last.fm/music/Talk+Show/_/Hide'
p69
S'1400154921'
p70
tp71
a(S'Talk Show'
p72
S'Wash Me Down'
p73
S'http://www.last.fm/music/Talk+Show/_/Wash+Me+Down'
p74
S'1400154711'
p75
tp76
a(S'Stone Temple Pilots'
p77
S'Too Cool Queenie'
p78
S'http://www.last.fm/music/Stone+Temple+Pilots/_/Too+Cool+Queenie'
p79
S'1400095846'
p80
tp81
a(S'Stone Temple Pilots'
p82
S'Transmissions From a Lonely Room'
p83
S'http://www.last.fm/music/Stone+Temple+Pilots/_/Transmissions+From+a+Lonely+Room'
p84
S'1400095678'
p85
tp86
a(S'Army Of Anyone'
p87
S'Father Figure'
p88
S'http://www.last.fm/music/Army+Of+Anyone/_/Father+Figure'
p89
S'1400095483'
p90
tp91
a(S'Stone Temple Pilots'
p92
S'Between the Lines'
p93
S'http://www.last.fm/music/Stone+Temple+Pilots/_/Between+the+Lines'
p94
S'1400095238'
p95
tp96
a(S'Talk Show'
p97
S'Peeling an Orange'
p98
S'http://www.last.fm/music/Talk+Show/_/Peeling+an+Orange'
p99
S'1400095067'
p100
tp101
a(S'Stone Temple Pilots'
p102
S"Trippin' on a Hole in a Paper Heart"
p103
S'http://www.last.fm/music/Stone+Temple+Pilots/_/Trippin%27+on+a+Hole+in+a+Paper+Heart'
p104
S'1400094852'
p105
tp106
a(S'Stone Temple Pilots'
p107
S'Pruno'
p108
S'http://www.last.fm/music/Stone+Temple+Pilots/_/Pruno'
p109
S'1400094455'
p110
tp111
a(S'Army Of Anyone'
p112
S'A Better Place'
p113
S'http://www.last.fm/music/Army+Of+Anyone/_/A+Better+Place'
p114
S'1400094260'
p115
tp116
a(S'Stone Temple Pilots'
p117
S'Regeneration'
p118
S'http://www.last.fm/music/Stone+Temple+Pilots/_/Regeneration'
p119
S'1400093961'
p120
tp121
a(S'Stone Temple Pilots'
p122
S'Army Ants'
p123
S'http://www.last.fm/music/Stone+Temple+Pilots/_/Army+Ants'
p124
S'1400093725'
p125
tp126
a(S'Stone Temple Pilots'
p127
S'First Kiss on Mars'
p128
S'http://www.last.fm/music/Stone+Temple+Pilots/_/First+Kiss+on+Mars'
p129
S'1400093499'
p130
tp131
a(S'Stone Temple Pilots'
p132
S'Still Remains'
p133
S'http://www.last.fm/music/Stone+Temple+Pilots/_/Still+Remains'
p134
S'1400093315'
p135
tp136
a(S'Stone Temple Pilots'
p137
S'Lady Picture Show'
p138
S'http://www.last.fm/music/Stone+Temple+Pilots/_/Lady+Picture+Show'
p139
S'1400093102'
p140
tp141
a(S'Stone Temple Pilots'
p142
S'Unglued'
p143
S'http://www.last.fm/music/Stone+Temple+Pilots/_/Unglued'
p144
S'1400092853'
p145
tp146
a(S'Stone Temple Pilots'
p147
S'Vasoline'
p148
S'http://www.last.fm/music/Stone+Temple+Pilots/_/Vasoline'
p149
S'1400092605'
p150
tp151
a(S'Talk Show'
p152
S'Hide'
p153
S'http://www.last.fm/music/Talk+Show/_/Hide'
p154
S'1400092427'
p155
tp156
a(S'Army Of Anyone'
p157
S'Non Stop'
p158
S'http://www.last.fm/music/Army+Of+Anyone/_/Non+Stop'
p159
S'1400092218'
p160
tp161
a(S'Stone Temple Pilots'
p162
S'Peacoat'
p163
S'http://www.last.fm/music/Stone+Temple+Pilots/_/Peacoat'
p164
S'1400091979'
p165
tp166
a(S'Army Of Anyone'
p167
S'Generation'
p168
S'http://www.last.fm/music/Army+Of+Anyone/_/Generation'
p169
S'1400091769'
p170
tp171
a(S'Talk Show'
p172
S'John'
p173
S'http://www.last.fm/music/Talk+Show/_/John'
p174
S'1400091558'
p175
tp176
a(S'Stone Temple Pilots'
p177
S'Hickory Dichotomy'
p178
S'http://www.last.fm/music/Stone+Temple+Pilots/_/Hickory+Dichotomy'
p179
S'1400091376'
p180
tp181
a(S'Talk Show'
p182
S'Hello Hello'
p183
S'http://www.last.fm/music/Talk+Show/_/Hello+Hello'
p184
S'1400091173'
p185
tp186
a(S'Stone Temple Pilots'
p187
S'Seven Caged Tigers'
p188
S'http://www.last.fm/music/Stone+Temple+Pilots/_/Seven+Caged+Tigers'
p189
S'1400090996'
p190
tp191
a(S'Stone Temple Pilots'
p192
S'Interstate Love Song'
p193
S'http://www.last.fm/music/Stone+Temple+Pilots/_/Interstate+Love+Song'
p194
S'1400090739'
p195
tp196
a(S'Stone Temple Pilots'
p197
S'Lounge Fly'
p198
S'http://www.last.fm/music/Stone+Temple+Pilots/_/Lounge+Fly'
p199
S'1400090544'
p200
tp201
a(S'Talk Show'
p202
S'End of the World'
p203
S'http://www.last.fm/music/Talk+Show/_/End+of+the+World'
p204
S'1400090225'
p205
tp206
a(S'Stone Temple Pilots'
p207
S'Big Bang Baby'
p208
S'http://www.last.fm/music/Stone+Temple+Pilots/_/Big+Bang+Baby'
p209
S'1400090013'
p210
tp211
a(S'Stone Temple Pilots'
p212
S'Huckleberry Crumble'
p213
S'http://www.last.fm/music/Stone+Temple+Pilots/_/Huckleberry+Crumble'
p214
S'1400089809'
p215
tp216
a(S'Stone Temple Pilots'
p217
S'Silvergun Superman'
p218
S'http://www.last.fm/music/Stone+Temple+Pilots/_/Silvergun+Superman'
p219
S'1400089618'
p220
tp221
a(S'Stone Temple Pilots'
p222
S'Bi-Polar Bear'
p223
S'http://www.last.fm/music/Stone+Temple+Pilots/_/Bi-Polar+Bear'
p224
S'1400089301'
p225
tp226
a(S'Stone Temple Pilots'
p227
S'Black Again'
p228
S'http://www.last.fm/music/Stone+Temple+Pilots/_/Black+Again'
p229
S'1400088996'
p230
tp231
a(S'Stone Temple Pilots'
p232
S'Dumb Love'
p233
S'http://www.last.fm/music/Stone+Temple+Pilots/_/Dumb+Love'
p234
S'1400088790'
p235
tp236
a(S'Stone Temple Pilots'
p237
S'Too Cool Queenie'
p238
S'http://www.last.fm/music/Stone+Temple+Pilots/_/Too+Cool+Queenie'
p239
S'1400088618'
p240
tp241
a(S'Stone Temple Pilots'
p242
S'Transmissions From a Lonely Room'
p243
S'http://www.last.fm/music/Stone+Temple+Pilots/_/Transmissions+From+a+Lonely+Room'
p244
S'1400088451'
p245
tp246
a(S'Army Of Anyone'
p247
S'Father Figure'
p248
S'http://www.last.fm/music/Army+Of+Anyone/_/Father+Figure'
p249
S'1400088255'
p250
tp251
a(S'Stone Temple Pilots'
p252
S'Between the Lines'
p253
S'http://www.last.fm/music/Stone+Temple+Pilots/_/Between+the+Lines'
p254
S'1400088011'
p255
tp256
a(S'Talk Show'
p257
S'Peeling an Orange'
p258
S'http://www.last.fm/music/Talk+Show/_/Peeling+an+Orange'
p259
S'1400087840'
p260
tp261
a(S'Stone Temple Pilots'
p262
S"Trippin' on a Hole in a Paper Heart"
p263
S'http://www.last.fm/music/Stone+Temple+Pilots/_/Trippin%27+on+a+Hole+in+a+Paper+Heart'
p264
S'1400087625'
p265
tp266
a(S'Stone Temple Pilots'
p267
S'Take a Load Off'
p268
S'http://www.last.fm/music/Stone+Temple+Pilots/_/Take+a+Load+Off'
p269
S'1400087448'
p270
tp271
a(S'Stone Temple Pilots'
p272
S'Pruno'
p273
S'http://www.last.fm/music/Stone+Temple+Pilots/_/Pruno'
p274
S'1400087256'
p275
tp276
a(S'Army Of Anyone'
p277
S'A Better Place'
p278
S'http://www.last.fm/music/Army+Of+Anyone/_/A+Better+Place'
p279
S'1400087061'
p280
tp281
a(S'Stone Temple Pilots'
p282
S'Regeneration'
p283
S'http://www.last.fm/music/Stone+Temple+Pilots/_/Regeneration'
p284
S'1400086763'
p285
tp286
a(S'Stone Temple Pilots'
p287
S'First Kiss on Mars'
p288
S'http://www.last.fm/music/Stone+Temple+Pilots/_/First+Kiss+on+Mars'
p289
S'1400085858'
p290
tp291
a(S'Stone Temple Pilots'
p292
S'Still Remains'
p293
S'http://www.last.fm/music/Stone+Temple+Pilots/_/Still+Remains'
p294
S'1400085674'
p295
tp296
a(S'Stone Temple Pilots'
p297
S'Lady Picture Show'
p298
S'http://www.last.fm/music/Stone+Temple+Pilots/_/Lady+Picture+Show'
p299
S'1400085461'
p300
tp301
a(S'Stone Temple Pilots'
p302
S'Unglued'
p303
S'http://www.last.fm/music/Stone+Temple+Pilots/_/Unglued'
p304
S'1400085212'
p305
tp306
a(S'Talk Show'
p307
S'Wash Me Down'
p308
S'http://www.last.fm/music/Talk+Show/_/Wash+Me+Down'
p309
S'1400085058'
p310
tp311
a(S'Stone Temple Pilots'
p312
S'Vasoline'
p313
S'http://www.last.fm/music/Stone+Temple+Pilots/_/Vasoline'
p314
S'1400084830'
p315
tp316
a(S'Stone Temple Pilots'
p317
S'Black Again'
p318
S'http://www.last.fm/music/Stone+Temple+Pilots/_/Black+Again'
p319
S'1399587809'
p320
tp321
a(S'Army Of Anyone'
p322
S'Father Figure'
p323
S'http://www.last.fm/music/Army+Of+Anyone/_/Father+Figure'
p324
S'1399582213'
p325
tp326
a(S'Stone Temple Pilots'
p327
S'Between the Lines'
p328
S'http://www.last.fm/music/Stone+Temple+Pilots/_/Between+the+Lines'
p329
S'1399581969'
p330
tp331
a(S'Stone Temple Pilots'
p332
S'Silvergun Superman'
p333
S'http://www.last.fm/music/Stone+Temple+Pilots/_/Silvergun+Superman'
p334
S'1399581798'
p335
tp336
a(S'Stone Temple Pilots'
p337
S'Bi-Polar Bear'
p338
S'http://www.last.fm/music/Stone+Temple+Pilots/_/Bi-Polar+Bear'
p339
S'1399571496'
p340
tp341
a(S'Stone Temple Pilots'
p342
S'Vasoline'
p343
S'http://www.last.fm/music/Stone+Temple+Pilots/_/Vasoline'
p344
S'1399571191'
p345
tp346
a(S'Stone Temple Pilots'
p347
S'Seven Caged Tigers'
p348
S'http://www.last.fm/music/Stone+Temple+Pilots/_/Seven+Caged+Tigers'
p349
S'1399569902'
p350
tp351
a(S'Stone Temple Pilots'
p352
S'Still Remains'
p353
S'http://www.last.fm/music/Stone+Temple+Pilots/_/Still+Remains'
p354
S'1399569645'
p355
tp356
a(S'Stone Temple Pilots'
p357
S'Regeneration'
p358
S'http://www.last.fm/music/Stone+Temple+Pilots/_/Regeneration'
p359
S'1399569432'
p360
tp361
a(S'Stone Temple Pilots'
p362
S'Unglued'
p363
S'http://www.last.fm/music/Stone+Temple+Pilots/_/Unglued'
p364
S'1399569196'
p365
tp366
a(S'Talk Show'
p367
S'End of the World'
p368
S'http://www.last.fm/music/Talk+Show/_/End+of+the+World'
p369
S'1399569042'
p370
tp371
a(S'Talk Show'
p372
S'Wash Me Down'
p373
S'http://www.last.fm/music/Talk+Show/_/Wash+Me+Down'
p374
S'1399568829'
p375
tp376
a(S'Army Of Anyone'
p377
S'Non Stop'
p378
S'http://www.last.fm/music/Army+Of+Anyone/_/Non+Stop'
p379
S'1399568602'
p380
tp381
a(S'Stone Temple Pilots'
p382
S'Lady Picture Show'
p383
S'http://www.last.fm/music/Stone+Temple+Pilots/_/Lady+Picture+Show'
p384
S'1399568363'
p385
tp386
a(S'Stone Temple Pilots'
p387
S'Lounge Fly'
p388
S'http://www.last.fm/music/Stone+Temple+Pilots/_/Lounge+Fly'
p389
S'1399567871'
p390
tp391
a(S'Stone Temple Pilots'
p392
S'Too Cool Queenie'
p393
S'http://www.last.fm/music/Stone+Temple+Pilots/_/Too+Cool+Queenie'
p394
S'1399567552'
p395
tp396
a(S'Stone Temple Pilots'
p397
S'Army Ants'
p398
S'http://www.last.fm/music/Stone+Temple+Pilots/_/Army+Ants'
p399
S'1399567385'
p400
tp401
a(S'Stone Temple Pilots'
p402
S'Pruno'
p403
S'http://www.last.fm/music/Stone+Temple+Pilots/_/Pruno'
p404
S'1399567158'
p405
tp406
a(S'Stone Temple Pilots'
p407
S'Hickory Dichotomy'
p408
S'http://www.last.fm/music/Stone+Temple+Pilots/_/Hickory+Dichotomy'
p409
S'1399566963'
p410
tp411
a(S'Stone Temple Pilots'
p412
S'Huckleberry Crumble'
p413
S'http://www.last.fm/music/Stone+Temple+Pilots/_/Huckleberry+Crumble'
p414
S'1399566760'
p415
tp416
a(S'Talk Show'
p417
S'Hello Hello'
p418
S'http://www.last.fm/music/Talk+Show/_/Hello+Hello'
p419
S'1399566569'
p420
tp421
a(S'Stone Temple Pilots'
p422
S'Take a Load Off'
p423
S'http://www.last.fm/music/Stone+Temple+Pilots/_/Take+a+Load+Off'
p424
S'1399566392'
p425
tp426
a(S'Talk Show'
p427
S'Peeling an Orange'
p428
S'http://www.last.fm/music/Talk+Show/_/Peeling+an+Orange'
p429
S'1399557229'
p430
tp431
a(S'Stone Temple Pilots'
p432
S'Dumb Love'
p433
S'http://www.last.fm/music/Stone+Temple+Pilots/_/Dumb+Love'
p434
S'1399556303'
p435
tp436
a(S'Talk Show'
p437
S'John'
p438
S'http://www.last.fm/music/Talk+Show/_/John'
p439
S'1399556132'
p440
tp441
a(S'Army Of Anyone'
p442
S'Generation'
p443
S'http://www.last.fm/music/Army+Of+Anyone/_/Generation'
p444
S'1399555950'
p445
tp446
a(S'Stone Temple Pilots'
p447
S'Interstate Love Song'
p448
S'http://www.last.fm/music/Stone+Temple+Pilots/_/Interstate+Love+Song'
p449
S'1399555739'
p450
tp451
a(S'Stone Temple Pilots'
p452
S'Big Bang Baby'
p453
S'http://www.last.fm/music/Stone+Temple+Pilots/_/Big+Bang+Baby'
p454
S'1399555544'
p455
tp456
a(S'Stone Temple Pilots'
p457
S'Peacoat'
p458
S'http://www.last.fm/music/Stone+Temple+Pilots/_/Peacoat'
p459
S'1399555340'
p460
tp461
a(S'Stone Temple Pilots'
p462
S'Take a Load Off'
p463
S'http://www.last.fm/music/Stone+Temple+Pilots/_/Take+a+Load+Off'
p464
S'1399406645'
p465
tp466
a(S'Stone Temple Pilots'
p467
S'Army Ants'
p468
S'http://www.last.fm/music/Stone+Temple+Pilots/_/Army+Ants'
p469
S'1399406453'
p470
tp471
a(S'Talk Show'
p472
S'Peeling an Orange'
p473
S'http://www.last.fm/music/Talk+Show/_/Peeling+an+Orange'
p474
S'1399406226'
p475
tp476
a(S'Stone Temple Pilots'
p477
S'Transmissions From a Lonely Room'
p478
S'http://www.last.fm/music/Stone+Temple+Pilots/_/Transmissions+From+a+Lonely+Room'
p479
S'1399406011'
p480
tp481
a(S'Stone Temple Pilots'
p482
S'Big Bang Baby'
p483
S'http://www.last.fm/music/Stone+Temple+Pilots/_/Big+Bang+Baby'
p484
S'1399403266'
p485
tp486
a(S'Talk Show'
p487
S'John'
p488
S'http://www.last.fm/music/Talk+Show/_/John'
p489
S'1399403062'
p490
tp491
a(S'Army Of Anyone'
p492
S'Generation'
p493
S'http://www.last.fm/music/Army+Of+Anyone/_/Generation'
p494
S'1399402880'
p495
tp496
a(S'Talk Show'
p497
S'Hello Hello'
p498
S'http://www.last.fm/music/Talk+Show/_/Hello+Hello'
p499
S'1399402669'
p500
tp501
a(S'Stone Temple Pilots'
p502
S'Interstate Love Song'
p503
S'http://www.last.fm/music/Stone+Temple+Pilots/_/Interstate+Love+Song'
p504
S'1399402491'
p505
tp506
a(S'Talk Show'
p507
S'Peeling an Orange'
p508
S'http://www.last.fm/music/Talk+Show/_/Peeling+an+Orange'
p509
S'1399381353'
p510
tp511
a(S'Talk Show'
p512
S'Hide'
p513
S'http://www.last.fm/music/Talk+Show/_/Hide'
p514
S'1399380943'
p515
tp516
a(S'Stone Temple Pilots'
p517
S'Huckleberry Crumble'
p518
S'http://www.last.fm/music/Stone+Temple+Pilots/_/Huckleberry+Crumble'
p519
S'1399380733'
p520
tp521
a(S'Stone Temple Pilots'
p522
S'Take a Load Off'
p523
S'http://www.last.fm/music/Stone+Temple+Pilots/_/Take+a+Load+Off'
p524
S'1399380542'
p525
tp526
a(S'Stone Temple Pilots'
p527
S'Regeneration'
p528
S'http://www.last.fm/music/Stone+Temple+Pilots/_/Regeneration'
p529
S'1399380351'
p530
tp531
a(S'Stone Temple Pilots'
p532
S'Lounge Fly'
p533
S'http://www.last.fm/music/Stone+Temple+Pilots/_/Lounge+Fly'
p534
S'1399380115'
p535
tp536
a(S'Stone Temple Pilots'
p537
S'Bi-Polar Bear'
p538
S'http://www.last.fm/music/Stone+Temple+Pilots/_/Bi-Polar+Bear'
p539
S'1399379909'
p540
tp541
a(S'Army Of Anyone'
p542
S'Generation'
p543
S'http://www.last.fm/music/Army+Of+Anyone/_/Generation'
p544
S'1399379604'
p545
tp546
a(S'Stone Temple Pilots'
p547
S'First Kiss on Mars'
p548
S'http://www.last.fm/music/Stone+Temple+Pilots/_/First+Kiss+on+Mars'
p549
S'1399379393'
p550
tp551
a(S'Talk Show'
p552
S'Wash Me Down'
p553
S'http://www.last.fm/music/Talk+Show/_/Wash+Me+Down'
p554
S'1399379209'
p555
tp556
a(S'Stone Temple Pilots'
p557
S'Black Again'
p558
S'http://www.last.fm/music/Stone+Temple+Pilots/_/Black+Again'
p559
S'1399378982'
p560
tp561
a(S'Stone Temple Pilots'
p562
S'Bi-Polar Bear'
p563
S'http://www.last.fm/music/Stone+Temple+Pilots/_/Bi-Polar+Bear'
p564
S'1399316809'
p565
tp566
a(S'Stone Temple Pilots'
p567
S'Black Again'
p568
S'http://www.last.fm/music/Stone+Temple+Pilots/_/Black+Again'
p569
S'1399316504'
p570
tp571
a(S'Stone Temple Pilots'
p572
S'Dumb Love'
p573
S'http://www.last.fm/music/Stone+Temple+Pilots/_/Dumb+Love'
p574
S'1399316297'
p575
tp576
a(S'Stone Temple Pilots'
p577
S'Interstate Love Song'
p578
S'http://www.last.fm/music/Stone+Temple+Pilots/_/Interstate+Love+Song'
p579
S'1399316126'
p580
tp581
a(S'Stone Temple Pilots'
p582
S'Lady Picture Show'
p583
S'http://www.last.fm/music/Stone+Temple+Pilots/_/Lady+Picture+Show'
p584
S'1399315931'
p585
tp586
a(S'Stone Temple Pilots'
p587
S'Big Bang Baby'
p588
S'http://www.last.fm/music/Stone+Temple+Pilots/_/Big+Bang+Baby'
p589
S'1399315516'
p590
tp591
a(S'Stone Temple Pilots'
p592
S"Trippin' on a Hole in a Paper Heart"
p593
S'http://www.last.fm/music/Stone+Temple+Pilots/_/Trippin%27+on+a+Hole+in+a+Paper+Heart'
p594
S'1399315312'
p595
tp596
a(S'Stone Temple Pilots'
p597
S'Between the Lines'
p598
S'http://www.last.fm/music/Stone+Temple+Pilots/_/Between+the+Lines'
p599
S'1399315135'
p600
tp601
a(S'Talk Show'
p602
S'John'
p603
S'http://www.last.fm/music/Talk+Show/_/John'
p604
S'1399314964'
p605
tp606
a(S'Army Of Anyone'
p607
S'Generation'
p608
S'http://www.last.fm/music/Army+Of+Anyone/_/Generation'
p609
S'1399314782'
p610
tp611
a(S'Talk Show'
p612
S'Hello Hello'
p613
S'http://www.last.fm/music/Talk+Show/_/Hello+Hello'
p614
S'1399314571'
p615
tp616
a(S'Stone Temple Pilots'
p617
S'Peacoat'
p618
S'http://www.last.fm/music/Stone+Temple+Pilots/_/Peacoat'
p619
S'1399314446'
p620
tp621
a(S'Stone Temple Pilots'
p622
S'Hickory Dichotomy'
p623
S'http://www.last.fm/music/Stone+Temple+Pilots/_/Hickory+Dichotomy'
p624
S'1399314236'
p625
tp626
a(S'Stone Temple Pilots'
p627
S'Regeneration'
p628
S'http://www.last.fm/music/Stone+Temple+Pilots/_/Regeneration'
p629
S'1399313693'
p630
tp631
a(S'Stone Temple Pilots'
p632
S'Transmissions From a Lonely Room'
p633
S'http://www.last.fm/music/Stone+Temple+Pilots/_/Transmissions+From+a+Lonely+Room'
p634
S'1399313457'
p635
tp636
a(S'Talk Show'
p637
S'Peeling an Orange'
p638
S'http://www.last.fm/music/Talk+Show/_/Peeling+an+Orange'
p639
S'1399313262'
p640
tp641
a(S'Stone Temple Pilots'
p642
S'Seven Caged Tigers'
p643
S'http://www.last.fm/music/Stone+Temple+Pilots/_/Seven+Caged+Tigers'
p644
S'1399313046'
p645
tp646
a(S'Army Of Anyone'
p647
S'A Better Place'
p648
S'http://www.last.fm/music/Army+Of+Anyone/_/A+Better+Place'
p649
S'1399312789'
p650
tp651
a(S'Stone Temple Pilots'
p652
S'Vasoline'
p653
S'http://www.last.fm/music/Stone+Temple+Pilots/_/Vasoline'
p654
S'1399312491'
p655
tp656
a(S'Stone Temple Pilots'
p657
S'Pruno'
p658
S'http://www.last.fm/music/Stone+Temple+Pilots/_/Pruno'
p659
S'1399312313'
p660
tp661
a(S'Talk Show'
p662
S'End of the World'
p663
S'http://www.last.fm/music/Talk+Show/_/End+of+the+World'
p664
S'1399312118'
p665
tp666
a(S'Stone Temple Pilots'
p667
S'Silvergun Superman'
p668
S'http://www.last.fm/music/Stone+Temple+Pilots/_/Silvergun+Superman'
p669
S'1399311906'
p670
tp671
a(S'Stone Temple Pilots'
p672
S'Still Remains'
p673
S'http://www.last.fm/music/Stone+Temple+Pilots/_/Still+Remains'
p674
S'1399311589'
p675
tp676
a(S'Stone Temple Pilots'
p677
S'First Kiss on Mars'
p678
S'http://www.last.fm/music/Stone+Temple+Pilots/_/First+Kiss+on+Mars'
p679
S'1399311376'
p680
tp681
a(S'Army Of Anyone'
p682
S'Father Figure'
p683
S'http://www.last.fm/music/Army+Of+Anyone/_/Father+Figure'
p684
S'1399298342'
p685
tp686
a(S'Stone Temple Pilots'
p687
S'Army Ants'
p688
S'http://www.last.fm/music/Stone+Temple+Pilots/_/Army+Ants'
p689
S'1399298097'
p690
tp691
a(S'Stone Temple Pilots'
p692
S'Take a Load Off'
p693
S'http://www.last.fm/music/Stone+Temple+Pilots/_/Take+a+Load+Off'
p694
S'1399297870'
p695
tp696
a(S'Army Of Anyone'
p697
S'Non Stop'
p698
S'http://www.last.fm/music/Army+Of+Anyone/_/Non+Stop'
p699
S'1398710559'
p700
tp701
a(S'Stone Temple Pilots'
p702
S'Dumb Love'
p703
S'http://www.last.fm/music/Stone+Temple+Pilots/_/Dumb+Love'
p704
S'1398710320'
p705
tp706
a(S'Army Of Anyone'
p707
S'Generation'
p708
S'http://www.last.fm/music/Army+Of+Anyone/_/Generation'
p709
S'1398710149'
p710
tp711
a(S'Talk Show'
p712
S'Hide'
p713
S'http://www.last.fm/music/Talk+Show/_/Hide'
p714
S'1398709101'
p715
tp716
a(S'Talk Show'
p717
S'Peeling an Orange'
p718
S'http://www.last.fm/music/Talk+Show/_/Peeling+an+Orange'
p719
S'1398708892'
p720
tp721
a(S'Stone Temple Pilots'
p722
S'First Kiss on Mars'
p723
S'http://www.last.fm/music/Stone+Temple+Pilots/_/First+Kiss+on+Mars'
p724
S'1398708676'
p725
tp726
a(S'Stone Temple Pilots'
p727
S'Too Cool Queenie'
p728
S'http://www.last.fm/music/Stone+Temple+Pilots/_/Too+Cool+Queenie'
p729
S'1398708493'
p730
tp731
a(S'Stone Temple Pilots'
p732
S'Huckleberry Crumble'
p733
S'http://www.last.fm/music/Stone+Temple+Pilots/_/Huckleberry+Crumble'
p734
S'1398708325'
p735
tp736
a(S'Stone Temple Pilots'
p737
S'Interstate Love Song'
p738
S'http://www.last.fm/music/Stone+Temple+Pilots/_/Interstate+Love+Song'
p739
S'1398708134'
p740
tp741
a(S'Stone Temple Pilots'
p742
S'Hickory Dichotomy'
p743
S'http://www.last.fm/music/Stone+Temple+Pilots/_/Hickory+Dichotomy'
p744
S'1398707940'
p745
tp746
a(S'Talk Show'
p747
S'Wash Me Down'
p748
S'http://www.last.fm/music/Talk+Show/_/Wash+Me+Down'
p749
S'1398707737'
p750
tp751
a(S'Army Of Anyone'
p752
S'A Better Place'
p753
S'http://www.last.fm/music/Army+Of+Anyone/_/A+Better+Place'
p754
S'1398707510'
p755
tp756
a(S'Stone Temple Pilots'
p757
S'Silvergun Superman'
p758
S'http://www.last.fm/music/Stone+Temple+Pilots/_/Silvergun+Superman'
p759
S'1398707211'
p760
tp761
a(S'Stone Temple Pilots'
p762
S'Army Ants'
p763
S'http://www.last.fm/music/Stone+Temple+Pilots/_/Army+Ants'
p764
S'1398706894'
p765
tp766
a(S'Stone Temple Pilots'
p767
S'Lounge Fly'
p768
S'http://www.last.fm/music/Stone+Temple+Pilots/_/Lounge+Fly'
p769
S'1398706668'
p770
tp771
a(S'Stone Temple Pilots'
p772
S'Vasoline'
p773
S'http://www.last.fm/music/Stone+Temple+Pilots/_/Vasoline'
p774
S'1398706349'
p775
tp776
a(S'Talk Show'
p777
S'John'
p778
S'http://www.last.fm/music/Talk+Show/_/John'
p779
S'1398706172'
p780
tp781
a(S'Stone Temple Pilots'
p782
S'Bi-Polar Bear'
p783
S'http://www.last.fm/music/Stone+Temple+Pilots/_/Bi-Polar+Bear'
p784
S'1398705324'
p785
tp786
a(S'Stone Temple Pilots'
p787
S'Lady Picture Show'
p788
S'http://www.last.fm/music/Stone+Temple+Pilots/_/Lady+Picture+Show'
p789
S'1398705019'
p790
tp791
a(S'Stone Temple Pilots'
p792
S'Unglued'
p793
S'http://www.last.fm/music/Stone+Temple+Pilots/_/Unglued'
p794
S'1398704770'
p795
tp796
a(S'Talk Show'
p797
S'End of the World'
p798
S'http://www.last.fm/music/Talk+Show/_/End+of+the+World'
p799
S'1398704615'
p800
tp801
a(S'Stone Temple Pilots'
p802
S'Black Again'
p803
S'http://www.last.fm/music/Stone+Temple+Pilots/_/Black+Again'
p804
S'1398703950'
p805
tp806
a(S'Stone Temple Pilots'
p807
S'Peacoat'
p808
S'http://www.last.fm/music/Stone+Temple+Pilots/_/Peacoat'
p809
S'1398703283'
p810
tp811
a(S'Stone Temple Pilots'
p812
S'Pruno'
p813
S'http://www.last.fm/music/Stone+Temple+Pilots/_/Pruno'
p814
S'1398703073'
p815
tp816
a(S'Stone Temple Pilots'
p817
S'Transmissions From a Lonely Room'
p818
S'http://www.last.fm/music/Stone+Temple+Pilots/_/Transmissions+From+a+Lonely+Room'
p819
S'1398702878'
p820
tp821
a(S'Talk Show'
p822
S'Hello Hello'
p823
S'http://www.last.fm/music/Talk+Show/_/Hello+Hello'
p824
S'1398702682'
p825
tp826
a(S'Army Of Anyone'
p827
S'Father Figure'
p828
S'http://www.last.fm/music/Army+Of+Anyone/_/Father+Figure'
p829
S'1398702505'
p830
tp831
a(S'Stone Temple Pilots'
p832
S'Still Remains'
p833
S'http://www.last.fm/music/Stone+Temple+Pilots/_/Still+Remains'
p834
S'1398702260'
p835
tp836
a(S'Stone Temple Pilots'
p837
S'Regeneration'
p838
S'http://www.last.fm/music/Stone+Temple+Pilots/_/Regeneration'
p839
S'1398702047'
p840
tp841
a(S'Stone Temple Pilots'
p842
S'Take a Load Off'
p843
S'http://www.last.fm/music/Stone+Temple+Pilots/_/Take+a+Load+Off'
p844
S'1398701811'
p845
tp846
a(S'Army Of Anyone'
p847
S'Non Stop'
p848
S'http://www.last.fm/music/Army+Of+Anyone/_/Non+Stop'
p849
S'1398701620'
p850
tp851
a(S'Army Of Anyone'
p852
S'Generation'
p853
S'http://www.last.fm/music/Army+Of+Anyone/_/Generation'
p854
S'1398694545'
p855
tp856
a(S'Stone Temple Pilots'
p857
S'Seven Caged Tigers'
p858
S'http://www.last.fm/music/Stone+Temple+Pilots/_/Seven+Caged+Tigers'
p859
S'1398694334'
p860
tp861
a(S'Talk Show'
p862
S'Peeling an Orange'
p863
S'http://www.last.fm/music/Talk+Show/_/Peeling+an+Orange'
p864
S'1398693770'
p865
tp866
a(S'Stone Temple Pilots'
p867
S'Dumb Love'
p868
S'http://www.last.fm/music/Stone+Temple+Pilots/_/Dumb+Love'
p869
S'1398446737'
p870
tp871
a(S'Stone Temple Pilots'
p872
S'Big Bang Baby'
p873
S'http://www.last.fm/music/Stone+Temple+Pilots/_/Big+Bang+Baby'
p874
S'1398445365'
p875
tp876
a(S'Stone Temple Pilots'
p877
S'Black Again'
p878
S'http://www.last.fm/music/Stone+Temple+Pilots/_/Black+Again'
p879
S'1398445161'
p880
tp881
a(S'Stone Temple Pilots'
p882
S'Too Cool Queenie'
p883
S'http://www.last.fm/music/Stone+Temple+Pilots/_/Too+Cool+Queenie'
p884
S'1398444954'
p885
tp886
a(S'Talk Show'
p887
S'Hide'
p888
S'http://www.last.fm/music/Talk+Show/_/Hide'
p889
S'1398444786'
p890
tp891
a(S'Stone Temple Pilots'
p892
S'Lady Picture Show'
p893
S'http://www.last.fm/music/Stone+Temple+Pilots/_/Lady+Picture+Show'
p894
S'1398444577'
p895
tp896
a(S'Stone Temple Pilots'
p897
S'Unglued'
p898
S'http://www.last.fm/music/Stone+Temple+Pilots/_/Unglued'
p899
S'1398444328'
p900
tp901
a(S'Army Of Anyone'
p902
S'A Better Place'
p903
S'http://www.last.fm/music/Army+Of+Anyone/_/A+Better+Place'
p904
S'1398444173'
p905
tp906
a(S'Army Of Anyone'
p907
S'Generation'
p908
S'http://www.last.fm/music/Army+Of+Anyone/_/Generation'
p909
S'1398443874'
p910
tp911
a(S'Stone Temple Pilots'
p912
S'Peacoat'
p913
S'http://www.last.fm/music/Stone+Temple+Pilots/_/Peacoat'
p914
S'1398443663'
p915
tp916
a(S'Stone Temple Pilots'
p917
S'Silvergun Superman'
p918
S'http://www.last.fm/music/Stone+Temple+Pilots/_/Silvergun+Superman'
p919
S'1398443453'
p920
tp921
a(S'Stone Temple Pilots'
p922
S'Still Remains'
p923
S'http://www.last.fm/music/Stone+Temple+Pilots/_/Still+Remains'
p924
S'1398443137'
p925
tp926
a(S'Stone Temple Pilots'
p927
S'Army Ants'
p928
S'http://www.last.fm/music/Stone+Temple+Pilots/_/Army+Ants'
p929
S'1398442924'
p930
tp931
a(S'Stone Temple Pilots'
p932
S'Interstate Love Song'
p933
S'http://www.last.fm/music/Stone+Temple+Pilots/_/Interstate+Love+Song'
p934
S'1398442697'
p935
tp936
a(S'Stone Temple Pilots'
p937
S'Regeneration'
p938
S'http://www.last.fm/music/Stone+Temple+Pilots/_/Regeneration'
p939
S'1398442502'
p940
tp941
a(S'Stone Temple Pilots'
p942
S'Huckleberry Crumble'
p943
S'http://www.last.fm/music/Stone+Temple+Pilots/_/Huckleberry+Crumble'
p944
S'1398442267'
p945
tp946
a(S'Talk Show'
p947
S'John'
p948
S'http://www.last.fm/music/Talk+Show/_/John'
p949
S'1398436601'
p950
tp951
a(S'Stone Temple Pilots'
p952
S'Between the Lines'
p953
S'http://www.last.fm/music/Stone+Temple+Pilots/_/Between+the+Lines'
p954
S'1398436419'
p955
tp956
a(S'Stone Temple Pilots'
p957
S'Vasoline'
p958
S'http://www.last.fm/music/Stone+Temple+Pilots/_/Vasoline'
p959
S'1398436248'
p960
tp961
a(S'Stone Temple Pilots'
p962
S"Trippin' on a Hole in a Paper Heart"
p963
S'http://www.last.fm/music/Stone+Temple+Pilots/_/Trippin%27+on+a+Hole+in+a+Paper+Heart'
p964
S'1398436070'
p965
tp966
a(S'Talk Show'
p967
S'End of the World'
p968
S'http://www.last.fm/music/Talk+Show/_/End+of+the+World'
p969
S'1398435894'
p970
tp971
a(S'Stone Temple Pilots'
p972
S'Lounge Fly'
p973
S'http://www.last.fm/music/Stone+Temple+Pilots/_/Lounge+Fly'
p974
S'1398435681'
p975
tp976
a(S'Stone Temple Pilots'
p977
S'Pruno'
p978
S'http://www.last.fm/music/Stone+Temple+Pilots/_/Pruno'
p979
S'1398435362'
p980
tp981
a(S'Talk Show'
p982
S'Wash Me Down'
p983
S'http://www.last.fm/music/Talk+Show/_/Wash+Me+Down'
p984
S'1398435167'
p985
tp986
a(S'Talk Show'
p987
S'Peeling an Orange'
p988
S'http://www.last.fm/music/Talk+Show/_/Peeling+an+Orange'
p989
S'1398434940'
p990
tp991
a(S'Talk Show'
p992
S'Hello Hello'
p993
S'http://www.last.fm/music/Talk+Show/_/Hello+Hello'
p994
S'1398434725'
p995
tp996
a(S'Stone Temple Pilots'
p997
S'Transmissions From a Lonely Room'
p998
S'http://www.last.fm/music/Stone+Temple+Pilots/_/Transmissions+From+a+Lonely+Room'
p999
S'1398434548'
p1000
tp1001
a.