(lp1
(S'Metallica'
p2
S'All Nightmare Long'
p3
S'http://www.last.fm/music/Metallica/_/All+Nightmare+Long'
p4
S'1237310544'
p5
tp6
a(S'Jamiroquai'
p7
S'Picture of My Life'
p8
S'http://www.last.fm/music/Jamiroquai/_/Picture+of+My+Life'
p9
S'1237302577'
p10
tp11
a(S'Jamiroquai'
p12
S'Starchild'
p13
S'http://www.last.fm/music/Jamiroquai/_/Starchild'
p14
S'1237302266'
p15
tp16
a(S'Jamiroquai'
p17
S'Hot Tequila Brown'
p18
S'http://www.last.fm/music/Jamiroquai/_/Hot+Tequila+Brown'
p19
S'1237301991'
p20
tp21
a(S'Jamiroquai'
p22
S'Dynamite'
p23
S'http://www.last.fm/music/Jamiroquai/_/Dynamite'
p24
S'1237301696'
p25
tp26
a(S'Jamiroquai'
p27
S'Main Vein'
p28
S'http://www.last.fm/music/Jamiroquai/_/Main+Vein'
p29
S'1237299901'
p30
tp31
a(S'Jamiroquai'
p32
S'You Give Me Something'
p33
S'http://www.last.fm/music/Jamiroquai/_/You+Give+Me+Something'
p34
S'1237299695'
p35
tp36
a(S'Judas Priest'
p37
S'Out in the Cold'
p38
S'http://www.last.fm/music/Judas+Priest/_/Out+in+the+Cold'
p39
S'1237299274'
p40
tp41
a(S'Metallica'
p42
S'The House Jack Built'
p43
S'http://www.last.fm/music/Metallica/_/The+House+Jack+Built'
p44
S'1237298874'
p45
tp46
a(S'Diamond Head'
p47
S'Nothing to Lose'
p48
S'http://www.last.fm/music/Diamond+Head/_/Nothing+to+Lose'
p49
S'1237298292'
p50
tp51
a(S'Megadeth'
p52
S'Elysian Fields'
p53
S'http://www.last.fm/music/Megadeth/_/Elysian+Fields'
p54
S'1237297805'
p55
tp56
a(S'AC/DC'
p57
S'Rock N Roll Train'
p58
S'http://www.last.fm/music/AC%2FDC/_/Rock+N+Roll+Train'
p59
S'1237296781'
p60
tp61
a(S'Metallica'
p62
S'Cure'
p63
S'http://www.last.fm/music/Metallica/_/Cure'
p64
S'1237296484'
p65
tp66
a(S'AC/DC'
p67
S'Money Made'
p68
S'http://www.last.fm/music/AC%2FDC/_/Money+Made'
p69
S'1237296229'
p70
tp71
a(S'Megadeth'
p72
S'Wanderlust'
p73
S'http://www.last.fm/music/Megadeth/_/Wanderlust'
p74
S'1237295880'
p75
tp76
a(S'Pantera'
p77
S'Mouth for War'
p78
S'http://www.last.fm/music/Pantera/_/Mouth+for+War'
p79
S'1237295644'
p80
tp81
a(S'Metallica'
p82
S'The Outlaw Torn'
p83
S'http://www.last.fm/music/Metallica/_/The+Outlaw+Torn'
p84
S'1237295056'
p85
tp86
a(S'Megadeth'
p87
S'Addicted to Chaos'
p88
S'http://www.last.fm/music/Megadeth/_/Addicted+to+Chaos'
p89
S'1237294660'
p90
tp91
a(S'AC/DC'
p92
S'Money Made'
p93
S'http://www.last.fm/music/AC%2FDC/_/Money+Made'
p94
S'1237209613'
p95
tp96
a(S'Jerry Cantrell'
p97
S'Settling Down'
p98
S'http://www.last.fm/music/Jerry+Cantrell/_/Settling+Down'
p99
S'1237209243'
p100
tp101
a(S'Corrosion of Conformity'
p102
S'Clean My Wounds'
p103
S'http://www.last.fm/music/Corrosion+of+Conformity/_/Clean+My+Wounds'
p104
S'1237209030'
p105
tp106
a(S'AC/DC'
p107
S'Decibel'
p108
S'http://www.last.fm/music/AC%2FDC/_/Decibel'
p109
S'1237208792'
p110
tp111
a(S'Megadeth'
p112
S'Diadems'
p113
S'http://www.last.fm/music/Megadeth/_/Diadems'
p114
S'1237208556'
p115
tp116
a(S'AC/DC'
p117
S'Rock N Roll Train'
p118
S'http://www.last.fm/music/AC%2FDC/_/Rock+N+Roll+Train'
p119
S'1237208192'
p120
tp121
a(S'Rage Against the Machine'
p122
S'Bullet In The Head (Live)'
p123
S'http://www.last.fm/music/Rage+Against+the+Machine/_/Bullet+In+The+Head+(Live)'
p124
S'1237207863'
p125
tp126
a(S'Megadeth'
p127
S'A Secret Place'
p128
S'http://www.last.fm/music/Megadeth/_/A+Secret+Place'
p129
S'1237207538'
p130
tp131
a(S'AC/DC'
p132
S"Spoilin' For A Fight"
p133
S'http://www.last.fm/music/AC%2FDC/_/Spoilin%27+For+A+Fight'
p134
S'1237207341'
p135
tp136
a(S'Metallica'
p137
S'The House Jack Built'
p138
S'http://www.last.fm/music/Metallica/_/The+House+Jack+Built'
p139
S'1237206269'
p140
tp141
a(S'Maroon 5'
p142
S'This Love'
p143
S'http://www.last.fm/music/Maroon+5/_/This+Love'
p144
S'1237059388'
p145
tp146
a(S'Mad Season'
p147
S"I'm Above"
p148
S'http://www.last.fm/music/Mad+Season/_/I%27m+Above'
p149
S'1237059044'
p150
tp151
a(S'Liz Phair'
p152
S'Rock Me'
p153
S'http://www.last.fm/music/Liz+Phair/_/Rock+Me'
p154
S'1237058844'
p155
tp156
a(S'Liz Phair'
p157
S'Polyester Bride'
p158
S'http://www.last.fm/music/Liz+Phair/_/Polyester+Bride'
p159
S'1237058598'
p160
tp161
a(S'Liz Phair'
p162
S'Extraordinary'
p163
S'http://www.last.fm/music/Liz+Phair/_/Extraordinary'
p164
S'1237058394'
p165
tp166
a(S'Live'
p167
S'Deep Enough (Hip Hop Mix)'
p168
S'http://www.last.fm/music/Live/_/Deep+Enough+(Hip+Hop+Mix)'
p169
S'1237058203'
p170
tp171
a(S'Live'
p172
S'Deep Enough'
p173
S'http://www.last.fm/music/Live/_/Deep+Enough'
p174
S'1237058003'
p175
tp176
a(S'Live'
p177
S'Transmit Your Love'
p178
S'http://www.last.fm/music/Live/_/Transmit+Your+Love'
p179
S'1237057728'
p180
tp181
a(S'Live'
p182
S'Forever May Not Be Long Enough'
p183
S'http://www.last.fm/music/Live/_/Forever+May+Not+Be+Long+Enough'
p184
S'1237057499'
p185
tp186
a(S'Live'
p187
S'White, Discussion'
p188
S'http://www.last.fm/music/Live/_/White,+Discussion'
p189
S'1237057131'
p190
tp191
a(S'Live'
p192
S'Waitress'
p193
S'http://www.last.fm/music/Live/_/Waitress'
p194
S'1237056962'
p195
tp196
a(S'Live'
p197
S'Stage'
p198
S'http://www.last.fm/music/Live/_/Stage'
p199
S'1237056774'
p200
tp201
a(S'Live'
p202
S'T.B.D.'
p203
S'http://www.last.fm/music/Live/_/T.B.D.'
p204
S'1237056505'
p205
tp206
a(S'Live'
p207
S'All Over You'
p208
S'http://www.last.fm/music/Live/_/All+Over+You'
p209
S'1237056265'
p210
tp211
a(S'Live'
p212
S'Top'
p213
S'http://www.last.fm/music/Live/_/Top'
p214
S'1237056103'
p215
tp216
a(S'Live'
p217
S'Iris'
p218
S'http://www.last.fm/music/Live/_/Iris'
p219
S'1237055864'
p220
tp221
a(S'Live'
p222
S'Selling The Drama'
p223
S'http://www.last.fm/music/Live/_/Selling+The+Drama'
p224
S'1237055657'
p225
tp226
a(S'Live'
p227
S'The Dam At Otter Creek'
p228
S'http://www.last.fm/music/Live/_/The+Dam+At+Otter+Creek'
p229
S'1237055374'
p230
tp231
a(S'Live'
p232
S'Tired of "Me"'
p233
S'http://www.last.fm/music/Live/_/Tired+of+%22Me%22'
p234
S'1237055168'
p235
tp236
a(S'Live'
p237
S'Brothers Unaware'
p238
S'http://www.last.fm/music/Live/_/Brothers+Unaware'
p239
S'1237054883'
p240
tp241
a(S'Live'
p242
S'The Beauty Of Gray'
p243
S'http://www.last.fm/music/Live/_/The+Beauty+Of+Gray'
p244
S'1237054628'
p245
tp246
a(S'Live'
p247
S'Waterboy'
p248
S'http://www.last.fm/music/Live/_/Waterboy'
p249
S'1237054440'
p250
tp251
a(S'Live'
p252
S'Mirror Song'
p253
S'http://www.last.fm/music/Live/_/Mirror+Song'
p254
S'1237054222'
p255
tp256
a(S'Live'
p257
S'Out To Dry'
p258
S'http://www.last.fm/music/Live/_/Out+To+Dry'
p259
S'1237054022'
p260
tp261
a(S'Live'
p262
S'River Town'
p263
S'http://www.last.fm/music/Live/_/River+Town'
p264
S'1237053772'
p265
tp266
a(S'Live'
p267
S'Lighthouse'
p268
S'http://www.last.fm/music/Live/_/Lighthouse'
p269
S'1237053584'
p270
tp271
a(S'Live'
p272
S'Everytime I See Your Face'
p273
S'http://www.last.fm/music/Live/_/Everytime+I+See+Your+Face'
p274
S'1237053388'
p275
tp276
a(S'Live'
p277
S'Like I Do'
p278
S'http://www.last.fm/music/Live/_/Like+I+Do'
p279
S'1237053133'
p280
tp281
a(S'Live'
p282
S'Sweet Release'
p283
S'http://www.last.fm/music/Live/_/Sweet+Release'
p284
S'1237052951'
p285
tp286
a(S'Live'
p287
S'The Sanctity Of Dreams'
p288
S'http://www.last.fm/music/Live/_/The+Sanctity+Of+Dreams'
p289
S'1237052738'
p290
tp291
a(S'Live'
p292
S'You Are Not Alone'
p293
S'http://www.last.fm/music/Live/_/You+Are+Not+Alone'
p294
S'1237052514'
p295
tp296
a(S'Live'
p297
S'Home'
p298
S'http://www.last.fm/music/Live/_/Home'
p299
S'1237052311'
p300
tp301
a(S'Live'
p302
S'Wings'
p303
S'http://www.last.fm/music/Live/_/Wings'
p304
S'1237052080'
p305
tp306
a(S'Live'
p307
S'Show'
p308
S'http://www.last.fm/music/Live/_/Show'
p309
S'1237051875'
p310
tp311
a(S'Scorpions'
p312
S'Rock You Like a Hurricane'
p313
S'http://www.last.fm/music/Scorpions/_/Rock+You+Like+a+Hurricane'
p314
S'1237051622'
p315
tp316
a(S'Scorpions'
p317
S'Wind of Change'
p318
S'http://www.last.fm/music/Scorpions/_/Wind+of+Change'
p319
S'1237051309'
p320
tp321
a(S'Scorpions'
p322
S'Still Loving You'
p323
S'http://www.last.fm/music/Scorpions/_/Still+Loving+You'
p324
S'1237051022'
p325
tp326
a(S'Jamiroquai'
p327
S'Feel So Good'
p328
S'http://www.last.fm/music/Jamiroquai/_/Feel+So+Good'
p329
S'1237050566'
p330
tp331
a(S'Jamiroquai'
p332
S'Supersonic'
p333
S'http://www.last.fm/music/Jamiroquai/_/Supersonic'
p334
S'1237050251'
p335
tp336
a(S'Jamiroquai'
p337
S'Little L'
p338
S'http://www.last.fm/music/Jamiroquai/_/Little+L'
p339
S'1237049954'
p340
tp341
a(S'Jamiroquai'
p342
S'Alright'
p343
S'http://www.last.fm/music/Jamiroquai/_/Alright'
p344
S'1237049688'
p345
tp346
a(S'Jamiroquai'
p347
S'High Times'
p348
S'http://www.last.fm/music/Jamiroquai/_/High+Times'
p349
S'1237049330'
p350
tp351
a(S'Jamiroquai'
p352
S'Love Foolosophy'
p353
S'http://www.last.fm/music/Jamiroquai/_/Love+Foolosophy'
p354
S'1237049102'
p355
tp356
a(S'Jamiroquai'
p357
S'Canned Heat'
p358
S'http://www.last.fm/music/Jamiroquai/_/Canned+Heat'
p359
S'1237048771'
p360
tp361
a(S'Jamiroquai'
p362
S'Dynamite'
p363
S'http://www.last.fm/music/Jamiroquai/_/Dynamite'
p364
S'1237048477'
p365
tp366
a(S'Jamiroquai'
p367
S'Falling'
p368
S'http://www.last.fm/music/Jamiroquai/_/Falling'
p369
S'1237048253'
p370
tp371
a(S'Jamiroquai'
p372
S'Planet Home'
p373
S'http://www.last.fm/music/Jamiroquai/_/Planet+Home'
p374
S'1237047970'
p375
tp376
a(S'Jamiroquai'
p377
S'Electric Mistress'
p378
S'http://www.last.fm/music/Jamiroquai/_/Electric+Mistress'
p379
S'1237047736'
p380
tp381
a(S'Jamiroquai'
p382
S'You Give Me Something'
p383
S'http://www.last.fm/music/Jamiroquai/_/You+Give+Me+Something'
p384
S'1237046762'
p385
tp386
a(S'Jamiroquai'
p387
S'Where Do We Go from Here?'
p388
S'http://www.last.fm/music/Jamiroquai/_/Where+Do+We+Go+from+Here%3F'
p389
S'1237046451'
p390
tp391
a(S'Jamiroquai'
p392
S'Too Young to Die'
p393
S'http://www.last.fm/music/Jamiroquai/_/Too+Young+to+Die'
p394
S'1237046085'
p395
tp396
a(S'Jamiroquai'
p397
S'When You Gonna Learn (digerido)'
p398
S'http://www.last.fm/music/Jamiroquai/_/When+You+Gonna+Learn+(digerido)'
p399
S'1237045855'
p400
tp401
a(S'Jamiroquai'
p402
S'Black Crow'
p403
S'http://www.last.fm/music/Jamiroquai/_/Black+Crow'
p404
S'1237045610'
p405
tp406
a(S'Jamiroquai'
p407
S'Talulah'
p408
S'http://www.last.fm/music/Jamiroquai/_/Talulah'
p409
S'1237045246'
p410
tp411
a(S'Jamiroquai'
p412
S'Hot Tequila Brown'
p413
S'http://www.last.fm/music/Jamiroquai/_/Hot+Tequila+Brown'
p414
S'1237044971'
p415
tp416
a(S'Jamiroquai'
p417
S'Starchild'
p418
S'http://www.last.fm/music/Jamiroquai/_/Starchild'
p419
S'1237044660'
p420
tp421
a(S'Jamiroquai'
p422
S'Space Cowboy'
p423
S'http://www.last.fm/music/Jamiroquai/_/Space+Cowboy'
p424
S'1237044275'
p425
tp426
a(S'Jamiroquai'
p427
S'Seven Days in Sunny June'
p428
S'http://www.last.fm/music/Jamiroquai/_/Seven+Days+in+Sunny+June'
p429
S'1237044037'
p430
tp431
a(S'Jamiroquai'
p432
S'Picture of My Life'
p433
S'http://www.last.fm/music/Jamiroquai/_/Picture+of+My+Life'
p434
S'1237043656'
p435
tp436
a(S'Black Sabbath'
p437
S'St. Vitus Dance'
p438
S'http://www.last.fm/music/Black+Sabbath/_/St.+Vitus+Dance'
p439
S'1237043508'
p440
tp441
a(S'Mother Love Bone'
p442
S'Crown Of Thorns'
p443
S'http://www.last.fm/music/Mother+Love+Bone/_/Crown+Of+Thorns'
p444
S'1237043115'
p445
tp446
a(S'Metallica'
p447
S'For Whom the Bell Tolls'
p448
S'http://www.last.fm/music/Metallica/_/For+Whom+the+Bell+Tolls'
p449
S'1237042804'
p450
tp451
a(S'Metallica'
p452
S'Orion (Instrumental)'
p453
S'http://www.last.fm/music/Metallica/_/Orion+(Instrumental)'
p454
S'1237042297'
p455
tp456
a(S'Metallica'
p457
S'Master of Puppets'
p458
S'http://www.last.fm/music/Metallica/_/Master+of+Puppets'
p459
S'1237041782'
p460
tp461
a(S'Metallica'
p462
S'The Outlaw Torn'
p463
S'http://www.last.fm/music/Metallica/_/The+Outlaw+Torn'
p464
S'1237041194'
p465
tp466
a(S'Metallica'
p467
S'Cure'
p468
S'http://www.last.fm/music/Metallica/_/Cure'
p469
S'1237040897'
p470
tp471
a(S'Metallica'
p472
S'The House Jack Built'
p473
S'http://www.last.fm/music/Metallica/_/The+House+Jack+Built'
p474
S'1237040496'
p475
tp476
a(S'Metallica'
p477
S"Ain't My Bitch"
p478
S'http://www.last.fm/music/Metallica/_/Ain%27t+My+Bitch'
p479
S'1237040190'
p480
tp481
a(S'Metallica'
p482
S'Turn the Page'
p483
S'http://www.last.fm/music/Metallica/_/Turn+the+Page'
p484
S'1237039824'
p485
tp486
a(S'Metallica'
p487
S"It's Electric"
p488
S'http://www.last.fm/music/Metallica/_/It%27s+Electric'
p489
S'1237039610'
p490
tp491
a(S'Metallica'
p492
S'All Nightmare Long'
p493
S'http://www.last.fm/music/Metallica/_/All+Nightmare+Long'
p494
S'1237039133'
p495
tp496
a(S'Metallica'
p497
S'The God That Failed'
p498
S'http://www.last.fm/music/Metallica/_/The+God+That+Failed'
p499
S'1237038825'
p500
tp501
a(S'Metallica'
p502
S'Of Wolf and Man'
p503
S'http://www.last.fm/music/Metallica/_/Of+Wolf+and+Man'
p504
S'1237038568'
p505
tp506
a(S'Metallica'
p507
S'Holier Than Thou'
p508
S'http://www.last.fm/music/Metallica/_/Holier+Than+Thou'
p509
S'1237038340'
p510
tp511
a(S'Metallica'
p512
S'Blackened'
p513
S'http://www.last.fm/music/Metallica/_/Blackened'
p514
S'1237037942'
p515
tp516
a(S'Metallica'
p517
S'...and Justice for All'
p518
S'http://www.last.fm/music/Metallica/_/...and+Justice+for+All'
p519
S'1237037355'
p520
tp521
a(S'Metallica'
p522
S'Eye of the Beholder'
p523
S'http://www.last.fm/music/Metallica/_/Eye+of+the+Beholder'
p524
S'1237036965'
p525
tp526
a(S'Megadeth'
p527
S'Diadems'
p528
S'http://www.last.fm/music/Megadeth/_/Diadems'
p529
S'1237036729'
p530
tp531
a(S'Megadeth'
p532
S'A Secret Place'
p533
S'http://www.last.fm/music/Megadeth/_/A+Secret+Place'
p534
S'1237036405'
p535
tp536
a(S'Megadeth'
p537
S'Almost Honest'
p538
S'http://www.last.fm/music/Megadeth/_/Almost+Honest'
p539
S'1237036157'
p540
tp541
a(S'Megadeth'
p542
S'Architecture of Aggression'
p543
S'http://www.last.fm/music/Megadeth/_/Architecture+of+Aggression'
p544
S'1237036009'
p545
tp546
a(S'Megadeth'
p547
S'The Disintegrators'
p548
S'http://www.last.fm/music/Megadeth/_/The+Disintegrators'
p549
S'1237035873'
p550
tp551
a(S'Megadeth'
p552
S'Breadline'
p553
S'http://www.last.fm/music/Megadeth/_/Breadline'
p554
S'1237035601'
p555
tp556
a(S'Megadeth'
p557
S'Wanderlust'
p558
S'http://www.last.fm/music/Megadeth/_/Wanderlust'
p559
S'1237035254'
p560
tp561
a(S'Megadeth'
p562
S'The Killing Road'
p563
S'http://www.last.fm/music/Megadeth/_/The+Killing+Road'
p564
S'1237035016'
p565
tp566
a(S'Megadeth'
p567
S'Youthanasia'
p568
S'http://www.last.fm/music/Megadeth/_/Youthanasia'
p569
S'1237034766'
p570
tp571
a(S'Megadeth'
p572
S'Family Tree'
p573
S'http://www.last.fm/music/Megadeth/_/Family+Tree'
p574
S'1237034519'
p575
tp576
a(S'Megadeth'
p577
S'Elysian Fields'
p578
S'http://www.last.fm/music/Megadeth/_/Elysian+Fields'
p579
S'1237034275'
p580
tp581
a(S'Megadeth'
p582
S'Addicted to Chaos'
p583
S'http://www.last.fm/music/Megadeth/_/Addicted+to+Chaos'
p584
S'1237033950'
p585
tp586
a(S'AC/DC'
p587
S'Stormy May Day'
p588
S'http://www.last.fm/music/AC%2FDC/_/Stormy+May+Day'
p589
S'1236948736'
p590
tp591
a(S'Megadeth'
p592
S'Killing Is My Business... and Business Is Good!'
p593
S'http://www.last.fm/music/Megadeth/_/Killing+Is+My+Business...+and+Business+Is+Good!'
p594
S'1236948549'
p595
tp596
a(S'Megadeth'
p597
S'Diadems'
p598
S'http://www.last.fm/music/Megadeth/_/Diadems'
p599
S'1236948313'
p600
tp601
a(S'Megadeth'
p602
S'Elysian Fields'
p603
S'http://www.last.fm/music/Megadeth/_/Elysian+Fields'
p604
S'1236948069'
p605
tp606
a(S'Megadeth'
p607
S'Addicted to Chaos'
p608
S'http://www.last.fm/music/Megadeth/_/Addicted+to+Chaos'
p609
S'1236947743'
p610
tp611
a(S'Pantera'
p612
S'Cemetery Gates'
p613
S'http://www.last.fm/music/Pantera/_/Cemetery+Gates'
p614
S'1236946738'
p615
tp616
a(S'Megadeth'
p617
S'Wanderlust'
p618
S'http://www.last.fm/music/Megadeth/_/Wanderlust'
p619
S'1236946390'
p620
tp621
a(S'Metallica'
p622
S"Ain't My Bitch"
p623
S'http://www.last.fm/music/Metallica/_/Ain%27t+My+Bitch'
p624
S'1236946084'
p625
tp626
a(S'Jerry Cantrell'
p627
S'Keep The Light On'
p628
S'http://www.last.fm/music/Jerry+Cantrell/_/Keep+The+Light+On'
p629
S'1236945797'
p630
tp631
a(S'AC/DC'
p632
S"Spoilin' For A Fight"
p633
S'http://www.last.fm/music/AC%2FDC/_/Spoilin%27+For+A+Fight'
p634
S'1236945600'
p635
tp636
a(S'Pantera'
p637
S'Mouth for War'
p638
S'http://www.last.fm/music/Pantera/_/Mouth+for+War'
p639
S'1236945364'
p640
tp641
a(S'Jerry Cantrell'
p642
S'Between'
p643
S'http://www.last.fm/music/Jerry+Cantrell/_/Between'
p644
S'1236945147'
p645
tp646
a(S'Pantera'
p647
S'Shattered'
p648
S'http://www.last.fm/music/Pantera/_/Shattered'
p649
S'1236944945'
p650
tp651
a(S'Jerry Cantrell'
p652
S'Dickeye'
p653
S'http://www.last.fm/music/Jerry+Cantrell/_/Dickeye'
p654
S'1236944642'
p655
tp656
a(S'Metallica'
p657
S'King Nothing'
p658
S'http://www.last.fm/music/Metallica/_/King+Nothing'
p659
S'1236944312'
p660
tp661
a(S'Megadeth'
p662
S'Breadline'
p663
S'http://www.last.fm/music/Megadeth/_/Breadline'
p664
S'1236944026'
p665
tp666
a(S'Alice Cooper'
p667
S'Poison'
p668
S'http://www.last.fm/music/Alice+Cooper/_/Poison'
p669
S'1236943756'
p670
tp671
a(S'Alice Cooper'
p672
S'Bed of Nails'
p673
S'http://www.last.fm/music/Alice+Cooper/_/Bed+of+Nails'
p674
S'1236943496'
p675
tp676
a(S'Metallica'
p677
S'The Outlaw Torn'
p678
S'http://www.last.fm/music/Metallica/_/The+Outlaw+Torn'
p679
S'1236942908'
p680
tp681
a(S'Corrosion of Conformity'
p682
S'Clean My Wounds'
p683
S'http://www.last.fm/music/Corrosion+of+Conformity/_/Clean+My+Wounds'
p684
S'1236942690'
p685
tp686
a(S'Jerry Cantrell'
p687
S'Hurt A Long Time'
p688
S'http://www.last.fm/music/Jerry+Cantrell/_/Hurt+A+Long+Time'
p689
S'1236942349'
p690
tp691
a(S'Megadeth'
p692
S'The Disintegrators'
p693
S'http://www.last.fm/music/Megadeth/_/The+Disintegrators'
p694
S'1236942165'
p695
tp696
a(S'AC/DC'
p697
S'Money Made'
p698
S'http://www.last.fm/music/AC%2FDC/_/Money+Made'
p699
S'1236941909'
p700
tp701
a(S'Megadeth'
p702
S'Symphony of Destruction'
p703
S'http://www.last.fm/music/Megadeth/_/Symphony+of+Destruction'
p704
S'1236941669'
p705
tp706
a(S'Metallica'
p707
S'The House Jack Built'
p708
S'http://www.last.fm/music/Metallica/_/The+House+Jack+Built'
p709
S'1236941268'
p710
tp711
a(S'Megadeth'
p712
S'Diadems'
p713
S'http://www.last.fm/music/Megadeth/_/Diadems'
p714
S'1236798007'
p715
tp716
a(S'Metallica'
p717
S'The Outlaw Torn'
p718
S'http://www.last.fm/music/Metallica/_/The+Outlaw+Torn'
p719
S'1236797344'
p720
tp721
a(S'Metallica'
p722
S'Cure'
p723
S'http://www.last.fm/music/Metallica/_/Cure'
p724
S'1236797047'
p725
tp726
a(S'AC/DC'
p727
S'Rock N Roll Train'
p728
S'http://www.last.fm/music/AC%2FDC/_/Rock+N+Roll+Train'
p729
S'1236796786'
p730
tp731
a(S'Megadeth'
p732
S'Sleepwalker'
p733
S'http://www.last.fm/music/Megadeth/_/Sleepwalker'
p734
S'1236796432'
p735
tp736
a(S'Metallica'
p737
S"Ain't My Bitch"
p738
S'http://www.last.fm/music/Metallica/_/Ain%27t+My+Bitch'
p739
S'1236795794'
p740
tp741
a(S'Alice Cooper'
p742
S'Poison'
p743
S'http://www.last.fm/music/Alice+Cooper/_/Poison'
p744
S'1236795493'
p745
tp746
a(S'Jerry Cantrell'
p747
S'Settling Down'
p748
S'http://www.last.fm/music/Jerry+Cantrell/_/Settling+Down'
p749
S'1236795123'
p750
tp751
a(S'Pantera'
p752
S'Cemetery Gates'
p753
S'http://www.last.fm/music/Pantera/_/Cemetery+Gates'
p754
S'1236794700'
p755
tp756
a(S'Megadeth'
p757
S'A Secret Place'
p758
S'http://www.last.fm/music/Megadeth/_/A+Secret+Place'
p759
S'1236794375'
p760
tp761
a(S'Megadeth'
p762
S"Crush 'em"
p763
S'http://www.last.fm/music/Megadeth/_/Crush+%27em'
p764
S'1236794081'
p765
tp766
a(S'Pantera'
p767
S'Cowboys from Hell'
p768
S'http://www.last.fm/music/Pantera/_/Cowboys+from+Hell'
p769
S'1236793952'
p770
tp771
a(S'Pantera'
p772
S'Fucking Hostile'
p773
S'http://www.last.fm/music/Pantera/_/Fucking+Hostile'
p774
S'1236793784'
p775
tp776
a(S'Metallica'
p777
S'The House Jack Built'
p778
S'http://www.last.fm/music/Metallica/_/The+House+Jack+Built'
p779
S'1236793268'
p780
tp781
a(S'Jerry Cantrell'
p782
S'Keep The Light On'
p783
S'http://www.last.fm/music/Jerry+Cantrell/_/Keep+The+Light+On'
p784
S'1236792972'
p785
tp786
a(S'Megadeth'
p787
S'Breadline'
p788
S'http://www.last.fm/music/Megadeth/_/Breadline'
p789
S'1236792699'
p790
tp791
a(S'Pantera'
p792
S'Cowboys from Hell'
p793
S'http://www.last.fm/music/Pantera/_/Cowboys+from+Hell'
p794
S'1236792399'
p795
tp796
a(S'Pantera'
p797
S'Fucking Hostile'
p798
S'http://www.last.fm/music/Pantera/_/Fucking+Hostile'
p799
S'1236792231'
p800
tp801
a(S'Metallica'
p802
S'The House Jack Built'
p803
S'http://www.last.fm/music/Metallica/_/The+House+Jack+Built'
p804
S'1236791830'
p805
tp806
a(S'Megadeth'
p807
S'Killing Is My Business... and Business Is Good!'
p808
S'http://www.last.fm/music/Megadeth/_/Killing+Is+My+Business...+and+Business+Is+Good!'
p809
S'1236791643'
p810
tp811
a(S'Megadeth'
p812
S'Wanderlust'
p813
S'http://www.last.fm/music/Megadeth/_/Wanderlust'
p814
S'1236791294'
p815
tp816
a(S'AC/DC'
p817
S"Spoilin' For A Fight"
p818
S'http://www.last.fm/music/AC%2FDC/_/Spoilin%27+For+A+Fight'
p819
S'1236791097'
p820
tp821
a(S'Pantera'
p822
S'Mouth for War'
p823
S'http://www.last.fm/music/Pantera/_/Mouth+for+War'
p824
S'1236790861'
p825
tp826
a(S'Diamond Head'
p827
S'Calling Out'
p828
S'http://www.last.fm/music/Diamond+Head/_/Calling+Out'
p829
S'1236790633'
p830
tp831
a(S'Alice Cooper'
p832
S'Bed of Nails'
p833
S'http://www.last.fm/music/Alice+Cooper/_/Bed+of+Nails'
p834
S'1236790373'
p835
tp836
a(S'Megadeth'
p837
S'Diadems'
p838
S'http://www.last.fm/music/Megadeth/_/Diadems'
p839
S'1236790137'
p840
tp841
a(S'Jerry Cantrell'
p842
S'Between'
p843
S'http://www.last.fm/music/Jerry+Cantrell/_/Between'
p844
S'1236789920'
p845
tp846
a(S'Megadeth'
p847
S'The Disintegrators'
p848
S'http://www.last.fm/music/Megadeth/_/The+Disintegrators'
p849
S'1236789736'
p850
tp851
a(S'Alice Cooper'
p852
S"I'm Your Gun"
p853
S'http://www.last.fm/music/Alice+Cooper/_/I%27m+Your+Gun'
p854
S'1236789507'
p855
tp856
a(S'Jerry Cantrell'
p857
S'Dickeye'
p858
S'http://www.last.fm/music/Jerry+Cantrell/_/Dickeye'
p859
S'1236789204'
p860
tp861
a(S'Megadeth'
p862
S'Addicted to Chaos'
p863
S'http://www.last.fm/music/Megadeth/_/Addicted+to+Chaos'
p864
S'1236788877'
p865
tp866
a(S'Pantera'
p867
S'Cemetery Gates'
p868
S'http://www.last.fm/music/Pantera/_/Cemetery+Gates'
p869
S'1236703152'
p870
tp871
a(S'Metallica'
p872
S'The Outlaw Torn'
p873
S'http://www.last.fm/music/Metallica/_/The+Outlaw+Torn'
p874
S'1236702514'
p875
tp876
a(S'Pantera'
p877
S'Cemetery Gates'
p878
S'http://www.last.fm/music/Pantera/_/Cemetery+Gates'
p879
S'1236689987'
p880
tp881
a(S'Megadeth'
p882
S'Breadline'
p883
S'http://www.last.fm/music/Megadeth/_/Breadline'
p884
S'1236689687'
p885
tp886
a(S'Megadeth'
p887
S'Sleepwalker'
p888
S'http://www.last.fm/music/Megadeth/_/Sleepwalker'
p889
S'1236689333'
p890
tp891
a(S'AC/DC'
p892
S'Stormy May Day'
p893
S'http://www.last.fm/music/AC%2FDC/_/Stormy+May+Day'
p894
S'1236689143'
p895
tp896
a(S'Metallica'
p897
S'King Nothing'
p898
S'http://www.last.fm/music/Metallica/_/King+Nothing'
p899
S'1236688813'
p900
tp901
a(S'Megadeth'
p902
S"Crush 'em"
p903
S'http://www.last.fm/music/Megadeth/_/Crush+%27em'
p904
S'1236688519'
p905
tp906
a(S'Metallica'
p907
S"Ain't My Bitch"
p908
S'http://www.last.fm/music/Metallica/_/Ain%27t+My+Bitch'
p909
S'1236688213'
p910
tp911
a(S'Jamiroquai'
p912
S'Starchild'
p913
S'http://www.last.fm/music/Jamiroquai/_/Starchild'
p914
S'1236647722'
p915
tp916
a(S'Jamiroquai'
p917
S'Love Foolosophy'
p918
S'http://www.last.fm/music/Jamiroquai/_/Love+Foolosophy'
p919
S'1236647495'
p920
tp921
a(S'Jamiroquai'
p922
S'You Give Me Something'
p923
S'http://www.last.fm/music/Jamiroquai/_/You+Give+Me+Something'
p924
S'1236647289'
p925
tp926
a(S'Jamiroquai'
p927
S'Electric Mistress'
p928
S'http://www.last.fm/music/Jamiroquai/_/Electric+Mistress'
p929
S'1236647055'
p930
tp931
a(S'Jamiroquai'
p932
S'When You Gonna Learn (digerido)'
p933
S'http://www.last.fm/music/Jamiroquai/_/When+You+Gonna+Learn+(digerido)'
p934
S'1236646825'
p935
tp936
a(S'Jamiroquai'
p937
S'Dynamite'
p938
S'http://www.last.fm/music/Jamiroquai/_/Dynamite'
p939
S'1236646371'
p940
tp941
a(S'Jamiroquai'
p942
S'Little L'
p943
S'http://www.last.fm/music/Jamiroquai/_/Little+L'
p944
S'1236646073'
p945
tp946
a(S'Jamiroquai'
p947
S'Space Cowboy'
p948
S'http://www.last.fm/music/Jamiroquai/_/Space+Cowboy'
p949
S'1236645688'
p950
tp951
a(S'Jamiroquai'
p952
S'Supersonic'
p953
S'http://www.last.fm/music/Jamiroquai/_/Supersonic'
p954
S'1236645374'
p955
tp956
a(S'Jamiroquai'
p957
S'Where Do We Go from Here?'
p958
S'http://www.last.fm/music/Jamiroquai/_/Where+Do+We+Go+from+Here%3F'
p959
S'1236645063'
p960
tp961
a(S'Jamiroquai'
p962
S'Falling'
p963
S'http://www.last.fm/music/Jamiroquai/_/Falling'
p964
S'1236644839'
p965
tp966
a(S'Jamiroquai'
p967
S'When You Gonna Learn (digerido)'
p968
S'http://www.last.fm/music/Jamiroquai/_/When+You+Gonna+Learn+(digerido)'
p969
S'1236644609'
p970
tp971
a(S'Jamiroquai'
p972
S'Hot Tequila Brown'
p973
S'http://www.last.fm/music/Jamiroquai/_/Hot+Tequila+Brown'
p974
S'1236644333'
p975
tp976
a(S'Jamiroquai'
p977
S'Dynamite'
p978
S'http://www.last.fm/music/Jamiroquai/_/Dynamite'
p979
S'1236644039'
p980
tp981
a(S'Jamiroquai'
p982
S'You Give Me Something'
p983
S'http://www.last.fm/music/Jamiroquai/_/You+Give+Me+Something'
p984
S'1236643833'
p985
tp986
a(S'Jamiroquai'
p987
S'Starchild'
p988
S'http://www.last.fm/music/Jamiroquai/_/Starchild'
p989
S'1236643522'
p990
tp991
a(S'Jamiroquai'
p992
S'Electric Mistress'
p993
S'http://www.last.fm/music/Jamiroquai/_/Electric+Mistress'
p994
S'1236642496'
p995
tp996
a(S'Alice Cooper'
p997
S"I'm Your Gun"
p998
S'http://www.last.fm/music/Alice+Cooper/_/I%27m+Your+Gun'
p999
S'1236633787'
p1000
tp1001
a.