(lp1
(S'Albert King'
p2
S"Breaking Up Somebody's Home"
p3
S'http://www.last.fm/music/Albert+King/_/Breaking+Up+Somebody%27s+Home'
p4
S'1355791213'
p5
tp6
a(S'Live'
p7
S'Forever May Not Be Long Enough'
p8
S'http://www.last.fm/music/Live/_/Forever+May+Not+Be+Long+Enough'
p9
S'1355254021'
p10
tp11
a(S'Live'
p12
S'Forever May Not Be Long Enough'
p13
S'http://www.last.fm/music/Live/_/Forever+May+Not+Be+Long+Enough'
p14
S'1355254021'
p15
tp16
a(S'Live'
p17
S'Feel The Quiet River Rage'
p18
S'http://www.last.fm/music/Live/_/Feel+The+Quiet+River+Rage'
p19
S'1354807309'
p20
tp21
a(S'Live'
p22
S'Waitress'
p23
S'http://www.last.fm/music/Live/_/Waitress'
p24
S'1354807153'
p25
tp26
a(S'Alice Cooper'
p27
S'Might As Well Be on Mars'
p28
S'http://www.last.fm/music/Alice+Cooper/_/Might+As+Well+Be+on+Mars'
p29
S'1354732574'
p30
tp31
a(S'Alice Cooper'
p32
S'Cleansed By Fire'
p33
S'http://www.last.fm/music/Alice+Cooper/_/Cleansed+By+Fire'
p34
S'1354732202'
p35
tp36
a(S'Alice Cooper'
p37
S'Zombie Dance'
p38
S'http://www.last.fm/music/Alice+Cooper/_/Zombie+Dance'
p39
S'1354731938'
p40
tp41
a(S'Live'
p42
S'Meltdown'
p43
S'http://www.last.fm/music/Live/_/Meltdown'
p44
S'1354731703'
p45
tp46
a(S'Alice Cooper'
p47
S'Side Show'
p48
S'http://www.last.fm/music/Alice+Cooper/_/Side+Show'
p49
S'1354731303'
p50
tp51
a(S'Alice Cooper'
p52
S'Dangerous Tonight'
p53
S'http://www.last.fm/music/Alice+Cooper/_/Dangerous+Tonight'
p54
S'1354730306'
p55
tp56
a(S'Live'
p57
S'Everytime I See Your Face'
p58
S'http://www.last.fm/music/Live/_/Everytime+I+See+Your+Face'
p59
S'1354730110'
p60
tp61
a(S'Live'
p62
S'Transmit Your Love'
p63
S'http://www.last.fm/music/Live/_/Transmit+Your+Love'
p64
S'1354729834'
p65
tp66
a(S'Alice Cooper'
p67
S'No More Mr Nice Guy'
p68
S'http://www.last.fm/music/Alice+Cooper/_/No+More+Mr+Nice+Guy'
p69
S'1354729647'
p70
tp71
a(S'Live'
p72
S'Out To Dry'
p73
S'http://www.last.fm/music/Live/_/Out+To+Dry'
p74
S'1354729447'
p75
tp76
a(S'Live'
p77
S'Operation Spirit (The Tyranny Of Tradition)'
p78
S'http://www.last.fm/music/Live/_/Operation+Spirit+(The+Tyranny+Of+Tradition)'
p79
S'1354729249'
p80
tp81
a(S'Live'
p82
S'Like I Do'
p83
S'http://www.last.fm/music/Live/_/Like+I+Do'
p84
S'1354728994'
p85
tp86
a(S'Alice Cooper'
p87
S'Hell Is Living Without You'
p88
S'http://www.last.fm/music/Alice+Cooper/_/Hell+Is+Living+Without+You'
p89
S'1354728742'
p90
tp91
a(S'Alice Cooper'
p92
S'Public Animal #9'
p93
S'http://www.last.fm/music/Alice+Cooper/_/Public+Animal+%239'
p94
S'1354728508'
p95
tp96
a(S'Live'
p97
S'Transmit Your Love'
p98
S'http://www.last.fm/music/Live/_/Transmit+Your+Love'
p99
S'1354728231'
p100
tp101
a(S'Live'
p102
S'Feel The Quiet River Rage'
p103
S'http://www.last.fm/music/Live/_/Feel+The+Quiet+River+Rage'
p104
S'1354652982'
p105
tp106
a(S'Live'
p107
S'Simple Creed'
p108
S'http://www.last.fm/music/Live/_/Simple+Creed'
p109
S'1354652852'
p110
tp111
a(S'Alice Cooper'
p112
S'Poison'
p113
S'http://www.last.fm/music/Alice+Cooper/_/Poison'
p114
S'1354639116'
p115
tp116
a(S'Live'
p117
S'Forever May Not Be Long Enough'
p118
S'http://www.last.fm/music/Live/_/Forever+May+Not+Be+Long+Enough'
p119
S'1354638887'
p120
tp121
a(S'Alice Cooper'
p122
S'Cleansed By Fire'
p123
S'http://www.last.fm/music/Alice+Cooper/_/Cleansed+By+Fire'
p124
S'1354638514'
p125
tp126
a(S'Alice Cooper'
p127
S'Side Show'
p128
S'http://www.last.fm/music/Alice+Cooper/_/Side+Show'
p129
S'1354638114'
p130
tp131
a(S'Live'
p132
S'The Distance'
p133
S'http://www.last.fm/music/Live/_/The+Distance'
p134
S'1354637883'
p135
tp136
a(S'Live'
p137
S'They Stood Up For Love'
p138
S'http://www.last.fm/music/Live/_/They+Stood+Up+For+Love'
p139
S'1354637608'
p140
tp141
a(S'Alice Cooper'
p142
S'Zombie Dance'
p143
S'http://www.last.fm/music/Alice+Cooper/_/Zombie+Dance'
p144
S'1354637344'
p145
tp146
a(S'Alice Cooper'
p147
S'Dangerous Tonight'
p148
S'http://www.last.fm/music/Alice+Cooper/_/Dangerous+Tonight'
p149
S'1354637063'
p150
tp151
a(S'Live'
p152
S'Out To Dry'
p153
S'http://www.last.fm/music/Live/_/Out+To+Dry'
p154
S'1354636866'
p155
tp156
a(S'Live'
p157
S'Lighthouse'
p158
S'http://www.last.fm/music/Live/_/Lighthouse'
p159
S'1354636364'
p160
tp161
a(S'Live'
p162
S'She'
p163
S'http://www.last.fm/music/Live/_/She'
p164
S'1354632632'
p165
tp166
a(S'Live'
p167
S'Pain Lies On The Riverside'
p168
S'http://www.last.fm/music/Live/_/Pain+Lies+On+The+Riverside'
p169
S'1354632083'
p170
tp171
a(S'Live'
p172
S'Like I Do'
p173
S'http://www.last.fm/music/Live/_/Like+I+Do'
p174
S'1354631828'
p175
tp176
a(S'Live'
p177
S'Waitress'
p178
S'http://www.last.fm/music/Live/_/Waitress'
p179
S'1354631659'
p180
tp181
a(S'Alice Cooper'
p182
S'Bed of Nails'
p183
S'http://www.last.fm/music/Alice+Cooper/_/Bed+of+Nails'
p184
S'1354553746'
p185
tp186
a(S'Alice Cooper'
p187
S'Hell Is Living Without You'
p188
S'http://www.last.fm/music/Alice+Cooper/_/Hell+Is+Living+Without+You'
p189
S'1354553494'
p190
tp191
a(S'Live'
p192
S'Out To Dry'
p193
S'http://www.last.fm/music/Live/_/Out+To+Dry'
p194
S'1354553294'
p195
tp196
a(S'Live'
p197
S'Pain Lies On The Riverside'
p198
S'http://www.last.fm/music/Live/_/Pain+Lies+On+The+Riverside'
p199
S'1354552983'
p200
tp201
a(S'Alice Cooper'
p202
S'Public Animal #9'
p203
S'http://www.last.fm/music/Alice+Cooper/_/Public+Animal+%239'
p204
S'1354552748'
p205
tp206
a(S'Live'
p207
S'Waitress'
p208
S'http://www.last.fm/music/Live/_/Waitress'
p209
S'1354552579'
p210
tp211
a(S'Live'
p212
S'They Stood Up For Love'
p213
S'http://www.last.fm/music/Live/_/They+Stood+Up+For+Love'
p214
S'1354552304'
p215
tp216
a(S'Alice Cooper'
p217
S'Poison'
p218
S'http://www.last.fm/music/Alice+Cooper/_/Poison'
p219
S'1354552034'
p220
tp221
a(S'Alice Cooper'
p222
S'Side Show'
p223
S'http://www.last.fm/music/Alice+Cooper/_/Side+Show'
p224
S'1354551634'
p225
tp226
a(S'Live'
p227
S'Forever May Not Be Long Enough'
p228
S'http://www.last.fm/music/Live/_/Forever+May+Not+Be+Long+Enough'
p229
S'1354551405'
p230
tp231
a(S'Alice Cooper'
p232
S'Bed of Nails'
p233
S'http://www.last.fm/music/Alice+Cooper/_/Bed+of+Nails'
p234
S'1354551144'
p235
tp236
a(S'Alice Cooper'
p237
S'Stolen Prayer'
p238
S'http://www.last.fm/music/Alice+Cooper/_/Stolen+Prayer'
p239
S'1354548509'
p240
tp241
a(S'Live'
p242
S'Simple Creed'
p243
S'http://www.last.fm/music/Live/_/Simple+Creed'
p244
S'1354548304'
p245
tp246
a(S'Live'
p247
S'Lighthouse'
p248
S'http://www.last.fm/music/Live/_/Lighthouse'
p249
S'1354548116'
p250
tp251
a(S'Alice Cooper'
p252
S'No More Mr Nice Guy'
p253
S'http://www.last.fm/music/Alice+Cooper/_/No+More+Mr+Nice+Guy'
p254
S'1354547930'
p255
tp256
a(S'Live'
p257
S'Feel The Quiet River Rage'
p258
S'http://www.last.fm/music/Live/_/Feel+The+Quiet+River+Rage'
p259
S'1354547653'
p260
tp261
a(S'Alice Cooper'
p262
S'Cleansed By Fire'
p263
S'http://www.last.fm/music/Alice+Cooper/_/Cleansed+By+Fire'
p264
S'1354546756'
p265
tp266
a(S'Live'
p267
S'Like I Do'
p268
S'http://www.last.fm/music/Live/_/Like+I+Do'
p269
S'1354546502'
p270
tp271
a(S'Live'
p272
S'Everytime I See Your Face'
p273
S'http://www.last.fm/music/Live/_/Everytime+I+See+Your+Face'
p274
S'1354546305'
p275
tp276
a(S'Live'
p277
S'Meltdown'
p278
S'http://www.last.fm/music/Live/_/Meltdown'
p279
S'1354546070'
p280
tp281
a(S'Live'
p282
S'Transmit Your Love'
p283
S'http://www.last.fm/music/Live/_/Transmit+Your+Love'
p284
S'1354539473'
p285
tp286
a(S'Alice Cooper'
p287
S'Dangerous Tonight'
p288
S'http://www.last.fm/music/Alice+Cooper/_/Dangerous+Tonight'
p289
S'1354539191'
p290
tp291
a(S'Live'
p292
S'White, Discussion'
p293
S'http://www.last.fm/music/Live/_/White,+Discussion'
p294
S'1354538822'
p295
tp296
a(S'Alice Cooper'
p297
S'Zombie Dance'
p298
S'http://www.last.fm/music/Alice+Cooper/_/Zombie+Dance'
p299
S'1354538558'
p300
tp301
a(S'Alice Cooper'
p302
S'Might As Well Be on Mars'
p303
S'http://www.last.fm/music/Alice+Cooper/_/Might+As+Well+Be+on+Mars'
p304
S'1354537297'
p305
tp306
a(S'Live'
p307
S'The Distance'
p308
S'http://www.last.fm/music/Live/_/The+Distance'
p309
S'1354537065'
p310
tp311
a(S'Alice Cooper'
p312
S"Love's a Loaded Gun"
p313
S'http://www.last.fm/music/Alice+Cooper/_/Love%27s+a+Loaded+Gun'
p314
S'1354536591'
p315
tp316
a(S'Live'
p317
S'She'
p318
S'http://www.last.fm/music/Live/_/She'
p319
S'1354536431'
p320
tp321
a(S'Live'
p322
S'Operation Spirit (The Tyranny Of Tradition)'
p323
S'http://www.last.fm/music/Live/_/Operation+Spirit+(The+Tyranny+Of+Tradition)'
p324
S'1354536232'
p325
tp326
a(S'Alice Cooper'
p327
S"Nothing's Free"
p328
S'http://www.last.fm/music/Alice+Cooper/_/Nothing%27s+Free'
p329
S'1354535932'
p330
tp331
a(S'Live'
p332
S'Waitress'
p333
S'http://www.last.fm/music/Live/_/Waitress'
p334
S'1354305065'
p335
tp336
a(S'Live'
p337
S'Transmit Your Love'
p338
S'http://www.last.fm/music/Live/_/Transmit+Your+Love'
p339
S'1354304789'
p340
tp341
a(S'Live'
p342
S'White, Discussion'
p343
S'http://www.last.fm/music/Live/_/White,+Discussion'
p344
S'1354304421'
p345
tp346
a(S'Alice Cooper'
p347
S'Zombie Dance'
p348
S'http://www.last.fm/music/Alice+Cooper/_/Zombie+Dance'
p349
S'1354304158'
p350
tp351
a(S'Live'
p352
S'Lighthouse'
p353
S'http://www.last.fm/music/Live/_/Lighthouse'
p354
S'1354303969'
p355
tp356
a(S'Alice Cooper'
p357
S'Hell Is Living Without You'
p358
S'http://www.last.fm/music/Alice+Cooper/_/Hell+Is+Living+Without+You'
p359
S'1354291720'
p360
tp361
a(S'Alice Cooper'
p362
S'Side Show'
p363
S'http://www.last.fm/music/Alice+Cooper/_/Side+Show'
p364
S'1354291320'
p365
tp366
a(S'Alice Cooper'
p367
S'Poison'
p368
S'http://www.last.fm/music/Alice+Cooper/_/Poison'
p369
S'1354291036'
p370
tp371
a(S'Live'
p372
S'They Stood Up For Love'
p373
S'http://www.last.fm/music/Live/_/They+Stood+Up+For+Love'
p374
S'1354290760'
p375
tp376
a(S'Live'
p377
S'Pain Lies On The Riverside'
p378
S'http://www.last.fm/music/Live/_/Pain+Lies+On+The+Riverside'
p379
S'1354290449'
p380
tp381
a(S'Live'
p382
S'Like I Do'
p383
S'http://www.last.fm/music/Live/_/Like+I+Do'
p384
S'1354290194'
p385
tp386
a(S'Alice Cooper'
p387
S"Love's a Loaded Gun"
p388
S'http://www.last.fm/music/Alice+Cooper/_/Love%27s+a+Loaded+Gun'
p389
S'1354289460'
p390
tp391
a(S'Live'
p392
S'The Distance'
p393
S'http://www.last.fm/music/Live/_/The+Distance'
p394
S'1354289228'
p395
tp396
a(S'Live'
p397
S'Simple Creed'
p398
S'http://www.last.fm/music/Live/_/Simple+Creed'
p399
S'1354289023'
p400
tp401
a(S'Alice Cooper'
p402
S'No More Mr Nice Guy'
p403
S'http://www.last.fm/music/Alice+Cooper/_/No+More+Mr+Nice+Guy'
p404
S'1354288837'
p405
tp406
a(S'Alice Cooper'
p407
S'No More Mr Nice Guy'
p408
S'http://www.last.fm/music/Alice+Cooper/_/No+More+Mr+Nice+Guy'
p409
S'1354281365'
p410
tp411
a(S'Alice Cooper'
p412
S'No More Mr Nice Guy'
p413
S'http://www.last.fm/music/Alice+Cooper/_/No+More+Mr+Nice+Guy'
p414
S'1354281175'
p415
tp416
a(S'Alice Cooper'
p417
S'Cleansed By Fire'
p418
S'http://www.last.fm/music/Alice+Cooper/_/Cleansed+By+Fire'
p419
S'1354278855'
p420
tp421
a(S'Alice Cooper'
p422
S'Might As Well Be on Mars'
p423
S'http://www.last.fm/music/Alice+Cooper/_/Might+As+Well+Be+on+Mars'
p424
S'1354278426'
p425
tp426
a(S'Alice Cooper'
p427
S'Stolen Prayer'
p428
S'http://www.last.fm/music/Alice+Cooper/_/Stolen+Prayer'
p429
S'1354277592'
p430
tp431
a(S'Alice Cooper'
p432
S"Nothing's Free"
p433
S'http://www.last.fm/music/Alice+Cooper/_/Nothing%27s+Free'
p434
S'1354277292'
p435
tp436
a(S'Live'
p437
S'Like I Do'
p438
S'http://www.last.fm/music/Live/_/Like+I+Do'
p439
S'1354212817'
p440
tp441
a(S'Alice Cooper'
p442
S"You're My Temptation"
p443
S'http://www.last.fm/music/Alice+Cooper/_/You%27re+My+Temptation'
p444
S'1354212508'
p445
tp446
a(S'Alice Cooper'
p447
S"Love's a Loaded Gun"
p448
S'http://www.last.fm/music/Alice+Cooper/_/Love%27s+a+Loaded+Gun'
p449
S'1354206173'
p450
tp451
a(S'Live'
p452
S'The Distance'
p453
S'http://www.last.fm/music/Live/_/The+Distance'
p454
S'1354205820'
p455
tp456
a(S'Live'
p457
S'Simple Creed'
p458
S'http://www.last.fm/music/Live/_/Simple+Creed'
p459
S'1354205615'
p460
tp461
a(S'Alice Cooper'
p462
S'No More Mr Nice Guy'
p463
S'http://www.last.fm/music/Alice+Cooper/_/No+More+Mr+Nice+Guy'
p464
S'1354205429'
p465
tp466
a(S'Live'
p467
S'Top'
p468
S'http://www.last.fm/music/Live/_/Top'
p469
S'1354205266'
p470
tp471
a(S'Alice Cooper'
p472
S'Hey Stoopid'
p473
S'http://www.last.fm/music/Alice+Cooper/_/Hey+Stoopid'
p474
S'1354204992'
p475
tp476
a(S'Live'
p477
S'Stage'
p478
S'http://www.last.fm/music/Live/_/Stage'
p479
S'1354204804'
p480
tp481
a(S'Alice Cooper'
p482
S'Cleansed By Fire'
p483
S'http://www.last.fm/music/Alice+Cooper/_/Cleansed+By+Fire'
p484
S'1354203872'
p485
tp486
a(S'Live'
p487
S'Turn My Head'
p488
S'http://www.last.fm/music/Live/_/Turn+My+Head'
p489
S'1354203634'
p490
tp491
a(S'Alice Cooper'
p492
S'Might As Well Be on Mars'
p493
S'http://www.last.fm/music/Alice+Cooper/_/Might+As+Well+Be+on+Mars'
p494
S'1354203205'
p495
tp496
a(S'Alice Cooper'
p497
S'Stolen Prayer'
p498
S'http://www.last.fm/music/Alice+Cooper/_/Stolen+Prayer'
p499
S'1354202868'
p500
tp501
a(S'Alice Cooper'
p502
S"Nothing's Free"
p503
S'http://www.last.fm/music/Alice+Cooper/_/Nothing%27s+Free'
p504
S'1354202566'
p505
tp506
a(S'Alice Cooper'
p507
S"Nothing's Free"
p508
S'http://www.last.fm/music/Alice+Cooper/_/Nothing%27s+Free'
p509
S'1354200133'
p510
tp511
a(S'Alice Cooper'
p512
S"Nothing's Free"
p513
S'http://www.last.fm/music/Alice+Cooper/_/Nothing%27s+Free'
p514
S'1354194926'
p515
tp516
a(S'Alice Cooper'
p517
S"Nothing's Free"
p518
S'http://www.last.fm/music/Alice+Cooper/_/Nothing%27s+Free'
p519
S'1354190277'
p520
tp521
a(S'Live'
p522
S'The Distance'
p523
S'http://www.last.fm/music/Live/_/The+Distance'
p524
S'1354190024'
p525
tp526
a(S'Alice Cooper'
p527
S"Nothing's Free"
p528
S'http://www.last.fm/music/Alice+Cooper/_/Nothing%27s+Free'
p529
S'1354189557'
p530
tp531
a(S'Live'
p532
S'Rattlesnake'
p533
S'http://www.last.fm/music/Live/_/Rattlesnake'
p534
S'1354189134'
p535
tp536
a(S'Live'
p537
S'Insomnia And The Hole In The Universe'
p538
S'http://www.last.fm/music/Live/_/Insomnia+And+The+Hole+In+The+Universe'
p539
S'1354188892'
p540
tp541
a(S'Live'
p542
S'Lighthouse'
p543
S'http://www.last.fm/music/Live/_/Lighthouse'
p544
S'1354188512'
p545
tp546
a(S'Alice Cooper'
p547
S'Hurricane Years'
p548
S'http://www.last.fm/music/Alice+Cooper/_/Hurricane+Years'
p549
S'1354188273'
p550
tp551
a(S'Live'
p552
S'Top'
p553
S'http://www.last.fm/music/Live/_/Top'
p554
S'1354188166'
p555
tp556
a(S'Alice Cooper'
p557
S'Unholy War'
p558
S'http://www.last.fm/music/Alice+Cooper/_/Unholy+War'
p559
S'1354187916'
p560
tp561
a(S'Alice Cooper'
p562
S'Might As Well Be on Mars'
p563
S'http://www.last.fm/music/Alice+Cooper/_/Might+As+Well+Be+on+Mars'
p564
S'1354187486'
p565
tp566
a(S'Live'
p567
S"Lakini's Juice"
p568
S'http://www.last.fm/music/Live/_/Lakini%27s+Juice'
p569
S'1354187187'
p570
tp571
a(S'Live'
p572
S'She'
p573
S'http://www.last.fm/music/Live/_/She'
p574
S'1354187027'
p575
tp576
a(S'Alice Cooper'
p577
S'Public Animal #9'
p578
S'http://www.last.fm/music/Alice+Cooper/_/Public+Animal+%239'
p579
S'1354186797'
p580
tp581
a(S'Live'
p582
S'The Distance'
p583
S'http://www.last.fm/music/Live/_/The+Distance'
p584
S'1354186455'
p585
tp586
a(S'Alice Cooper'
p587
S"Nothing's Free"
p588
S'http://www.last.fm/music/Alice+Cooper/_/Nothing%27s+Free'
p589
S'1354186134'
p590
tp591
a(S'Live'
p592
S'Top'
p593
S'http://www.last.fm/music/Live/_/Top'
p594
S'1354186019'
p595
tp596
a(S'Alice Cooper'
p597
S'Stolen Prayer'
p598
S'http://www.last.fm/music/Alice+Cooper/_/Stolen+Prayer'
p599
S'1354185680'
p600
tp601
a(S'Alice Cooper'
p602
S"Love's a Loaded Gun"
p603
S'http://www.last.fm/music/Alice+Cooper/_/Love%27s+a+Loaded+Gun'
p604
S'1354185110'
p605
tp606
a(S'Alice Cooper'
p607
S'No More Mr Nice Guy'
p608
S'http://www.last.fm/music/Alice+Cooper/_/No+More+Mr+Nice+Guy'
p609
S'1354131183'
p610
tp611
a(S'Live'
p612
S'They Stood Up For Love'
p613
S'http://www.last.fm/music/Live/_/They+Stood+Up+For+Love'
p614
S'1354130908'
p615
tp616
a(S'Alice Cooper'
p617
S'Hey Stoopid'
p618
S'http://www.last.fm/music/Alice+Cooper/_/Hey+Stoopid'
p619
S'1354130633'
p620
tp621
a(S'Alice Cooper'
p622
S'Hell Is Living Without You'
p623
S'http://www.last.fm/music/Alice+Cooper/_/Hell+Is+Living+Without+You'
p624
S'1354130382'
p625
tp626
a(S'Alice Cooper'
p627
S"I'm Eighteen"
p628
S'http://www.last.fm/music/Alice+Cooper/_/I%27m+Eighteen'
p629
S'1354130205'
p630
tp631
a(S'Live'
p632
S'The Dam At Otter Creek'
p633
S'http://www.last.fm/music/Live/_/The+Dam+At+Otter+Creek'
p634
S'1354129921'
p635
tp636
a(S'Live'
p637
S'Feel The Quiet River Rage'
p638
S'http://www.last.fm/music/Live/_/Feel+The+Quiet+River+Rage'
p639
S'1354129645'
p640
tp641
a(S'Live'
p642
S'Mirror Song'
p643
S'http://www.last.fm/music/Live/_/Mirror+Song'
p644
S'1354129096'
p645
tp646
a(S'Alice Cooper'
p647
S"Nothing's Free"
p648
S'http://www.last.fm/music/Alice+Cooper/_/Nothing%27s+Free'
p649
S'1354128794'
p650
tp651
a(S'Alice Cooper'
p652
S'Side Show'
p653
S'http://www.last.fm/music/Alice+Cooper/_/Side+Show'
p654
S'1354128381'
p655
tp656
a(S'Live'
p657
S'Stage'
p658
S'http://www.last.fm/music/Live/_/Stage'
p659
S'1354128193'
p660
tp661
a(S'Alice Cooper'
p662
S'Zombie Dance'
p663
S'http://www.last.fm/music/Alice+Cooper/_/Zombie+Dance'
p664
S'1354127930'
p665
tp666
a(S'Alice Cooper'
p667
S"Love's a Loaded Gun"
p668
S'http://www.last.fm/music/Alice+Cooper/_/Love%27s+a+Loaded+Gun'
p669
S'1354116392'
p670
tp671
a(S'Live'
p672
S'Like I Do'
p673
S'http://www.last.fm/music/Live/_/Like+I+Do'
p674
S'1354103755'
p675
tp676
a(S'Live'
p677
S'Sweet Release'
p678
S'http://www.last.fm/music/Live/_/Sweet+Release'
p679
S'1354103572'
p680
tp681
a(S'Live'
p682
S'Operation Spirit (The Tyranny Of Tradition)'
p683
S'http://www.last.fm/music/Live/_/Operation+Spirit+(The+Tyranny+Of+Tradition)'
p684
S'1354103373'
p685
tp686
a(S'Live'
p687
S'Hero Of Love'
p688
S'http://www.last.fm/music/Live/_/Hero+Of+Love'
p689
S'1354060116'
p690
tp691
a(S'Alice Cooper'
p692
S'Snakebite'
p693
S'http://www.last.fm/music/Alice+Cooper/_/Snakebite'
p694
S'1354059843'
p695
tp696
a(S'Live'
p697
S'Transmit Your Love'
p698
S'http://www.last.fm/music/Live/_/Transmit+Your+Love'
p699
S'1354059567'
p700
tp701
a(S'Live'
p702
S'She'
p703
S'http://www.last.fm/music/Live/_/She'
p704
S'1354059407'
p705
tp706
a(S'Live'
p707
S'Turn My Head'
p708
S'http://www.last.fm/music/Live/_/Turn+My+Head'
p709
S'1354059163'
p710
tp711
a(S'Alice Cooper'
p712
S'Unholy War'
p713
S'http://www.last.fm/music/Alice+Cooper/_/Unholy+War'
p714
S'1354058913'
p715
tp716
a(S'Alice Cooper'
p717
S'Dangerous Tonight'
p718
S'http://www.last.fm/music/Alice+Cooper/_/Dangerous+Tonight'
p719
S'1354058631'
p720
tp721
a(S'Live'
p722
S'The Dam At Otter Creek'
p723
S'http://www.last.fm/music/Live/_/The+Dam+At+Otter+Creek'
p724
S'1354058347'
p725
tp726
a(S'Live'
p727
S'Iris'
p728
S'http://www.last.fm/music/Live/_/Iris'
p729
S'1354058082'
p730
tp731
a(S'Alice Cooper'
p732
S'Bed of Nails'
p733
S'http://www.last.fm/music/Alice+Cooper/_/Bed+of+Nails'
p734
S'1354057822'
p735
tp736
a(S'Live'
p737
S'Feel The Quiet River Rage'
p738
S'http://www.last.fm/music/Live/_/Feel+The+Quiet+River+Rage'
p739
S'1354057545'
p740
tp741
a(S'Live'
p742
S'Insomnia And The Hole In The Universe'
p743
S'http://www.last.fm/music/Live/_/Insomnia+And+The+Hole+In+The+Universe'
p744
S'1354057278'
p745
tp746
a(S'Alice Cooper'
p747
S'Zombie Dance'
p748
S'http://www.last.fm/music/Alice+Cooper/_/Zombie+Dance'
p749
S'1354057015'
p750
tp751
a(S'Alice Cooper'
p752
S'Hey Stoopid'
p753
S'http://www.last.fm/music/Alice+Cooper/_/Hey+Stoopid'
p754
S'1354056647'
p755
tp756
a(S'Live'
p757
S'Out To Dry'
p758
S'http://www.last.fm/music/Live/_/Out+To+Dry'
p759
S'1354053464'
p760
tp761
a(S'Live'
p762
S'Lighthouse'
p763
S'http://www.last.fm/music/Live/_/Lighthouse'
p764
S'1354053276'
p765
tp766
a(S'Live'
p767
S'Brothers Unaware'
p768
S'http://www.last.fm/music/Live/_/Brothers+Unaware'
p769
S'1354052991'
p770
tp771
a(S'Live'
p772
S'Mirror Song'
p773
S'http://www.last.fm/music/Live/_/Mirror+Song'
p774
S'1354052773'
p775
tp776
a(S'Live'
p777
S'All Over You'
p778
S'http://www.last.fm/music/Live/_/All+Over+You'
p779
S'1354052533'
p780
tp781
a(S'Live'
p782
S'Wings'
p783
S'http://www.last.fm/music/Live/_/Wings'
p784
S'1354052301'
p785
tp786
a(S'Alice Cooper'
p787
S'Novocaine'
p788
S'http://www.last.fm/music/Alice+Cooper/_/Novocaine'
p789
S'1354051745'
p790
tp791
a(S'Live'
p792
S'Pain Lies On The Riverside'
p793
S'http://www.last.fm/music/Live/_/Pain+Lies+On+The+Riverside'
p794
S'1354051433'
p795
tp796
a(S'Live'
p797
S'Shit Towne'
p798
S'http://www.last.fm/music/Live/_/Shit+Towne'
p799
S'1354045470'
p800
tp801
a(S'Live'
p802
S'Waitress'
p803
S'http://www.last.fm/music/Live/_/Waitress'
p804
S'1354045301'
p805
tp806
a(S'Alice Cooper'
p807
S"The Song That Didn't Rhyme"
p808
S'http://www.last.fm/music/Alice+Cooper/_/The+Song+That+Didn%27t+Rhyme'
p809
S'1354045104'
p810
tp811
a(S'Live'
p812
S'Everytime I See Your Face'
p813
S'http://www.last.fm/music/Live/_/Everytime+I+See+Your+Face'
p814
S'1354044908'
p815
tp816
a(S'Alice Cooper'
p817
S'No More Mr Nice Guy'
p818
S'http://www.last.fm/music/Alice+Cooper/_/No+More+Mr+Nice+Guy'
p819
S'1354044722'
p820
tp821
a(S'Alice Cooper'
p822
S'Schools Out'
p823
S'http://www.last.fm/music/Alice+Cooper/_/Schools+Out'
p824
S'1354044512'
p825
tp826
a(S'Alice Cooper'
p827
S'Hurricane Years'
p828
S'http://www.last.fm/music/Alice+Cooper/_/Hurricane+Years'
p829
S'1354044273'
p830
tp831
a(S'Live'
p832
S'Meltdown'
p833
S'http://www.last.fm/music/Live/_/Meltdown'
p834
S'1354044038'
p835
tp836
a(S'Live'
p837
S'Top'
p838
S'http://www.last.fm/music/Live/_/Top'
p839
S'1354043867'
p840
tp841
a(S'Live'
p842
S'Simple Creed'
p843
S'http://www.last.fm/music/Live/_/Simple+Creed'
p844
S'1354043124'
p845
tp846
a(S'Live'
p847
S'White, Discussion'
p848
S'http://www.last.fm/music/Live/_/White,+Discussion'
p849
S'1354042756'
p850
tp851
a(S'Alice Cooper'
p852
S'Public Animal #9'
p853
S'http://www.last.fm/music/Alice+Cooper/_/Public+Animal+%239'
p854
S'1354042521'
p855
tp856
a(S'Alice Cooper'
p857
S"Nothing's Free"
p858
S'http://www.last.fm/music/Alice+Cooper/_/Nothing%27s+Free'
p859
S'1354042220'
p860
tp861
a(S'Live'
p862
S'The Distance'
p863
S'http://www.last.fm/music/Live/_/The+Distance'
p864
S'1354041961'
p865
tp866
a(S'Alice Cooper'
p867
S'Poison'
p868
S'http://www.last.fm/music/Alice+Cooper/_/Poison'
p869
S'1354035050'
p870
tp871
a(S'Alice Cooper'
p872
S'Burning Our Bed'
p873
S'http://www.last.fm/music/Alice+Cooper/_/Burning+Our+Bed'
p874
S'1354034776'
p875
tp876
a(S'Alice Cooper'
p877
S'Might As Well Be on Mars'
p878
S'http://www.last.fm/music/Alice+Cooper/_/Might+As+Well+Be+on+Mars'
p879
S'1354034346'
p880
tp881
a(S'Alice Cooper'
p882
S'Stolen Prayer'
p883
S'http://www.last.fm/music/Alice+Cooper/_/Stolen+Prayer'
p884
S'1354034009'
p885
tp886
a(S'Live'
p887
S'They Stood Up For Love'
p888
S'http://www.last.fm/music/Live/_/They+Stood+Up+For+Love'
p889
S'1354033734'
p890
tp891
a(S'Alice Cooper'
p892
S"You're My Temptation"
p893
S'http://www.last.fm/music/Alice+Cooper/_/You%27re+My+Temptation'
p894
S'1354033424'
p895
tp896
a(S'Live'
p897
S'White, Discussion'
p898
S'http://www.last.fm/music/Live/_/White,+Discussion'
p899
S'1353956136'
p900
tp901
a(S'Alice Cooper'
p902
S'Die For You'
p903
S'http://www.last.fm/music/Alice+Cooper/_/Die+For+You'
p904
S'1353955880'
p905
tp906
a(S'Alice Cooper'
p907
S'Love Should Never Feel Like This'
p908
S'http://www.last.fm/music/Alice+Cooper/_/Love+Should+Never+Feel+Like+This'
p909
S'1353955667'
p910
tp911
a(S'Alice Cooper'
p912
S'Unholy War'
p913
S'http://www.last.fm/music/Alice+Cooper/_/Unholy+War'
p914
S'1353955372'
p915
tp916
a(S'Live'
p917
S'Feel The Quiet River Rage'
p918
S'http://www.last.fm/music/Live/_/Feel+The+Quiet+River+Rage'
p919
S'1353955082'
p920
tp921
a(S'Alice Cooper'
p922
S'Snakebite'
p923
S'http://www.last.fm/music/Alice+Cooper/_/Snakebite'
p924
S'1353954766'
p925
tp926
a(S'Alice Cooper'
p927
S'Might As Well Be on Mars'
p928
S'http://www.last.fm/music/Alice+Cooper/_/Might+As+Well+Be+on+Mars'
p929
S'1353954336'
p930
tp931
a(S'Live'
p932
S'Shit Towne'
p933
S'http://www.last.fm/music/Live/_/Shit+Towne'
p934
S'1353954108'
p935
tp936
a(S'Alice Cooper'
p937
S'Cleansed By Fire'
p938
S'http://www.last.fm/music/Alice+Cooper/_/Cleansed+By+Fire'
p939
S'1353953719'
p940
tp941
a(S'Live'
p942
S'Like I Do'
p943
S'http://www.last.fm/music/Live/_/Like+I+Do'
p944
S'1353953465'
p945
tp946
a(S'Alice Cooper'
p947
S'Dangerous Tonight'
p948
S'http://www.last.fm/music/Alice+Cooper/_/Dangerous+Tonight'
p949
S'1353953183'
p950
tp951
a(S'Alice Cooper'
p952
S"Love's a Loaded Gun"
p953
S'http://www.last.fm/music/Alice+Cooper/_/Love%27s+a+Loaded+Gun'
p954
S'1353952931'
p955
tp956
a(S'Alice Cooper'
p957
S"Nothing's Free"
p958
S'http://www.last.fm/music/Alice+Cooper/_/Nothing%27s+Free'
p959
S'1353952600'
p960
tp961
a(S'Alice Cooper'
p962
S"Nothing's Free"
p963
S'http://www.last.fm/music/Alice+Cooper/_/Nothing%27s+Free'
p964
S'1353952275'
p965
tp966
a(S'Alice Cooper'
p967
S"Nothing's Free"
p968
S'http://www.last.fm/music/Alice+Cooper/_/Nothing%27s+Free'
p969
S'1353952065'
p970
tp971
a(S'Alice Cooper'
p972
S"Nothing's Free"
p973
S'http://www.last.fm/music/Alice+Cooper/_/Nothing%27s+Free'
p974
S'1353951705'
p975
tp976
a(S'Live'
p977
S'Pain Lies On The Riverside'
p978
S'http://www.last.fm/music/Live/_/Pain+Lies+On+The+Riverside'
p979
S'1353951137'
p980
tp981
a(S'Live'
p982
S'Where Fishes Go'
p983
S'http://www.last.fm/music/Live/_/Where+Fishes+Go'
p984
S'1353950874'
p985
tp986
a(S'Live'
p987
S'Turn My Head'
p988
S'http://www.last.fm/music/Live/_/Turn+My+Head'
p989
S'1353950628'
p990
tp991
a(S'Alice Cooper'
p992
S'Schools Out'
p993
S'http://www.last.fm/music/Alice+Cooper/_/Schools+Out'
p994
S'1353950418'
p995
tp996
a(S'Live'
p997
S'Lighthouse'
p998
S'http://www.last.fm/music/Live/_/Lighthouse'
p999
S'1353950203'
p1000
tp1001
a.