(lp1
(S'Alice in Chains'
p2
S'Breath on a Window'
p3
S'http://www.last.fm/music/Alice+in+Chains/_/Breath+on+a+Window'
p4
S'1372274927'
p5
tp6
a(S'Rainbow'
p7
S'Kill the King'
p8
S'http://www.last.fm/music/Rainbow/_/Kill+the+King'
p9
S'1372274210'
p10
tp11
a(S'Alice in Chains'
p12
S'Low Ceiling'
p13
S'http://www.last.fm/music/Alice+in+Chains/_/Low+Ceiling'
p14
S'1372270775'
p15
tp16
a(S'Alice in Chains'
p17
S'Phantom Limb'
p18
S'http://www.last.fm/music/Alice+in+Chains/_/Phantom+Limb'
p19
S'1372270347'
p20
tp21
a(S'Alice in Chains'
p22
S'Scalpel'
p23
S'http://www.last.fm/music/Alice+in+Chains/_/Scalpel'
p24
S'1372270024'
p25
tp26
a(S'Alice in Chains'
p27
S'Voices'
p28
S'http://www.last.fm/music/Alice+in+Chains/_/Voices'
p29
S'1372269680'
p30
tp31
a(S'Alice in Chains'
p32
S'Stone'
p33
S'http://www.last.fm/music/Alice+in+Chains/_/Stone'
p34
S'1372269416'
p35
tp36
a(S'Daft Punk'
p37
S'Instant Crush (feat. Julian Casablancas)'
p38
S'http://www.last.fm/music/Daft+Punk/_/Instant+Crush+(feat.+Julian+Casablancas)'
p39
S'1372269080'
p40
tp41
a(S'Daft Punk'
p42
S'Motherboard'
p43
S'http://www.last.fm/music/Daft+Punk/_/Motherboard'
p44
S'1372268839'
p45
tp46
a(S'Alice in Chains'
p47
S'Choke'
p48
S'http://www.last.fm/music/Alice+in+Chains/_/Choke'
p49
S'1372268496'
p50
tp51
a(S'Daft Punk'
p52
S'Contact'
p53
S'http://www.last.fm/music/Daft+Punk/_/Contact'
p54
S'1372265075'
p55
tp56
a(S'Daft Punk'
p57
S'Lose Yourself to Dance (feat. Pharrell Williams)'
p58
S'http://www.last.fm/music/Daft+Punk/_/Lose+Yourself+to+Dance+(feat.+Pharrell+Williams)'
p59
S'1372264720'
p60
tp61
a(S'Alice in Chains'
p62
S'Pretty Done'
p63
S'http://www.last.fm/music/Alice+in+Chains/_/Pretty+Done'
p64
S'1372264446'
p65
tp66
a(S'Daft Punk'
p67
S"Doin' It Right (feat. Panda Bear)"
p68
S'http://www.last.fm/music/Daft+Punk/_/Doin%27+It+Right+(feat.+Panda+Bear)'
p69
S'1372264196'
p70
tp71
a(S'Daft Punk'
p72
S'Get Lucky (feat. Pharrell Williams)'
p73
S'http://www.last.fm/music/Daft+Punk/_/Get+Lucky+(feat.+Pharrell+Williams)'
p74
S'1372263825'
p75
tp76
a(S'Daft Punk'
p77
S'Touch (feat. Paul Williams)'
p78
S'http://www.last.fm/music/Daft+Punk/_/Touch+(feat.+Paul+Williams)'
p79
S'1372260387'
p80
tp81
a(S'Alice in Chains'
p82
S'Hollow'
p83
S'http://www.last.fm/music/Alice+in+Chains/_/Hollow'
p84
S'1372260047'
p85
tp86
a(S'Dio'
p87
S'Holy Diver'
p88
S'http://www.last.fm/music/Dio/_/Holy+Diver'
p89
S'1372259696'
p90
tp91
a(S'Daft Punk'
p92
S'Give Life Back to Music'
p93
S'http://www.last.fm/music/Daft+Punk/_/Give+Life+Back+to+Music'
p94
S'1372259422'
p95
tp96
a(S'Alice in Chains'
p97
S'Breath on a Window'
p98
S'http://www.last.fm/music/Alice+in+Chains/_/Breath+on+a+Window'
p99
S'1372259103'
p100
tp101
a(S'Daft Punk'
p102
S'Horizon (Japan Bonus Track)'
p103
S'http://www.last.fm/music/Daft+Punk/_/Horizon+(Japan+Bonus+Track)'
p104
S'1372258840'
p105
tp106
a(S'Rainbow'
p107
S'Kill the King'
p108
S'http://www.last.fm/music/Rainbow/_/Kill+the+King'
p109
S'1372258571'
p110
tp111
a(S'Rainbow'
p112
S'Catch the Rainbow'
p113
S'http://www.last.fm/music/Rainbow/_/Catch+the+Rainbow'
p114
S'1372258180'
p115
tp116
a(S'Alice in Chains'
p117
S'Low Ceiling'
p118
S'http://www.last.fm/music/Alice+in+Chains/_/Low+Ceiling'
p119
S'1372257865'
p120
tp121
a(S'Alice in Chains'
p122
S'Phantom Limb'
p123
S'http://www.last.fm/music/Alice+in+Chains/_/Phantom+Limb'
p124
S'1372257436'
p125
tp126
a(S'Alice in Chains'
p127
S'Scalpel'
p128
S'http://www.last.fm/music/Alice+in+Chains/_/Scalpel'
p129
S'1372257112'
p130
tp131
a(S'Daft Punk'
p132
S'Lose Yourself to Dance (feat. Pharrell Williams)'
p133
S'http://www.last.fm/music/Daft+Punk/_/Lose+Yourself+to+Dance+(feat.+Pharrell+Williams)'
p134
S'1372251085'
p135
tp136
a(S'Alice in Chains'
p137
S'Pretty Done'
p138
S'http://www.last.fm/music/Alice+in+Chains/_/Pretty+Done'
p139
S'1372250811'
p140
tp141
a(S'Daft Punk'
p142
S"Doin' It Right (feat. Panda Bear)"
p143
S'http://www.last.fm/music/Daft+Punk/_/Doin%27+It+Right+(feat.+Panda+Bear)'
p144
S'1372250560'
p145
tp146
a(S'Daft Punk'
p147
S'Get Lucky (feat. Pharrell Williams)'
p148
S'http://www.last.fm/music/Daft+Punk/_/Get+Lucky+(feat.+Pharrell+Williams)'
p149
S'1372250189'
p150
tp151
a(S'Daft Punk'
p152
S'Touch (feat. Paul Williams)'
p153
S'http://www.last.fm/music/Daft+Punk/_/Touch+(feat.+Paul+Williams)'
p154
S'1372249689'
p155
tp156
a(S'Alice in Chains'
p157
S'Hollow'
p158
S'http://www.last.fm/music/Alice+in+Chains/_/Hollow'
p159
S'1372249349'
p160
tp161
a(S'Dio'
p162
S'Holy Diver'
p163
S'http://www.last.fm/music/Dio/_/Holy+Diver'
p164
S'1372248998'
p165
tp166
a(S'Daft Punk'
p167
S'Give Life Back to Music'
p168
S'http://www.last.fm/music/Daft+Punk/_/Give+Life+Back+to+Music'
p169
S'1372248723'
p170
tp171
a(S'Alice in Chains'
p172
S'Breath on a Window'
p173
S'http://www.last.fm/music/Alice+in+Chains/_/Breath+on+a+Window'
p174
S'1372248403'
p175
tp176
a(S'Daft Punk'
p177
S'Horizon (Japan Bonus Track)'
p178
S'http://www.last.fm/music/Daft+Punk/_/Horizon+(Japan+Bonus+Track)'
p179
S'1372248140'
p180
tp181
a(S'Rainbow'
p182
S'Kill the King'
p183
S'http://www.last.fm/music/Rainbow/_/Kill+the+King'
p184
S'1372247870'
p185
tp186
a(S'Rainbow'
p187
S'Catch the Rainbow'
p188
S'http://www.last.fm/music/Rainbow/_/Catch+the+Rainbow'
p189
S'1372247479'
p190
tp191
a(S'Alice in Chains'
p192
S'Low Ceiling'
p193
S'http://www.last.fm/music/Alice+in+Chains/_/Low+Ceiling'
p194
S'1372247164'
p195
tp196
a(S'Alice in Chains'
p197
S'Scalpel'
p198
S'http://www.last.fm/music/Alice+in+Chains/_/Scalpel'
p199
S'1372246835'
p200
tp201
a(S'Alice in Chains'
p202
S'Voices'
p203
S'http://www.last.fm/music/Alice+in+Chains/_/Voices'
p204
S'1372246491'
p205
tp206
a(S'Alice in Chains'
p207
S'Stone'
p208
S'http://www.last.fm/music/Alice+in+Chains/_/Stone'
p209
S'1372246227'
p210
tp211
a(S'Daft Punk'
p212
S'Instant Crush (feat. Julian Casablancas)'
p213
S'http://www.last.fm/music/Daft+Punk/_/Instant+Crush+(feat.+Julian+Casablancas)'
p214
S'1372245890'
p215
tp216
a(S'Daft Punk'
p217
S'Fragments of Time (feat. Todd Edwards)'
p218
S'http://www.last.fm/music/Daft+Punk/_/Fragments+of+Time+(feat.+Todd+Edwards)'
p219
S'1372245610'
p220
tp221
a(S'Alice in Chains'
p222
S'The Devil Put Dinosaurs Here'
p223
S'http://www.last.fm/music/Alice+in+Chains/_/The+Devil+Put+Dinosaurs+Here'
p224
S'1372245213'
p225
tp226
a(S'Alice in Chains'
p227
S'Hung on a Hook'
p228
S'http://www.last.fm/music/Alice+in+Chains/_/Hung+on+a+Hook'
p229
S'1372244877'
p230
tp231
a(S'Daft Punk'
p232
S'Giorgio by Moroder'
p233
S'http://www.last.fm/music/Daft+Punk/_/Giorgio+by+Moroder'
p234
S'1372244092'
p235
tp236
a(S'Daft Punk'
p237
S'Beyond'
p238
S'http://www.last.fm/music/Daft+Punk/_/Beyond'
p239
S'1372243608'
p240
tp241
a(S'Daft Punk'
p242
S'Beyond'
p243
S'http://www.last.fm/music/Daft+Punk/_/Beyond'
p244
S'1372203208'
p245
tp246
a(S'Daft Punk'
p247
S'Get Lucky (feat. Pharrell Williams)'
p248
S'http://www.last.fm/music/Daft+Punk/_/Get+Lucky+(feat.+Pharrell+Williams)'
p249
S'1372202810'
p250
tp251
a(S'Alice in Chains'
p252
S'The Devil Put Dinosaurs Here'
p253
S'http://www.last.fm/music/Alice+in+Chains/_/The+Devil+Put+Dinosaurs+Here'
p254
S'1372202413'
p255
tp256
a(S'Rainbow'
p257
S'Catch the Rainbow'
p258
S'http://www.last.fm/music/Rainbow/_/Catch+the+Rainbow'
p259
S'1372202021'
p260
tp261
a(S'Daft Punk'
p262
S"Doin' It Right (feat. Panda Bear)"
p263
S'http://www.last.fm/music/Daft+Punk/_/Doin%27+It+Right+(feat.+Panda+Bear)'
p264
S'1372201770'
p265
tp266
a(S'Alice in Chains'
p267
S'Voices'
p268
S'http://www.last.fm/music/Alice+in+Chains/_/Voices'
p269
S'1372201429'
p270
tp271
a(S'Alice in Chains'
p272
S'Stone'
p273
S'http://www.last.fm/music/Alice+in+Chains/_/Stone'
p274
S'1372201165'
p275
tp276
a(S'Alice in Chains'
p277
S'Low Ceiling'
p278
S'http://www.last.fm/music/Alice+in+Chains/_/Low+Ceiling'
p279
S'1372200503'
p280
tp281
a(S'Daft Punk'
p282
S'Lose Yourself to Dance (feat. Pharrell Williams)'
p283
S'http://www.last.fm/music/Daft+Punk/_/Lose+Yourself+to+Dance+(feat.+Pharrell+Williams)'
p284
S'1372200151'
p285
tp286
a(S'Alice in Chains'
p287
S'Pretty Done'
p288
S'http://www.last.fm/music/Alice+in+Chains/_/Pretty+Done'
p289
S'1372199876'
p290
tp291
a(S'Daft Punk'
p292
S'Fragments of Time (feat. Todd Edwards)'
p293
S'http://www.last.fm/music/Daft+Punk/_/Fragments+of+Time+(feat.+Todd+Edwards)'
p294
S'1372199564'
p295
tp296
a(S'Rainbow'
p297
S'Kill the King'
p298
S'http://www.last.fm/music/Rainbow/_/Kill+the+King'
p299
S'1372199295'
p300
tp301
a(S'Daft Punk'
p302
S'Beyond'
p303
S'http://www.last.fm/music/Daft+Punk/_/Beyond'
p304
S'1372199005'
p305
tp306
a(S'Alice in Chains'
p307
S'Phantom Limb'
p308
S'http://www.last.fm/music/Alice+in+Chains/_/Phantom+Limb'
p309
S'1372198579'
p310
tp311
a(S'Daft Punk'
p312
S"Doin' It Right (feat. Panda Bear)"
p313
S'http://www.last.fm/music/Daft+Punk/_/Doin%27+It+Right+(feat.+Panda+Bear)'
p314
S'1372198248'
p315
tp316
a(S'Alice in Chains'
p317
S'Breath on a Window'
p318
S'http://www.last.fm/music/Alice+in+Chains/_/Breath+on+a+Window'
p319
S'1372197930'
p320
tp321
a(S'Daft Punk'
p322
S'Beyond'
p323
S'http://www.last.fm/music/Daft+Punk/_/Beyond'
p324
S'1372197641'
p325
tp326
a(S'Alice in Chains'
p327
S'Phantom Limb'
p328
S'http://www.last.fm/music/Alice+in+Chains/_/Phantom+Limb'
p329
S'1372190245'
p330
tp331
a(S'Daft Punk'
p332
S'The Game of Love'
p333
S'http://www.last.fm/music/Daft+Punk/_/The+Game+of+Love'
p334
S'1372189924'
p335
tp336
a(S'Daft Punk'
p337
S"Doin' It Right (feat. Panda Bear)"
p338
S'http://www.last.fm/music/Daft+Punk/_/Doin%27+It+Right+(feat.+Panda+Bear)'
p339
S'1372189671'
p340
tp341
a(S'Alice in Chains'
p342
S'Breath on a Window'
p343
S'http://www.last.fm/music/Alice+in+Chains/_/Breath+on+a+Window'
p344
S'1372189352'
p345
tp346
a(S'Daft Punk'
p347
S'Beyond'
p348
S'http://www.last.fm/music/Daft+Punk/_/Beyond'
p349
S'1372189062'
p350
tp351
a(S'Daft Punk'
p352
S'Contact'
p353
S'http://www.last.fm/music/Daft+Punk/_/Contact'
p354
S'1372188668'
p355
tp356
a(S'Alice in Chains'
p357
S'Lab Monkey'
p358
S'http://www.last.fm/music/Alice+in+Chains/_/Lab+Monkey'
p359
S'1372188310'
p360
tp361
a(S'Alice in Chains'
p362
S'Hollow'
p363
S'http://www.last.fm/music/Alice+in+Chains/_/Hollow'
p364
S'1372187968'
p365
tp366
a(S'Daft Punk'
p367
S'Giorgio by Moroder'
p368
S'http://www.last.fm/music/Daft+Punk/_/Giorgio+by+Moroder'
p369
S'1372187424'
p370
tp371
a(S'Daft Punk'
p372
S'Lose Yourself to Dance (feat. Pharrell Williams)'
p373
S'http://www.last.fm/music/Daft+Punk/_/Lose+Yourself+to+Dance+(feat.+Pharrell+Williams)'
p374
S'1372187069'
p375
tp376
a(S'Daft Punk'
p377
S'Touch (feat. Paul Williams)'
p378
S'http://www.last.fm/music/Daft+Punk/_/Touch+(feat.+Paul+Williams)'
p379
S'1372186569'
p380
tp381
a(S'Alice in Chains'
p382
S'The Devil Put Dinosaurs Here'
p383
S'http://www.last.fm/music/Alice+in+Chains/_/The+Devil+Put+Dinosaurs+Here'
p384
S'1372186164'
p385
tp386
a(S'Rainbow'
p387
S'Kill the King'
p388
S'http://www.last.fm/music/Rainbow/_/Kill+the+King'
p389
S'1372185883'
p390
tp391
a(S'Daft Punk'
p392
S'Fragments of Time (feat. Todd Edwards)'
p393
S'http://www.last.fm/music/Daft+Punk/_/Fragments+of+Time+(feat.+Todd+Edwards)'
p394
S'1372185602'
p395
tp396
a(S'Daft Punk'
p397
S'Lose Yourself to Dance (feat. Pharrell Williams)'
p398
S'http://www.last.fm/music/Daft+Punk/_/Lose+Yourself+to+Dance+(feat.+Pharrell+Williams)'
p399
S'1372167799'
p400
tp401
a(S'Daft Punk'
p402
S'Motherboard'
p403
S'http://www.last.fm/music/Daft+Punk/_/Motherboard'
p404
S'1372167455'
p405
tp406
a(S'Daft Punk'
p407
S'Giorgio by Moroder'
p408
S'http://www.last.fm/music/Daft+Punk/_/Giorgio+by+Moroder'
p409
S'1372166909'
p410
tp411
a(S'Alice in Chains'
p412
S'Lab Monkey'
p413
S'http://www.last.fm/music/Alice+in+Chains/_/Lab+Monkey'
p414
S'1372166550'
p415
tp416
a(S'Alice in Chains'
p417
S'The Devil Put Dinosaurs Here'
p418
S'http://www.last.fm/music/Alice+in+Chains/_/The+Devil+Put+Dinosaurs+Here'
p419
S'1372166149'
p420
tp421
a(S'Alice in Chains'
p422
S'Hung on a Hook'
p423
S'http://www.last.fm/music/Alice+in+Chains/_/Hung+on+a+Hook'
p424
S'1372165814'
p425
tp426
a(S'Alice in Chains'
p427
S'Stone'
p428
S'http://www.last.fm/music/Alice+in+Chains/_/Stone'
p429
S'1372165550'
p430
tp431
a(S'Daft Punk'
p432
S'Fragments of Time (feat. Todd Edwards)'
p433
S'http://www.last.fm/music/Daft+Punk/_/Fragments+of+Time+(feat.+Todd+Edwards)'
p434
S'1372165271'
p435
tp436
a(S'Daft Punk'
p437
S'Within'
p438
S'http://www.last.fm/music/Daft+Punk/_/Within'
p439
S'1372165040'
p440
tp441
a(S'Alice in Chains'
p442
S'Phantom Limb'
p443
S'http://www.last.fm/music/Alice+in+Chains/_/Phantom+Limb'
p444
S'1372164138'
p445
tp446
a(S'Daft Punk'
p447
S'Instant Crush (feat. Julian Casablancas)'
p448
S'http://www.last.fm/music/Daft+Punk/_/Instant+Crush+(feat.+Julian+Casablancas)'
p449
S'1372163800'
p450
tp451
a(S'Alice in Chains'
p452
S'Breath on a Window'
p453
S'http://www.last.fm/music/Alice+in+Chains/_/Breath+on+a+Window'
p454
S'1372163482'
p455
tp456
a(S'Daft Punk'
p457
S'Give Life Back to Music'
p458
S'http://www.last.fm/music/Daft+Punk/_/Give+Life+Back+to+Music'
p459
S'1372163207'
p460
tp461
a(S'Rainbow'
p462
S'Kill the King'
p463
S'http://www.last.fm/music/Rainbow/_/Kill+the+King'
p464
S'1372162938'
p465
tp466
a(S'Rainbow'
p467
S'Catch the Rainbow'
p468
S'http://www.last.fm/music/Rainbow/_/Catch+the+Rainbow'
p469
S'1372161170'
p470
tp471
a(S'Daft Punk'
p472
S"Doin' It Right (feat. Panda Bear)"
p473
S'http://www.last.fm/music/Daft+Punk/_/Doin%27+It+Right+(feat.+Panda+Bear)'
p474
S'1372160919'
p475
tp476
a(S'Alice in Chains'
p477
S'Scalpel'
p478
S'http://www.last.fm/music/Alice+in+Chains/_/Scalpel'
p479
S'1372160598'
p480
tp481
a(S'Alice in Chains'
p482
S'Low Ceiling'
p483
S'http://www.last.fm/music/Alice+in+Chains/_/Low+Ceiling'
p484
S'1372160282'
p485
tp486
a(S'Alice in Chains'
p487
S'Choke'
p488
S'http://www.last.fm/music/Alice+in+Chains/_/Choke'
p489
S'1372159867'
p490
tp491
a(S'Daft Punk'
p492
S'Beyond'
p493
S'http://www.last.fm/music/Daft+Punk/_/Beyond'
p494
S'1372103768'
p495
tp496
a(S'Rainbow'
p497
S'Kill the King'
p498
S'http://www.last.fm/music/Rainbow/_/Kill+the+King'
p499
S'1372103448'
p500
tp501
a(S'Alice in Chains'
p502
S'Hollow'
p503
S'http://www.last.fm/music/Alice+in+Chains/_/Hollow'
p504
S'1372103107'
p505
tp506
a(S'Alice in Chains'
p507
S'Scalpel'
p508
S'http://www.last.fm/music/Alice+in+Chains/_/Scalpel'
p509
S'1372102785'
p510
tp511
a(S'Daft Punk'
p512
S'Beyond'
p513
S'http://www.last.fm/music/Daft+Punk/_/Beyond'
p514
S'1372102496'
p515
tp516
a(S'Daft Punk'
p517
S'Fragments of Time (feat. Todd Edwards)'
p518
S'http://www.last.fm/music/Daft+Punk/_/Fragments+of+Time+(feat.+Todd+Edwards)'
p519
S'1372102149'
p520
tp521
a(S'Daft Punk'
p522
S'The Game of Love'
p523
S'http://www.last.fm/music/Daft+Punk/_/The+Game+of+Love'
p524
S'1372101978'
p525
tp526
a(S'Alice in Chains'
p527
S'Voices'
p528
S'http://www.last.fm/music/Alice+in+Chains/_/Voices'
p529
S'1372101636'
p530
tp531
a(S'Alice in Chains'
p532
S'Stone'
p533
S'http://www.last.fm/music/Alice+in+Chains/_/Stone'
p534
S'1372101371'
p535
tp536
a(S'Daft Punk'
p537
S'Get Lucky (feat. Pharrell Williams)'
p538
S'http://www.last.fm/music/Daft+Punk/_/Get+Lucky+(feat.+Pharrell+Williams)'
p539
S'1372101003'
p540
tp541
a(S'Daft Punk'
p542
S'Give Life Back to Music'
p543
S'http://www.last.fm/music/Daft+Punk/_/Give+Life+Back+to+Music'
p544
S'1372100726'
p545
tp546
a(S'Alice in Chains'
p547
S'Breath on a Window'
p548
S'http://www.last.fm/music/Alice+in+Chains/_/Breath+on+a+Window'
p549
S'1372100324'
p550
tp551
a(S'Daft Punk'
p552
S'Give Life Back to Music'
p553
S'http://www.last.fm/music/Daft+Punk/_/Give+Life+Back+to+Music'
p554
S'1372096794'
p555
tp556
a(S'Alice in Chains'
p557
S'Breath on a Window'
p558
S'http://www.last.fm/music/Alice+in+Chains/_/Breath+on+a+Window'
p559
S'1372096475'
p560
tp561
a(S'Rainbow'
p562
S'Kill the King'
p563
S'http://www.last.fm/music/Rainbow/_/Kill+the+King'
p564
S'1372096084'
p565
tp566
a(S'Alice in Chains'
p567
S'Hollow'
p568
S'http://www.last.fm/music/Alice+in+Chains/_/Hollow'
p569
S'1372095744'
p570
tp571
a(S'Alice in Chains'
p572
S'Scalpel'
p573
S'http://www.last.fm/music/Alice+in+Chains/_/Scalpel'
p574
S'1372095422'
p575
tp576
a(S'Daft Punk'
p577
S'Beyond'
p578
S'http://www.last.fm/music/Daft+Punk/_/Beyond'
p579
S'1372095132'
p580
tp581
a(S'Daft Punk'
p582
S'Giorgio by Moroder'
p583
S'http://www.last.fm/music/Daft+Punk/_/Giorgio+by+Moroder'
p584
S'1372094587'
p585
tp586
a(S'Daft Punk'
p587
S'Horizon (Japan Bonus Track)'
p588
S'http://www.last.fm/music/Daft+Punk/_/Horizon+(Japan+Bonus+Track)'
p589
S'1372094322'
p590
tp591
a(S'Daft Punk'
p592
S'Fragments of Time (feat. Todd Edwards)'
p593
S'http://www.last.fm/music/Daft+Punk/_/Fragments+of+Time+(feat.+Todd+Edwards)'
p594
S'1372094040'
p595
tp596
a(S'Daft Punk'
p597
S"Doin' It Right (feat. Panda Bear)"
p598
S'http://www.last.fm/music/Daft+Punk/_/Doin%27+It+Right+(feat.+Panda+Bear)'
p599
S'1372093320'
p600
tp601
a(S'Alice in Chains'
p602
S'Voices'
p603
S'http://www.last.fm/music/Alice+in+Chains/_/Voices'
p604
S'1372092979'
p605
tp606
a(S'Daft Punk'
p607
S'Fragments of Time (feat. Todd Edwards)'
p608
S'http://www.last.fm/music/Daft+Punk/_/Fragments+of+Time+(feat.+Todd+Edwards)'
p609
S'1372092698'
p610
tp611
a(S'Daft Punk'
p612
S"Doin' It Right (feat. Panda Bear)"
p613
S'http://www.last.fm/music/Daft+Punk/_/Doin%27+It+Right+(feat.+Panda+Bear)'
p614
S'1372082764'
p615
tp616
a(S'Daft Punk'
p617
S'Lose Yourself to Dance (feat. Pharrell Williams)'
p618
S'http://www.last.fm/music/Daft+Punk/_/Lose+Yourself+to+Dance+(feat.+Pharrell+Williams)'
p619
S'1372082408'
p620
tp621
a(S'Daft Punk'
p622
S'The Game of Love'
p623
S'http://www.last.fm/music/Daft+Punk/_/The+Game+of+Love'
p624
S'1372082084'
p625
tp626
a(S'Daft Punk'
p627
S'Beyond'
p628
S'http://www.last.fm/music/Daft+Punk/_/Beyond'
p629
S'1372081793'
p630
tp631
a(S'Alice in Chains'
p632
S'Breath on a Window'
p633
S'http://www.last.fm/music/Alice+in+Chains/_/Breath+on+a+Window'
p634
S'1372081474'
p635
tp636
a(S'Alice in Chains'
p637
S'Hung on a Hook'
p638
S'http://www.last.fm/music/Alice+in+Chains/_/Hung+on+a+Hook'
p639
S'1372081139'
p640
tp641
a(S'Alice in Chains'
p642
S'Hollow'
p643
S'http://www.last.fm/music/Alice+in+Chains/_/Hollow'
p644
S'1372080796'
p645
tp646
a(S'Daft Punk'
p647
S'Give Life Back to Music'
p648
S'http://www.last.fm/music/Daft+Punk/_/Give+Life+Back+to+Music'
p649
S'1372080520'
p650
tp651
a(S'Alice in Chains'
p652
S'Phantom Limb'
p653
S'http://www.last.fm/music/Alice+in+Chains/_/Phantom+Limb'
p654
S'1372080089'
p655
tp656
a(S'Alice in Chains'
p657
S'Lab Monkey'
p658
S'http://www.last.fm/music/Alice+in+Chains/_/Lab+Monkey'
p659
S'1372079729'
p660
tp661
a(S'Daft Punk'
p662
S'Instant Crush (feat. Julian Casablancas)'
p663
S'http://www.last.fm/music/Daft+Punk/_/Instant+Crush+(feat.+Julian+Casablancas)'
p664
S'1372079393'
p665
tp666
a(S'Rainbow'
p667
S'Kill the King'
p668
S'http://www.last.fm/music/Rainbow/_/Kill+the+King'
p669
S'1372079123'
p670
tp671
a(S'Rainbow'
p672
S'Catch the Rainbow'
p673
S'http://www.last.fm/music/Rainbow/_/Catch+the+Rainbow'
p674
S'1372078290'
p675
tp676
a(S'Daft Punk'
p677
S'Within'
p678
S'http://www.last.fm/music/Daft+Punk/_/Within'
p679
S'1372078020'
p680
tp681
a(S'Daft Punk'
p682
S'Fragments of Time (feat. Todd Edwards)'
p683
S'http://www.last.fm/music/Daft+Punk/_/Fragments+of+Time+(feat.+Todd+Edwards)'
p684
S'1372077739'
p685
tp686
a(S'Daft Punk'
p687
S'Motherboard'
p688
S'http://www.last.fm/music/Daft+Punk/_/Motherboard'
p689
S'1371837604'
p690
tp691
a(S'Dio'
p692
S'Holy Diver'
p693
S'http://www.last.fm/music/Dio/_/Holy+Diver'
p694
S'1371837252'
p695
tp696
a(S'Alice in Chains'
p697
S'Stone'
p698
S'http://www.last.fm/music/Alice+in+Chains/_/Stone'
p699
S'1371836991'
p700
tp701
a(S'Rainbow'
p702
S'Catch the Rainbow'
p703
S'http://www.last.fm/music/Rainbow/_/Catch+the+Rainbow'
p704
S'1371836600'
p705
tp706
a(S'Daft Punk'
p707
S'Lose Yourself to Dance (feat. Pharrell Williams)'
p708
S'http://www.last.fm/music/Daft+Punk/_/Lose+Yourself+to+Dance+(feat.+Pharrell+Williams)'
p709
S'1371836248'
p710
tp711
a(S'Daft Punk'
p712
S'Give Life Back to Music'
p713
S'http://www.last.fm/music/Daft+Punk/_/Give+Life+Back+to+Music'
p714
S'1371835972'
p715
tp716
a(S'Alice in Chains'
p717
S'The Devil Put Dinosaurs Here'
p718
S'http://www.last.fm/music/Alice+in+Chains/_/The+Devil+Put+Dinosaurs+Here'
p719
S'1371835575'
p720
tp721
a(S'Alice in Chains'
p722
S'Hollow'
p723
S'http://www.last.fm/music/Alice+in+Chains/_/Hollow'
p724
S'1371835233'
p725
tp726
a(S'Daft Punk'
p727
S'Horizon (Japan Bonus Track)'
p728
S'http://www.last.fm/music/Daft+Punk/_/Horizon+(Japan+Bonus+Track)'
p729
S'1371834969'
p730
tp731
a(S'Daft Punk'
p732
S"Doin' It Right (feat. Panda Bear)"
p733
S'http://www.last.fm/music/Daft+Punk/_/Doin%27+It+Right+(feat.+Panda+Bear)'
p734
S'1371834717'
p735
tp736
a(S'Daft Punk'
p737
S'Giorgio by Moroder'
p738
S'http://www.last.fm/music/Daft+Punk/_/Giorgio+by+Moroder'
p739
S'1371834171'
p740
tp741
a(S'Daft Punk'
p742
S'Fragments of Time (feat. Todd Edwards)'
p743
S'http://www.last.fm/music/Daft+Punk/_/Fragments+of+Time+(feat.+Todd+Edwards)'
p744
S'1371833891'
p745
tp746
a(S'Alice in Chains'
p747
S'Phantom Limb'
p748
S'http://www.last.fm/music/Alice+in+Chains/_/Phantom+Limb'
p749
S'1371833464'
p750
tp751
a(S'Alice in Chains'
p752
S'Choke'
p753
S'http://www.last.fm/music/Alice+in+Chains/_/Choke'
p754
S'1371833118'
p755
tp756
a(S'Daft Punk'
p757
S'Get Lucky (feat. Pharrell Williams)'
p758
S'http://www.last.fm/music/Daft+Punk/_/Get+Lucky+(feat.+Pharrell+Williams)'
p759
S'1371832729'
p760
tp761
a(S'Alice in Chains'
p762
S'Lab Monkey'
p763
S'http://www.last.fm/music/Alice+in+Chains/_/Lab+Monkey'
p764
S'1371823905'
p765
tp766
a(S'Rainbow'
p767
S'Kill the King'
p768
S'http://www.last.fm/music/Rainbow/_/Kill+the+King'
p769
S'1371823635'
p770
tp771
a(S'Alice in Chains'
p772
S'Low Ceiling'
p773
S'http://www.last.fm/music/Alice+in+Chains/_/Low+Ceiling'
p774
S'1371823321'
p775
tp776
a(S'Daft Punk'
p777
S'The Game of Love'
p778
S'http://www.last.fm/music/Daft+Punk/_/The+Game+of+Love'
p779
S'1371823000'
p780
tp781
a(S'Alice in Chains'
p782
S'Breath on a Window'
p783
S'http://www.last.fm/music/Alice+in+Chains/_/Breath+on+a+Window'
p784
S'1371822682'
p785
tp786
a(S'Daft Punk'
p787
S'Motherboard'
p788
S'http://www.last.fm/music/Daft+Punk/_/Motherboard'
p789
S'1371822341'
p790
tp791
a(S'Dio'
p792
S'Holy Diver'
p793
S'http://www.last.fm/music/Dio/_/Holy+Diver'
p794
S'1371821990'
p795
tp796
a(S'Alice in Chains'
p797
S'Stone'
p798
S'http://www.last.fm/music/Alice+in+Chains/_/Stone'
p799
S'1371821729'
p800
tp801
a(S'Rainbow'
p802
S'Catch the Rainbow'
p803
S'http://www.last.fm/music/Rainbow/_/Catch+the+Rainbow'
p804
S'1371821337'
p805
tp806
a(S'Daft Punk'
p807
S'Lose Yourself to Dance (feat. Pharrell Williams)'
p808
S'http://www.last.fm/music/Daft+Punk/_/Lose+Yourself+to+Dance+(feat.+Pharrell+Williams)'
p809
S'1371820985'
p810
tp811
a(S'Daft Punk'
p812
S'Give Life Back to Music'
p813
S'http://www.last.fm/music/Daft+Punk/_/Give+Life+Back+to+Music'
p814
S'1371820709'
p815
tp816
a(S'Daft Punk'
p817
S'Get Lucky (feat. Pharrell Williams)'
p818
S'http://www.last.fm/music/Daft+Punk/_/Get+Lucky+(feat.+Pharrell+Williams)'
p819
S'1371820338'
p820
tp821
a(S'Daft Punk'
p822
S'Give Life Back to Music'
p823
S'http://www.last.fm/music/Daft+Punk/_/Give+Life+Back+to+Music'
p824
S'1371752934'
p825
tp826
a(S'Alice in Chains'
p827
S'Stone'
p828
S'http://www.last.fm/music/Alice+in+Chains/_/Stone'
p829
S'1371752673'
p830
tp831
a(S'Alice in Chains'
p832
S'Low Ceiling'
p833
S'http://www.last.fm/music/Alice+in+Chains/_/Low+Ceiling'
p834
S'1371752242'
p835
tp836
a(S'Alice in Chains'
p837
S'Lab Monkey'
p838
S'http://www.last.fm/music/Alice+in+Chains/_/Lab+Monkey'
p839
S'1371751882'
p840
tp841
a(S'Dio'
p842
S'Holy Diver'
p843
S'http://www.last.fm/music/Dio/_/Holy+Diver'
p844
S'1371751525'
p845
tp846
a(S'Alice in Chains'
p847
S'Hollow'
p848
S'http://www.last.fm/music/Alice+in+Chains/_/Hollow'
p849
S'1371751025'
p850
tp851
a(S'Daft Punk'
p852
S'Horizon (Japan Bonus Track)'
p853
S'http://www.last.fm/music/Daft+Punk/_/Horizon+(Japan+Bonus+Track)'
p854
S'1371750976'
p855
tp856
a(S'Alice in Chains'
p857
S'Breath on a Window'
p858
S'http://www.last.fm/music/Alice+in+Chains/_/Breath+on+a+Window'
p859
S'1371735442'
p860
tp861
a(S'Alice in Chains'
p862
S'The Devil Put Dinosaurs Here'
p863
S'http://www.last.fm/music/Alice+in+Chains/_/The+Devil+Put+Dinosaurs+Here'
p864
S'1371735039'
p865
tp866
a(S'Alice in Chains'
p867
S'Low Ceiling'
p868
S'http://www.last.fm/music/Alice+in+Chains/_/Low+Ceiling'
p869
S'1371734719'
p870
tp871
a(S'Alice in Chains'
p872
S'Phantom Limb'
p873
S'http://www.last.fm/music/Alice+in+Chains/_/Phantom+Limb'
p874
S'1371734287'
p875
tp876
a(S'Alice in Chains'
p877
S'Voices'
p878
S'http://www.last.fm/music/Alice+in+Chains/_/Voices'
p879
S'1371733940'
p880
tp881
a(S'Alice in Chains'
p882
S'Pretty Done'
p883
S'http://www.last.fm/music/Alice+in+Chains/_/Pretty+Done'
p884
S'1371733661'
p885
tp886
a(S'Alice in Chains'
p887
S'Scalpel'
p888
S'http://www.last.fm/music/Alice+in+Chains/_/Scalpel'
p889
S'1371733337'
p890
tp891
a(S'Alice in Chains'
p892
S'Stone'
p893
S'http://www.last.fm/music/Alice+in+Chains/_/Stone'
p894
S'1371733070'
p895
tp896
a(S'Alice in Chains'
p897
S'Choke'
p898
S'http://www.last.fm/music/Alice+in+Chains/_/Choke'
p899
S'1371732554'
p900
tp901
a(S'Alice in Chains'
p902
S'Hollow'
p903
S'http://www.last.fm/music/Alice+in+Chains/_/Hollow'
p904
S'1371731424'
p905
tp906
a(S'Alice in Chains'
p907
S'Hollow'
p908
S'http://www.last.fm/music/Alice+in+Chains/_/Hollow'
p909
S'1371731016'
p910
tp911
a(S'Black Sabbath'
p912
S'Wishing Well'
p913
S'http://www.last.fm/music/Black+Sabbath/_/Wishing+Well'
p914
S'1371672810'
p915
tp916
a(S'Rainbow'
p917
S'Catch the Rainbow'
p918
S'http://www.last.fm/music/Rainbow/_/Catch+the+Rainbow'
p919
S'1371672406'
p920
tp921
a(S'Rainbow'
p922
S'Kill the King'
p923
S'http://www.last.fm/music/Rainbow/_/Kill+the+King'
p924
S'1371672133'
p925
tp926
a(S'Dio'
p927
S'Holy Diver'
p928
S'http://www.last.fm/music/Dio/_/Holy+Diver'
p929
S'1371671627'
p930
tp931
a(S'Daft Punk'
p932
S'Get Lucky (feat. Pharrell Williams)'
p933
S'http://www.last.fm/music/Daft+Punk/_/Get+Lucky+(feat.+Pharrell+Williams)'
p934
S'1371669908'
p935
tp936
a(S'Daft Punk'
p937
S"Doin' It Right (feat. Panda Bear)"
p938
S'http://www.last.fm/music/Daft+Punk/_/Doin%27+It+Right+(feat.+Panda+Bear)'
p939
S'1371669574'
p940
tp941
a(S'Daft Punk'
p942
S'Within'
p943
S'http://www.last.fm/music/Daft+Punk/_/Within'
p944
S'1371669368'
p945
tp946
a(S'Daft Punk'
p947
S'Contact'
p948
S'http://www.last.fm/music/Daft+Punk/_/Contact'
p949
S'1371668953'
p950
tp951
a(S'Daft Punk'
p952
S'Give Life Back to Music'
p953
S'http://www.last.fm/music/Daft+Punk/_/Give+Life+Back+to+Music'
p954
S'1371668674'
p955
tp956
a(S'Daft Punk'
p957
S'Give Life Back to Music'
p958
S'http://www.last.fm/music/Daft+Punk/_/Give+Life+Back+to+Music'
p959
S'1371668326'
p960
tp961
a(S'Daft Punk'
p962
S'Lose Yourself to Dance (feat. Pharrell Williams)'
p963
S'http://www.last.fm/music/Daft+Punk/_/Lose+Yourself+to+Dance+(feat.+Pharrell+Williams)'
p964
S'1371667467'
p965
tp966
a(S'Alice in Chains'
p967
S'Low Ceiling'
p968
S'http://www.last.fm/music/Alice+in+Chains/_/Low+Ceiling'
p969
S'1371665347'
p970
tp971
a(S'Alice in Chains'
p972
S'Voices'
p973
S'http://www.last.fm/music/Alice+in+Chains/_/Voices'
p974
S'1371664998'
p975
tp976
a(S'Alice in Chains'
p977
S'Pretty Done'
p978
S'http://www.last.fm/music/Alice+in+Chains/_/Pretty+Done'
p979
S'1371664720'
p980
tp981
a(S'Alice in Chains'
p982
S'Breath on a Window'
p983
S'http://www.last.fm/music/Alice+in+Chains/_/Breath+on+a+Window'
p984
S'1371664397'
p985
tp986
a(S'Alice in Chains'
p987
S'Stone'
p988
S'http://www.last.fm/music/Alice+in+Chains/_/Stone'
p989
S'1371646593'
p990
tp991
a(S'Dio'
p992
S"Don't Talk to Strangers"
p993
S'http://www.last.fm/music/Dio/_/Don%27t+Talk+to+Strangers'
p994
S'1371591359'
p995
tp996
a(S'Black Sabbath'
p997
S'Heaven and Hell'
p998
S'http://www.last.fm/music/Black+Sabbath/_/Heaven+and+Hell'
p999
S'1371590937'
p1000
tp1001
a.