(lp1
(S"Guns N' Roses"
p2
S"Don't Cry (original)"
p3
S'http://www.last.fm/music/Guns+N%27+Roses/_/Don%27t+Cry+(original)'
p4
S'1264784776'
p5
tp6
a(S'Alice in Chains'
p7
S'Private Hell'
p8
S'http://www.last.fm/music/Alice+in+Chains/_/Private+Hell'
p9
S'1264784437'
p10
tp11
a(S'Faith No More'
p12
S'Midlife Crisis'
p13
S'http://www.last.fm/music/Faith+No+More/_/Midlife+Crisis'
p14
S'1264784174'
p15
tp16
a(S'Green Day'
p17
S'Basket Case'
p18
S'http://www.last.fm/music/Green+Day/_/Basket+Case'
p19
S'1264783991'
p20
tp21
a(S'Iron Maiden'
p22
S'Chains of Misery'
p23
S'http://www.last.fm/music/Iron+Maiden/_/Chains+of+Misery'
p24
S'1264783773'
p25
tp26
a(S'The Beatles'
p27
S'Nowhere Man'
p28
S'http://www.last.fm/music/The+Beatles/_/Nowhere+Man'
p29
S'1264783611'
p30
tp31
a(S'Velvet Revolver'
p32
S'She Mine'
p33
S'http://www.last.fm/music/Velvet+Revolver/_/She+Mine'
p34
S'1264783407'
p35
tp36
a(S'Stone Temple Pilots'
p37
S'Silvergun Superman'
p38
S'http://www.last.fm/music/Stone+Temple+Pilots/_/Silvergun+Superman'
p39
S'1264783091'
p40
tp41
a(S'AC/DC'
p42
S"You Ain't Got a Hold on Me"
p43
S'http://www.last.fm/music/AC%2FDC/_/You+Ain%27t+Got+a+Hold+on+Me'
p44
S'1264782882'
p45
tp46
a(S'Talk Show'
p47
S'Hello Hello'
p48
S'http://www.last.fm/music/Talk+Show/_/Hello+Hello'
p49
S'1264782705'
p50
tp51
a(S'Velvet Revolver'
p52
S'Spectacle'
p53
S'http://www.last.fm/music/Velvet+Revolver/_/Spectacle'
p54
S'1264782408'
p55
tp56
a(S'Stone Temple Pilots'
p57
S'Seven Caged Tigers'
p58
S'http://www.last.fm/music/Stone+Temple+Pilots/_/Seven+Caged+Tigers'
p59
S'1264782151'
p60
tp61
a(S'Green Day'
p62
S'She'
p63
S'http://www.last.fm/music/Green+Day/_/She'
p64
S'1264782017'
p65
tp66
a(S'Deep Purple'
p67
S'Burn'
p68
S'http://www.last.fm/music/Deep+Purple/_/Burn'
p69
S'1264781654'
p70
tp71
a(S'Billy Idol'
p72
S'Rebel Yell'
p73
S'http://www.last.fm/music/Billy+Idol/_/Rebel+Yell'
p74
S'1264781368'
p75
tp76
a(S'Soundgarden'
p77
S'Jesus Christ Pose'
p78
S'http://www.last.fm/music/Soundgarden/_/Jesus+Christ+Pose'
p79
S'1264781151'
p80
tp81
a(S'Alice Cooper'
p82
S'Snakebite'
p83
S'http://www.last.fm/music/Alice+Cooper/_/Snakebite'
p84
S'1264780878'
p85
tp86
a(S'Metallica'
p87
S'Blackened'
p88
S'http://www.last.fm/music/Metallica/_/Blackened'
p89
S'1264780476'
p90
tp91
a(S'Faith No More'
p92
S'Epic'
p93
S'http://www.last.fm/music/Faith+No+More/_/Epic'
p94
S'1264780182'
p95
tp96
a(S'AC/DC'
p97
S"Hell Ain't A Bad Place To Be"
p98
S'http://www.last.fm/music/AC%2FDC/_/Hell+Ain%27t+A+Bad+Place+To+Be'
p99
S'1264779932'
p100
tp101
a(S'Metallica'
p102
S'Thorn Within'
p103
S'http://www.last.fm/music/Metallica/_/Thorn+Within'
p104
S'1264779577'
p105
tp106
a(S'Deep Purple'
p107
S'Black Night'
p108
S'http://www.last.fm/music/Deep+Purple/_/Black+Night'
p109
S'1264779370'
p110
tp111
a(S"Guns N' Roses"
p112
S'Patience'
p113
S'http://www.last.fm/music/Guns+N%27+Roses/_/Patience'
p114
S'1264779018'
p115
tp116
a(S'Faith No More'
p117
S'Falling to Pieces'
p118
S'http://www.last.fm/music/Faith+No+More/_/Falling+to+Pieces'
p119
S'1264778702'
p120
tp121
a(S'ZZ Top'
p122
S'Prettyhead'
p123
S'http://www.last.fm/music/ZZ+Top/_/Prettyhead'
p124
S'1264778422'
p125
tp126
a(S'ZZ Top'
p127
S"What's Up With That"
p128
S'http://www.last.fm/music/ZZ+Top/_/What%27s+Up+With+That'
p129
S'1264778102'
p130
tp131
a(S'Deep Purple'
p132
S'Strange Kind of Woman'
p133
S'http://www.last.fm/music/Deep+Purple/_/Strange+Kind+of+Woman'
p134
S'1264777869'
p135
tp136
a(S'Alice Cooper'
p137
S'Burning Our Bed'
p138
S'http://www.last.fm/music/Alice+Cooper/_/Burning+Our+Bed'
p139
S'1264771889'
p140
tp141
a(S'Stone Temple Pilots'
p142
S'Vasoline'
p143
S'http://www.last.fm/music/Stone+Temple+Pilots/_/Vasoline'
p144
S'1264771712'
p145
tp146
a(S'AC/DC'
p147
S'Big Jack'
p148
S'http://www.last.fm/music/AC%2FDC/_/Big+Jack'
p149
S'1264771475'
p150
tp151
a(S'Black Sabbath'
p152
S'Behind the Wall of Sleep'
p153
S'http://www.last.fm/music/Black+Sabbath/_/Behind+the+Wall+of+Sleep'
p154
S'1264764610'
p155
tp156
a(S'Alice Cooper'
p157
S"Nothing's Free"
p158
S'http://www.last.fm/music/Alice+Cooper/_/Nothing%27s+Free'
p159
S'1264764308'
p160
tp161
a(S'Alice in Chains'
p162
S'Check My Brain'
p163
S'http://www.last.fm/music/Alice+in+Chains/_/Check+My+Brain'
p164
S'1264764070'
p165
tp166
a(S'Metallica'
p167
S'The Outlaw Torn'
p168
S'http://www.last.fm/music/Metallica/_/The+Outlaw+Torn'
p169
S'1264763454'
p170
tp171
a(S'Soundgarden'
p172
S'Rusty Cage'
p173
S'http://www.last.fm/music/Soundgarden/_/Rusty+Cage'
p174
S'1264763187'
p175
tp176
a(S'Dschinghis Khan'
p177
S'Genghis Khan'
p178
S'http://www.last.fm/music/Dschinghis+Khan/_/Genghis+Khan'
p179
S'1264763000'
p180
tp181
a(S'Them Crooked Vultures'
p182
S'Gunman'
p183
S'http://www.last.fm/music/Them+Crooked+Vultures/_/Gunman'
p184
S'1264762714'
p185
tp186
a(S'Deep Purple'
p187
S'Black Night'
p188
S'http://www.last.fm/music/Deep+Purple/_/Black+Night'
p189
S'1264715295'
p190
tp191
a(S'Susan Tedeschi'
p192
S"Don't Think Twice"
p193
S'http://www.last.fm/music/Susan+Tedeschi/_/Don%27t+Think+Twice'
p194
S'1264715012'
p195
tp196
a(S'Velvet Revolver'
p197
S'She Mine'
p198
S'http://www.last.fm/music/Velvet+Revolver/_/She+Mine'
p199
S'1264714807'
p200
tp201
a(S'Hi-Standard'
p202
S'California Dreamin'
p203
S'http://www.last.fm/music/Hi-Standard/_/California+Dreamin'
p204
S'1264714670'
p205
tp206
a(S'Fire Inc.'
p207
S'Tonight Is What It Means To Be Young'
p208
S'http://www.last.fm/music/Fire+Inc./_/Tonight+Is+What+It+Means+To+Be+Young'
p209
S'1264714254'
p210
tp211
a(S'Bad Religion'
p212
S'Sorrow'
p213
S'http://www.last.fm/music/Bad+Religion/_/Sorrow'
p214
S'1264714052'
p215
tp216
a(S'Velvet Revolver'
p217
S'She Builds Quick Machines'
p218
S'http://www.last.fm/music/Velvet+Revolver/_/She+Builds+Quick+Machines'
p219
S'1264713748'
p220
tp221
a(S'Deep Purple'
p222
S'Burn'
p223
S'http://www.last.fm/music/Deep+Purple/_/Burn'
p224
S'1264713384'
p225
tp226
a(S"Guns N' Roses"
p227
S'Used to Love Her'
p228
S'http://www.last.fm/music/Guns+N%27+Roses/_/Used+to+Love+Her'
p229
S'1264713194'
p230
tp231
a(S'Alice Cooper'
p232
S'Might As Well Be on Mars'
p233
S'http://www.last.fm/music/Alice+Cooper/_/Might+As+Well+Be+on+Mars'
p234
S'1264712764'
p235
tp236
a(S'Alice Cooper'
p237
S'Dangerous Tonight'
p238
S'http://www.last.fm/music/Alice+Cooper/_/Dangerous+Tonight'
p239
S'1264712482'
p240
tp241
a(S'ZZ Top'
p242
S'Black Fly'
p243
S'http://www.last.fm/music/ZZ+Top/_/Black+Fly'
p244
S'1264712269'
p245
tp246
a(S'Deep Purple'
p247
S'Black Night'
p248
S'http://www.last.fm/music/Deep+Purple/_/Black+Night'
p249
S'1264712062'
p250
tp251
a(S'ZZ Top'
p252
S"What's Up With That"
p253
S'http://www.last.fm/music/ZZ+Top/_/What%27s+Up+With+That'
p254
S'1264711741'
p255
tp256
a(S'Airbourne'
p257
S'Diamond in the Rough'
p258
S'http://www.last.fm/music/Airbourne/_/Diamond+in+the+Rough'
p259
S'1264711567'
p260
tp261
a(S'Stone Temple Pilots'
p262
S'Seven Caged Tigers'
p263
S'http://www.last.fm/music/Stone+Temple+Pilots/_/Seven+Caged+Tigers'
p264
S'1264711310'
p265
tp266
a(S'Metallica'
p267
S'All Nightmare Long'
p268
S'http://www.last.fm/music/Metallica/_/All+Nightmare+Long'
p269
S'1264710833'
p270
tp271
a(S'Dschinghis Khan'
p272
S'Desert Land'
p273
S'http://www.last.fm/music/Dschinghis+Khan/_/Desert+Land'
p274
S'1264710652'
p275
tp276
a(S'Stone Temple Pilots'
p277
S'Vasoline'
p278
S'http://www.last.fm/music/Stone+Temple+Pilots/_/Vasoline'
p279
S'1264710475'
p280
tp281
a(S'Metallica'
p282
S'Blackened'
p283
S'http://www.last.fm/music/Metallica/_/Blackened'
p284
S'1264710072'
p285
tp286
a(S'Billy Idol'
p287
S'Rebel Yell'
p288
S'http://www.last.fm/music/Billy+Idol/_/Rebel+Yell'
p289
S'1264709787'
p290
tp291
a(S'Soundgarden'
p292
S'Jesus Christ Pose'
p293
S'http://www.last.fm/music/Soundgarden/_/Jesus+Christ+Pose'
p294
S'1264709436'
p295
tp296
a(S'Faith No More'
p297
S'Epic'
p298
S'http://www.last.fm/music/Faith+No+More/_/Epic'
p299
S'1264709142'
p300
tp301
a(S'Alice Cooper'
p302
S"Nothing's Free"
p303
S'http://www.last.fm/music/Alice+Cooper/_/Nothing%27s+Free'
p304
S'1264708841'
p305
tp306
a(S'Iron Maiden'
p307
S'Chains of Misery'
p308
S'http://www.last.fm/music/Iron+Maiden/_/Chains+of+Misery'
p309
S'1264708623'
p310
tp311
a(S'Them Crooked Vultures'
p312
S'Gunman'
p313
S'http://www.last.fm/music/Them+Crooked+Vultures/_/Gunman'
p314
S'1264708337'
p315
tp316
a(S'Velvet Revolver'
p317
S'Spectacle'
p318
S'http://www.last.fm/music/Velvet+Revolver/_/Spectacle'
p319
S'1264708115'
p320
tp321
a(S'Iron Maiden'
p322
S'Weekend Warrior'
p323
S'http://www.last.fm/music/Iron+Maiden/_/Weekend+Warrior'
p324
S'1264707775'
p325
tp326
a(S'The Beatles'
p327
S'Nowhere Man'
p328
S'http://www.last.fm/music/The+Beatles/_/Nowhere+Man'
p329
S'1264703714'
p330
tp331
a(S'Alice Cooper'
p332
S'Poison'
p333
S'http://www.last.fm/music/Alice+Cooper/_/Poison'
p334
S'1264703445'
p335
tp336
a(S'Stone Temple Pilots'
p337
S'Adhesive'
p338
S'http://www.last.fm/music/Stone+Temple+Pilots/_/Adhesive'
p339
S'1264703110'
p340
tp341
a(S'Alice in Chains'
p342
S'Private Hell'
p343
S'http://www.last.fm/music/Alice+in+Chains/_/Private+Hell'
p344
S'1264702772'
p345
tp346
a(S'Green Day'
p347
S'Basket Case'
p348
S'http://www.last.fm/music/Green+Day/_/Basket+Case'
p349
S'1264702589'
p350
tp351
a(S'Alice in Chains'
p352
S'Lesson Learned'
p353
S'http://www.last.fm/music/Alice+in+Chains/_/Lesson+Learned'
p354
S'1264702332'
p355
tp356
a(S'Alice Cooper'
p357
S'Snakebite'
p358
S'http://www.last.fm/music/Alice+Cooper/_/Snakebite'
p359
S'1264700882'
p360
tp361
a(S'Alice Cooper'
p362
S'House of Fire'
p363
S'http://www.last.fm/music/Alice+Cooper/_/House+of+Fire'
p364
S'1264700655'
p365
tp366
a(S'AC/DC'
p367
S"Hell Ain't A Bad Place To Be"
p368
S'http://www.last.fm/music/AC%2FDC/_/Hell+Ain%27t+A+Bad+Place+To+Be'
p369
S'1264700405'
p370
tp371
a(S'Albert King'
p372
S'We All Wanna Boogie'
p373
S'http://www.last.fm/music/Albert+King/_/We+All+Wanna+Boogie'
p374
S'1264700207'
p375
tp376
a(S'Stone Temple Pilots'
p377
S'Silvergun Superman'
p378
S'http://www.last.fm/music/Stone+Temple+Pilots/_/Silvergun+Superman'
p379
S'1264699891'
p380
tp381
a(S'Alice in Chains'
p382
S'Check My Brain'
p383
S'http://www.last.fm/music/Alice+in+Chains/_/Check+My+Brain'
p384
S'1264699653'
p385
tp386
a(S'Mobius Band'
p387
S'The Loving Sounds of Static'
p388
S'http://www.last.fm/music/Mobius+Band/_/The+Loving+Sounds+of+Static'
p389
S'1264699407'
p390
tp391
a(S'Metallica'
p392
S'Of Wolf and Man'
p393
S'http://www.last.fm/music/Metallica/_/Of+Wolf+and+Man'
p394
S'1264699151'
p395
tp396
a(S'Atreyu'
p397
S'Becoming the Bull'
p398
S'http://www.last.fm/music/Atreyu/_/Becoming+the+Bull'
p399
S'1264698930'
p400
tp401
a(S'Susan Tedeschi'
p402
S"Don't Think Twice"
p403
S'http://www.last.fm/music/Susan+Tedeschi/_/Don%27t+Think+Twice'
p404
S'1264698646'
p405
tp406
a(S'Metallica'
p407
S'Thorn Within'
p408
S'http://www.last.fm/music/Metallica/_/Thorn+Within'
p409
S'1264698292'
p410
tp411
a(S'Green Day'
p412
S'She'
p413
S'http://www.last.fm/music/Green+Day/_/She'
p414
S'1264698158'
p415
tp416
a(S'Whitesnake'
p417
S'Deeper The Love'
p418
S'http://www.last.fm/music/Whitesnake/_/Deeper+The+Love'
p419
S'1264697875'
p420
tp421
a(S'Alice Cooper'
p422
S'Bed of Nails'
p423
S'http://www.last.fm/music/Alice+Cooper/_/Bed+of+Nails'
p424
S'1264697615'
p425
tp426
a(S'Soundgarden'
p427
S'Rusty Cage'
p428
S'http://www.last.fm/music/Soundgarden/_/Rusty+Cage'
p429
S'1264697340'
p430
tp431
a(S'Velvet Revolver'
p432
S'She Mine'
p433
S'http://www.last.fm/music/Velvet+Revolver/_/She+Mine'
p434
S'1264697135'
p435
tp436
a(S'Them Crooked Vultures'
p437
S'Bandoliers'
p438
S'http://www.last.fm/music/Them+Crooked+Vultures/_/Bandoliers'
p439
S'1264696455'
p440
tp441
a(S'Dschinghis Khan'
p442
S'Genghis Khan'
p443
S'http://www.last.fm/music/Dschinghis+Khan/_/Genghis+Khan'
p444
S'1264696269'
p445
tp446
a(S'Stone Temple Pilots'
p447
S'Pretty Penny'
p448
S'http://www.last.fm/music/Stone+Temple+Pilots/_/Pretty+Penny'
p449
S'1264696047'
p450
tp451
a(S'AC/DC'
p452
S'Soul Stripper'
p453
S'http://www.last.fm/music/AC%2FDC/_/Soul+Stripper'
p454
S'1264695662'
p455
tp456
a(S'Men at Work'
p457
S'Who Can It Be Now?'
p458
S'http://www.last.fm/music/Men+at+Work/_/Who+Can+It+Be+Now%3F'
p459
S'1264695461'
p460
tp461
a(S'Chickenfoot'
p462
S'Sexy Little Thing'
p463
S'http://www.last.fm/music/Chickenfoot/_/Sexy+Little+Thing'
p464
S'1264695206'
p465
tp466
a(S'Stone Temple Pilots'
p467
S"Pop's Love Suicide"
p468
S'http://www.last.fm/music/Stone+Temple+Pilots/_/Pop%27s+Love+Suicide'
p469
S'1264694983'
p470
tp471
a(S"Guns N' Roses"
p472
S'Patience'
p473
S'http://www.last.fm/music/Guns+N%27+Roses/_/Patience'
p474
S'1264694631'
p475
tp476
a(S'Jupiter One'
p477
S'Countdown'
p478
S'http://www.last.fm/music/Jupiter+One/_/Countdown'
p479
S'1264694403'
p480
tp481
a(S'Faith No More'
p482
S'Falling to Pieces'
p483
S'http://www.last.fm/music/Faith+No+More/_/Falling+to+Pieces'
p484
S'1264694087'
p485
tp486
a(S'Soul Asylum'
p487
S'Runaway Train'
p488
S'http://www.last.fm/music/Soul+Asylum/_/Runaway+Train'
p489
S'1264693820'
p490
tp491
a(S'Faith No More'
p492
S'Midlife Crisis'
p493
S'http://www.last.fm/music/Faith+No+More/_/Midlife+Crisis'
p494
S'1264693556'
p495
tp496
a(S'Faith No More'
p497
S'Last Cup of Sorrow'
p498
S'http://www.last.fm/music/Faith+No+More/_/Last+Cup+of+Sorrow'
p499
S'1264693306'
p500
tp501
a(S'Dr. Sin'
p502
S'Emotional Catastrophe'
p503
S'http://www.last.fm/music/Dr.+Sin/_/Emotional+Catastrophe'
p504
S'1264693093'
p505
tp506
a(S'Rainbow'
p507
S'Kill the King'
p508
S'http://www.last.fm/music/Rainbow/_/Kill+the+King'
p509
S'1264692823'
p510
tp511
a(S'The Beatles'
p512
S'I Am the Walrus'
p513
S'http://www.last.fm/music/The+Beatles/_/I+Am+the+Walrus'
p514
S'1264692655'
p515
tp516
a(S'Alice Cooper'
p517
S'Burning Our Bed'
p518
S'http://www.last.fm/music/Alice+Cooper/_/Burning+Our+Bed'
p519
S'1264686315'
p520
tp521
a(S'ZZ Top'
p522
S'Prettyhead'
p523
S'http://www.last.fm/music/ZZ+Top/_/Prettyhead'
p524
S'1264686035'
p525
tp526
a(S"Guns N' Roses"
p527
S"Don't Cry (original)"
p528
S'http://www.last.fm/music/Guns+N%27+Roses/_/Don%27t+Cry+(original)'
p529
S'1264685750'
p530
tp531
a(S'Deep Purple'
p532
S'Strange Kind of Woman'
p533
S'http://www.last.fm/music/Deep+Purple/_/Strange+Kind+of+Woman'
p534
S'1264685518'
p535
tp536
a(S'Metallica'
p537
S'The Outlaw Torn'
p538
S'http://www.last.fm/music/Metallica/_/The+Outlaw+Torn'
p539
S'1264684930'
p540
tp541
a(S'Stone Temple Pilots'
p542
S"Trippin' on a Hole in a Paper Heart"
p543
S'http://www.last.fm/music/Stone+Temple+Pilots/_/Trippin%27+on+a+Hole+in+a+Paper+Heart'
p544
S'1264684753'
p545
tp546
a(S'Albert King'
p547
S'Get Out Of My Life Woman'
p548
S'http://www.last.fm/music/Albert+King/_/Get+Out+Of+My+Life+Woman'
p549
S'1264684531'
p550
tp551
a(S'AC/DC'
p552
S"You Ain't Got a Hold on Me"
p553
S'http://www.last.fm/music/AC%2FDC/_/You+Ain%27t+Got+a+Hold+on+Me'
p554
S'1264683429'
p555
tp556
a(S'Soul Asylum'
p557
S'Misery'
p558
S'http://www.last.fm/music/Soul+Asylum/_/Misery'
p559
S'1264683163'
p560
tp561
a(S'George Michael'
p562
S'Careless Whisper'
p563
S'http://www.last.fm/music/George+Michael/_/Careless+Whisper'
p564
S'1264682859'
p565
tp566
a(S'Faith No More'
p567
S'From Out of Nowhere'
p568
S'http://www.last.fm/music/Faith+No+More/_/From+Out+of+Nowhere'
p569
S'1264682657'
p570
tp571
a(S'Hi-Standard'
p572
S'California Dreamin'
p573
S'http://www.last.fm/music/Hi-Standard/_/California+Dreamin'
p574
S'1264682519'
p575
tp576
a(S'AC/DC'
p577
S'Big Jack'
p578
S'http://www.last.fm/music/AC%2FDC/_/Big+Jack'
p579
S'1264682282'
p580
tp581
a(S'Talk Show'
p582
S'Hello Hello'
p583
S'http://www.last.fm/music/Talk+Show/_/Hello+Hello'
p584
S'1264682105'
p585
tp586
a(S'Black Sabbath'
p587
S'Behind the Wall of Sleep'
p588
S'http://www.last.fm/music/Black+Sabbath/_/Behind+the+Wall+of+Sleep'
p589
S'1264681888'
p590
tp591
a(S'Dr. Sin'
p592
S'Emotional Catastrophe'
p593
S'http://www.last.fm/music/Dr.+Sin/_/Emotional+Catastrophe'
p594
S'1264681605'
p595
tp596
a(S'Bad Religion'
p597
S'Sorrow'
p598
S'http://www.last.fm/music/Bad+Religion/_/Sorrow'
p599
S'1264681370'
p600
tp601
a(S'Fire Inc.'
p602
S'Tonight Is What It Means To Be Young'
p603
S'http://www.last.fm/music/Fire+Inc./_/Tonight+Is+What+It+Means+To+Be+Young'
p604
S'1264597458'
p605
tp606
a(S'Jupiter One'
p607
S'Countdown'
p608
S'http://www.last.fm/music/Jupiter+One/_/Countdown'
p609
S'1264596966'
p610
tp611
a(S'Alice in Chains'
p612
S'Private Hell'
p613
S'http://www.last.fm/music/Alice+in+Chains/_/Private+Hell'
p614
S'1264596627'
p615
tp616
a(S'Airbourne'
p617
S'Diamond in the Rough'
p618
S'http://www.last.fm/music/Airbourne/_/Diamond+in+the+Rough'
p619
S'1264596453'
p620
tp621
a(S'Dschinghis Khan'
p622
S'Genghis Khan'
p623
S'http://www.last.fm/music/Dschinghis+Khan/_/Genghis+Khan'
p624
S'1264596266'
p625
tp626
a(S'Morgan Page'
p627
S'The Longest Road (Deadmau5 Remix)'
p628
S'http://www.last.fm/music/Morgan+Page/_/The+Longest+Road+(Deadmau5+Remix)'
p629
S'1264595865'
p630
tp631
a(S'Faith No More'
p632
S'Midlife Crisis'
p633
S'http://www.last.fm/music/Faith+No+More/_/Midlife+Crisis'
p634
S'1264592206'
p635
tp636
a(S'Chickenfoot'
p637
S'Sexy Little Thing'
p638
S'http://www.last.fm/music/Chickenfoot/_/Sexy+Little+Thing'
p639
S'1264591950'
p640
tp641
a(S'Jupiter One'
p642
S'Countdown'
p643
S'http://www.last.fm/music/Jupiter+One/_/Countdown'
p644
S'1264591722'
p645
tp646
a(S'Dschinghis Khan'
p647
S'Desert Land'
p648
S'http://www.last.fm/music/Dschinghis+Khan/_/Desert+Land'
p649
S'1264591541'
p650
tp651
a(S'Faith No More'
p652
S'Midlife Crisis'
p653
S'http://www.last.fm/music/Faith+No+More/_/Midlife+Crisis'
p654
S'1264591277'
p655
tp656
a(S'Fire Inc.'
p657
S'Tonight Is What It Means To Be Young'
p658
S'http://www.last.fm/music/Fire+Inc./_/Tonight+Is+What+It+Means+To+Be+Young'
p659
S'1264590861'
p660
tp661
a(S'Bad Religion'
p662
S'Sorrow'
p663
S'http://www.last.fm/music/Bad+Religion/_/Sorrow'
p664
S'1264590660'
p665
tp666
a(S'Airbourne'
p667
S'Diamond in the Rough'
p668
S'http://www.last.fm/music/Airbourne/_/Diamond+in+the+Rough'
p669
S'1264590486'
p670
tp671
a(S'Alice in Chains'
p672
S'Private Hell'
p673
S'http://www.last.fm/music/Alice+in+Chains/_/Private+Hell'
p674
S'1264590148'
p675
tp676
a(S'Dschinghis Khan'
p677
S'Genghis Khan'
p678
S'http://www.last.fm/music/Dschinghis+Khan/_/Genghis+Khan'
p679
S'1264589961'
p680
tp681
a(S'Chickenfoot'
p682
S'Sexy Little Thing'
p683
S'http://www.last.fm/music/Chickenfoot/_/Sexy+Little+Thing'
p684
S'1264589705'
p685
tp686
a(S'Black Sabbath'
p687
S'Sabbra Cadabra'
p688
S'http://www.last.fm/music/Black+Sabbath/_/Sabbra+Cadabra'
p689
S'1264511409'
p690
tp691
a(S'Black Sabbath'
p692
S'Fairies Wear Boots'
p693
S'http://www.last.fm/music/Black+Sabbath/_/Fairies+Wear+Boots'
p694
S'1264510707'
p695
tp696
a(S'Black Sabbath'
p697
S'Wheels of Confusion'
p698
S'http://www.last.fm/music/Black+Sabbath/_/Wheels+of+Confusion'
p699
S'1264510213'
p700
tp701
a(S'Black Sabbath'
p702
S'Into the Void'
p703
S'http://www.last.fm/music/Black+Sabbath/_/Into+the+Void'
p704
S'1264507152'
p705
tp706
a(S'Black Sabbath'
p707
S'Solitude'
p708
S'http://www.last.fm/music/Black+Sabbath/_/Solitude'
p709
S'1264506850'
p710
tp711
a(S'Black Sabbath'
p712
S'Supernaut'
p713
S'http://www.last.fm/music/Black+Sabbath/_/Supernaut'
p714
S'1264506564'
p715
tp716
a(S'Black Sabbath'
p717
S'The Wizard'
p718
S'http://www.last.fm/music/Black+Sabbath/_/The+Wizard'
p719
S'1264506299'
p720
tp721
a(S'Black Sabbath'
p722
S'Laguna Sunrise'
p723
S'http://www.last.fm/music/Black+Sabbath/_/Laguna+Sunrise'
p724
S'1264506126'
p725
tp726
a(S'Black Sabbath'
p727
S'Fairies Wear Boots'
p728
S'http://www.last.fm/music/Black+Sabbath/_/Fairies+Wear+Boots'
p729
S'1264505725'
p730
tp731
a(S'Black Sabbath'
p732
S'Sabbath Bloody Sabbath'
p733
S'http://www.last.fm/music/Black+Sabbath/_/Sabbath+Bloody+Sabbath'
p734
S'1264505379'
p735
tp736
a(S'Black Sabbath'
p737
S'Changes'
p738
S'http://www.last.fm/music/Black+Sabbath/_/Changes'
p739
S'1264505092'
p740
tp741
a(S'Black Sabbath'
p742
S'Behind the Wall of Sleep'
p743
S'http://www.last.fm/music/Black+Sabbath/_/Behind+the+Wall+of+Sleep'
p744
S'1264504875'
p745
tp746
a(S'Black Sabbath'
p747
S'Wicked World'
p748
S'http://www.last.fm/music/Black+Sabbath/_/Wicked+World'
p749
S'1264504592'
p750
tp751
a(S'Black Sabbath'
p752
S'Wheels of Confusion'
p753
S'http://www.last.fm/music/Black+Sabbath/_/Wheels+of+Confusion'
p754
S'1264504098'
p755
tp756
a(S'Black Sabbath'
p757
S'Wheels of Confusion'
p758
S'http://www.last.fm/music/Black+Sabbath/_/Wheels+of+Confusion'
p759
S'1264103721'
p760
tp761
a(S'Black Sabbath'
p762
S'Hand of Doom'
p763
S'http://www.last.fm/music/Black+Sabbath/_/Hand+of+Doom'
p764
S'1264093234'
p765
tp766
a(S'Black Sabbath'
p767
S'Headless Cross'
p768
S'http://www.last.fm/music/Black+Sabbath/_/Headless+Cross'
p769
S'1264092845'
p770
tp771
a(S'Black Sabbath'
p772
S'Supertzar'
p773
S'http://www.last.fm/music/Black+Sabbath/_/Supertzar'
p774
S'1264092622'
p775
tp776
a(S'Black Sabbath'
p777
S'Changes'
p778
S'http://www.last.fm/music/Black+Sabbath/_/Changes'
p779
S'1264092336'
p780
tp781
a(S'Black Sabbath'
p782
S'Behind the Wall of Sleep'
p783
S'http://www.last.fm/music/Black+Sabbath/_/Behind+the+Wall+of+Sleep'
p784
S'1264092119'
p785
tp786
a(S'Black Sabbath'
p787
S'Wicked World'
p788
S'http://www.last.fm/music/Black+Sabbath/_/Wicked+World'
p789
S'1264091836'
p790
tp791
a(S'Black Sabbath'
p792
S'Solitude'
p793
S'http://www.last.fm/music/Black+Sabbath/_/Solitude'
p794
S'1264091534'
p795
tp796
a(S'Black Sabbath'
p797
S'Spiral Architect'
p798
S'http://www.last.fm/music/Black+Sabbath/_/Spiral+Architect'
p799
S'1264091204'
p800
tp801
a(S'Black Sabbath'
p802
S'The Warning'
p803
S'http://www.last.fm/music/Black+Sabbath/_/The+Warning'
p804
S'1264090571'
p805
tp806
a(S'Black Sabbath'
p807
S'Wheels of Confusion'
p808
S'http://www.last.fm/music/Black+Sabbath/_/Wheels+of+Confusion'
p809
S'1264089760'
p810
tp811
a(S'Black Sabbath'
p812
S'Spiral Architect'
p813
S'http://www.last.fm/music/Black+Sabbath/_/Spiral+Architect'
p814
S'1264089399'
p815
tp816
a(S'Black Sabbath'
p817
S'Wicked World'
p818
S'http://www.last.fm/music/Black+Sabbath/_/Wicked+World'
p819
S'1264089116'
p820
tp821
a(S'Black Sabbath'
p822
S'Killing Yourself to Live'
p823
S'http://www.last.fm/music/Black+Sabbath/_/Killing+Yourself+to+Live'
p824
S'1264084202'
p825
tp826
a(S'Black Sabbath'
p827
S'A National Acrobat'
p828
S'http://www.last.fm/music/Black+Sabbath/_/A+National+Acrobat'
p829
S'1264083825'
p830
tp831
a(S'Black Sabbath'
p832
S'Headless Cross'
p833
S'http://www.last.fm/music/Black+Sabbath/_/Headless+Cross'
p834
S'1264083436'
p835
tp836
a(S'Black Sabbath'
p837
S'Behind the Wall of Sleep'
p838
S'http://www.last.fm/music/Black+Sabbath/_/Behind+the+Wall+of+Sleep'
p839
S'1264083220'
p840
tp841
a(S'Black Sabbath'
p842
S'Am I Going Insane (Radio)'
p843
S'http://www.last.fm/music/Black+Sabbath/_/Am+I+Going+Insane+(Radio)'
p844
S'1264082964'
p845
tp846
a(S'Black Sabbath'
p847
S'Supertzar'
p848
S'http://www.last.fm/music/Black+Sabbath/_/Supertzar'
p849
S'1264082740'
p850
tp851
a(S'Black Sabbath'
p852
S'Changes'
p853
S'http://www.last.fm/music/Black+Sabbath/_/Changes'
p854
S'1264082454'
p855
tp856
a(S'Black Sabbath'
p857
S'Into the Void'
p858
S'http://www.last.fm/music/Black+Sabbath/_/Into+the+Void'
p859
S'1264082081'
p860
tp861
a(S'Black Sabbath'
p862
S'Solitude'
p863
S'http://www.last.fm/music/Black+Sabbath/_/Solitude'
p864
S'1264081779'
p865
tp866
a(S'Black Sabbath'
p867
S'The Warning'
p868
S'http://www.last.fm/music/Black+Sabbath/_/The+Warning'
p869
S'1264081146'
p870
tp871
a(S'Black Sabbath'
p872
S'Supernaut'
p873
S'http://www.last.fm/music/Black+Sabbath/_/Supernaut'
p874
S'1264080650'
p875
tp876
a(S'Black Sabbath'
p877
S'Hole in the Sky'
p878
S'http://www.last.fm/music/Black+Sabbath/_/Hole+in+the+Sky'
p879
S'1264080410'
p880
tp881
a(S'Black Sabbath'
p882
S'Planet Caravan'
p883
S'http://www.last.fm/music/Black+Sabbath/_/Planet+Caravan'
p884
S'1264080136'
p885
tp886
a(S'Black Sabbath'
p887
S'The Wizard'
p888
S'http://www.last.fm/music/Black+Sabbath/_/The+Wizard'
p889
S'1264079871'
p890
tp891
a(S'Black Sabbath'
p892
S'Snowblind'
p893
S'http://www.last.fm/music/Black+Sabbath/_/Snowblind'
p894
S'1264079539'
p895
tp896
a(S'Black Sabbath'
p897
S'Fluff'
p898
S'http://www.last.fm/music/Black+Sabbath/_/Fluff'
p899
S'1264079286'
p900
tp901
a(S'Black Sabbath'
p902
S'Sabbath Bloody Sabbath'
p903
S'http://www.last.fm/music/Black+Sabbath/_/Sabbath+Bloody+Sabbath'
p904
S'1264078940'
p905
tp906
a(S'Black Sabbath'
p907
S'Laguna Sunrise'
p908
S'http://www.last.fm/music/Black+Sabbath/_/Laguna+Sunrise'
p909
S'1264078767'
p910
tp911
a(S'Black Sabbath'
p912
S'Cornucopia'
p913
S'http://www.last.fm/music/Black+Sabbath/_/Cornucopia'
p914
S'1264078532'
p915
tp916
a(S'Black Sabbath'
p917
S'Sabbra Cadabra'
p918
S'http://www.last.fm/music/Black+Sabbath/_/Sabbra+Cadabra'
p919
S'1264078171'
p920
tp921
a(S'Black Sabbath'
p922
S'Fairies Wear Boots'
p923
S'http://www.last.fm/music/Black+Sabbath/_/Fairies+Wear+Boots'
p924
S'1264077798'
p925
tp926
a(S'Black Sabbath'
p927
S'Orchid'
p928
S'http://www.last.fm/music/Black+Sabbath/_/Orchid'
p929
S'1264077707'
p930
tp931
a(S'Black Sabbath'
p932
S'Who Are You?'
p933
S'http://www.last.fm/music/Black+Sabbath/_/Who+Are+You%3F'
p934
S'1264077455'
p935
tp936
a(S'Black Sabbath'
p937
S'Get a Grip'
p938
S'http://www.last.fm/music/Black+Sabbath/_/Get+a+Grip'
p939
S'1264077187'
p940
tp941
a(S'Black Sabbath'
p942
S'Hand of Doom'
p943
S'http://www.last.fm/music/Black+Sabbath/_/Hand+of+Doom'
p944
S'1264076759'
p945
tp946
a(S'Black Sabbath'
p947
S'Children of the Grave'
p948
S'http://www.last.fm/music/Black+Sabbath/_/Children+of+the+Grave'
p949
S'1264076442'
p950
tp951
a(S'Black Sabbath'
p952
S'Megalomania'
p953
S'http://www.last.fm/music/Black+Sabbath/_/Megalomania'
p954
S'1264075861'
p955
tp956
a(S'Black Sabbath'
p957
S'Behind the Wall of Sleep'
p958
S'http://www.last.fm/music/Black+Sabbath/_/Behind+the+Wall+of+Sleep'
p959
S'1264075693'
p960
tp961
a(S'Black Sabbath'
p962
S'Wheels of Confusion'
p963
S'http://www.last.fm/music/Black+Sabbath/_/Wheels+of+Confusion'
p964
S'1264074709'
p965
tp966
a(S'Faith No More'
p967
S'Midlife Crisis'
p968
S'http://www.last.fm/music/Faith+No+More/_/Midlife+Crisis'
p969
S'1264074481'
p970
tp971
a(S'Bad Religion'
p972
S'Sorrow'
p973
S'http://www.last.fm/music/Bad+Religion/_/Sorrow'
p974
S'1264074280'
p975
tp976
a(S'Fire Inc.'
p977
S'Tonight Is What It Means To Be Young'
p978
S'http://www.last.fm/music/Fire+Inc./_/Tonight+Is+What+It+Means+To+Be+Young'
p979
S'1264073863'
p980
tp981
a(S'Bad Religion'
p982
S'Sorrow'
p983
S'http://www.last.fm/music/Bad+Religion/_/Sorrow'
p984
S'1264073662'
p985
tp986
a(S'Chickenfoot'
p987
S'Sexy Little Thing'
p988
S'http://www.last.fm/music/Chickenfoot/_/Sexy+Little+Thing'
p989
S'1264073407'
p990
tp991
a(S'Jupiter One'
p992
S'Countdown'
p993
S'http://www.last.fm/music/Jupiter+One/_/Countdown'
p994
S'1264073179'
p995
tp996
a(S'Airbourne'
p997
S'Diamond in the Rough'
p998
S'http://www.last.fm/music/Airbourne/_/Diamond+in+the+Rough'
p999
S'1264072946'
p1000
tp1001
a.