(lp1
(S'Mother Love Bone'
p2
S'This Is Shangrila'
p3
S'http://www.last.fm/music/Mother+Love+Bone/_/This+Is+Shangrila'
p4
S'1391008196'
p5
tp6
a(S'Alice in Chains'
p7
S'Your Decision'
p8
S'http://www.last.fm/music/Alice+in+Chains/_/Your+Decision'
p9
S'1391007974'
p10
tp11
a(S'Alice in Chains'
p12
S'Scalpel'
p13
S'http://www.last.fm/music/Alice+in+Chains/_/Scalpel'
p14
S'1391007691'
p15
tp16
a(S'Mother Love Bone'
p17
S'Lady Godiva Blues'
p18
S'http://www.last.fm/music/Mother+Love+Bone/_/Lady+Godiva+Blues'
p19
S'1391000661'
p20
tp21
a(S'Talk Show'
p22
S'Hide'
p23
S'http://www.last.fm/music/Talk+Show/_/Hide'
p24
S'1391000552'
p25
tp26
a(S'Queens of the Stone Age'
p27
S'If I Had a Tail'
p28
S'http://www.last.fm/music/Queens+of+the+Stone+Age/_/If+I+Had+a+Tail'
p29
S'1391000342'
p30
tp31
a(S'Stone Temple Pilots'
p32
S'Still Remains'
p33
S'http://www.last.fm/music/Stone+Temple+Pilots/_/Still+Remains'
p34
S'1391000047'
p35
tp36
a(S'Velvet Revolver'
p37
S'Dirty Little Thing'
p38
S'http://www.last.fm/music/Velvet+Revolver/_/Dirty+Little+Thing'
p39
S'1390999833'
p40
tp41
a(S'Army Of Anyone'
p42
S'A Better Place'
p43
S'http://www.last.fm/music/Army+Of+Anyone/_/A+Better+Place'
p44
S'1390936341'
p45
tp46
a(S'Soundgarden'
p47
S'Rowing'
p48
S'http://www.last.fm/music/Soundgarden/_/Rowing'
p49
S'1390936042'
p50
tp51
a(S'Jerry Cantrell'
p52
S'Between'
p53
S'http://www.last.fm/music/Jerry+Cantrell/_/Between'
p54
S'1390935736'
p55
tp56
a(S'Mother Love Bone'
p57
S'This Is Shangrila'
p58
S'http://www.last.fm/music/Mother+Love+Bone/_/This+Is+Shangrila'
p59
S'1390935519'
p60
tp61
a(S'Nirvana'
p62
S'In Bloom'
p63
S'http://www.last.fm/music/Nirvana/_/In+Bloom'
p64
S'1390935297'
p65
tp66
a(S'Velvet Revolver'
p67
S'Dirty Little Thing'
p68
S'http://www.last.fm/music/Velvet+Revolver/_/Dirty+Little+Thing'
p69
S'1390935042'
p70
tp71
a(S'Queens of the Stone Age'
p72
S'Make It Wit Chu'
p73
S'http://www.last.fm/music/Queens+of+the+Stone+Age/_/Make+It+Wit+Chu'
p74
S'1390934804'
p75
tp76
a(S'Stone Temple Pilots'
p77
S'Huckleberry Crumble'
p78
S'http://www.last.fm/music/Stone+Temple+Pilots/_/Huckleberry+Crumble'
p79
S'1390934513'
p80
tp81
a(S'Army Of Anyone'
p82
S'Generation'
p83
S'http://www.last.fm/music/Army+Of+Anyone/_/Generation'
p84
S'1390934323'
p85
tp86
a(S'Super Furry Animals'
p87
S'Golden Retriever'
p88
S'http://www.last.fm/music/Super+Furry+Animals/_/Golden+Retriever'
p89
S'1390934112'
p90
tp91
a(S'Mother Love Bone'
p92
S'Lady Godiva Blues'
p93
S'http://www.last.fm/music/Mother+Love+Bone/_/Lady+Godiva+Blues'
p94
S'1390933963'
p95
tp96
a(S'Queens of the Stone Age'
p97
S'God Is in the Radio'
p98
S'http://www.last.fm/music/Queens+of+the+Stone+Age/_/God+Is+in+the+Radio'
p99
S'1390932628'
p100
tp101
a(S'Queens of the Stone Age'
p102
S'If I Had a Tail'
p103
S'http://www.last.fm/music/Queens+of+the+Stone+Age/_/If+I+Had+a+Tail'
p104
S'1390932263'
p105
tp106
a(S'Talk Show'
p107
S'Hello Hello'
p108
S'http://www.last.fm/music/Talk+Show/_/Hello+Hello'
p109
S'1390931968'
p110
tp111
a(S'Stone Temple Pilots'
p112
S'Take a Load Off'
p113
S'http://www.last.fm/music/Stone+Temple+Pilots/_/Take+a+Load+Off'
p114
S'1390931790'
p115
tp116
a(S'Stone Temple Pilots'
p117
S'Vasoline'
p118
S'http://www.last.fm/music/Stone+Temple+Pilots/_/Vasoline'
p119
S'1390931599'
p120
tp121
a(S'Stone Temple Pilots'
p122
S'Peacoat'
p123
S'http://www.last.fm/music/Stone+Temple+Pilots/_/Peacoat'
p124
S'1390931421'
p125
tp126
a(S'Stone Temple Pilots'
p127
S'Pruno'
p128
S'http://www.last.fm/music/Stone+Temple+Pilots/_/Pruno'
p129
S'1390931212'
p130
tp131
a(S'Talk Show'
p132
S'Hide'
p133
S'http://www.last.fm/music/Talk+Show/_/Hide'
p134
S'1390931017'
p135
tp136
a(S'Stone Temple Pilots'
p137
S'Too Cool Queenie'
p138
S'http://www.last.fm/music/Stone+Temple+Pilots/_/Too+Cool+Queenie'
p139
S'1390930807'
p140
tp141
a(S'Jerry Cantrell'
p142
S'My Song'
p143
S'http://www.last.fm/music/Jerry+Cantrell/_/My+Song'
p144
S'1390930639'
p145
tp146
a(S'Velvet Revolver'
p147
S'You Got No Right'
p148
S'http://www.last.fm/music/Velvet+Revolver/_/You+Got+No+Right'
p149
S'1390930393'
p150
tp151
a(S'Queens of the Stone Age'
p152
S'Misfit Love'
p153
S'http://www.last.fm/music/Queens+of+the+Stone+Age/_/Misfit+Love'
p154
S'1390930058'
p155
tp156
a(S'Midnight Oil'
p157
S'Blue Sky Mine'
p158
S'http://www.last.fm/music/Midnight+Oil/_/Blue+Sky+Mine'
p159
S'1390929718'
p160
tp161
a(S'Them Crooked Vultures'
p162
S'Gunman'
p163
S'http://www.last.fm/music/Them+Crooked+Vultures/_/Gunman'
p164
S'1390929457'
p165
tp166
a(S'Alice in Chains'
p167
S'Your Decision'
p168
S'http://www.last.fm/music/Alice+in+Chains/_/Your+Decision'
p169
S'1390929171'
p170
tp171
a(S'Soundgarden'
p172
S'Attrition'
p173
S'http://www.last.fm/music/Soundgarden/_/Attrition'
p174
S'1390928888'
p175
tp176
a(S'Stone Temple Pilots'
p177
S'Transmissions From a Lonely Room'
p178
S'http://www.last.fm/music/Stone+Temple+Pilots/_/Transmissions+From+a+Lonely+Room'
p179
S'1390928715'
p180
tp181
a(S'Queens of the Stone Age'
p182
S"You Think I Ain't Worth a Dollar, But I Feel Like a Millionaire"
p183
S'http://www.last.fm/music/Queens+of+the+Stone+Age/_/You+Think+I+Ain%27t+Worth+a+Dollar,+But+I+Feel+Like+a+Millionaire'
p184
S'1390926554'
p185
tp186
a(S'The Gracious Few'
p187
S'Tredecim'
p188
S'http://www.last.fm/music/The+Gracious+Few/_/Tredecim'
p189
S'1390926361'
p190
tp191
a(S'Alice in Chains'
p192
S'Choke'
p193
S'http://www.last.fm/music/Alice+in+Chains/_/Choke'
p194
S'1390926105'
p195
tp196
a(S'Super Furry Animals'
p197
S'Bad Behaviour'
p198
S'http://www.last.fm/music/Super+Furry+Animals/_/Bad+Behaviour'
p199
S'1390925761'
p200
tp201
a(S'Stone Temple Pilots'
p202
S'Still Remains'
p203
S'http://www.last.fm/music/Stone+Temple+Pilots/_/Still+Remains'
p204
S'1390925495'
p205
tp206
a(S'Nirvana'
p207
S'Lithium'
p208
S'http://www.last.fm/music/Nirvana/_/Lithium'
p209
S'1390924838'
p210
tp211
a(S'Queens of the Stone Age'
p212
S'Go With the Flow'
p213
S'http://www.last.fm/music/Queens+of+the+Stone+Age/_/Go+With+the+Flow'
p214
S'1390924581'
p215
tp216
a(S'Alice in Chains'
p217
S'Heaven Beside You'
p218
S'http://www.last.fm/music/Alice+in+Chains/_/Heaven+Beside+You'
p219
S'1390924393'
p220
tp221
a(S'Jerry Cantrell'
p222
S'Satisfy'
p223
S'http://www.last.fm/music/Jerry+Cantrell/_/Satisfy'
p224
S'1390924065'
p225
tp226
a(S'Soundgarden'
p227
S"Eyelid's Mouth"
p228
S'http://www.last.fm/music/Soundgarden/_/Eyelid%27s+Mouth'
p229
S'1390923851'
p230
tp231
a(S'Army Of Anyone'
p232
S'A Better Place'
p233
S'http://www.last.fm/music/Army+Of+Anyone/_/A+Better+Place'
p234
S'1390923571'
p235
tp236
a(S'Soundgarden'
p237
S'Rowing'
p238
S'http://www.last.fm/music/Soundgarden/_/Rowing'
p239
S'1390923272'
p240
tp241
a(S'Jerry Cantrell'
p242
S'Between'
p243
S'http://www.last.fm/music/Jerry+Cantrell/_/Between'
p244
S'1390922966'
p245
tp246
a(S'Mother Love Bone'
p247
S'This Is Shangrila'
p248
S'http://www.last.fm/music/Mother+Love+Bone/_/This+Is+Shangrila'
p249
S'1390922749'
p250
tp251
a(S'Nirvana'
p252
S'In Bloom'
p253
S'http://www.last.fm/music/Nirvana/_/In+Bloom'
p254
S'1390922527'
p255
tp256
a(S'Queens of the Stone Age'
p257
S'Make It Wit Chu'
p258
S'http://www.last.fm/music/Queens+of+the+Stone+Age/_/Make+It+Wit+Chu'
p259
S'1390913963'
p260
tp261
a(S'Stone Temple Pilots'
p262
S'Huckleberry Crumble'
p263
S'http://www.last.fm/music/Stone+Temple+Pilots/_/Huckleberry+Crumble'
p264
S'1390913672'
p265
tp266
a(S'Army Of Anyone'
p267
S'Generation'
p268
S'http://www.last.fm/music/Army+Of+Anyone/_/Generation'
p269
S'1390913292'
p270
tp271
a(S'Super Furry Animals'
p272
S'Golden Retriever'
p273
S'http://www.last.fm/music/Super+Furry+Animals/_/Golden+Retriever'
p274
S'1390913081'
p275
tp276
a(S'Jerry Cantrell'
p277
S'Angel Eyes'
p278
S'http://www.last.fm/music/Jerry+Cantrell/_/Angel+Eyes'
p279
S'1390912856'
p280
tp281
a(S'Queens of the Stone Age'
p282
S'God Is in the Radio'
p283
S'http://www.last.fm/music/Queens+of+the+Stone+Age/_/God+Is+in+the+Radio'
p284
S'1390910839'
p285
tp286
a(S'Alice in Chains'
p287
S'Scalpel'
p288
S'http://www.last.fm/music/Alice+in+Chains/_/Scalpel'
p289
S'1390507860'
p290
tp291
a(S'Stone Temple Pilots'
p292
S'Transmissions From a Lonely Room'
p293
S'http://www.last.fm/music/Stone+Temple+Pilots/_/Transmissions+From+a+Lonely+Room'
p294
S'1390507539'
p295
tp296
a(S'Queens of the Stone Age'
p297
S'If I Had a Tail'
p298
S'http://www.last.fm/music/Queens+of+the+Stone+Age/_/If+I+Had+a+Tail'
p299
S'1390507343'
p300
tp301
a(S'Queens of the Stone Age'
p302
S'Go With the Flow'
p303
S'http://www.last.fm/music/Queens+of+the+Stone+Age/_/Go+With+the+Flow'
p304
S'1390507048'
p305
tp306
a(S'Super Furry Animals'
p307
S'Bad Behaviour'
p308
S'http://www.last.fm/music/Super+Furry+Animals/_/Bad+Behaviour'
p309
S'1390506860'
p310
tp311
a(S'Stone Temple Pilots'
p312
S'Pruno'
p313
S'http://www.last.fm/music/Stone+Temple+Pilots/_/Pruno'
p314
S'1390506594'
p315
tp316
a(S'Stone Temple Pilots'
p317
S'First Kiss on Mars'
p318
S'http://www.last.fm/music/Stone+Temple+Pilots/_/First+Kiss+on+Mars'
p319
S'1390506400'
p320
tp321
a(S'Stone Temple Pilots'
p322
S'Peacoat'
p323
S'http://www.last.fm/music/Stone+Temple+Pilots/_/Peacoat'
p324
S'1390506216'
p325
tp326
a(S'Alice in Chains'
p327
S'Your Decision'
p328
S'http://www.last.fm/music/Alice+in+Chains/_/Your+Decision'
p329
S'1390506006'
p330
tp331
a(S'Talk Show'
p332
S'Hide'
p333
S'http://www.last.fm/music/Talk+Show/_/Hide'
p334
S'1390505723'
p335
tp336
a(S'Jerry Cantrell'
p337
S'Angel Eyes'
p338
S'http://www.last.fm/music/Jerry+Cantrell/_/Angel+Eyes'
p339
S'1390505160'
p340
tp341
a(S'Alice in Chains'
p342
S'Heaven Beside You'
p343
S'http://www.last.fm/music/Alice+in+Chains/_/Heaven+Beside+You'
p344
S'1390504875'
p345
tp346
a(S'Velvet Revolver'
p347
S'You Got No Right'
p348
S'http://www.last.fm/music/Velvet+Revolver/_/You+Got+No+Right'
p349
S'1390504547'
p350
tp351
a(S'Soundgarden'
p352
S"Eyelid's Mouth"
p353
S'http://www.last.fm/music/Soundgarden/_/Eyelid%27s+Mouth'
p354
S'1390504212'
p355
tp356
a(S'Stone Temple Pilots'
p357
S'Still Remains'
p358
S'http://www.last.fm/music/Stone+Temple+Pilots/_/Still+Remains'
p359
S'1390503932'
p360
tp361
a(S'Stone Temple Pilots'
p362
S'Vasoline'
p363
S'http://www.last.fm/music/Stone+Temple+Pilots/_/Vasoline'
p364
S'1390503640'
p365
tp366
a(S'Stone Temple Pilots'
p367
S'Take a Load Off'
p368
S'http://www.last.fm/music/Stone+Temple+Pilots/_/Take+a+Load+Off'
p369
S'1390503463'
p370
tp371
a(S'The Gracious Few'
p372
S'Tredecim'
p373
S'http://www.last.fm/music/The+Gracious+Few/_/Tredecim'
p374
S'1390503225'
p375
tp376
a(S'Mother Love Bone'
p377
S'This Is Shangrila'
p378
S'http://www.last.fm/music/Mother+Love+Bone/_/This+Is+Shangrila'
p379
S'1390499087'
p380
tp381
a(S'Alice in Chains'
p382
S'Choke'
p383
S'http://www.last.fm/music/Alice+in+Chains/_/Choke'
p384
S'1390498684'
p385
tp386
a(S'Queens of the Stone Age'
p387
S"You Think I Ain't Worth a Dollar, But I Feel Like a Millionaire"
p388
S'http://www.last.fm/music/Queens+of+the+Stone+Age/_/You+Think+I+Ain%27t+Worth+a+Dollar,+But+I+Feel+Like+a+Millionaire'
p389
S'1390498340'
p390
tp391
a(S'Mother Love Bone'
p392
S'Lady Godiva Blues'
p393
S'http://www.last.fm/music/Mother+Love+Bone/_/Lady+Godiva+Blues'
p394
S'1390498147'
p395
tp396
a(S'Stone Temple Pilots'
p397
S'Huckleberry Crumble'
p398
S'http://www.last.fm/music/Stone+Temple+Pilots/_/Huckleberry+Crumble'
p399
S'1390497660'
p400
tp401
a(S'Jerry Cantrell'
p402
S'Between'
p403
S'http://www.last.fm/music/Jerry+Cantrell/_/Between'
p404
S'1390497469'
p405
tp406
a(S'Talk Show'
p407
S'Hello Hello'
p408
S'http://www.last.fm/music/Talk+Show/_/Hello+Hello'
p409
S'1390497253'
p410
tp411
a(S'Queens of the Stone Age'
p412
S'Misfit Love'
p413
S'http://www.last.fm/music/Queens+of+the+Stone+Age/_/Misfit+Love'
p414
S'1390497075'
p415
tp416
a(S'Jerry Cantrell'
p417
S'Satisfy'
p418
S'http://www.last.fm/music/Jerry+Cantrell/_/Satisfy'
p419
S'1390482168'
p420
tp421
a(S'Stone Temple Pilots'
p422
S'Too Cool Queenie'
p423
S'http://www.last.fm/music/Stone+Temple+Pilots/_/Too+Cool+Queenie'
p424
S'1390481953'
p425
tp426
a(S'Jerry Cantrell'
p427
S'My Song'
p428
S'http://www.last.fm/music/Jerry+Cantrell/_/My+Song'
p429
S'1390481785'
p430
tp431
a(S'Them Crooked Vultures'
p432
S'Gunman'
p433
S'http://www.last.fm/music/Them+Crooked+Vultures/_/Gunman'
p434
S'1390481539'
p435
tp436
a(S'Midnight Oil'
p437
S'Blue Sky Mine'
p438
S'http://www.last.fm/music/Midnight+Oil/_/Blue+Sky+Mine'
p439
S'1390481253'
p440
tp441
a(S'Super Furry Animals'
p442
S'Bad Behaviour'
p443
S'http://www.last.fm/music/Super+Furry+Animals/_/Bad+Behaviour'
p444
S'1390414237'
p445
tp446
a(S'Jerry Cantrell'
p447
S'My Song'
p448
S'http://www.last.fm/music/Jerry+Cantrell/_/My+Song'
p449
S'1390413971'
p450
tp451
a(S'Army Of Anyone'
p452
S'Generation'
p453
S'http://www.last.fm/music/Army+Of+Anyone/_/Generation'
p454
S'1390413725'
p455
tp456
a(S'Stone Temple Pilots'
p457
S'Transmissions From a Lonely Room'
p458
S'http://www.last.fm/music/Stone+Temple+Pilots/_/Transmissions+From+a+Lonely+Room'
p459
S'1390413514'
p460
tp461
a(S'Talk Show'
p462
S'Hello Hello'
p463
S'http://www.last.fm/music/Talk+Show/_/Hello+Hello'
p464
S'1390413318'
p465
tp466
a(S'Nirvana'
p467
S'Lithium'
p468
S'http://www.last.fm/music/Nirvana/_/Lithium'
p469
S'1390413141'
p470
tp471
a(S'Stone Temple Pilots'
p472
S'First Kiss on Mars'
p473
S'http://www.last.fm/music/Stone+Temple+Pilots/_/First+Kiss+on+Mars'
p474
S'1390412884'
p475
tp476
a(S'Stone Temple Pilots'
p477
S'Pruno'
p478
S'http://www.last.fm/music/Stone+Temple+Pilots/_/Pruno'
p479
S'1390412683'
p480
tp481
a(S'Jerry Cantrell'
p482
S'Satisfy'
p483
S'http://www.last.fm/music/Jerry+Cantrell/_/Satisfy'
p484
S'1390412488'
p485
tp486
a(S'Soundgarden'
p487
S'Attrition'
p488
S'http://www.last.fm/music/Soundgarden/_/Attrition'
p489
S'1390412273'
p490
tp491
a(S'Soundgarden'
p492
S"Eyelid's Mouth"
p493
S'http://www.last.fm/music/Soundgarden/_/Eyelid%27s+Mouth'
p494
S'1390412100'
p495
tp496
a(S'Soundgarden'
p497
S'Rowing'
p498
S'http://www.last.fm/music/Soundgarden/_/Rowing'
p499
S'1390411821'
p500
tp501
a(S'Alice in Chains'
p502
S'Your Decision'
p503
S'http://www.last.fm/music/Alice+in+Chains/_/Your+Decision'
p504
S'1390411515'
p505
tp506
a(S'Queens of the Stone Age'
p507
S'Misfit Love'
p508
S'http://www.last.fm/music/Queens+of+the+Stone+Age/_/Misfit+Love'
p509
S'1390411231'
p510
tp511
a(S'Jerry Cantrell'
p512
S'Between'
p513
S'http://www.last.fm/music/Jerry+Cantrell/_/Between'
p514
S'1390396398'
p515
tp516
a(S'Stone Temple Pilots'
p517
S'Still Remains'
p518
S'http://www.last.fm/music/Stone+Temple+Pilots/_/Still+Remains'
p519
S'1390396181'
p520
tp521
a(S'The Gracious Few'
p522
S'Tredecim'
p523
S'http://www.last.fm/music/The+Gracious+Few/_/Tredecim'
p524
S'1390395967'
p525
tp526
a(S'Stone Temple Pilots'
p527
S'Too Cool Queenie'
p528
S'http://www.last.fm/music/Stone+Temple+Pilots/_/Too+Cool+Queenie'
p529
S'1390395712'
p530
tp531
a(S'Queens of the Stone Age'
p532
S'Go With the Flow'
p533
S'http://www.last.fm/music/Queens+of+the+Stone+Age/_/Go+With+the+Flow'
p534
S'1390395544'
p535
tp536
a(S'Stone Temple Pilots'
p537
S'Huckleberry Crumble'
p538
S'http://www.last.fm/music/Stone+Temple+Pilots/_/Huckleberry+Crumble'
p539
S'1390395357'
p540
tp541
a(S'Them Crooked Vultures'
p542
S'Gunman'
p543
S'http://www.last.fm/music/Them+Crooked+Vultures/_/Gunman'
p544
S'1390395166'
p545
tp546
a(S'Alice in Chains'
p547
S'Choke'
p548
S'http://www.last.fm/music/Alice+in+Chains/_/Choke'
p549
S'1390394880'
p550
tp551
a(S'Alice in Chains'
p552
S'Scalpel'
p553
S'http://www.last.fm/music/Alice+in+Chains/_/Scalpel'
p554
S'1390394535'
p555
tp556
a(S'Alice in Chains'
p557
S'Heaven Beside You'
p558
S'http://www.last.fm/music/Alice+in+Chains/_/Heaven+Beside+You'
p559
S'1390394210'
p560
tp561
a(S'Queens of the Stone Age'
p562
S'Make It Wit Chu'
p563
S'http://www.last.fm/music/Queens+of+the+Stone+Age/_/Make+It+Wit+Chu'
p564
S'1390393882'
p565
tp566
a(S'Army Of Anyone'
p567
S'A Better Place'
p568
S'http://www.last.fm/music/Army+Of+Anyone/_/A+Better+Place'
p569
S'1390393701'
p570
tp571
a(S'Army Of Anyone'
p572
S'Generation'
p573
S'http://www.last.fm/music/Army+Of+Anyone/_/Generation'
p574
S'1390329570'
p575
tp576
a(S'Velvet Revolver'
p577
S'You Got No Right'
p578
S'http://www.last.fm/music/Velvet+Revolver/_/You+Got+No+Right'
p579
S'1390329355'
p580
tp581
a(S'Nirvana'
p582
S'In Bloom'
p583
S'http://www.last.fm/music/Nirvana/_/In+Bloom'
p584
S'1390329019'
p585
tp586
a(S'Mother Love Bone'
p587
S'This Is Shangrila'
p588
S'http://www.last.fm/music/Mother+Love+Bone/_/This+Is+Shangrila'
p589
S'1390322564'
p590
tp591
a(S'Super Furry Animals'
p592
S'Golden Retriever'
p593
S'http://www.last.fm/music/Super+Furry+Animals/_/Golden+Retriever'
p594
S'1390322273'
p595
tp596
a(S'Jerry Cantrell'
p597
S'Angel Eyes'
p598
S'http://www.last.fm/music/Jerry+Cantrell/_/Angel+Eyes'
p599
S'1390320352'
p600
tp601
a(S'Velvet Revolver'
p602
S'You Got No Right'
p603
S'http://www.last.fm/music/Velvet+Revolver/_/You+Got+No+Right'
p604
S'1390320067'
p605
tp606
a(S'Soundgarden'
p607
S'Attrition'
p608
S'http://www.last.fm/music/Soundgarden/_/Attrition'
p609
S'1390319732'
p610
tp611
a(S'Stone Temple Pilots'
p612
S'Pruno'
p613
S'http://www.last.fm/music/Stone+Temple+Pilots/_/Pruno'
p614
S'1390319559'
p615
tp616
a(S'The Gracious Few'
p617
S'Tredecim'
p618
S'http://www.last.fm/music/The+Gracious+Few/_/Tredecim'
p619
S'1390319111'
p620
tp621
a(S'Nirvana'
p622
S'In Bloom'
p623
S'http://www.last.fm/music/Nirvana/_/In+Bloom'
p624
S'1390318856'
p625
tp626
a(S'Alice in Chains'
p627
S'Your Decision'
p628
S'http://www.last.fm/music/Alice+in+Chains/_/Your+Decision'
p629
S'1390309636'
p630
tp631
a(S'Stone Temple Pilots'
p632
S'Peacoat'
p633
S'http://www.last.fm/music/Stone+Temple+Pilots/_/Peacoat'
p634
S'1390309352'
p635
tp636
a(S'Midnight Oil'
p637
S'Blue Sky Mine'
p638
S'http://www.last.fm/music/Midnight+Oil/_/Blue+Sky+Mine'
p639
S'1390309143'
p640
tp641
a(S'Army Of Anyone'
p642
S'A Better Place'
p643
S'http://www.last.fm/music/Army+Of+Anyone/_/A+Better+Place'
p644
S'1390308062'
p645
tp646
a(S'Soundgarden'
p647
S'Rowing'
p648
S'http://www.last.fm/music/Soundgarden/_/Rowing'
p649
S'1390307763'
p650
tp651
a(S'Stone Temple Pilots'
p652
S'Still Remains'
p653
S'http://www.last.fm/music/Stone+Temple+Pilots/_/Still+Remains'
p654
S'1390307442'
p655
tp656
a(S'Mother Love Bone'
p657
S'This Is Shangrila'
p658
S'http://www.last.fm/music/Mother+Love+Bone/_/This+Is+Shangrila'
p659
S'1390307229'
p660
tp661
a(S'Queens of the Stone Age'
p662
S'Make It Wit Chu'
p663
S'http://www.last.fm/music/Queens+of+the+Stone+Age/_/Make+It+Wit+Chu'
p664
S'1390244456'
p665
tp666
a(S'Queens of the Stone Age'
p667
S'God Is in the Radio'
p668
S'http://www.last.fm/music/Queens+of+the+Stone+Age/_/God+Is+in+the+Radio'
p669
S'1390244166'
p670
tp671
a(S'Soundgarden'
p672
S'Attrition'
p673
S'http://www.last.fm/music/Soundgarden/_/Attrition'
p674
S'1390239133'
p675
tp676
a(S'Talk Show'
p677
S'Hide'
p678
S'http://www.last.fm/music/Talk+Show/_/Hide'
p679
S'1390238961'
p680
tp681
a(S'Stone Temple Pilots'
p682
S'Pruno'
p683
S'http://www.last.fm/music/Stone+Temple+Pilots/_/Pruno'
p684
S'1390238751'
p685
tp686
a(S'Queens of the Stone Age'
p687
S'If I Had a Tail'
p688
S'http://www.last.fm/music/Queens+of+the+Stone+Age/_/If+I+Had+a+Tail'
p689
S'1390221712'
p690
tp691
a(S'Jerry Cantrell'
p692
S'My Song'
p693
S'http://www.last.fm/music/Jerry+Cantrell/_/My+Song'
p694
S'1389983084'
p695
tp696
a(S'Stone Temple Pilots'
p697
S'Vasoline'
p698
S'http://www.last.fm/music/Stone+Temple+Pilots/_/Vasoline'
p699
S'1389982838'
p700
tp701
a(S'Stone Temple Pilots'
p702
S'Peacoat'
p703
S'http://www.last.fm/music/Stone+Temple+Pilots/_/Peacoat'
p704
S'1389982661'
p705
tp706
a(S'Queens of the Stone Age'
p707
S'God Is in the Radio'
p708
S'http://www.last.fm/music/Queens+of+the+Stone+Age/_/God+Is+in+the+Radio'
p709
S'1389982451'
p710
tp711
a(S'Alice in Chains'
p712
S'Your Decision'
p713
S'http://www.last.fm/music/Alice+in+Chains/_/Your+Decision'
p714
S'1389982086'
p715
tp716
a(S'Jerry Cantrell'
p717
S'Angel Eyes'
p718
S'http://www.last.fm/music/Jerry+Cantrell/_/Angel+Eyes'
p719
S'1389981705'
p720
tp721
a(S'Queens of the Stone Age'
p722
S"You Think I Ain't Worth a Dollar, But I Feel Like a Millionaire"
p723
S'http://www.last.fm/music/Queens+of+the+Stone+Age/_/You+Think+I+Ain%27t+Worth+a+Dollar,+But+I+Feel+Like+a+Millionaire'
p724
S'1389981415'
p725
tp726
a(S'Soundgarden'
p727
S'Attrition'
p728
S'http://www.last.fm/music/Soundgarden/_/Attrition'
p729
S'1389981222'
p730
tp731
a(S'Alice in Chains'
p732
S'Heaven Beside You'
p733
S'http://www.last.fm/music/Alice+in+Chains/_/Heaven+Beside+You'
p734
S'1389981050'
p735
tp736
a(S'Stone Temple Pilots'
p737
S'Pruno'
p738
S'http://www.last.fm/music/Stone+Temple+Pilots/_/Pruno'
p739
S'1389980722'
p740
tp741
a(S'Queens of the Stone Age'
p742
S'Make It Wit Chu'
p743
S'http://www.last.fm/music/Queens+of+the+Stone+Age/_/Make+It+Wit+Chu'
p744
S'1389980516'
p745
tp746
a(S'Queens of the Stone Age'
p747
S'Go With the Flow'
p748
S'http://www.last.fm/music/Queens+of+the+Stone+Age/_/Go+With+the+Flow'
p749
S'1389980225'
p750
tp751
a(S'Nirvana'
p752
S'Lithium'
p753
S'http://www.last.fm/music/Nirvana/_/Lithium'
p754
S'1389980038'
p755
tp756
a(S'The Gracious Few'
p757
S'Tredecim'
p758
S'http://www.last.fm/music/The+Gracious+Few/_/Tredecim'
p759
S'1389979782'
p760
tp761
a(S'Stone Temple Pilots'
p762
S'Huckleberry Crumble'
p763
S'http://www.last.fm/music/Stone+Temple+Pilots/_/Huckleberry+Crumble'
p764
S'1389964894'
p765
tp766
a(S'Stone Temple Pilots'
p767
S'Transmissions From a Lonely Room'
p768
S'http://www.last.fm/music/Stone+Temple+Pilots/_/Transmissions+From+a+Lonely+Room'
p769
S'1389964687'
p770
tp771
a(S'Stone Temple Pilots'
p772
S'First Kiss on Mars'
p773
S'http://www.last.fm/music/Stone+Temple+Pilots/_/First+Kiss+on+Mars'
p774
S'1389963846'
p775
tp776
a(S'Soundgarden'
p777
S'Rowing'
p778
S'http://www.last.fm/music/Soundgarden/_/Rowing'
p779
S'1389963662'
p780
tp781
a(S'Talk Show'
p782
S'Hello Hello'
p783
S'http://www.last.fm/music/Talk+Show/_/Hello+Hello'
p784
S'1389897141'
p785
tp786
a(S'Stone Temple Pilots'
p787
S'First Kiss on Mars'
p788
S'http://www.last.fm/music/Stone+Temple+Pilots/_/First+Kiss+on+Mars'
p789
S'1389896964'
p790
tp791
a(S'Alice in Chains'
p792
S'Heaven Beside You'
p793
S'http://www.last.fm/music/Alice+in+Chains/_/Heaven+Beside+You'
p794
S'1389896780'
p795
tp796
a(S'Stone Temple Pilots'
p797
S'Peacoat'
p798
S'http://www.last.fm/music/Stone+Temple+Pilots/_/Peacoat'
p799
S'1389896452'
p800
tp801
a(S'Stone Temple Pilots'
p802
S'Vasoline'
p803
S'http://www.last.fm/music/Stone+Temple+Pilots/_/Vasoline'
p804
S'1389896242'
p805
tp806
a(S'Alice in Chains'
p807
S'Scalpel'
p808
S'http://www.last.fm/music/Alice+in+Chains/_/Scalpel'
p809
S'1389896065'
p810
tp811
a(S'Jerry Cantrell'
p812
S'Satisfy'
p813
S'http://www.last.fm/music/Jerry+Cantrell/_/Satisfy'
p814
S'1389895744'
p815
tp816
a(S'Nirvana'
p817
S'In Bloom'
p818
S'http://www.last.fm/music/Nirvana/_/In+Bloom'
p819
S'1389895529'
p820
tp821
a(S'Jerry Cantrell'
p822
S'My Song'
p823
S'http://www.last.fm/music/Jerry+Cantrell/_/My+Song'
p824
S'1389895274'
p825
tp826
a(S'Soundgarden'
p827
S'Attrition'
p828
S'http://www.last.fm/music/Soundgarden/_/Attrition'
p829
S'1389895028'
p830
tp831
a(S'Army Of Anyone'
p832
S'A Better Place'
p833
S'http://www.last.fm/music/Army+Of+Anyone/_/A+Better+Place'
p834
S'1389891185'
p835
tp836
a(S'Army Of Anyone'
p837
S'Generation'
p838
S'http://www.last.fm/music/Army+Of+Anyone/_/Generation'
p839
S'1389890886'
p840
tp841
a(S'Them Crooked Vultures'
p842
S'Gunman'
p843
S'http://www.last.fm/music/Them+Crooked+Vultures/_/Gunman'
p844
S'1389890675'
p845
tp846
a(S'Jerry Cantrell'
p847
S'Between'
p848
S'http://www.last.fm/music/Jerry+Cantrell/_/Between'
p849
S'1389890388'
p850
tp851
a(S'The Gracious Few'
p852
S'Tredecim'
p853
S'http://www.last.fm/music/The+Gracious+Few/_/Tredecim'
p854
S'1389890171'
p855
tp856
a(S'Stone Temple Pilots'
p857
S'Transmissions From a Lonely Room'
p858
S'http://www.last.fm/music/Stone+Temple+Pilots/_/Transmissions+From+a+Lonely+Room'
p859
S'1389889512'
p860
tp861
a(S'Queens of the Stone Age'
p862
S"You Think I Ain't Worth a Dollar, But I Feel Like a Millionaire"
p863
S'http://www.last.fm/music/Queens+of+the+Stone+Age/_/You+Think+I+Ain%27t+Worth+a+Dollar,+But+I+Feel+Like+a+Millionaire'
p864
S'1389889316'
p865
tp866
a(S'Super Furry Animals'
p867
S'Golden Retriever'
p868
S'http://www.last.fm/music/Super+Furry+Animals/_/Golden+Retriever'
p869
S'1389887775'
p870
tp871
a(S'Velvet Revolver'
p872
S'You Got No Right'
p873
S'http://www.last.fm/music/Velvet+Revolver/_/You+Got+No+Right'
p874
S'1389887627'
p875
tp876
a(S'Velvet Revolver'
p877
S'Dirty Little Thing'
p878
S'http://www.last.fm/music/Velvet+Revolver/_/Dirty+Little+Thing'
p879
S'1389876320'
p880
tp881
a(S'Alice in Chains'
p882
S'Scalpel'
p883
S'http://www.last.fm/music/Alice+in+Chains/_/Scalpel'
p884
S'1389876082'
p885
tp886
a(S'Pearl Jam'
p887
S'Rats'
p888
S'http://www.last.fm/music/Pearl+Jam/_/Rats'
p889
S'1389809106'
p890
tp891
a(S'Velvet Revolver'
p892
S'Dirty Little Thing'
p893
S'http://www.last.fm/music/Velvet+Revolver/_/Dirty+Little+Thing'
p894
S'1389807383'
p895
tp896
a(S'The Smiths'
p897
S'Ask'
p898
S'http://www.last.fm/music/The+Smiths/_/Ask'
p899
S'1389807146'
p900
tp901
a(S'The Gracious Few'
p902
S'Honest Man'
p903
S'http://www.last.fm/music/The+Gracious+Few/_/Honest+Man'
p904
S'1389806949'
p905
tp906
a(S'Walter Murphy & the Big Apple Band'
p907
S'A Fifth of Beethoven'
p908
S'http://www.last.fm/music/Walter+Murphy+&+the+Big+Apple+Band/_/A+Fifth+of+Beethoven'
p909
S'1389806697'
p910
tp911
a(S'Velvet Revolver'
p912
S'You Got No Right'
p913
S'http://www.last.fm/music/Velvet+Revolver/_/You+Got+No+Right'
p914
S'1389806515'
p915
tp916
a(S'Whitesnake'
p917
S'The Deeper The Love'
p918
S'http://www.last.fm/music/Whitesnake/_/The+Deeper+The+Love'
p919
S'1389803937'
p920
tp921
a(S'The Smiths'
p922
S"Heaven Knows I'm Miserable Now"
p923
S'http://www.last.fm/music/The+Smiths/_/Heaven+Knows+I%27m+Miserable+Now'
p924
S'1389803678'
p925
tp926
a(S'The Cult'
p927
S'She Sells Sanctuary'
p928
S'http://www.last.fm/music/The+Cult/_/She+Sells+Sanctuary'
p929
S'1389803462'
p930
tp931
a(S'The Tuesdays'
p932
S"When You're A Tuesday Girl"
p933
S'http://www.last.fm/music/The+Tuesdays/_/When+You%27re+A+Tuesday+Girl'
p934
S'1389803209'
p935
tp936
a(S'The Tuesdays'
p937
S'I Was Thinking Of You'
p938
S'http://www.last.fm/music/The+Tuesdays/_/I+Was+Thinking+Of+You'
p939
S'1389802940'
p940
tp941
a(S'Yes'
p942
S'Changes'
p943
S'http://www.last.fm/music/Yes/_/Changes'
p944
S'1389802752'
p945
tp946
a(S'Black Sabbath'
p947
S'Die Young'
p948
S'http://www.last.fm/music/Black+Sabbath/_/Die+Young'
p949
S'1389802371'
p950
tp951
a(S'Black Sabbath'
p952
S'A National Acrobat'
p953
S'http://www.last.fm/music/Black+Sabbath/_/A+National+Acrobat'
p954
S'1389802143'
p955
tp956
a(S'Black Sabbath'
p957
S'Supernaut'
p958
S'http://www.last.fm/music/Black+Sabbath/_/Supernaut'
p959
S'1389801766'
p960
tp961
a(S'Black Sabbath'
p962
S'Heaven and Hell'
p963
S'http://www.last.fm/music/Black+Sabbath/_/Heaven+and+Hell'
p964
S'1389801480'
p965
tp966
a(S'Black Sabbath'
p967
S'N.I.B.'
p968
S'http://www.last.fm/music/Black+Sabbath/_/N.I.B.'
p969
S'1389801016'
p970
tp971
a(S'Black Sabbath'
p972
S'Get a Grip'
p973
S'http://www.last.fm/music/Black+Sabbath/_/Get+a+Grip'
p974
S'1389800649'
p975
tp976
a(S'Black Sabbath'
p977
S'Snowblind'
p978
S'http://www.last.fm/music/Black+Sabbath/_/Snowblind'
p979
S'1389800409'
p980
tp981
a(S'Black Sabbath'
p982
S'Spiral Architect'
p983
S'http://www.last.fm/music/Black+Sabbath/_/Spiral+Architect'
p984
S'1389800077'
p985
tp986
a(S'Black Sabbath'
p987
S'Am I Going Insane (Radio)'
p988
S'http://www.last.fm/music/Black+Sabbath/_/Am+I+Going+Insane+(Radio)'
p989
S'1389799747'
p990
tp991
a(S'Black Sabbath'
p992
S'Devil & Daughter'
p993
S'http://www.last.fm/music/Black+Sabbath/_/Devil+&+Daughter'
p994
S'1389799491'
p995
tp996
a(S'Black Sabbath'
p997
S'Headless Cross'
p998
S'http://www.last.fm/music/Black+Sabbath/_/Headless+Cross'
p999
S'1389799206'
p1000
tp1001
a.