(lp1
(S'Them Crooked Vultures'
p2
S'Dead End Friends'
p3
S'http://www.last.fm/music/Them+Crooked+Vultures/_/Dead+End+Friends'
p4
S'1271774360'
p5
tp6
a(S'Audioslave'
p7
S'Show Me How To Live'
p8
S'http://www.last.fm/music/Audioslave/_/Show+Me+How+To+Live'
p9
S'1271767085'
p10
tp11
a(S'Soundgarden'
p12
S'Mind Riot'
p13
S'http://www.last.fm/music/Soundgarden/_/Mind+Riot'
p14
S'1271766796'
p15
tp16
a(S'Jerry Cantrell'
p17
S'Between'
p18
S'http://www.last.fm/music/Jerry+Cantrell/_/Between'
p19
S'1271766579'
p20
tp21
a(S'Audioslave'
p22
S'Shadow On The Sun'
p23
S'http://www.last.fm/music/Audioslave/_/Shadow+On+The+Sun'
p24
S'1271766236'
p25
tp26
a(S'Velvet Revolver'
p27
S'Headspace'
p28
S'http://www.last.fm/music/Velvet+Revolver/_/Headspace'
p29
S'1271766013'
p30
tp31
a(S'Stone Temple Pilots'
p32
S'Army Ants'
p33
S'http://www.last.fm/music/Stone+Temple+Pilots/_/Army+Ants'
p34
S'1271765786'
p35
tp36
a(S'Nirvana'
p37
S'Lithium'
p38
S'http://www.last.fm/music/Nirvana/_/Lithium'
p39
S'1271765529'
p40
tp41
a(S'Alice in Chains'
p42
S'Man in the Box'
p43
S'http://www.last.fm/music/Alice+in+Chains/_/Man+in+the+Box'
p44
S'1271765243'
p45
tp46
a(S'Alice in Chains'
p47
S'I Stay Away'
p48
S'http://www.last.fm/music/Alice+in+Chains/_/I+Stay+Away'
p49
S'1271764988'
p50
tp51
a(S'Temple of the Dog'
p52
S'Reach Down'
p53
S'http://www.last.fm/music/Temple+of+the+Dog/_/Reach+Down'
p54
S'1271763565'
p55
tp56
a(S'Alice in Chains'
p57
S'Nutshell'
p58
S'http://www.last.fm/music/Alice+in+Chains/_/Nutshell'
p59
S'1271763305'
p60
tp61
a(S'Alice in Chains'
p62
S'Rotten Apple'
p63
S'http://www.last.fm/music/Alice+in+Chains/_/Rotten+Apple'
p64
S'1271762887'
p65
tp66
a(S'Army Of Anyone'
p67
S'Generation'
p68
S'http://www.last.fm/music/Army+Of+Anyone/_/Generation'
p69
S'1271762676'
p70
tp71
a(S'Temple of the Dog'
p72
S'Pushin Forward Back'
p73
S'http://www.last.fm/music/Temple+of+the+Dog/_/Pushin+Forward+Back'
p74
S'1271762451'
p75
tp76
a(S'Soundgarden'
p77
S'The Day I Tried to Live'
p78
S'http://www.last.fm/music/Soundgarden/_/The+Day+I+Tried+to+Live'
p79
S'1271762132'
p80
tp81
a(S'Them Crooked Vultures'
p82
S'New Fang'
p83
S'http://www.last.fm/music/Them+Crooked+Vultures/_/New+Fang'
p84
S'1271761904'
p85
tp86
a(S'Soundgarden'
p87
S'Superunknown'
p88
S'http://www.last.fm/music/Soundgarden/_/Superunknown'
p89
S'1271761597'
p90
tp91
a(S'Alice in Chains'
p92
S'Lesson Learned'
p93
S'http://www.last.fm/music/Alice+in+Chains/_/Lesson+Learned'
p94
S'1271759874'
p95
tp96
a(S'Soundgarden'
p97
S'The Day I Tried to Live'
p98
S'http://www.last.fm/music/Soundgarden/_/The+Day+I+Tried+to+Live'
p99
S'1271715573'
p100
tp101
a(S'Them Crooked Vultures'
p102
S'Dead End Friends'
p103
S'http://www.last.fm/music/Them+Crooked+Vultures/_/Dead+End+Friends'
p104
S'1271715378'
p105
tp106
a(S'Nirvana'
p107
S'Polly'
p108
S'http://www.last.fm/music/Nirvana/_/Polly'
p109
S'1271715201'
p110
tp111
a(S'Alice in Chains'
p112
S'Got Me Wrong'
p113
S'http://www.last.fm/music/Alice+in+Chains/_/Got+Me+Wrong'
p114
S'1271714949'
p115
tp116
a(S'Stone Temple Pilots'
p117
S"Trippin' on a Hole in a Paper Heart"
p118
S'http://www.last.fm/music/Stone+Temple+Pilots/_/Trippin%27+on+a+Hole+in+a+Paper+Heart'
p119
S'1271714773'
p120
tp121
a(S'Soundgarden'
p122
S'Room a Thousand Years Wide'
p123
S'http://www.last.fm/music/Soundgarden/_/Room+a+Thousand+Years+Wide'
p124
S'1271714527'
p125
tp126
a(S'Army Of Anyone'
p127
S'Goodbye'
p128
S'http://www.last.fm/music/Army+Of+Anyone/_/Goodbye'
p129
S'1271714217'
p130
tp131
a(S'Alice in Chains'
p132
S'All Secrets Known'
p133
S'http://www.last.fm/music/Alice+in+Chains/_/All+Secrets+Known'
p134
S'1271713934'
p135
tp136
a(S'Jerry Cantrell'
p137
S'Settling Down'
p138
S'http://www.last.fm/music/Jerry+Cantrell/_/Settling+Down'
p139
S'1271713564'
p140
tp141
a(S'Them Crooked Vultures'
p142
S'New Fang'
p143
S'http://www.last.fm/music/Them+Crooked+Vultures/_/New+Fang'
p144
S'1271713336'
p145
tp146
a(S'Alice in Chains'
p147
S'Private Hell'
p148
S'http://www.last.fm/music/Alice+in+Chains/_/Private+Hell'
p149
S'1271712997'
p150
tp151
a(S'Audioslave'
p152
S'Your Time Has Come'
p153
S'http://www.last.fm/music/Audioslave/_/Your+Time+Has+Come'
p154
S'1271712736'
p155
tp156
a(S'Audioslave'
p157
S'Show Me How To Live'
p158
S'http://www.last.fm/music/Audioslave/_/Show+Me+How+To+Live'
p159
S'1271712459'
p160
tp161
a(S'Alice in Chains'
p162
S'Lesson Learned'
p163
S'http://www.last.fm/music/Alice+in+Chains/_/Lesson+Learned'
p164
S'1271712201'
p165
tp166
a(S'Stone Temple Pilots'
p167
S'Still Remains'
p168
S'http://www.last.fm/music/Stone+Temple+Pilots/_/Still+Remains'
p169
S'1271702066'
p170
tp171
a(S'Stone Temple Pilots'
p172
S'And So I Know'
p173
S'http://www.last.fm/music/Stone+Temple+Pilots/_/And+So+I+Know'
p174
S'1271701829'
p175
tp176
a(S'Alice in Chains'
p177
S'Private Hell'
p178
S'http://www.last.fm/music/Alice+in+Chains/_/Private+Hell'
p179
S'1271701490'
p180
tp181
a(S'Alice in Chains'
p182
S'Man in the Box'
p183
S'http://www.last.fm/music/Alice+in+Chains/_/Man+in+the+Box'
p184
S'1271701203'
p185
tp186
a(S'Temple of the Dog'
p187
S'Wooden Jesus'
p188
S'http://www.last.fm/music/Temple+of+the+Dog/_/Wooden+Jesus'
p189
S'1271700934'
p190
tp191
a(S'Queens of the Stone Age'
p192
S'Misfit Love'
p193
S'http://www.last.fm/music/Queens+of+the+Stone+Age/_/Misfit+Love'
p194
S'1271700594'
p195
tp196
a(S'Soundgarden'
p197
S'The Day I Tried to Live'
p198
S'http://www.last.fm/music/Soundgarden/_/The+Day+I+Tried+to+Live'
p199
S'1271700275'
p200
tp201
a(S'Audioslave'
p202
S'Show Me How To Live'
p203
S'http://www.last.fm/music/Audioslave/_/Show+Me+How+To+Live'
p204
S'1271699997'
p205
tp206
a(S'Velvet Revolver'
p207
S'Big Machine'
p208
S'http://www.last.fm/music/Velvet+Revolver/_/Big+Machine'
p209
S'1271699739'
p210
tp211
a(S'Alice in Chains'
p212
S'Right Turn'
p213
S'http://www.last.fm/music/Alice+in+Chains/_/Right+Turn'
p214
S'1271699541'
p215
tp216
a(S'Soundgarden'
p217
S'Mind Riot'
p218
S'http://www.last.fm/music/Soundgarden/_/Mind+Riot'
p219
S'1271699252'
p220
tp221
a(S'Them Crooked Vultures'
p222
S'Gunman'
p223
S'http://www.last.fm/music/Them+Crooked+Vultures/_/Gunman'
p224
S'1271698965'
p225
tp226
a(S'Alice in Chains'
p227
S'No Excuses'
p228
S'http://www.last.fm/music/Alice+in+Chains/_/No+Excuses'
p229
S'1271698710'
p230
tp231
a(S'Audioslave'
p232
S'Somedays'
p233
S'http://www.last.fm/music/Audioslave/_/Somedays'
p234
S'1271684073'
p235
tp236
a(S'Pearl Jam'
p237
S'Leash'
p238
S'http://www.last.fm/music/Pearl+Jam/_/Leash'
p239
S'1271683884'
p240
tp241
a(S'Alice in Chains'
p242
S'Nutshell'
p243
S'http://www.last.fm/music/Alice+in+Chains/_/Nutshell'
p244
S'1271683624'
p245
tp246
a(S'Mother Love Bone'
p247
S'This Is Shangrila'
p248
S'http://www.last.fm/music/Mother+Love+Bone/_/This+Is+Shangrila'
p249
S'1271683402'
p250
tp251
a(S'Soundgarden'
p252
S'Fell on Black Days'
p253
S'http://www.last.fm/music/Soundgarden/_/Fell+on+Black+Days'
p254
S'1271683119'
p255
tp256
a(S'Alice in Chains'
p257
S'No Excuses'
p258
S'http://www.last.fm/music/Alice+in+Chains/_/No+Excuses'
p259
S'1271682863'
p260
tp261
a(S'Temple of the Dog'
p262
S'Pushin Forward Back'
p263
S'http://www.last.fm/music/Temple+of+the+Dog/_/Pushin+Forward+Back'
p264
S'1271682639'
p265
tp266
a(S'Army Of Anyone'
p267
S'Goodbye'
p268
S'http://www.last.fm/music/Army+Of+Anyone/_/Goodbye'
p269
S'1271682367'
p270
tp271
a(S'Alice in Chains'
p272
S'All Secrets Known'
p273
S'http://www.last.fm/music/Alice+in+Chains/_/All+Secrets+Known'
p274
S'1271681865'
p275
tp276
a(S'Soundgarden'
p277
S'My Wave'
p278
S'http://www.last.fm/music/Soundgarden/_/My+Wave'
p279
S'1271680712'
p280
tp281
a(S'Alice in Chains'
p282
S'Man in the Box'
p283
S'http://www.last.fm/music/Alice+in+Chains/_/Man+in+the+Box'
p284
S'1271680425'
p285
tp286
a(S'Stone Temple Pilots'
p287
S'Meat Plow'
p288
S'http://www.last.fm/music/Stone+Temple+Pilots/_/Meat+Plow'
p289
S'1271680209'
p290
tp291
a(S'Soundgarden'
p292
S'The Day I Tried to Live'
p293
S'http://www.last.fm/music/Soundgarden/_/The+Day+I+Tried+to+Live'
p294
S'1271679889'
p295
tp296
a(S'Stone Temple Pilots'
p297
S'Army Ants'
p298
S'http://www.last.fm/music/Stone+Temple+Pilots/_/Army+Ants'
p299
S'1271679663'
p300
tp301
a(S'Them Crooked Vultures'
p302
S'Dead End Friends'
p303
S'http://www.last.fm/music/Them+Crooked+Vultures/_/Dead+End+Friends'
p304
S'1271679467'
p305
tp306
a(S'Stone Temple Pilots'
p307
S'Seven Caged Tigers'
p308
S'http://www.last.fm/music/Stone+Temple+Pilots/_/Seven+Caged+Tigers'
p309
S'1271679211'
p310
tp311
a(S'Audioslave'
p312
S'Shadow On The Sun'
p313
S'http://www.last.fm/music/Audioslave/_/Shadow+On+The+Sun'
p314
S'1271678867'
p315
tp316
a(S'Them Crooked Vultures'
p317
S'New Fang'
p318
S'http://www.last.fm/music/Them+Crooked+Vultures/_/New+Fang'
p319
S'1271678639'
p320
tp321
a(S'Soundgarden'
p322
S'Big Dumb Sex'
p323
S'http://www.last.fm/music/Soundgarden/_/Big+Dumb+Sex'
p324
S'1271436570'
p325
tp326
a(S'Jerry Cantrell'
p327
S'Keep The Light On'
p328
S'http://www.last.fm/music/Jerry+Cantrell/_/Keep+The+Light+On'
p329
S'1271436284'
p330
tp331
a(S'Iron Maiden'
p332
S'Innocent Exile'
p333
S'http://www.last.fm/music/Iron+Maiden/_/Innocent+Exile'
p334
S'1271436049'
p335
tp336
a(S'Airbourne'
p337
S"Runnin' Wild"
p338
S'http://www.last.fm/music/Airbourne/_/Runnin%27+Wild'
p339
S'1271435831'
p340
tp341
a(S'Metallica'
p342
S'Until It Sleeps'
p343
S'http://www.last.fm/music/Metallica/_/Until+It+Sleeps'
p344
S'1271435559'
p345
tp346
a(S'Iron Maiden'
p347
S'Drifter'
p348
S'http://www.last.fm/music/Iron+Maiden/_/Drifter'
p349
S'1271435270'
p350
tp351
a(S'Soundgarden'
p352
S'Superunknown'
p353
S'http://www.last.fm/music/Soundgarden/_/Superunknown'
p354
S'1271434964'
p355
tp356
a(S'Alice in Chains'
p357
S'Bleed the Freak'
p358
S'http://www.last.fm/music/Alice+in+Chains/_/Bleed+the+Freak'
p359
S'1271359238'
p360
tp361
a(S'Misfits'
p362
S'Descending Angel'
p363
S'http://www.last.fm/music/Misfits/_/Descending+Angel'
p364
S'1271359011'
p365
tp366
a(S'Iron Maiden'
p367
S'Innocent Exile'
p368
S'http://www.last.fm/music/Iron+Maiden/_/Innocent+Exile'
p369
S'1271358779'
p370
tp371
a(S'Audioslave'
p372
S'Cochise'
p373
S'http://www.last.fm/music/Audioslave/_/Cochise'
p374
S'1271358556'
p375
tp376
a(S'Soundgarden'
p377
S'Big Dumb Sex'
p378
S'http://www.last.fm/music/Soundgarden/_/Big+Dumb+Sex'
p379
S'1271358306'
p380
tp381
a(S'Soundgarden'
p382
S'Let Me Drown'
p383
S'http://www.last.fm/music/Soundgarden/_/Let+Me+Drown'
p384
S'1271358073'
p385
tp386
a(S'ZZ Top'
p387
S'Fuzzbox Voodoo'
p388
S'http://www.last.fm/music/ZZ+Top/_/Fuzzbox+Voodoo'
p389
S'1271357791'
p390
tp391
a(S'Misfits'
p392
S'Hybrid Moments'
p393
S'http://www.last.fm/music/Misfits/_/Hybrid+Moments'
p394
S'1271357691'
p395
tp396
a(S'Soundgarden'
p397
S'Superunknown'
p398
S'http://www.last.fm/music/Soundgarden/_/Superunknown'
p399
S'1271357385'
p400
tp401
a(S'Bad Religion'
p402
S'Stranger Than Fiction'
p403
S'http://www.last.fm/music/Bad+Religion/_/Stranger+Than+Fiction'
p404
S'1271357244'
p405
tp406
a(S'Misfits'
p407
S'Monster Mash'
p408
S'http://www.last.fm/music/Misfits/_/Monster+Mash'
p409
S'1271357087'
p410
tp411
a(S'Alice in Chains'
p412
S'Brother'
p413
S'http://www.last.fm/music/Alice+in+Chains/_/Brother'
p414
S'1271356207'
p415
tp416
a(S'Them Crooked Vultures'
p417
S'Gunman'
p418
S'http://www.last.fm/music/Them+Crooked+Vultures/_/Gunman'
p419
S'1271355921'
p420
tp421
a(S'Alice Cooper'
p422
S'Snakebite'
p423
S'http://www.last.fm/music/Alice+Cooper/_/Snakebite'
p424
S'1271355648'
p425
tp426
a(S'Chickenfoot'
p427
S'Sexy Little Thing'
p428
S'http://www.last.fm/music/Chickenfoot/_/Sexy+Little+Thing'
p429
S'1271355392'
p430
tp431
a(S'Yes'
p432
S'Changes'
p433
S'http://www.last.fm/music/Yes/_/Changes'
p434
S'1271355013'
p435
tp436
a(S'Bad Religion'
p437
S'Leave Mine to Me'
p438
S'http://www.last.fm/music/Bad+Religion/_/Leave+Mine+to+Me'
p439
S'1271354886'
p440
tp441
a(S'The Toy Dolls'
p442
S'Bare Faced Cheek'
p443
S'http://www.last.fm/music/The+Toy+Dolls/_/Bare+Faced+Cheek'
p444
S'1271354834'
p445
tp446
a(S'ZZ Top'
p447
S'Cherry Red'
p448
S'http://www.last.fm/music/ZZ+Top/_/Cherry+Red'
p449
S'1271354556'
p450
tp451
a(S'Diamond Head'
p452
S'Muddy Waters'
p453
S'http://www.last.fm/music/Diamond+Head/_/Muddy+Waters'
p454
S'1271354280'
p455
tp456
a(S'Queens of the Stone Age'
p457
S'Misfit Love'
p458
S'http://www.last.fm/music/Queens+of+the+Stone+Age/_/Misfit+Love'
p459
S'1271353940'
p460
tp461
a(S'Audioslave'
p462
S"Heaven's Dead"
p463
S'http://www.last.fm/music/Audioslave/_/Heaven%27s+Dead'
p464
S'1271353664'
p465
tp466
a(S'Misfits'
p467
S'The Hunger'
p468
S'http://www.last.fm/music/Misfits/_/The+Hunger'
p469
S'1271353560'
p470
tp471
a(S'Misfits'
p472
S'This Island Earth'
p473
S'http://www.last.fm/music/Misfits/_/This+Island+Earth'
p474
S'1271353425'
p475
tp476
a(S'Diamond Head'
p477
S'This Planet and Me'
p478
S'http://www.last.fm/music/Diamond+Head/_/This+Planet+and+Me'
p479
S'1271352683'
p480
tp481
a(S'Talk Show'
p482
S'Hello Hello'
p483
S'http://www.last.fm/music/Talk+Show/_/Hello+Hello'
p484
S'1271093028'
p485
tp486
a(S'Nirvana'
p487
S'Lithium'
p488
S'http://www.last.fm/music/Nirvana/_/Lithium'
p489
S'1271092771'
p490
tp491
a(S'Mother Love Bone'
p492
S'Stardog Champion'
p493
S'http://www.last.fm/music/Mother+Love+Bone/_/Stardog+Champion'
p494
S'1271092473'
p495
tp496
a(S'Pearl Jam'
p497
S'Leash'
p498
S'http://www.last.fm/music/Pearl+Jam/_/Leash'
p499
S'1271092283'
p500
tp501
a(S'Live'
p502
S'Operation Spirit (The Tyranny Of Tradition)'
p503
S'http://www.last.fm/music/Live/_/Operation+Spirit+(The+Tyranny+Of+Tradition)'
p504
S'1271092085'
p505
tp506
a(S'Live'
p507
S'Where Fishes Go'
p508
S'http://www.last.fm/music/Live/_/Where+Fishes+Go'
p509
S'1271091823'
p510
tp511
a(S'Them Crooked Vultures'
p512
S'Gunman'
p513
S'http://www.last.fm/music/Them+Crooked+Vultures/_/Gunman'
p514
S'1271080896'
p515
tp516
a(S'Pearl Jam'
p517
S'Go'
p518
S'http://www.last.fm/music/Pearl+Jam/_/Go'
p519
S'1271080702'
p520
tp521
a(S'Army Of Anyone'
p522
S'A Better Place'
p523
S'http://www.last.fm/music/Army+Of+Anyone/_/A+Better+Place'
p524
S'1271078457'
p525
tp526
a(S'Alice in Chains'
p527
S'Right Turn'
p528
S'http://www.last.fm/music/Alice+in+Chains/_/Right+Turn'
p529
S'1271078259'
p530
tp531
a(S'Pearl Jam'
p532
S'Black'
p533
S'http://www.last.fm/music/Pearl+Jam/_/Black'
p534
S'1271077913'
p535
tp536
a(S'Alice in Chains'
p537
S'Lesson Learned'
p538
S'http://www.last.fm/music/Alice+in+Chains/_/Lesson+Learned'
p539
S'1271077657'
p540
tp541
a(S'Alice in Chains'
p542
S'I Stay Away'
p543
S'http://www.last.fm/music/Alice+in+Chains/_/I+Stay+Away'
p544
S'1271077402'
p545
tp546
a(S'Soundgarden'
p547
S'Let Me Drown'
p548
S'http://www.last.fm/music/Soundgarden/_/Let+Me+Drown'
p549
S'1271077170'
p550
tp551
a(S'Mother Love Bone'
p552
S'Gentle Groove'
p553
S'http://www.last.fm/music/Mother+Love+Bone/_/Gentle+Groove'
p554
S'1271076926'
p555
tp556
a(S'Queens of the Stone Age'
p557
S'Misfit Love'
p558
S'http://www.last.fm/music/Queens+of+the+Stone+Age/_/Misfit+Love'
p559
S'1271076586'
p560
tp561
a(S'Queens of the Stone Age'
p562
S'Make It Wit Chu'
p563
S'http://www.last.fm/music/Queens+of+the+Stone+Age/_/Make+It+Wit+Chu'
p564
S'1271076296'
p565
tp566
a(S'Soundgarden'
p567
S'The Day I Tried to Live'
p568
S'http://www.last.fm/music/Soundgarden/_/The+Day+I+Tried+to+Live'
p569
S'1271075976'
p570
tp571
a(S'Audioslave'
p572
S'Somedays'
p573
S'http://www.last.fm/music/Audioslave/_/Somedays'
p574
S'1271075647'
p575
tp576
a(S'Stone Temple Pilots'
p577
S'Army Ants'
p578
S'http://www.last.fm/music/Stone+Temple+Pilots/_/Army+Ants'
p579
S'1271075455'
p580
tp581
a(S'Jerry Cantrell'
p582
S'Satisfy'
p583
S'http://www.last.fm/music/Jerry+Cantrell/_/Satisfy'
p584
S'1271075241'
p585
tp586
a(S'Them Crooked Vultures'
p587
S'New Fang'
p588
S'http://www.last.fm/music/Them+Crooked+Vultures/_/New+Fang'
p589
S'1271075012'
p590
tp591
a(S'Stone Temple Pilots'
p592
S'Vasoline'
p593
S'http://www.last.fm/music/Stone+Temple+Pilots/_/Vasoline'
p594
S'1270850787'
p595
tp596
a(S'Stone Temple Pilots'
p597
S'"Unglued"'
p598
S'http://www.last.fm/music/Stone+Temple+Pilots/_/%22Unglued%22'
p599
S'1270850633'
p600
tp601
a(S'Temple of the Dog'
p602
S'Four Walled World'
p603
S'http://www.last.fm/music/Temple+of+the+Dog/_/Four+Walled+World'
p604
S'1270850219'
p605
tp606
a(S'Soundgarden'
p607
S'Mind Riot'
p608
S'http://www.last.fm/music/Soundgarden/_/Mind+Riot'
p609
S'1270849929'
p610
tp611
a(S'Them Crooked Vultures'
p612
S'Gunman'
p613
S'http://www.last.fm/music/Them+Crooked+Vultures/_/Gunman'
p614
S'1270849643'
p615
tp616
a(S'Audioslave'
p617
S'Show Me How To Live'
p618
S'http://www.last.fm/music/Audioslave/_/Show+Me+How+To+Live'
p619
S'1270849365'
p620
tp621
a(S'Stone Temple Pilots'
p622
S'Kitchenware & Candybars'
p623
S'http://www.last.fm/music/Stone+Temple+Pilots/_/Kitchenware+&+Candybars'
p624
S'1270848879'
p625
tp626
a(S'Velvet Revolver'
p627
S'Get Out The Door'
p628
S'http://www.last.fm/music/Velvet+Revolver/_/Get+Out+The+Door'
p629
S'1270848685'
p630
tp631
a(S'Pearl Jam'
p632
S'Leash'
p633
S'http://www.last.fm/music/Pearl+Jam/_/Leash'
p634
S'1270848495'
p635
tp636
a(S'Jerry Cantrell'
p637
S'Settling Down'
p638
S'http://www.last.fm/music/Jerry+Cantrell/_/Settling+Down'
p639
S'1270848128'
p640
tp641
a(S'Audioslave'
p642
S'Somedays'
p643
S'http://www.last.fm/music/Audioslave/_/Somedays'
p644
S'1270847912'
p645
tp646
a(S'Temple of the Dog'
p647
S'Wooden Jesus'
p648
S'http://www.last.fm/music/Temple+of+the+Dog/_/Wooden+Jesus'
p649
S'1270847662'
p650
tp651
a(S'Alice in Chains'
p652
S'Private Hell'
p653
S'http://www.last.fm/music/Alice+in+Chains/_/Private+Hell'
p654
S'1270847324'
p655
tp656
a(S'Queens of the Stone Age'
p657
S'Make It Wit Chu'
p658
S'http://www.last.fm/music/Queens+of+the+Stone+Age/_/Make+It+Wit+Chu'
p659
S'1270847020'
p660
tp661
a(S'Them Crooked Vultures'
p662
S'New Fang'
p663
S'http://www.last.fm/music/Them+Crooked+Vultures/_/New+Fang'
p664
S'1270846792'
p665
tp666
a(S'Jamiroquai'
p667
S'High Times'
p668
S'http://www.last.fm/music/Jamiroquai/_/High+Times'
p669
S'1270845210'
p670
tp671
a(S'Jamiroquai'
p672
S'Love Foolosophy'
p673
S'http://www.last.fm/music/Jamiroquai/_/Love+Foolosophy'
p674
S'1270844982'
p675
tp676
a(S'Jamiroquai'
p677
S'Seven Days in Sunny June'
p678
S'http://www.last.fm/music/Jamiroquai/_/Seven+Days+in+Sunny+June'
p679
S'1270844008'
p680
tp681
a(S'Jamiroquai'
p682
S'2001'
p683
S'http://www.last.fm/music/Jamiroquai/_/2001'
p684
S'1270843690'
p685
tp686
a(S'Jamiroquai'
p687
S'Dynamite'
p688
S'http://www.last.fm/music/Jamiroquai/_/Dynamite'
p689
S'1270834743'
p690
tp691
a(S'Jamiroquai'
p692
S'Starchild'
p693
S'http://www.last.fm/music/Jamiroquai/_/Starchild'
p694
S'1270820490'
p695
tp696
a(S'Jamiroquai'
p697
S'Electric Mistress'
p698
S'http://www.last.fm/music/Jamiroquai/_/Electric+Mistress'
p699
S'1270820255'
p700
tp701
a(S'Jamiroquai'
p702
S'You Give Me Something'
p703
S'http://www.last.fm/music/Jamiroquai/_/You+Give+Me+Something'
p704
S'1270819694'
p705
tp706
a(S'Bon Jovi'
p707
S'Bad Medicine'
p708
S'http://www.last.fm/music/Bon+Jovi/_/Bad+Medicine'
p709
S'1270818749'
p710
tp711
a(S'AC/DC'
p712
S"Hell Ain't A Bad Place To Be"
p713
S'http://www.last.fm/music/AC%2FDC/_/Hell+Ain%27t+A+Bad+Place+To+Be'
p714
S'1270594666'
p715
tp716
a(S'Alice in Chains'
p717
S'I Stay Away'
p718
S'http://www.last.fm/music/Alice+in+Chains/_/I+Stay+Away'
p719
S'1270594411'
p720
tp721
a(S'Van Halen'
p722
S'Top of the World'
p723
S'http://www.last.fm/music/Van+Halen/_/Top+of+the+World'
p724
S'1270594101'
p725
tp726
a(S'Van Halen'
p727
S'Runaround'
p728
S'http://www.last.fm/music/Van+Halen/_/Runaround'
p729
S'1270593922'
p730
tp731
a(S'Jamiroquai'
p732
S'2001'
p733
S'http://www.last.fm/music/Jamiroquai/_/2001'
p734
S'1270593794'
p735
tp736
a(S'Jamiroquai'
p737
S'Love Foolosophy'
p738
S'http://www.last.fm/music/Jamiroquai/_/Love+Foolosophy'
p739
S'1270593566'
p740
tp741
a(S'Jamiroquai'
p742
S'Seven Days in Sunny June'
p743
S'http://www.last.fm/music/Jamiroquai/_/Seven+Days+in+Sunny+June'
p744
S'1270593328'
p745
tp746
a(S'Jamiroquai'
p747
S'Electric Mistress'
p748
S'http://www.last.fm/music/Jamiroquai/_/Electric+Mistress'
p749
S'1270593094'
p750
tp751
a(S'Jamiroquai'
p752
S'Dynamite'
p753
S'http://www.last.fm/music/Jamiroquai/_/Dynamite'
p754
S'1270592680'
p755
tp756
a(S'Jamiroquai'
p757
S'Alright'
p758
S'http://www.last.fm/music/Jamiroquai/_/Alright'
p759
S'1270592415'
p760
tp761
a(S'Jamiroquai'
p762
S'You Give Me Something'
p763
S'http://www.last.fm/music/Jamiroquai/_/You+Give+Me+Something'
p764
S'1270586580'
p765
tp766
a(S'Jamiroquai'
p767
S'Little L'
p768
S'http://www.last.fm/music/Jamiroquai/_/Little+L'
p769
S'1270586283'
p770
tp771
a(S'Jamiroquai'
p772
S'Little L'
p773
S'http://www.last.fm/music/Jamiroquai/_/Little+L'
p774
S'1270574572'
p775
tp776
a(S'Jamiroquai'
p777
S'2001'
p778
S'http://www.last.fm/music/Jamiroquai/_/2001'
p779
S'1270574254'
p780
tp781
a(S'Jamiroquai'
p782
S'2001'
p783
S'http://www.last.fm/music/Jamiroquai/_/2001'
p784
S'1270573937'
p785
tp786
a(S'Jamiroquai'
p787
S'You Give Me Something'
p788
S'http://www.last.fm/music/Jamiroquai/_/You+Give+Me+Something'
p789
S'1270573731'
p790
tp791
a(S'Jamiroquai'
p792
S'Alright'
p793
S'http://www.last.fm/music/Jamiroquai/_/Alright'
p794
S'1270573466'
p795
tp796
a(S'Jamiroquai'
p797
S'Dynamite'
p798
S'http://www.last.fm/music/Jamiroquai/_/Dynamite'
p799
S'1270573171'
p800
tp801
a(S'Jamiroquai'
p802
S'Seven Days in Sunny June'
p803
S'http://www.last.fm/music/Jamiroquai/_/Seven+Days+in+Sunny+June'
p804
S'1270572933'
p805
tp806
a(S'Jamiroquai'
p807
S'Starchild'
p808
S'http://www.last.fm/music/Jamiroquai/_/Starchild'
p809
S'1270572622'
p810
tp811
a(S'Jamiroquai'
p812
S'Electric Mistress'
p813
S'http://www.last.fm/music/Jamiroquai/_/Electric+Mistress'
p814
S'1270572388'
p815
tp816
a(S'Jamiroquai'
p817
S'Little L'
p818
S'http://www.last.fm/music/Jamiroquai/_/Little+L'
p819
S'1270572091'
p820
tp821
a(S'Jamiroquai'
p822
S'Everyday'
p823
S'http://www.last.fm/music/Jamiroquai/_/Everyday'
p824
S'1270571823'
p825
tp826
a(S'Jamiroquai'
p827
S'High Times'
p828
S'http://www.last.fm/music/Jamiroquai/_/High+Times'
p829
S'1270571464'
p830
tp831
a(S'Jamiroquai'
p832
S'Love Foolosophy'
p833
S'http://www.last.fm/music/Jamiroquai/_/Love+Foolosophy'
p834
S'1270571236'
p835
tp836
a(S'Jamiroquai'
p837
S'2001'
p838
S'http://www.last.fm/music/Jamiroquai/_/2001'
p839
S'1270564584'
p840
tp841
a(S'Jamiroquai'
p842
S'Everyday'
p843
S'http://www.last.fm/music/Jamiroquai/_/Everyday'
p844
S'1270564315'
p845
tp846
a(S'Jamiroquai'
p847
S'Little L'
p848
S'http://www.last.fm/music/Jamiroquai/_/Little+L'
p849
S'1270564018'
p850
tp851
a(S'Jamiroquai'
p852
S'Starchild'
p853
S'http://www.last.fm/music/Jamiroquai/_/Starchild'
p854
S'1270563707'
p855
tp856
a(S'Jamiroquai'
p857
S'Love Foolosophy'
p858
S'http://www.last.fm/music/Jamiroquai/_/Love+Foolosophy'
p859
S'1270563479'
p860
tp861
a(S'Jamiroquai'
p862
S'Electric Mistress'
p863
S'http://www.last.fm/music/Jamiroquai/_/Electric+Mistress'
p864
S'1270563245'
p865
tp866
a(S'Jamiroquai'
p867
S'You Give Me Something'
p868
S'http://www.last.fm/music/Jamiroquai/_/You+Give+Me+Something'
p869
S'1270563039'
p870
tp871
a(S'Jamiroquai'
p872
S'Dynamite'
p873
S'http://www.last.fm/music/Jamiroquai/_/Dynamite'
p874
S'1270559124'
p875
tp876
a(S'Jamiroquai'
p877
S'Seven Days in Sunny June'
p878
S'http://www.last.fm/music/Jamiroquai/_/Seven+Days+in+Sunny+June'
p879
S'1270558886'
p880
tp881
a(S'Jamiroquai'
p882
S'Alright'
p883
S'http://www.last.fm/music/Jamiroquai/_/Alright'
p884
S'1270558621'
p885
tp886
a(S'Jamiroquai'
p887
S'Dynamite'
p888
S'http://www.last.fm/music/Jamiroquai/_/Dynamite'
p889
S'1270554038'
p890
tp891
a(S'Jamiroquai'
p892
S'2001'
p893
S'http://www.last.fm/music/Jamiroquai/_/2001'
p894
S'1270553720'
p895
tp896
a(S'Jamiroquai'
p897
S'Starchild'
p898
S'http://www.last.fm/music/Jamiroquai/_/Starchild'
p899
S'1270553409'
p900
tp901
a(S'Jamiroquai'
p902
S'Electric Mistress'
p903
S'http://www.last.fm/music/Jamiroquai/_/Electric+Mistress'
p904
S'1270553176'
p905
tp906
a(S'Jamiroquai'
p907
S'Little L'
p908
S'http://www.last.fm/music/Jamiroquai/_/Little+L'
p909
S'1270552878'
p910
tp911
a(S'Jamiroquai'
p912
S'Seven Days in Sunny June'
p913
S'http://www.last.fm/music/Jamiroquai/_/Seven+Days+in+Sunny+June'
p914
S'1270552633'
p915
tp916
a(S'Jamiroquai'
p917
S'High Times'
p918
S'http://www.last.fm/music/Jamiroquai/_/High+Times'
p919
S'1270552275'
p920
tp921
a(S'Jamiroquai'
p922
S'You Give Me Something'
p923
S'http://www.last.fm/music/Jamiroquai/_/You+Give+Me+Something'
p924
S'1270552069'
p925
tp926
a(S'Jamiroquai'
p927
S'Everyday'
p928
S'http://www.last.fm/music/Jamiroquai/_/Everyday'
p929
S'1270551800'
p930
tp931
a(S'Jamiroquai'
p932
S'Love Foolosophy'
p933
S'http://www.last.fm/music/Jamiroquai/_/Love+Foolosophy'
p934
S'1270551572'
p935
tp936
a(S'Them Crooked Vultures'
p937
S'New Fang'
p938
S'http://www.last.fm/music/Them+Crooked+Vultures/_/New+Fang'
p939
S'1270500117'
p940
tp941
a(S'Them Crooked Vultures'
p942
S'Gunman'
p943
S'http://www.last.fm/music/Them+Crooked+Vultures/_/Gunman'
p944
S'1270499738'
p945
tp946
a(S'Live'
p947
S'Waterboy'
p948
S'http://www.last.fm/music/Live/_/Waterboy'
p949
S'1270499523'
p950
tp951
a(S'Talk Show'
p952
S'Hello Hello'
p953
S'http://www.last.fm/music/Talk+Show/_/Hello+Hello'
p954
S'1270499346'
p955
tp956
a(S'Audioslave'
p957
S'Show Me How To Live'
p958
S'http://www.last.fm/music/Audioslave/_/Show+Me+How+To+Live'
p959
S'1270499071'
p960
tp961
a(S'Live'
p962
S'Operation Spirit (The Tyranny Of Tradition)'
p963
S'http://www.last.fm/music/Live/_/Operation+Spirit+(The+Tyranny+Of+Tradition)'
p964
S'1270498823'
p965
tp966
a(S'Stone Temple Pilots'
p967
S'Meat Plow'
p968
S'http://www.last.fm/music/Stone+Temple+Pilots/_/Meat+Plow'
p969
S'1270496416'
p970
tp971
a(S'Velvet Revolver'
p972
S'Get Out The Door'
p973
S'http://www.last.fm/music/Velvet+Revolver/_/Get+Out+The+Door'
p974
S'1270496221'
p975
tp976
a(S'Soundgarden'
p977
S'Let Me Drown'
p978
S'http://www.last.fm/music/Soundgarden/_/Let+Me+Drown'
p979
S'1270495989'
p980
tp981
a(S'Soundgarden'
p982
S'My Wave'
p983
S'http://www.last.fm/music/Soundgarden/_/My+Wave'
p984
S'1270495493'
p985
tp986
a(S'Mother Love Bone'
p987
S'This Is Shangrila'
p988
S'http://www.last.fm/music/Mother+Love+Bone/_/This+Is+Shangrila'
p989
S'1270495271'
p990
tp991
a(S'Velvet Revolver'
p992
S'Spectacle'
p993
S'http://www.last.fm/music/Velvet+Revolver/_/Spectacle'
p994
S'1270495049'
p995
tp996
a(S'Them Crooked Vultures'
p997
S'New Fang'
p998
S'http://www.last.fm/music/Them+Crooked+Vultures/_/New+Fang'
p999
S'1270494821'
p1000
tp1001
a.