(lp1
(S'Stone Sour'
p2
S'Through Glass'
p3
S'http://www.last.fm/music/Stone+Sour/_/Through+Glass'
p4
S'1197218431'
p5
tp6
a(S'Linkin Park'
p7
S'Pushing Me Away'
p8
S'http://www.last.fm/music/Linkin+Park/_/Pushing+Me+Away'
p9
S'1197218239'
p10
tp11
a(S'Black Flag'
p12
S'TV Party'
p13
S'http://www.last.fm/music/Black+Flag/_/TV+Party'
p14
S'1197218028'
p15
tp16
a(S'Bad Religion'
p17
S'Generator'
p18
S'http://www.last.fm/music/Bad+Religion/_/Generator'
p19
S'1197217831'
p20
tp21
a(S'Linkin Park'
p22
S'In the End'
p23
S'http://www.last.fm/music/Linkin+Park/_/In+the+End'
p24
S'1197217615'
p25
tp26
a(S'Bryan Adams'
p27
S"When You're Gone"
p28
S'http://www.last.fm/music/Bryan+Adams/_/When+You%27re+Gone'
p29
S'1197217411'
p30
tp31
a(S'Eric Clapton'
p32
S"Travelin' Light"
p33
S'http://www.last.fm/music/Eric+Clapton/_/Travelin%27+Light'
p34
S'1197217154'
p35
tp36
a(S'AC/DC'
p37
S"Hell Ain't A Bad Place To Be"
p38
S'http://www.last.fm/music/AC%2FDC/_/Hell+Ain%27t+A+Bad+Place+To+Be'
p39
S'1197216900'
p40
tp41
a(S'ZZ Top'
p42
S'Rhythmeen'
p43
S'http://www.last.fm/music/ZZ+Top/_/Rhythmeen'
p44
S'1197216666'
p45
tp46
a(S'Men at Work'
p47
S'Land Down Under'
p48
S'http://www.last.fm/music/Men+at+Work/_/Land+Down+Under'
p49
S'1197216440'
p50
tp51
a(V\u5e03\u888b\u5bc5\u6cf0
p52
S'Battle Without Honor or Humanity'
p53
S'http://www.last.fm/music/%E5%B8%83%E8%A2%8B%E5%AF%85%E6%B3%B0/_/Battle+Without+Honor+or+Humanity'
p54
S'1197216291'
p55
tp56
a(S'Live'
p57
S'Deep Enough'
p58
S'http://www.last.fm/music/Live/_/Deep+Enough'
p59
S'1197216092'
p60
tp61
a(S'L7'
p62
S'Andres'
p63
S'http://www.last.fm/music/L7/_/Andres'
p64
S'1197215908'
p65
tp66
a(S'Metallica'
p67
S'2 X 4'
p68
S'http://www.last.fm/music/Metallica/_/2+X+4'
p69
S'1197215578'
p70
tp71
a(S'Megadeth'
p72
S'A Secret Place'
p73
S'http://www.last.fm/music/Megadeth/_/A+Secret+Place'
p74
S'1197215253'
p75
tp76
a(S'Kyuss'
p77
S'Green Machine'
p78
S'http://www.last.fm/music/Kyuss/_/Green+Machine'
p79
S'1197215035'
p80
tp81
a(S'Metallica'
p82
S'Until It Sleeps'
p83
S'http://www.last.fm/music/Metallica/_/Until+It+Sleeps'
p84
S'1197214763'
p85
tp86
a(S'ZZ Top'
p87
S'Black Fly'
p88
S'http://www.last.fm/music/ZZ+Top/_/Black+Fly'
p89
S'1197214549'
p90
tp91
a(S'Stone Temple Pilots'
p92
S'Seven Caged Tigers'
p93
S'http://www.last.fm/music/Stone+Temple+Pilots/_/Seven+Caged+Tigers'
p94
S'1197214293'
p95
tp96
a(S'Chuck Berry'
p97
S'Almost Grown'
p98
S'http://www.last.fm/music/Chuck+Berry/_/Almost+Grown'
p99
S'1197214149'
p100
tp101
a(S'Audioslave'
p102
S'Somedays'
p103
S'http://www.last.fm/music/Audioslave/_/Somedays'
p104
S'1197213937'
p105
tp106
a(S'Stone Temple Pilots'
p107
S'I Got You'
p108
S'http://www.last.fm/music/Stone+Temple+Pilots/_/I+Got+You'
p109
S'1197213681'
p110
tp111
a(S'Misfits'
p112
S'Dust To Dust'
p113
S'http://www.last.fm/music/Misfits/_/Dust+To+Dust'
p114
S'1197213517'
p115
tp116
a(S'Dusty Springfield'
p117
S'Son of a Preacher Man'
p118
S'http://www.last.fm/music/Dusty+Springfield/_/Son+of+a+Preacher+Man'
p119
S'1197213221'
p120
tp121
a(S'Soundgarden'
p122
S'Room a Thousand Years Wide'
p123
S'http://www.last.fm/music/Soundgarden/_/Room+a+Thousand+Years+Wide'
p124
S'1197212975'
p125
tp126
a(S'The Cult'
p127
S'Sun King'
p128
S'http://www.last.fm/music/The+Cult/_/Sun+King'
p129
S'1197212606'
p130
tp131
a(S'Deep Purple'
p132
S'Burn'
p133
S'http://www.last.fm/music/Deep+Purple/_/Burn'
p134
S'1197212242'
p135
tp136
a(S'Bad Religion'
p137
S'Leave Mine to Me'
p138
S'http://www.last.fm/music/Bad+Religion/_/Leave+Mine+to+Me'
p139
S'1197212115'
p140
tp141
a(S'Led Zeppelin'
p142
S'Communication Breakdown'
p143
S'http://www.last.fm/music/Led+Zeppelin/_/Communication+Breakdown'
p144
S'1197211966'
p145
tp146
a(S'Kiss'
p147
S'Forever'
p148
S'http://www.last.fm/music/Kiss/_/Forever'
p149
S'1197211732'
p150
tp151
a(S'AC/DC'
p152
S'Are You Ready'
p153
S'http://www.last.fm/music/AC%2FDC/_/Are+You+Ready'
p154
S'1197211458'
p155
tp156
a(S'Men at Work'
p157
S'Overkill'
p158
S'http://www.last.fm/music/Men+at+Work/_/Overkill'
p159
S'1197211236'
p160
tp161
a(S'Megadeth'
p162
S'The Disintegrators'
p163
S'http://www.last.fm/music/Megadeth/_/The+Disintegrators'
p164
S'1197209241'
p165
tp166
a(S'Albert King'
p167
S'Angel Of Mercy'
p168
S'http://www.last.fm/music/Albert+King/_/Angel+Of+Mercy'
p169
S'1197208886'
p170
tp171
a(S'Audioslave'
p172
S'Cochise'
p173
S'http://www.last.fm/music/Audioslave/_/Cochise'
p174
S'1197208664'
p175
tp176
a(S'Aerosmith'
p177
S"Heart's Done Time"
p178
S'http://www.last.fm/music/Aerosmith/_/Heart%27s+Done+Time'
p179
S'1197208382'
p180
tp181
a(S'Linkin Park'
p182
S'Lying from You'
p183
S'http://www.last.fm/music/Linkin+Park/_/Lying+from+You'
p184
S'1197208207'
p185
tp186
a(S'Kiss'
p187
S'Naked City'
p188
S'http://www.last.fm/music/Kiss/_/Naked+City'
p189
S'1197207975'
p190
tp191
a(S'Black Sabbath'
p192
S'Sabbath Bloody Sabbath'
p193
S'http://www.last.fm/music/Black+Sabbath/_/Sabbath+Bloody+Sabbath'
p194
S'1197207628'
p195
tp196
a(S'Linkin Park'
p197
S'Papercut'
p198
S'http://www.last.fm/music/Linkin+Park/_/Papercut'
p199
S'1197207442'
p200
tp201
a(S'Collective Soul'
p202
S'Energy'
p203
S'http://www.last.fm/music/Collective+Soul/_/Energy'
p204
S'1197207241'
p205
tp206
a(S'Alice in Chains'
p207
S'Nutshell'
p208
S'http://www.last.fm/music/Alice+in+Chains/_/Nutshell'
p209
S'1197206760'
p210
tp211
a(S'Live'
p212
S'Mirror Song'
p213
S'http://www.last.fm/music/Live/_/Mirror+Song'
p214
S'1197206542'
p215
tp216
a(S'Misfits'
p217
S'This Island Earth'
p218
S'http://www.last.fm/music/Misfits/_/This+Island+Earth'
p219
S'1197206407'
p220
tp221
a(S'Live'
p222
S'The Distance'
p223
S'http://www.last.fm/music/Live/_/The+Distance'
p224
S'1197206175'
p225
tp226
a(S'Velvet Revolver'
p227
S'Gravedancer'
p228
S'http://www.last.fm/music/Velvet+Revolver/_/Gravedancer'
p229
S'1197205898'
p230
tp231
a(S'Black Sabbath'
p232
S'N.I.B.'
p233
S'http://www.last.fm/music/Black+Sabbath/_/N.I.B.'
p234
S'1197205533'
p235
tp236
a(S'Scorpions'
p237
S'Rock You Like a Hurricane'
p238
S'http://www.last.fm/music/Scorpions/_/Rock+You+Like+a+Hurricane'
p239
S'1197205280'
p240
tp241
a(S'Audioslave'
p242
S'Light My Way'
p243
S'http://www.last.fm/music/Audioslave/_/Light+My+Way'
p244
S'1197204976'
p245
tp246
a(S'Audioslave'
p247
S"Heaven's Dead"
p248
S'http://www.last.fm/music/Audioslave/_/Heaven%27s+Dead'
p249
S'1197204701'
p250
tp251
a(S'Audioslave'
p252
S'Yesterday To Tomorrow'
p253
S'http://www.last.fm/music/Audioslave/_/Yesterday+To+Tomorrow'
p254
S'1197141532'
p255
tp256
a(S'Audioslave'
p257
S'Somedays'
p258
S'http://www.last.fm/music/Audioslave/_/Somedays'
p259
S'1197141389'
p260
tp261
a(S'Audioslave'
p262
S'Sound Of A Gun'
p263
S'http://www.last.fm/music/Audioslave/_/Sound+Of+A+Gun'
p264
S'1197141131'
p265
tp266
a(S'Audioslave'
p267
S'Be Yourself'
p268
S'http://www.last.fm/music/Audioslave/_/Be+Yourself'
p269
S'1197140726'
p270
tp271
a(S'Velvet Revolver'
p272
S'Gas and a Dollar Laugh'
p273
S'http://www.last.fm/music/Velvet+Revolver/_/Gas+and+a+Dollar+Laugh'
p274
S'1197137366'
p275
tp276
a(S'Velvet Revolver'
p277
S'Sucker Train Blues'
p278
S'http://www.last.fm/music/Velvet+Revolver/_/Sucker+Train+Blues'
p279
S'1197137098'
p280
tp281
a(S'Velvet Revolver'
p282
S'Do It For The Kids'
p283
S'http://www.last.fm/music/Velvet+Revolver/_/Do+It+For+The+Kids'
p284
S'1197136862'
p285
tp286
a(S'Velvet Revolver'
p287
S'Dirty Little Thing'
p288
S'http://www.last.fm/music/Velvet+Revolver/_/Dirty+Little+Thing'
p289
S'1197136624'
p290
tp291
a(S'Velvet Revolver'
p292
S'Just Sixteen'
p293
S'http://www.last.fm/music/Velvet+Revolver/_/Just+Sixteen'
p294
S'1197136385'
p295
tp296
a(S'Fall Out Boy'
p297
S'Dance, Dance'
p298
S'http://www.last.fm/music/Fall+Out+Boy/_/Dance,+Dance'
p299
S'1197136205'
p300
tp301
a(S'Audioslave'
p302
S'Light My Way'
p303
S'http://www.last.fm/music/Audioslave/_/Light+My+Way'
p304
S'1197134705'
p305
tp306
a(S'Chris Cornell'
p307
S'You Know My Name'
p308
S'http://www.last.fm/music/Chris+Cornell/_/You+Know+My+Name'
p309
S'1197134049'
p310
tp311
a(S'Glenn Miller'
p312
S'Anvil Chorus'
p313
S'http://www.last.fm/music/Glenn+Miller/_/Anvil+Chorus'
p314
S'1197133753'
p315
tp316
a(S'Queens of the Stone Age'
p317
S'Gonna Leave You'
p318
S'http://www.last.fm/music/Queens+of+the+Stone+Age/_/Gonna+Leave+You'
p319
S'1197133583'
p320
tp321
a(S'Queens of the Stone Age'
p322
S'God Is in the Radio'
p323
S'http://www.last.fm/music/Queens+of+the+Stone+Age/_/God+Is+in+the+Radio'
p324
S'1197133218'
p325
tp326
a(S'Queens of the Stone Age'
p327
S'No One Knows'
p328
S'http://www.last.fm/music/Queens+of+the+Stone+Age/_/No+One+Knows'
p329
S'1197132876'
p330
tp331
a(S'Queens of the Stone Age'
p332
S'Little Sister'
p333
S'http://www.last.fm/music/Queens+of+the+Stone+Age/_/Little+Sister'
p334
S'1197132702'
p335
tp336
a(S'Queens of the Stone Age'
p337
S"Turnin' on the Screw"
p338
S'http://www.last.fm/music/Queens+of+the+Stone+Age/_/Turnin%27+on+the+Screw'
p339
S'1197132382'
p340
tp341
a(S'Queens of the Stone Age'
p342
S'Make It Wit Chu'
p343
S'http://www.last.fm/music/Queens+of+the+Stone+Age/_/Make+It+Wit+Chu'
p344
S'1197132091'
p345
tp346
a(S'Queens of the Stone Age'
p347
S'Suture Up Your Future'
p348
S'http://www.last.fm/music/Queens+of+the+Stone+Age/_/Suture+Up+Your+Future'
p349
S'1197131814'
p350
tp351
a(S'Queens of the Stone Age'
p352
S'Quick and to the Pointless'
p353
S'http://www.last.fm/music/Queens+of+the+Stone+Age/_/Quick+and+to+the+Pointless'
p354
S'1197131712'
p355
tp356
a(S'Metallica'
p357
S'Whiplash'
p358
S'http://www.last.fm/music/Metallica/_/Whiplash'
p359
S'1197131463'
p360
tp361
a(S'Metallica'
p362
S'Motorbreath'
p363
S'http://www.last.fm/music/Metallica/_/Motorbreath'
p364
S'1197131274'
p365
tp366
a(S'Metallica'
p367
S'2 X 4'
p368
S'http://www.last.fm/music/Metallica/_/2+X+4'
p369
S'1197130944'
p370
tp371
a(S'Metallica'
p372
S'King Nothing'
p373
S'http://www.last.fm/music/Metallica/_/King+Nothing'
p374
S'1197130615'
p375
tp376
a(S'Metallica'
p377
S'King Nothing'
p378
S'http://www.last.fm/music/Metallica/_/King+Nothing'
p379
S'1197085994'
p380
tp381
a(S'Metallica'
p382
S'2 X 4'
p383
S'http://www.last.fm/music/Metallica/_/2+X+4'
p384
S'1197085665'
p385
tp386
a(S'Pennywise'
p387
S'Land Down Under (cover)'
p388
S'http://www.last.fm/music/Pennywise/_/Land+Down+Under+(cover)'
p389
S'1197085053'
p390
tp391
a(S'Men at Work'
p392
S'Overkill'
p393
S'http://www.last.fm/music/Men+at+Work/_/Overkill'
p394
S'1197084829'
p395
tp396
a(S'Men at Work'
p397
S'Land Down Under'
p398
S'http://www.last.fm/music/Men+at+Work/_/Land+Down+Under'
p399
S'1197084165'
p400
tp401
a(S'Santana'
p402
S'Brown Skin Girl (feat. Bo Bice)'
p403
S'http://www.last.fm/music/Santana/_/Brown+Skin+Girl+(feat.+Bo+Bice)'
p404
S'1196983361'
p405
tp406
a(S'The Rolling Stones'
p407
S'Dandelion'
p408
S'http://www.last.fm/music/The+Rolling+Stones/_/Dandelion'
p409
S'1196983147'
p410
tp411
a(S'Queens of the Stone Age'
p412
S'Quick and to the Pointless'
p413
S'http://www.last.fm/music/Queens+of+the+Stone+Age/_/Quick+and+to+the+Pointless'
p414
S'1196983044'
p415
tp416
a(S'Queens of the Stone Age'
p417
S'Little Sister'
p418
S'http://www.last.fm/music/Queens+of+the+Stone+Age/_/Little+Sister'
p419
S'1196982870'
p420
tp421
a(S'Queens of the Stone Age'
p422
S"Turnin' on the Screw"
p423
S'http://www.last.fm/music/Queens+of+the+Stone+Age/_/Turnin%27+on+the+Screw'
p424
S'1196982550'
p425
tp426
a(S'Queen'
p427
S'We Are the Champions'
p428
S'http://www.last.fm/music/Queen/_/We+Are+the+Champions'
p429
S'1196982429'
p430
tp431
a(S'Stone Temple Pilots'
p432
S'No Way Out'
p433
S'http://www.last.fm/music/Stone+Temple+Pilots/_/No+Way+Out'
p434
S'1196982169'
p435
tp436
a(S'Metallica'
p437
S'Of Wolf and Man'
p438
S'http://www.last.fm/music/Metallica/_/Of+Wolf+and+Man'
p439
S'1196981912'
p440
tp441
a(S'Megadeth'
p442
S'Black Curtains'
p443
S'http://www.last.fm/music/Megadeth/_/Black+Curtains'
p444
S'1196981693'
p445
tp446
a(S'Placebo'
p447
S'Taste in Men'
p448
S'http://www.last.fm/music/Placebo/_/Taste+in+Men'
p449
S'1196981439'
p450
tp451
a(S'AC/DC'
p452
S'Given the Dog a Bone'
p453
S'http://www.last.fm/music/AC%2FDC/_/Given+the+Dog+a+Bone'
p454
S'1196980055'
p455
tp456
a(S'Scorpions'
p457
S'Still Loving You'
p458
S'http://www.last.fm/music/Scorpions/_/Still+Loving+You'
p459
S'1196979766'
p460
tp461
a(S'The Detroit Cobras'
p462
S'As Long As I have You'
p463
S'http://www.last.fm/music/The+Detroit+Cobras/_/As+Long+As+I+have+You'
p464
S'1196979591'
p465
tp466
a(S'Men at Work'
p467
S'Overkill'
p468
S'http://www.last.fm/music/Men+at+Work/_/Overkill'
p469
S'1196979367'
p470
tp471
a(S'Jamiroquai'
p472
S'Black Capricorn Day'
p473
S'http://www.last.fm/music/Jamiroquai/_/Black+Capricorn+Day'
p474
S'1196979027'
p475
tp476
a(S'The Rolling Stones'
p477
S'Sweet Black Angel'
p478
S'http://www.last.fm/music/The+Rolling+Stones/_/Sweet+Black+Angel'
p479
S'1196978849'
p480
tp481
a(S'Stone Temple Pilots'
p482
S'Black Again'
p483
S'http://www.last.fm/music/Stone+Temple+Pilots/_/Black+Again'
p484
S'1196978644'
p485
tp486
a(S'Men at Work'
p487
S'Land Down Under'
p488
S'http://www.last.fm/music/Men+at+Work/_/Land+Down+Under'
p489
S'1196978427'
p490
tp491
a(S'ZZ Top'
p492
S'Black Fly'
p493
S'http://www.last.fm/music/ZZ+Top/_/Black+Fly'
p494
S'1196978213'
p495
tp496
a(S'Soundgarden'
p497
S'Black Hole Sun'
p498
S'http://www.last.fm/music/Soundgarden/_/Black+Hole+Sun'
p499
S'1196977896'
p500
tp501
a(S'Pearl Jam'
p502
S'Black'
p503
S'http://www.last.fm/music/Pearl+Jam/_/Black'
p504
S'1196977552'
p505
tp506
a(S'AC/DC'
p507
S'Back in Black'
p508
S'http://www.last.fm/music/AC%2FDC/_/Back+in+Black'
p509
S'1196977027'
p510
tp511
a(S'The Toy Dolls'
p512
S"The Ashbrooke Launderette (You'll Stink... Your Clothes Shrink, Your White'll Be As Black As Ink)"
p513
S'http://www.last.fm/music/The+Toy+Dolls/_/The+Ashbrooke+Launderette+(You%27ll+Stink...+Your+Clothes+Shrink,+Your+White%27ll+Be+As+Black+As+Ink)'
p514
S'1196976817'
p515
tp516
a(S'Fall Out Boy'
p517
S'Dance, Dance'
p518
S'http://www.last.fm/music/Fall+Out+Boy/_/Dance,+Dance'
p519
S'1196976355'
p520
tp521
a(S'Alice Cooper'
p522
S'Dirty Dreams'
p523
S'http://www.last.fm/music/Alice+Cooper/_/Dirty+Dreams'
p524
S'1196900131'
p525
tp526
a(S'Velvet Revolver'
p527
S'She Mine'
p528
S'http://www.last.fm/music/Velvet+Revolver/_/She+Mine'
p529
S'1196899927'
p530
tp531
a(S'Velvet Revolver'
p532
S'Spectacle'
p533
S'http://www.last.fm/music/Velvet+Revolver/_/Spectacle'
p534
S'1196899705'
p535
tp536
a(S'Velvet Revolver'
p537
S'Just Sixteen'
p538
S'http://www.last.fm/music/Velvet+Revolver/_/Just+Sixteen'
p539
S'1196899467'
p540
tp541
a(S'Buddy Guy'
p542
S'When My Left Eye Jumps'
p543
S'http://www.last.fm/music/Buddy+Guy/_/When+My+Left+Eye+Jumps'
p544
S'1196897439'
p545
tp546
a(S'The Detroit Cobras'
p547
S'As Long As I have You'
p548
S'http://www.last.fm/music/The+Detroit+Cobras/_/As+Long+As+I+have+You'
p549
S'1196897264'
p550
tp551
a(S'Arctic Monkeys'
p552
S'Fake Tales of San Francisco'
p553
S'http://www.last.fm/music/Arctic+Monkeys/_/Fake+Tales+of+San+Francisco'
p554
S'1196896640'
p555
tp556
a(S'Scorpions'
p557
S'Rock You Like a Hurricane'
p558
S'http://www.last.fm/music/Scorpions/_/Rock+You+Like+a+Hurricane'
p559
S'1196892347'
p560
tp561
a(S'Scorpions'
p562
S'Still Loving You'
p563
S'http://www.last.fm/music/Scorpions/_/Still+Loving+You'
p564
S'1196890329'
p565
tp566
a(S'Pennywise'
p567
S'Pennywise'
p568
S'http://www.last.fm/music/Pennywise/_/Pennywise'
p569
S'1196890229'
p570
tp571
a(S'Fall Out Boy'
p572
S'Dance, Dance'
p573
S'http://www.last.fm/music/Fall+Out+Boy/_/Dance,+Dance'
p574
S'1196890049'
p575
tp576
a(S'Fall Out Boy'
p577
S'Dance, Dance'
p578
S'http://www.last.fm/music/Fall+Out+Boy/_/Dance,+Dance'
p579
S'1196732657'
p580
tp581
a(S'New Model Army'
p582
S'51st State'
p583
S'http://www.last.fm/music/New+Model+Army/_/51st+State'
p584
S'1196732502'
p585
tp586
a(S'Midnight Oil'
p587
S'Blue Sky Mine'
p588
S'http://www.last.fm/music/Midnight+Oil/_/Blue+Sky+Mine'
p589
S'1196732243'
p590
tp591
a(S'AC/DC'
p592
S'Soul Stripper'
p593
S'http://www.last.fm/music/AC%2FDC/_/Soul+Stripper'
p594
S'1196731858'
p595
tp596
a(S'R.E.M.'
p597
S"What's the Frequency, Kenneth?"
p598
S'http://www.last.fm/music/R.E.M./_/What%27s+the+Frequency,+Kenneth%3F'
p599
S'1196731616'
p600
tp601
a(S'L7'
p602
S'Monster'
p603
S'http://www.last.fm/music/L7/_/Monster'
p604
S'1196731440'
p605
tp606
a(S'John Lee Hooker'
p607
S'The Healer'
p608
S'http://www.last.fm/music/John+Lee+Hooker/_/The+Healer'
p609
S'1196731099'
p610
tp611
a(S'Misfits'
p612
S'Dust To Dust'
p613
S'http://www.last.fm/music/Misfits/_/Dust+To+Dust'
p614
S'1196730935'
p615
tp616
a(S'Metallica'
p617
S'Disposable Heroes'
p618
S'http://www.last.fm/music/Metallica/_/Disposable+Heroes'
p619
S'1196730439'
p620
tp621
a(S'Melvins'
p622
S'Revolve'
p623
S'http://www.last.fm/music/Melvins/_/Revolve'
p624
S'1196730154'
p625
tp626
a(S'Megadeth'
p627
S'Black Curtains'
p628
S'http://www.last.fm/music/Megadeth/_/Black+Curtains'
p629
S'1196729935'
p630
tp631
a(S'Maximilliam'
p632
S'Rock Maximilliam'
p633
S'http://www.last.fm/music/Maximilliam/_/Rock+Maximilliam'
p634
S'1196729797'
p635
tp636
a(S'Maroon 5'
p637
S'The Sun'
p638
S'http://www.last.fm/music/Maroon+5/_/The+Sun'
p639
S'1196729545'
p640
tp641
a(S"Guns N' Roses"
p642
S'Mr. Brownstone'
p643
S'http://www.last.fm/music/Guns+N%27+Roses/_/Mr.+Brownstone'
p644
S'1196729316'
p645
tp646
a(S'Metallica'
p647
S'Breadfan'
p648
S'http://www.last.fm/music/Metallica/_/Breadfan'
p649
S'1196728974'
p650
tp651
a(S'Live'
p652
S'Waterboy'
p653
S'http://www.last.fm/music/Live/_/Waterboy'
p654
S'1196728786'
p655
tp656
a(S'Journey'
p657
S"Don't Stop Believin'"
p658
S'http://www.last.fm/music/Journey/_/Don%27t+Stop+Believin%27'
p659
S'1196728536'
p660
tp661
a(S'Live'
p662
S'Mirror Song'
p663
S'http://www.last.fm/music/Live/_/Mirror+Song'
p664
S'1196728317'
p665
tp666
a(S'Mr. Mister'
p667
S'Broken Wings'
p668
S'http://www.last.fm/music/Mr.+Mister/_/Broken+Wings'
p669
S'1196727984'
p670
tp671
a(S'Judas Priest'
p672
S'Breaking the Law'
p673
S'http://www.last.fm/music/Judas+Priest/_/Breaking+the+Law'
p674
S'1196727827'
p675
tp676
a(S'Maroon 5'
p677
S'Through With You'
p678
S'http://www.last.fm/music/Maroon+5/_/Through+With+You'
p679
S'1196727645'
p680
tp681
a(S'Live'
p682
S'Mother Earth Is A Vicious Crowd'
p683
S'http://www.last.fm/music/Live/_/Mother+Earth+Is+A+Vicious+Crowd'
p684
S'1196727395'
p685
tp686
a(S'Megadeth'
p687
S'Architecture of Aggression'
p688
S'http://www.last.fm/music/Megadeth/_/Architecture+of+Aggression'
p689
S'1196727175'
p690
tp691
a(S'Queens of the Stone Age'
p692
S'Little Sister'
p693
S'http://www.last.fm/music/Queens+of+the+Stone+Age/_/Little+Sister'
p694
S'1196725679'
p695
tp696
a(S"Guns N' Roses"
p697
S'Nightrain'
p698
S'http://www.last.fm/music/Guns+N%27+Roses/_/Nightrain'
p699
S'1196725411'
p700
tp701
a(S'Iron Maiden'
p702
S'The Loneliness of the Long Distance Runner'
p703
S'http://www.last.fm/music/Iron+Maiden/_/The+Loneliness+of+the+Long+Distance+Runner'
p704
S'1196725024'
p705
tp706
a(S'Queen'
p707
S'Sheer Heart Attack'
p708
S'http://www.last.fm/music/Queen/_/Sheer+Heart+Attack'
p709
S'1196724817'
p710
tp711
a(S'Alphaville'
p712
S'Forever Young'
p713
S'http://www.last.fm/music/Alphaville/_/Forever+Young'
p714
S'1196724587'
p715
tp716
a(S'Audioslave'
p717
S'Light My Way'
p718
S'http://www.last.fm/music/Audioslave/_/Light+My+Way'
p719
S'1196724283'
p720
tp721
a(S'Queens of the Stone Age'
p722
S'Quick and to the Pointless'
p723
S'http://www.last.fm/music/Queens+of+the+Stone+Age/_/Quick+and+to+the+Pointless'
p724
S'1196724181'
p725
tp726
a(S"Guns N' Roses"
p727
S"It's So Easy"
p728
S'http://www.last.fm/music/Guns+N%27+Roses/_/It%27s+So+Easy'
p729
S'1196723978'
p730
tp731
a(S'Heart'
p732
S'If Looks Could Kill'
p733
S'http://www.last.fm/music/Heart/_/If+Looks+Could+Kill'
p734
S'1196723758'
p735
tp736
a(S'Iron Maiden'
p737
S'Wrathchild'
p738
S'http://www.last.fm/music/Iron+Maiden/_/Wrathchild'
p739
S'1196723582'
p740
tp741
a(S'Iron Maiden'
p742
S'The Ides Of March'
p743
S'http://www.last.fm/music/Iron+Maiden/_/The+Ides+Of+March'
p744
S'1196723434'
p745
tp746
a(S'Fall Out Boy'
p747
S'Grenade Jumper'
p748
S'http://www.last.fm/music/Fall+Out+Boy/_/Grenade+Jumper'
p749
S'1196723255'
p750
tp751
a(S'Fall Out Boy'
p752
S'You Charlatan'
p753
S'http://www.last.fm/music/Fall+Out+Boy/_/You+Charlatan'
p754
S'1196723065'
p755
tp756
a(S'Deep Blue Something'
p757
S"Breakfast at Tiffany's"
p758
S'http://www.last.fm/music/Deep+Blue+Something/_/Breakfast+at+Tiffany%27s'
p759
S'1196722811'
p760
tp761
a(S'The Detroit Cobras'
p762
S'As Long As I have You'
p763
S'http://www.last.fm/music/The+Detroit+Cobras/_/As+Long+As+I+have+You'
p764
S'1196717121'
p765
tp766
a(S'The Detroit Cobras'
p767
S'As Long As I have You'
p768
S'http://www.last.fm/music/The+Detroit+Cobras/_/As+Long+As+I+have+You'
p769
S'1196716916'
p770
tp771
a(S'Fall Out Boy'
p772
S'Dance, Dance'
p773
S'http://www.last.fm/music/Fall+Out+Boy/_/Dance,+Dance'
p774
S'1196716735'
p775
tp776
a(S'Scorpions'
p777
S'Rock You Like a Hurricane'
p778
S'http://www.last.fm/music/Scorpions/_/Rock+You+Like+a+Hurricane'
p779
S'1196716483'
p780
tp781
a(S'The Rolling Stones'
p782
S'Almost Hear You Sigh'
p783
S'http://www.last.fm/music/The+Rolling+Stones/_/Almost+Hear+You+Sigh'
p784
S'1196639057'
p785
tp786
a(S'Iron Maiden'
p787
S'Be Quick or Be Dead'
p788
S'http://www.last.fm/music/Iron+Maiden/_/Be+Quick+or+Be+Dead'
p789
S'1196638860'
p790
tp791
a(S'John Hiatt'
p792
S'Gone'
p793
S'http://www.last.fm/music/John+Hiatt/_/Gone'
p794
S'1196638683'
p795
tp796
a(S'Live'
p797
S'Iris'
p798
S'http://www.last.fm/music/Live/_/Iris'
p799
S'1196638444'
p800
tp801
a(S'Soundgarden'
p802
S'Jesus Christ Pose'
p803
S'http://www.last.fm/music/Soundgarden/_/Jesus+Christ+Pose'
p804
S'1196637258'
p805
tp806
a(S'The Detroit Cobras'
p807
S'As Long As I have You'
p808
S'http://www.last.fm/music/The+Detroit+Cobras/_/As+Long+As+I+have+You'
p809
S'1196637083'
p810
tp811
a(S'George Michael'
p812
S'Careless Whisper'
p813
S'http://www.last.fm/music/George+Michael/_/Careless+Whisper'
p814
S'1196636780'
p815
tp816
a(S'Fall Out Boy'
p817
S'Dance, Dance'
p818
S'http://www.last.fm/music/Fall+Out+Boy/_/Dance,+Dance'
p819
S'1196636590'
p820
tp821
a(S'Fall Out Boy'
p822
S'Dance, Dance'
p823
S'http://www.last.fm/music/Fall+Out+Boy/_/Dance,+Dance'
p824
S'1196636235'
p825
tp826
a(S'The Detroit Cobras'
p827
S'As Long As I have You'
p828
S'http://www.last.fm/music/The+Detroit+Cobras/_/As+Long+As+I+have+You'
p829
S'1196636061'
p830
tp831
a(S'Kaiser Chiefs'
p832
S'Everything Is Average Nowadays'
p833
S'http://www.last.fm/music/Kaiser+Chiefs/_/Everything+Is+Average+Nowadays'
p834
S'1196635900'
p835
tp836
a(S'Misfits'
p837
S'Dust To Dust'
p838
S'http://www.last.fm/music/Misfits/_/Dust+To+Dust'
p839
S'1196619908'
p840
tp841
a(S'Ramones'
p842
S'Blitzkrieg Bop'
p843
S'http://www.last.fm/music/Ramones/_/Blitzkrieg+Bop'
p844
S'1196619764'
p845
tp846
a(S'Megadeth'
p847
S"I Ain't Superstitious"
p848
S'http://www.last.fm/music/Megadeth/_/I+Ain%27t+Superstitious'
p849
S'1196619598'
p850
tp851
a(S'Deep Blue Something'
p852
S"Breakfast at Tiffany's"
p853
S'http://www.last.fm/music/Deep+Blue+Something/_/Breakfast+at+Tiffany%27s'
p854
S'1196619344'
p855
tp856
a(S'The Detroit Cobras'
p857
S'As Long As I have You'
p858
S'http://www.last.fm/music/The+Detroit+Cobras/_/As+Long+As+I+have+You'
p859
S'1196619170'
p860
tp861
a(S'The Detroit Cobras'
p862
S'As Long As I have You'
p863
S'http://www.last.fm/music/The+Detroit+Cobras/_/As+Long+As+I+have+You'
p864
S'1196612445'
p865
tp866
a(S'Scorpions'
p867
S'Rock You Like a Hurricane'
p868
S'http://www.last.fm/music/Scorpions/_/Rock+You+Like+a+Hurricane'
p869
S'1196612192'
p870
tp871
a(S'Midnight Oil'
p872
S'King Of The Mountain'
p873
S'http://www.last.fm/music/Midnight+Oil/_/King+Of+The+Mountain'
p874
S'1196609732'
p875
tp876
a(S'MFL'
p877
S'nes8bitfucker'
p878
S'http://www.last.fm/music/MFL/_/nes8bitfucker'
p879
S'1196609618'
p880
tp881
a(S'Misfits'
p882
S'Blacklight'
p883
S'http://www.last.fm/music/Misfits/_/Blacklight'
p884
S'1196609530'
p885
tp886
a(S'Live'
p887
S'Waitress'
p888
S'http://www.last.fm/music/Live/_/Waitress'
p889
S'1196609361'
p890
tp891
a(S'Santana'
p892
S'Migra'
p893
S'http://www.last.fm/music/Santana/_/Migra'
p894
S'1196609032'
p895
tp896
a(S'Santana'
p897
S'Wishing It Was (feat. Eagle-Eye Cherry)'
p898
S'http://www.last.fm/music/Santana/_/Wishing+It+Was+(feat.+Eagle-Eye+Cherry)'
p899
S'1196608739'
p900
tp901
a(S'Santana'
p902
S'America (Featuring P.O.D.)'
p903
S'http://www.last.fm/music/Santana/_/America+(Featuring+P.O.D.)'
p904
S'1196608464'
p905
tp906
a(S'Panic! at the Disco'
p907
S'Time to Dance'
p908
S'http://www.last.fm/music/Panic!+at+the+Disco/_/Time+to+Dance'
p909
S'1196608262'
p910
tp911
a(S'Fall Out Boy'
p912
S'Dance, Dance'
p913
S'http://www.last.fm/music/Fall+Out+Boy/_/Dance,+Dance'
p914
S'1196608082'
p915
tp916
a(S'Kaiser Chiefs'
p917
S'Everything Is Average Nowadays'
p918
S'http://www.last.fm/music/Kaiser+Chiefs/_/Everything+Is+Average+Nowadays'
p919
S'1196607920'
p920
tp921
a(S'Deep Blue Something'
p922
S"Breakfast at Tiffany's"
p923
S'http://www.last.fm/music/Deep+Blue+Something/_/Breakfast+at+Tiffany%27s'
p924
S'1196607665'
p925
tp926
a(S'Metallica'
p927
S'Stone Cold Crazy'
p928
S'http://www.last.fm/music/Metallica/_/Stone+Cold+Crazy'
p929
S'1196607528'
p930
tp931
a(S'Stone Temple Pilots'
p932
S'Seven Caged Tigers'
p933
S'http://www.last.fm/music/Stone+Temple+Pilots/_/Seven+Caged+Tigers'
p934
S'1196607271'
p935
tp936
a(S'Queens of the Stone Age'
p937
S'God Is in the Radio'
p938
S'http://www.last.fm/music/Queens+of+the+Stone+Age/_/God+Is+in+the+Radio'
p939
S'1196606906'
p940
tp941
a(S'Queens of the Stone Age'
p942
S'Quick and to the Pointless'
p943
S'http://www.last.fm/music/Queens+of+the+Stone+Age/_/Quick+and+to+the+Pointless'
p944
S'1196606804'
p945
tp946
a(S'Queens of the Stone Age'
p947
S'Everybody Knows That You Are Insane'
p948
S'http://www.last.fm/music/Queens+of+the+Stone+Age/_/Everybody+Knows+That+You+Are+Insane'
p949
S'1196606549'
p950
tp951
a(S'Queens of the Stone Age'
p952
S'Make It Wit Chu'
p953
S'http://www.last.fm/music/Queens+of+the+Stone+Age/_/Make+It+Wit+Chu'
p954
S'1196606259'
p955
tp956
a(S'The Detroit Cobras'
p957
S'As Long As I have You'
p958
S'http://www.last.fm/music/The+Detroit+Cobras/_/As+Long+As+I+have+You'
p959
S'1196606084'
p960
tp961
a(S'Audioslave'
p962
S'Sound Of A Gun'
p963
S'http://www.last.fm/music/Audioslave/_/Sound+Of+A+Gun'
p964
S'1196605814'
p965
tp966
a(S'Scorpions'
p967
S'Rock You Like a Hurricane'
p968
S'http://www.last.fm/music/Scorpions/_/Rock+You+Like+a+Hurricane'
p969
S'1196605563'
p970
tp971
a(S'NOFX'
p972
S'Last Caress'
p973
S'http://www.last.fm/music/NOFX/_/Last+Caress'
p974
S'1196604947'
p975
tp976
a(S'Linkin Park'
p977
S'My December'
p978
S'http://www.last.fm/music/Linkin+Park/_/My+December'
p979
S'1196604733'
p980
tp981
a(S'Foo Fighters'
p982
S'Big Me'
p983
S'http://www.last.fm/music/Foo+Fighters/_/Big+Me'
p984
S'1196604600'
p985
tp986
a(S'Foo Fighters'
p987
S'Weenie Beenie'
p988
S'http://www.last.fm/music/Foo+Fighters/_/Weenie+Beenie'
p989
S'1196604434'
p990
tp991
a(S'The Cult'
p992
S'Wild Flower'
p993
S'http://www.last.fm/music/The+Cult/_/Wild+Flower'
p994
S'1196604219'
p995
tp996
a(S'The Detroit Cobras'
p997
S'As Long As I have You'
p998
S'http://www.last.fm/music/The+Detroit+Cobras/_/As+Long+As+I+have+You'
p999
S'1196604044'
p1000
tp1001
a.