(lp1
(S'Megadeth'
p2
S'Killing Is My Business... and Business Is Good!'
p3
S'http://www.last.fm/music/Megadeth/_/Killing+Is+My+Business...+and+Business+Is+Good!'
p4
S'1240403078'
p5
tp6
a(S'Megadeth'
p7
S'Diadems'
p8
S'http://www.last.fm/music/Megadeth/_/Diadems'
p9
S'1240402842'
p10
tp11
a(S'Megadeth'
p12
S'A Secret Place'
p13
S'http://www.last.fm/music/Megadeth/_/A+Secret+Place'
p14
S'1240402517'
p15
tp16
a(S'Megadeth'
p17
S'The Disintegrators'
p18
S'http://www.last.fm/music/Megadeth/_/The+Disintegrators'
p19
S'1240402333'
p20
tp21
a(S'Megadeth'
p22
S'Symphony of Destruction'
p23
S'http://www.last.fm/music/Megadeth/_/Symphony+of+Destruction'
p24
S'1240402092'
p25
tp26
a(S'Jamiroquai'
p27
S'Corner of the Earth'
p28
S'http://www.last.fm/music/Jamiroquai/_/Corner+of+the+Earth'
p29
S'1240401812'
p30
tp31
a(S'Jamiroquai'
p32
S'You Give Me Something'
p33
S'http://www.last.fm/music/Jamiroquai/_/You+Give+Me+Something'
p34
S'1240401606'
p35
tp36
a(S'Jamiroquai'
p37
S'Little L'
p38
S'http://www.last.fm/music/Jamiroquai/_/Little+L'
p39
S'1240401309'
p40
tp41
a(S'Jamiroquai'
p42
S'Starchild'
p43
S'http://www.last.fm/music/Jamiroquai/_/Starchild'
p44
S'1240400975'
p45
tp46
a(S'Jamiroquai'
p47
S'Electric Mistress'
p48
S'http://www.last.fm/music/Jamiroquai/_/Electric+Mistress'
p49
S'1240400741'
p50
tp51
a(S'Jamiroquai'
p52
S'Seven Days in Sunny June'
p53
S'http://www.last.fm/music/Jamiroquai/_/Seven+Days+in+Sunny+June'
p54
S'1240400503'
p55
tp56
a(S'Jamiroquai'
p57
S'Dynamite'
p58
S'http://www.last.fm/music/Jamiroquai/_/Dynamite'
p59
S'1240400209'
p60
tp61
a(S'Soundgarden'
p62
S'Room a Thousand Years Wide'
p63
S'http://www.last.fm/music/Soundgarden/_/Room+a+Thousand+Years+Wide'
p64
S'1239908197'
p65
tp66
a(S'Soundgarden'
p67
S'Searching With My Good Eye Closed'
p68
S'http://www.last.fm/music/Soundgarden/_/Searching+With+My+Good+Eye+Closed'
p69
S'1239907806'
p70
tp71
a(S'Soundgarden'
p72
S'Holy Water'
p73
S'http://www.last.fm/music/Soundgarden/_/Holy+Water'
p74
S'1239907391'
p75
tp76
a(S'Soundgarden'
p77
S'Drawing Flies'
p78
S'http://www.last.fm/music/Soundgarden/_/Drawing+Flies'
p79
S'1239907245'
p80
tp81
a(S'Soundgarden'
p82
S'Mind Riot'
p83
S'http://www.last.fm/music/Soundgarden/_/Mind+Riot'
p84
S'1239906955'
p85
tp86
a(S'Pantera'
p87
S'Clash With Reality'
p88
S'http://www.last.fm/music/Pantera/_/Clash+With+Reality'
p89
S'1239906788'
p90
tp91
a(S'Pantera'
p92
S'Shattered'
p93
S'http://www.last.fm/music/Pantera/_/Shattered'
p94
S'1239906586'
p95
tp96
a(S'Pantera'
p97
S'A New Level'
p98
S'http://www.last.fm/music/Pantera/_/A+New+Level'
p99
S'1239906363'
p100
tp101
a(S'Pantera'
p102
S'Mouth for War'
p103
S'http://www.last.fm/music/Pantera/_/Mouth+for+War'
p104
S'1239906126'
p105
tp106
a(S'Pantera'
p107
S'The Art of Shredding'
p108
S'http://www.last.fm/music/Pantera/_/The+Art+of+Shredding'
p109
S'1239905866'
p110
tp111
a(S'Pantera'
p112
S'Mouth for War'
p113
S'http://www.last.fm/music/Pantera/_/Mouth+for+War'
p114
S'1239905621'
p115
tp116
a(S'Megadeth'
p117
S'Family Tree'
p118
S'http://www.last.fm/music/Megadeth/_/Family+Tree'
p119
S'1239905386'
p120
tp121
a(S'Megadeth'
p122
S'Blood of Heroes'
p123
S'http://www.last.fm/music/Megadeth/_/Blood+of+Heroes'
p124
S'1239905148'
p125
tp126
a(S'Megadeth'
p127
S'The Killing Road'
p128
S'http://www.last.fm/music/Megadeth/_/The+Killing+Road'
p129
S'1239904911'
p130
tp131
a(S'Megadeth'
p132
S'Elysian Fields'
p133
S'http://www.last.fm/music/Megadeth/_/Elysian+Fields'
p134
S'1239904667'
p135
tp136
a(S'Megadeth'
p137
S'A Tout le Monde'
p138
S'http://www.last.fm/music/Megadeth/_/A+Tout+le+Monde'
p139
S'1239904399'
p140
tp141
a(S'Megadeth'
p142
S'Addicted to Chaos'
p143
S'http://www.last.fm/music/Megadeth/_/Addicted+to+Chaos'
p144
S'1239904073'
p145
tp146
a(S'Megadeth'
p147
S'Train of Consequences'
p148
S'http://www.last.fm/music/Megadeth/_/Train+of+Consequences'
p149
S'1239903867'
p150
tp151
a(S'Megadeth'
p152
S'Reckoning Day'
p153
S'http://www.last.fm/music/Megadeth/_/Reckoning+Day'
p154
S'1239903591'
p155
tp156
a(S'Jamiroquai'
p157
S'Love Foolosophy'
p158
S'http://www.last.fm/music/Jamiroquai/_/Love+Foolosophy'
p159
S'1239893888'
p160
tp161
a(S'Jamiroquai'
p162
S'Corner of the Earth'
p163
S'http://www.last.fm/music/Jamiroquai/_/Corner+of+the+Earth'
p164
S'1239893276'
p165
tp166
a(S'Jamiroquai'
p167
S'You Give Me Something'
p168
S'http://www.last.fm/music/Jamiroquai/_/You+Give+Me+Something'
p169
S'1239893070'
p170
tp171
a(S'Jamiroquai'
p172
S'Little L'
p173
S'http://www.last.fm/music/Jamiroquai/_/Little+L'
p174
S'1239892773'
p175
tp176
a(S'Jamiroquai'
p177
S'Starchild'
p178
S'http://www.last.fm/music/Jamiroquai/_/Starchild'
p179
S'1239892436'
p180
tp181
a(S'Jamiroquai'
p182
S'Electric Mistress'
p183
S'http://www.last.fm/music/Jamiroquai/_/Electric+Mistress'
p184
S'1239892202'
p185
tp186
a(S'Jamiroquai'
p187
S'Seven Days in Sunny June'
p188
S'http://www.last.fm/music/Jamiroquai/_/Seven+Days+in+Sunny+June'
p189
S'1239891964'
p190
tp191
a(S'Jamiroquai'
p192
S'Dynamite'
p193
S'http://www.last.fm/music/Jamiroquai/_/Dynamite'
p194
S'1239891669'
p195
tp196
a(S'The Bar-Kays'
p197
S'Too Hot To Stop'
p198
S'http://www.last.fm/music/The+Bar-Kays/_/Too+Hot+To+Stop'
p199
S'1239891246'
p200
tp201
a(S'Alice Cooper'
p202
S'Bed of Nails'
p203
S'http://www.last.fm/music/Alice+Cooper/_/Bed+of+Nails'
p204
S'1239890993'
p205
tp206
a(S'Jerry Cantrell'
p207
S'Keep The Light On'
p208
S'http://www.last.fm/music/Jerry+Cantrell/_/Keep+The+Light+On'
p209
S'1239826797'
p210
tp211
a(S'Jerry Cantrell'
p212
S'Devil By His Side'
p213
S'http://www.last.fm/music/Jerry+Cantrell/_/Devil+By+His+Side'
p214
S'1239826507'
p215
tp216
a(S'Jerry Cantrell'
p217
S'Jesus Hands'
p218
S'http://www.last.fm/music/Jerry+Cantrell/_/Jesus+Hands'
p219
S'1239826171'
p220
tp221
a(S'Jerry Cantrell'
p222
S'Breaks My Back'
p223
S'http://www.last.fm/music/Jerry+Cantrell/_/Breaks+My+Back'
p224
S'1239825746'
p225
tp226
a(S'Jerry Cantrell'
p227
S'Settling Down'
p228
S'http://www.last.fm/music/Jerry+Cantrell/_/Settling+Down'
p229
S'1239825376'
p230
tp231
a(S'Jerry Cantrell'
p232
S'My Song'
p233
S'http://www.last.fm/music/Jerry+Cantrell/_/My+Song'
p234
S'1239825130'
p235
tp236
a(S'Jerry Cantrell'
p237
S'Dickeye'
p238
S'http://www.last.fm/music/Jerry+Cantrell/_/Dickeye'
p239
S'1239824821'
p240
tp241
a(S'Metallica'
p242
S'Broken, Beat And Scarred'
p243
S'http://www.last.fm/music/Metallica/_/Broken,+Beat+And+Scarred'
p244
S'1239824195'
p245
tp246
a(S'Metallica'
p247
S'The End of the Line'
p248
S'http://www.last.fm/music/Metallica/_/The+End+of+the+Line'
p249
S'1239823722'
p250
tp251
a(S'Metallica'
p252
S'That Was Just Your Life'
p253
S'http://www.last.fm/music/Metallica/_/That+Was+Just+Your+Life'
p254
S'1239823294'
p255
tp256
a(S'Megadeth'
p257
S'Victory'
p258
S'http://www.last.fm/music/Megadeth/_/Victory'
p259
S'1239823027'
p260
tp261
a(S'Megadeth'
p262
S'Black Curtains'
p263
S'http://www.last.fm/music/Megadeth/_/Black+Curtains'
p264
S'1239822808'
p265
tp266
a(S'Megadeth'
p267
S'I Thought I Knew It All'
p268
S'http://www.last.fm/music/Megadeth/_/I+Thought+I+Knew+It+All'
p269
S'1239822583'
p270
tp271
a(S'Megadeth'
p272
S'Youthanasia'
p273
S'http://www.last.fm/music/Megadeth/_/Youthanasia'
p274
S'1239822334'
p275
tp276
a(S'Megadeth'
p277
S'Family Tree'
p278
S'http://www.last.fm/music/Megadeth/_/Family+Tree'
p279
S'1239822086'
p280
tp281
a(S'Megadeth'
p282
S'Blood of Heroes'
p283
S'http://www.last.fm/music/Megadeth/_/Blood+of+Heroes'
p284
S'1239821849'
p285
tp286
a(S'Megadeth'
p287
S'The Killing Road'
p288
S'http://www.last.fm/music/Megadeth/_/The+Killing+Road'
p289
S'1239821611'
p290
tp291
a(S'Megadeth'
p292
S'Elysian Fields'
p293
S'http://www.last.fm/music/Megadeth/_/Elysian+Fields'
p294
S'1239821368'
p295
tp296
a(S'Megadeth'
p297
S'A Tout le Monde'
p298
S'http://www.last.fm/music/Megadeth/_/A+Tout+le+Monde'
p299
S'1239821100'
p300
tp301
a(S'Megadeth'
p302
S'Addicted to Chaos'
p303
S'http://www.last.fm/music/Megadeth/_/Addicted+to+Chaos'
p304
S'1239820773'
p305
tp306
a(S'Megadeth'
p307
S'Train of Consequences'
p308
S'http://www.last.fm/music/Megadeth/_/Train+of+Consequences'
p309
S'1239820567'
p310
tp311
a(S'Megadeth'
p312
S'Reckoning Day'
p313
S'http://www.last.fm/music/Megadeth/_/Reckoning+Day'
p314
S'1239820292'
p315
tp316
a(S'Metallica'
p317
S'Cure'
p318
S'http://www.last.fm/music/Metallica/_/Cure'
p319
S'1239819958'
p320
tp321
a(S'Metallica'
p322
S'King Nothing'
p323
S'http://www.last.fm/music/Metallica/_/King+Nothing'
p324
S'1239819607'
p325
tp326
a(S'Metallica'
p327
S'Until It Sleeps'
p328
S'http://www.last.fm/music/Metallica/_/Until+It+Sleeps'
p329
S'1239819336'
p330
tp331
a(S'Metallica'
p332
S'The House Jack Built'
p333
S'http://www.last.fm/music/Metallica/_/The+House+Jack+Built'
p334
S'1239818935'
p335
tp336
a(S'Metallica'
p337
S'2 X 4'
p338
S'http://www.last.fm/music/Metallica/_/2+X+4'
p339
S'1239818604'
p340
tp341
a(S'Metallica'
p342
S"Ain't My Bitch"
p343
S'http://www.last.fm/music/Metallica/_/Ain%27t+My+Bitch'
p344
S'1239818298'
p345
tp346
a(S'Ozzy Osbourne'
p347
S'Black Rain'
p348
S'http://www.last.fm/music/Ozzy+Osbourne/_/Black+Rain'
p349
S'1239806322'
p350
tp351
a(S'Ozzy Osbourne'
p352
S"I Don't Wanna Stop"
p353
S'http://www.last.fm/music/Ozzy+Osbourne/_/I+Don%27t+Wanna+Stop'
p354
S'1239806083'
p355
tp356
a(S'Pantera'
p357
S'Psycho Holiday'
p358
S'http://www.last.fm/music/Pantera/_/Psycho+Holiday'
p359
S'1239805823'
p360
tp361
a(S'Pantera'
p362
S'Primal Concrete Sledge'
p363
S'http://www.last.fm/music/Pantera/_/Primal+Concrete+Sledge'
p364
S'1239805690'
p365
tp366
a(S'Pantera'
p367
S'Cowboys from Hell'
p368
S'http://www.last.fm/music/Pantera/_/Cowboys+from+Hell'
p369
S'1239805443'
p370
tp371
a(S'Megadeth'
p372
S'Addicted to Chaos'
p373
S'http://www.last.fm/music/Megadeth/_/Addicted+to+Chaos'
p374
S'1239313073'
p375
tp376
a(S'Megadeth'
p377
S'Train of Consequences'
p378
S'http://www.last.fm/music/Megadeth/_/Train+of+Consequences'
p379
S'1239312867'
p380
tp381
a(S'Megadeth'
p382
S'Reckoning Day'
p383
S'http://www.last.fm/music/Megadeth/_/Reckoning+Day'
p384
S'1239312592'
p385
tp386
a(S'Megadeth'
p387
S'Killing Is My Business... and Business Is Good!'
p388
S'http://www.last.fm/music/Megadeth/_/Killing+Is+My+Business...+and+Business+Is+Good!'
p389
S'1239311717'
p390
tp391
a(S'The Bar-Kays'
p392
S'Too Hot To Stop'
p393
S'http://www.last.fm/music/The+Bar-Kays/_/Too+Hot+To+Stop'
p394
S'1239310860'
p395
tp396
a(S'Megadeth'
p397
S'Victory'
p398
S'http://www.last.fm/music/Megadeth/_/Victory'
p399
S'1239310527'
p400
tp401
a(S'Megadeth'
p402
S'Black Curtains'
p403
S'http://www.last.fm/music/Megadeth/_/Black+Curtains'
p404
S'1239310308'
p405
tp406
a(S'Megadeth'
p407
S'I Thought I Knew It All'
p408
S'http://www.last.fm/music/Megadeth/_/I+Thought+I+Knew+It+All'
p409
S'1239310083'
p410
tp411
a(S'Megadeth'
p412
S'Youthanasia'
p413
S'http://www.last.fm/music/Megadeth/_/Youthanasia'
p414
S'1239309833'
p415
tp416
a(S'Metallica'
p417
S'All Nightmare Long'
p418
S'http://www.last.fm/music/Metallica/_/All+Nightmare+Long'
p419
S'1239309345'
p420
tp421
a(S'Skid Row'
p422
S'Into Another'
p423
S'http://www.last.fm/music/Skid+Row/_/Into+Another'
p424
S'1239235434'
p425
tp426
a(S'The Bar-Kays'
p427
S'Shake Your Rump to the Funk'
p428
S'http://www.last.fm/music/The+Bar-Kays/_/Shake+Your+Rump+to+the+Funk'
p429
S'1239235205'
p430
tp431
a(S'The Bar-Kays'
p432
S'Spellbound'
p433
S'http://www.last.fm/music/The+Bar-Kays/_/Spellbound'
p434
S'1239234903'
p435
tp436
a(S'The Bar-Kays'
p437
S"Bang, Bang (Stick 'Em Up)"
p438
S'http://www.last.fm/music/The+Bar-Kays/_/Bang,+Bang+(Stick+%27Em+Up)'
p439
S'1239234674'
p440
tp441
a(S'The Bar-Kays'
p442
S'Cozy'
p443
S'http://www.last.fm/music/The+Bar-Kays/_/Cozy'
p444
S'1239234462'
p445
tp446
a(S'The Bar-Kays'
p447
S'Too Hot To Stop'
p448
S'http://www.last.fm/music/The+Bar-Kays/_/Too+Hot+To+Stop'
p449
S'1239234076'
p450
tp451
a(S'Soul Asylum'
p452
S'Misery'
p453
S'http://www.last.fm/music/Soul+Asylum/_/Misery'
p454
S'1238977932'
p455
tp456
a(S'Soul Asylum'
p457
S'Runaway Train'
p458
S'http://www.last.fm/music/Soul+Asylum/_/Runaway+Train'
p459
S'1238977664'
p460
tp461
a(S'Soft Cell'
p462
S'Tainted Love'
p463
S'http://www.last.fm/music/Soft+Cell/_/Tainted+Love'
p464
S'1238977502'
p465
tp466
a(S'Marillion'
p467
S'Kayleigh'
p468
S'http://www.last.fm/music/Marillion/_/Kayleigh'
p469
S'1238977256'
p470
tp471
a(S'Matchbox Twenty'
p472
S'Unwell'
p473
S'http://www.last.fm/music/Matchbox+Twenty/_/Unwell'
p474
S'1238977028'
p475
tp476
a(S'Maroon 5'
p477
S'This Love'
p478
S'http://www.last.fm/music/Maroon+5/_/This+Love'
p479
S'1238976821'
p480
tp481
a(S'Men at Work'
p482
S'Overkill'
p483
S'http://www.last.fm/music/Men+at+Work/_/Overkill'
p484
S'1238976597'
p485
tp486
a(S'Men at Work'
p487
S"It's a Mistake"
p488
S'http://www.last.fm/music/Men+at+Work/_/It%27s+a+Mistake'
p489
S'1238976323'
p490
tp491
a(S'Megadeth'
p492
S'Victory'
p493
S'http://www.last.fm/music/Megadeth/_/Victory'
p494
S'1238976056'
p495
tp496
a(S'Megadeth'
p497
S'Black Curtains'
p498
S'http://www.last.fm/music/Megadeth/_/Black+Curtains'
p499
S'1238975837'
p500
tp501
a(S'Megadeth'
p502
S'I Thought I Knew It All'
p503
S'http://www.last.fm/music/Megadeth/_/I+Thought+I+Knew+It+All'
p504
S'1238975613'
p505
tp506
a(S'Megadeth'
p507
S'The Killing Road'
p508
S'http://www.last.fm/music/Megadeth/_/The+Killing+Road'
p509
S'1238975375'
p510
tp511
a(S'Megadeth'
p512
S'Blood of Heroes'
p513
S'http://www.last.fm/music/Megadeth/_/Blood+of+Heroes'
p514
S'1238975137'
p515
tp516
a(S'Megadeth'
p517
S'Addicted to Chaos'
p518
S'http://www.last.fm/music/Megadeth/_/Addicted+to+Chaos'
p519
S'1238974811'
p520
tp521
a(S'Metallica'
p522
S'The Outlaw Torn'
p523
S'http://www.last.fm/music/Metallica/_/The+Outlaw+Torn'
p524
S'1238974223'
p525
tp526
a(S'Metallica'
p527
S'The House Jack Built'
p528
S'http://www.last.fm/music/Metallica/_/The+House+Jack+Built'
p529
S'1238973823'
p530
tp531
a(S'Metallica'
p532
S'...and Justice for All'
p533
S'http://www.last.fm/music/Metallica/_/...and+Justice+for+All'
p534
S'1238973236'
p535
tp536
a(S'Metallica'
p537
S'One'
p538
S'http://www.last.fm/music/Metallica/_/One'
p539
S'1238972791'
p540
tp541
a(S'Metallica'
p542
S'Harvester of Sorrow'
p543
S'http://www.last.fm/music/Metallica/_/Harvester+of+Sorrow'
p544
S'1238972446'
p545
tp546
a(S'Metallica'
p547
S'The God That Failed'
p548
S'http://www.last.fm/music/Metallica/_/The+God+That+Failed'
p549
S'1238972138'
p550
tp551
a(S'Metallica'
p552
S'Of Wolf and Man'
p553
S'http://www.last.fm/music/Metallica/_/Of+Wolf+and+Man'
p554
S'1238971881'
p555
tp556
a(S'Metallica'
p557
S'All Nightmare Long'
p558
S'http://www.last.fm/music/Metallica/_/All+Nightmare+Long'
p559
S'1238971404'
p560
tp561
a(S'Judas Priest'
p562
S'Living After Midnight'
p563
S'http://www.last.fm/music/Judas+Priest/_/Living+After+Midnight'
p564
S'1238971193'
p565
tp566
a(S'Judas Priest'
p567
S"You've Got Another Thing Comin'"
p568
S'http://www.last.fm/music/Judas+Priest/_/You%27ve+Got+Another+Thing+Comin%27'
p569
S'1238970883'
p570
tp571
a(S'Judas Priest'
p572
S'Pain and Pleasure'
p573
S'http://www.last.fm/music/Judas+Priest/_/Pain+and+Pleasure'
p574
S'1238970421'
p575
tp576
a(S'The Bar-Kays'
p577
S'Too Hot To Stop'
p578
S'http://www.last.fm/music/The+Bar-Kays/_/Too+Hot+To+Stop'
p579
S'1238970012'
p580
tp581
a(S'Jerry Cantrell'
p582
S'Between'
p583
S'http://www.last.fm/music/Jerry+Cantrell/_/Between'
p584
S'1238956737'
p585
tp586
a(S'Jerry Cantrell'
p587
S'Hurt A Long Time'
p588
S'http://www.last.fm/music/Jerry+Cantrell/_/Hurt+A+Long+Time'
p589
S'1238956396'
p590
tp591
a(S'Jerry Cantrell'
p592
S'Satisfy'
p593
S'http://www.last.fm/music/Jerry+Cantrell/_/Satisfy'
p594
S'1238956182'
p595
tp596
a(S'Jerry Cantrell'
p597
S'Keep The Light On'
p598
S'http://www.last.fm/music/Jerry+Cantrell/_/Keep+The+Light+On'
p599
S'1238955895'
p600
tp601
a(S'Jerry Cantrell'
p602
S'Devil By His Side'
p603
S'http://www.last.fm/music/Jerry+Cantrell/_/Devil+By+His+Side'
p604
S'1238955605'
p605
tp606
a(S'Jerry Cantrell'
p607
S'Jesus Hands'
p608
S'http://www.last.fm/music/Jerry+Cantrell/_/Jesus+Hands'
p609
S'1238955269'
p610
tp611
a(S'Jerry Cantrell'
p612
S'Breaks My Back'
p613
S'http://www.last.fm/music/Jerry+Cantrell/_/Breaks+My+Back'
p614
S'1238954844'
p615
tp616
a(S'Jennifer Hanson'
p617
S'Baby I Was Wrong'
p618
S'http://www.last.fm/music/Jennifer+Hanson/_/Baby+I+Was+Wrong'
p619
S'1238954597'
p620
tp621
a(S'Jennifer Hanson'
p622
S'Beautiful Goodbye'
p623
S'http://www.last.fm/music/Jennifer+Hanson/_/Beautiful+Goodbye'
p624
S'1238954340'
p625
tp626
a(S'Jamiroquai'
p627
S'Where Do We Go from Here?'
p628
S'http://www.last.fm/music/Jamiroquai/_/Where+Do+We+Go+from+Here%3F'
p629
S'1238953994'
p630
tp631
a(S'Jamiroquai'
p632
S'Butterfly'
p633
S'http://www.last.fm/music/Jamiroquai/_/Butterfly'
p634
S'1238953727'
p635
tp636
a(S'Jamiroquai'
p637
S'Supersonic'
p638
S'http://www.last.fm/music/Jamiroquai/_/Supersonic'
p639
S'1238950877'
p640
tp641
a(S'Jamiroquai'
p642
S'Destitute Illusions'
p643
S'http://www.last.fm/music/Jamiroquai/_/Destitute+Illusions'
p644
S'1238950538'
p645
tp646
a(S'Jamiroquai'
p647
S'Falling'
p648
S'http://www.last.fm/music/Jamiroquai/_/Falling'
p649
S'1238950314'
p650
tp651
a(S'Jamiroquai'
p652
S'Soul Education'
p653
S'http://www.last.fm/music/Jamiroquai/_/Soul+Education'
p654
S'1238950060'
p655
tp656
a(S'Jamiroquai'
p657
S'Black Capricorn Day'
p658
S'http://www.last.fm/music/Jamiroquai/_/Black+Capricorn+Day'
p659
S'1238949720'
p660
tp661
a(S'Jamiroquai'
p662
S'Planet Home'
p663
S'http://www.last.fm/music/Jamiroquai/_/Planet+Home'
p664
S'1238949437'
p665
tp666
a(S'Jamiroquai'
p667
S'Canned Heat'
p668
S'http://www.last.fm/music/Jamiroquai/_/Canned+Heat'
p669
S'1238949106'
p670
tp671
a(S'Jamiroquai'
p672
S'Supersonic'
p673
S'http://www.last.fm/music/Jamiroquai/_/Supersonic'
p674
S'1238948792'
p675
tp676
a(S'Jamiroquai'
p677
S'Falling'
p678
S'http://www.last.fm/music/Jamiroquai/_/Falling'
p679
S'1238948568'
p680
tp681
a(S'Jamiroquai'
p682
S'Starchild'
p683
S'http://www.last.fm/music/Jamiroquai/_/Starchild'
p684
S'1238948257'
p685
tp686
a(S'Jamiroquai'
p687
S'Electric Mistress'
p688
S'http://www.last.fm/music/Jamiroquai/_/Electric+Mistress'
p689
S'1238948023'
p690
tp691
a(S'Jamiroquai'
p692
S'Seven Days in Sunny June'
p693
S'http://www.last.fm/music/Jamiroquai/_/Seven+Days+in+Sunny+June'
p694
S'1238947785'
p695
tp696
a(S'Jamiroquai'
p697
S'Dynamite'
p698
S'http://www.last.fm/music/Jamiroquai/_/Dynamite'
p699
S'1238947490'
p700
tp701
a(S'Jamiroquai'
p702
S'Picture of My Life'
p703
S'http://www.last.fm/music/Jamiroquai/_/Picture+of+My+Life'
p704
S'1238947110'
p705
tp706
a(S'Jamiroquai'
p707
S'Black Crow'
p708
S'http://www.last.fm/music/Jamiroquai/_/Black+Crow'
p709
S'1238946866'
p710
tp711
a(S'Jamiroquai'
p712
S'Love Foolosophy'
p713
S'http://www.last.fm/music/Jamiroquai/_/Love+Foolosophy'
p714
S'1238946638'
p715
tp716
a(S'Jamiroquai'
p717
S'Corner of the Earth'
p718
S'http://www.last.fm/music/Jamiroquai/_/Corner+of+the+Earth'
p719
S'1238946296'
p720
tp721
a(S'Jamiroquai'
p722
S'You Give Me Something'
p723
S'http://www.last.fm/music/Jamiroquai/_/You+Give+Me+Something'
p724
S'1238946090'
p725
tp726
a(S'Jamiroquai'
p727
S'Little L'
p728
S'http://www.last.fm/music/Jamiroquai/_/Little+L'
p729
S'1238945793'
p730
tp731
a(S'Iron Maiden'
p732
S'The Clansman'
p733
S'http://www.last.fm/music/Iron+Maiden/_/The+Clansman'
p734
S'1238945220'
p735
tp736
a(S'Iron Maiden'
p737
S'Chains of Misery'
p738
S'http://www.last.fm/music/Iron+Maiden/_/Chains+of+Misery'
p739
S'1238945002'
p740
tp741
a(S"Guns N' Roses"
p742
S'Nightrain'
p743
S'http://www.last.fm/music/Guns+N%27+Roses/_/Nightrain'
p744
S'1238944734'
p745
tp746
a(S'Fuel'
p747
S'Jesus Or A Gun'
p748
S'http://www.last.fm/music/Fuel/_/Jesus+Or+A+Gun'
p749
S'1238944496'
p750
tp751
a(S'Dschinghis Khan'
p752
S'Desert Land'
p753
S'http://www.last.fm/music/Dschinghis+Khan/_/Desert+Land'
p754
S'1238944315'
p755
tp756
a(S'Dschinghis Khan'
p757
S'Genghis Khan'
p758
S'http://www.last.fm/music/Dschinghis+Khan/_/Genghis+Khan'
p759
S'1238944128'
p760
tp761
a(S'The Bar-Kays'
p762
S'Summer Of Our Love'
p763
S'http://www.last.fm/music/The+Bar-Kays/_/Summer+Of+Our+Love'
p764
S'1238943863'
p765
tp766
a(S'The Bar-Kays'
p767
S'Too Hot To Stop'
p768
S'http://www.last.fm/music/The+Bar-Kays/_/Too+Hot+To+Stop'
p769
S'1238943477'
p770
tp771
a(S'Megadeth'
p772
S'Addicted to Chaos'
p773
S'http://www.last.fm/music/Megadeth/_/Addicted+to+Chaos'
p774
S'1238761025'
p775
tp776
a(S'Jamiroquai'
p777
S'Starchild'
p778
S'http://www.last.fm/music/Jamiroquai/_/Starchild'
p779
S'1238263837'
p780
tp781
a(S'Jamiroquai'
p782
S'Electric Mistress'
p783
S'http://www.last.fm/music/Jamiroquai/_/Electric+Mistress'
p784
S'1238263603'
p785
tp786
a(S'Jamiroquai'
p787
S'Seven Days in Sunny June'
p788
S'http://www.last.fm/music/Jamiroquai/_/Seven+Days+in+Sunny+June'
p789
S'1238263365'
p790
tp791
a(S'Jamiroquai'
p792
S'Dynamite'
p793
S'http://www.last.fm/music/Jamiroquai/_/Dynamite'
p794
S'1238263070'
p795
tp796
a(S'Jamiroquai'
p797
S'Seven Days in Sunny June'
p798
S'http://www.last.fm/music/Jamiroquai/_/Seven+Days+in+Sunny+June'
p799
S'1238262832'
p800
tp801
a(S'Jamiroquai'
p802
S'Electric Mistress'
p803
S'http://www.last.fm/music/Jamiroquai/_/Electric+Mistress'
p804
S'1238262598'
p805
tp806
a(S'Jamiroquai'
p807
S'Love Foolosophy'
p808
S'http://www.last.fm/music/Jamiroquai/_/Love+Foolosophy'
p809
S'1238262371'
p810
tp811
a(S'Jamiroquai'
p812
S'Little L'
p813
S'http://www.last.fm/music/Jamiroquai/_/Little+L'
p814
S'1238262073'
p815
tp816
a(S'Jamiroquai'
p817
S'You Give Me Something'
p818
S'http://www.last.fm/music/Jamiroquai/_/You+Give+Me+Something'
p819
S'1238260677'
p820
tp821
a(S'Barry White'
p822
S"Sho' You Right"
p823
S'http://www.last.fm/music/Barry+White/_/Sho%27+You+Right'
p824
S'1238260404'
p825
tp826
a(S'Barry White'
p827
S'Let The Music Play'
p828
S'http://www.last.fm/music/Barry+White/_/Let+The+Music+Play'
p829
S'1238260193'
p830
tp831
a(S'Barry White'
p832
S'Just The Way You Are'
p833
S'http://www.last.fm/music/Barry+White/_/Just+The+Way+You+Are'
p834
S'1238259904'
p835
tp836
a(S'The Bar-Kays'
p837
S'Too Hot To Stop'
p838
S'http://www.last.fm/music/The+Bar-Kays/_/Too+Hot+To+Stop'
p839
S'1238259518'
p840
tp841
a(S'Black Sabbath'
p842
S'Spiral Architect'
p843
S'http://www.last.fm/music/Black+Sabbath/_/Spiral+Architect'
p844
S'1238258703'
p845
tp846
a(S'Black Sabbath'
p847
S'Sabbra Cadabra'
p848
S'http://www.last.fm/music/Black+Sabbath/_/Sabbra+Cadabra'
p849
S'1238258343'
p850
tp851
a(S'Black Sabbath'
p852
S'Behind the Wall of Sleep'
p853
S'http://www.last.fm/music/Black+Sabbath/_/Behind+the+Wall+of+Sleep'
p854
S'1238258126'
p855
tp856
a(S'Black Sabbath'
p857
S'The Wizard'
p858
S'http://www.last.fm/music/Black+Sabbath/_/The+Wizard'
p859
S'1238257861'
p860
tp861
a(S'Black Sabbath'
p862
S'Sabbath Bloody Sabbath'
p863
S'http://www.last.fm/music/Black+Sabbath/_/Sabbath+Bloody+Sabbath'
p864
S'1238257198'
p865
tp866
a(S'Black Sabbath'
p867
S'Get a Grip'
p868
S'http://www.last.fm/music/Black+Sabbath/_/Get+a+Grip'
p869
S'1238256959'
p870
tp871
a(S'Jamiroquai'
p872
S'Starchild'
p873
S'http://www.last.fm/music/Jamiroquai/_/Starchild'
p874
S'1238256614'
p875
tp876
a(S'Jamiroquai'
p877
S'Electric Mistress'
p878
S'http://www.last.fm/music/Jamiroquai/_/Electric+Mistress'
p879
S'1238256380'
p880
tp881
a(S'Jamiroquai'
p882
S'Starchild'
p883
S'http://www.last.fm/music/Jamiroquai/_/Starchild'
p884
S'1238256069'
p885
tp886
a(S'Jamiroquai'
p887
S'Dynamite'
p888
S'http://www.last.fm/music/Jamiroquai/_/Dynamite'
p889
S'1238255775'
p890
tp891
a(S'Jamiroquai'
p892
S'Love Foolosophy'
p893
S'http://www.last.fm/music/Jamiroquai/_/Love+Foolosophy'
p894
S'1238255547'
p895
tp896
a(S'Jamiroquai'
p897
S'Little L'
p898
S'http://www.last.fm/music/Jamiroquai/_/Little+L'
p899
S'1238255249'
p900
tp901
a(S'Jamiroquai'
p902
S'You Give Me Something'
p903
S'http://www.last.fm/music/Jamiroquai/_/You+Give+Me+Something'
p904
S'1238255044'
p905
tp906
a(S'Judas Priest'
p907
S'The Green Manalishi (With The Two-Pronged Crown)'
p908
S'http://www.last.fm/music/Judas+Priest/_/The+Green+Manalishi+(With+The+Two-Pronged+Crown)'
p909
S'1238254841'
p910
tp911
a(S'Judas Priest'
p912
S"You've Got Another Thing Comin'"
p913
S'http://www.last.fm/music/Judas+Priest/_/You%27ve+Got+Another+Thing+Comin%27'
p914
S'1238254530'
p915
tp916
a(S'Judas Priest'
p917
S'Beyond the Realms of Death'
p918
S'http://www.last.fm/music/Judas+Priest/_/Beyond+the+Realms+of+Death'
p919
S'1238254119'
p920
tp921
a(S'The Bar-Kays'
p922
S'Too Hot To Stop'
p923
S'http://www.last.fm/music/The+Bar-Kays/_/Too+Hot+To+Stop'
p924
S'1238253526'
p925
tp926
a(S'Stone Temple Pilots'
p927
S'Daisy'
p928
S'http://www.last.fm/music/Stone+Temple+Pilots/_/Daisy'
p929
S'1238182366'
p930
tp931
a(S'Stone Temple Pilots'
p932
S'Ride the Cliche'
p933
S'http://www.last.fm/music/Stone+Temple+Pilots/_/Ride+the+Cliche'
p934
S'1238182168'
p935
tp936
a(S'Stone Temple Pilots'
p937
S'Adhesive'
p938
S'http://www.last.fm/music/Stone+Temple+Pilots/_/Adhesive'
p939
S'1238181834'
p940
tp941
a(S'Stone Temple Pilots'
p942
S'Art School Girl'
p943
S'http://www.last.fm/music/Stone+Temple+Pilots/_/Art+School+Girl'
p944
S'1238181619'
p945
tp946
a(S'Stone Temple Pilots'
p947
S"Trippin' on a Hole in a Paper Heart"
p948
S'http://www.last.fm/music/Stone+Temple+Pilots/_/Trippin%27+on+a+Hole+in+a+Paper+Heart'
p949
S'1238181442'
p950
tp951
a(S'Stone Temple Pilots'
p952
S'And So I Know'
p953
S'http://www.last.fm/music/Stone+Temple+Pilots/_/And+So+I+Know'
p954
S'1238181205'
p955
tp956
a(S'Stone Temple Pilots'
p957
S'Lady Picture Show'
p958
S'http://www.last.fm/music/Stone+Temple+Pilots/_/Lady+Picture+Show'
p959
S'1238180956'
p960
tp961
a(S'Stone Temple Pilots'
p962
S'Big Bang Baby'
p963
S'http://www.last.fm/music/Stone+Temple+Pilots/_/Big+Bang+Baby'
p964
S'1238180752'
p965
tp966
a(S'Stone Temple Pilots'
p967
S'Tumble in the Rough'
p968
S'http://www.last.fm/music/Stone+Temple+Pilots/_/Tumble+in+the+Rough'
p969
S'1238180553'
p970
tp971
a(S'Stone Temple Pilots'
p972
S"Pop's Love Suicide"
p973
S'http://www.last.fm/music/Stone+Temple+Pilots/_/Pop%27s+Love+Suicide'
p974
S'1238180330'
p975
tp976
a(S'Stone Temple Pilots'
p977
S'Press Play'
p978
S'http://www.last.fm/music/Stone+Temple+Pilots/_/Press+Play'
p979
S'1238180249'
p980
tp981
a(S'Stone Temple Pilots'
p982
S'Kitchenware & Candybars'
p983
S'http://www.last.fm/music/Stone+Temple+Pilots/_/Kitchenware+&+Candybars'
p984
S'1238179763'
p985
tp986
a(S'Stone Temple Pilots'
p987
S'Army Ants'
p988
S'http://www.last.fm/music/Stone+Temple+Pilots/_/Army+Ants'
p989
S'1238179536'
p990
tp991
a(S'Stone Temple Pilots'
p992
S'"Unglued"'
p993
S'http://www.last.fm/music/Stone+Temple+Pilots/_/%22Unglued%22'
p994
S'1238179382'
p995
tp996
a(S'Stone Temple Pilots'
p997
S'Silvergun Superman'
p998
S'http://www.last.fm/music/Stone+Temple+Pilots/_/Silvergun+Superman'
p999
S'1238179043'
p1000
tp1001
a.